ccopy_reg
_reconstructor
p1
(c__main__
Recommender
p2
c__builtin__
object
p3
NtRp4
(dp5
S'mm'
p6
g1
(ccmm
Markov
p7
g3
NtRp8
(dp9
S'states'
p10
c__builtin__
set
p11
((lp12
g1
(ccmm
NoteState
p13
g3
NtRp14
(dp15
S'origin'
p16
S'T(-2)./mid\\Enya_FWIA.mid'
p17
sS'chord'
p18
S'A#/Bb'
p19
sS'bar'
p20
I4096
sS'state_duration'
p21
cdecimal
Decimal
p22
(S'0.125'
tRp23
sS'notes'
p24
(lp25
g1
(cdata
note
p26
g3
NtRp27
(dp28
S'dur'
p29
g22
(S'0.123779296875'
tRp30
sS'pos'
p31
I19968
sS'chn'
p32
I0
sS'pitch'
p33
I53
sbasS'bar_pos'
p34
g22
(S'0.875'
tRp35
sS'state_position'
p36
g22
(S'4.875'
tRp37
sbag1
(g13
g3
NtRp38
(dp39
g16
S'T(-2)./mid\\Enya_FWIA.mid'
p40
sg18
S'Cm'
p41
sg20
I4096
sg21
g22
(S'0.125'
tRp42
sg24
(lp43
g1
(g26
g3
NtRp44
(dp45
g29
g22
(S'0.123779296875'
tRp46
sg31
I3584
sg32
I0
sg33
I55
sbasg34
g22
(S'0.875'
tRp47
sg36
g22
(S'0.875'
tRp48
sbag1
(g13
g3
NtRp49
(dp50
g16
S'T(-2)./mid\\Enya_FWIA.mid'
p51
sg18
S'Cm'
p52
sg20
I4096
sg21
g22
(S'0.120361328125'
tRp53
sg24
(lp54
g1
(g26
g3
NtRp55
(dp56
g29
g22
(S'0.119140625'
tRp57
sg31
I19
sg32
I0
sg33
I48
sbasg34
g22
(S'0.004638671875'
tRp58
sg36
g22
(S'0.004638671875'
tRp59
sbag1
(g13
g3
NtRp60
(dp61
g16
S'T(-2)./mid\\Enya_FWIA.mid'
p62
sg18
S'Em'
p63
sg20
I4096
sg21
g22
(S'0.125'
tRp64
sg24
(lp65
g1
(g26
g3
NtRp66
(dp67
g29
g22
(S'0.123779296875'
tRp68
sg31
I5120
sg32
I0
sg33
I60
sbasg34
g22
(S'0.25'
tRp69
sg36
g22
(S'1.25'
tRp70
sbag1
(g13
g3
NtRp71
(dp72
g16
S'T(-2)./mid\\Enya_FWIA.mid'
p73
sg18
S'G'
sg20
I4096
sg21
g22
(S'0.125'
tRp74
sg24
(lp75
g1
(g26
g3
NtRp76
(dp77
g29
g22
(S'0.123779296875'
tRp78
sg31
I69120
sg32
I0
sg33
I60
sbasg34
g22
(S'0.875'
tRp79
sg36
g22
(S'16.875'
tRp80
sbag1
(g13
g3
NtRp81
(dp82
g16
S'T(-2)./mid\\Enya_FWIA.mid'
p83
sg18
S'Cm'
p84
sg20
I4096
sg21
g22
(S'0.125'
tRp85
sg24
(lp86
g1
(g26
g3
NtRp87
(dp88
g29
g22
(S'0.123779296875'
tRp89
sg31
I2048
sg32
I0
sg33
I48
sbasg34
g22
(S'0.5'
tRp90
sg36
g22
(S'0.5'
tRp91
sbag1
(g13
g3
NtRp92
(dp93
g16
S'T(-2)./mid\\Enya_FWIA.mid'
p94
sg18
S'F'
sg20
I4096
sg21
g22
(S'0.125'
tRp95
sg24
(lp96
g1
(g26
g3
NtRp97
(dp98
g29
g22
(S'0.248779296875'
tRp99
sg31
I27648
sg32
I0
sg33
I64
sbasg34
g22
(S'0.75'
tRp100
sg36
g22
(S'6.75'
tRp101
sbag1
(g13
g3
NtRp102
(dp103
g16
S'T(-2)./mid\\Enya_FWIA.mid'
p104
sg18
g19
sg20
I4096
sg21
g22
(S'0.125'
tRp105
sg24
(lp106
g1
(g26
g3
NtRp107
(dp108
g29
g22
(S'0.248779296875'
tRp109
sg31
I18432
sg32
I0
sg33
I63
sbasg34
g22
(S'0.5'
tRp110
sg36
g22
(S'4.5'
tRp111
sbag1
(g13
g3
NtRp112
(dp113
g16
S'T(-2)./mid\\Enya_FWIA.mid'
p114
sg18
S'F'
sg20
I4096
sg21
g22
(S'0.125'
tRp115
sg24
(lp116
g1
(g26
g3
NtRp117
(dp118
g29
g22
(S'0.123779296875'
tRp119
sg31
I26624
sg32
I0
sg33
I41
sbag1
(g26
g3
NtRp120
(dp121
g29
g22
(S'0.248779296875'
tRp122
sg31
I26624
sg32
I0
sg33
I60
sbasg34
g22
(S'0.5'
tRp123
sg36
g22
(S'6.5'
tRp124
sbag1
(g13
g3
NtRp125
(dp126
g16
S'T(-2)./mid\\Enya_FWIA.mid'
p127
sg18
S'G'
sg20
I4096
sg21
g22
(S'0.125'
tRp128
sg24
(lp129
g1
(g26
g3
NtRp130
(dp131
g29
g22
(S'0.123779296875'
tRp132
sg31
I29696
sg32
I0
sg33
I55
sbasg34
g22
(S'0.25'
tRp133
sg36
g22
(S'7.25'
tRp134
sbag1
(g13
g3
NtRp135
(dp136
g16
S'T(-2)./mid\\Enya_FWIA.mid'
p137
sg18
S'Am'
p138
sg20
I4096
sg21
g22
(S'0.125'
tRp139
sg24
(lp140
g1
(g26
g3
NtRp141
(dp142
g29
g22
(S'0.123779296875'
tRp143
sg31
I94208
sg32
I0
sg33
I45
sbag1
(g26
g3
NtRp144
(dp145
g29
g22
(S'0.498779296875'
tRp146
sg31
I94208
sg32
I0
sg33
I72
sbasg34
g22
(S'0'
tRp147
sg36
g22
(S'23'
p148
tRp149
sbag1
(g13
g3
NtRp150
(dp151
g16
S'T(-2)./mid\\Enya_FWIA.mid'
p152
sg18
S'Em'
p153
sg20
I4096
sg21
g22
(S'0.125'
tRp154
sg24
(lp155
g1
(g26
g3
NtRp156
(dp157
g29
g22
(S'0.123779296875'
tRp158
sg31
I6656
sg32
I0
sg33
I59
sbasg34
g22
(S'0.625'
tRp159
sg36
g22
(S'1.625'
tRp160
sbag1
(g13
g3
NtRp161
(dp162
g16
S'T(-2)./mid\\Enya_FWIA.mid'
p163
sg18
S'F'
sg20
I4096
sg21
g22
(S'0.125'
tRp164
sg24
(lp165
g1
(g26
g3
NtRp166
(dp167
g29
g22
(S'0.123779296875'
tRp168
sg31
I83968
sg32
I0
sg33
I53
sbasg34
g22
(S'0.5'
tRp169
sg36
g22
(S'20.5'
tRp170
sbag1
(g13
g3
NtRp171
(dp172
g16
S'T(-2)./mid\\Enya_FWIA.mid'
p173
sg18
S'C'
sg20
I4096
sg21
g22
(S'0.125'
tRp174
sg24
(lp175
g1
(g26
g3
NtRp176
(dp177
g29
g22
(S'0.123779296875'
tRp178
sg31
I89088
sg32
I0
sg33
I47
sbag1
(g26
g3
NtRp179
(dp180
g29
g22
(S'0.248779296875'
tRp181
sg31
I89088
sg32
I0
sg33
I67
sbasg34
g22
(S'0.75'
tRp182
sg36
g22
(S'21.75'
tRp183
sbag1
(g13
g3
NtRp184
(dp185
g16
S'T(-2)./mid\\Enya_FWIA.mid'
p186
sg18
S'Am'
p187
sg20
I4096
sg21
g22
(S'0.125'
tRp188
sg24
(lp189
g1
(g26
g3
NtRp190
(dp191
g29
g22
(S'0.123779296875'
tRp192
sg31
I11264
sg32
I0
sg33
I62
sbasg34
g22
(S'0.75'
tRp193
sg36
g22
(S'2.75'
tRp194
sbag1
(g13
g3
NtRp195
(dp196
g16
S'T(-2)./mid\\Enya_FWIA.mid'
p197
sg18
S'Am'
p198
sg20
I4096
sg21
g22
(S'0.125'
tRp199
sg24
(lp200
g1
(g26
g3
NtRp201
(dp202
g29
g22
(S'0.123779296875'
tRp203
sg31
I78848
sg32
I0
sg33
I69
sbasg34
g22
(S'0.25'
tRp204
sg36
g22
(S'19.25'
tRp205
sbag1
(g13
g3
NtRp206
(dp207
g16
S'T(-2)./mid\\Enya_FWIA.mid'
p208
sg18
S'C'
sg20
I4096
sg21
g22
(S'0.125'
tRp209
sg24
(lp210
g1
(g26
g3
NtRp211
(dp212
g29
g22
(S'0.123779296875'
tRp213
sg31
I15872
sg32
I0
sg33
I55
sbasg34
g22
(S'0.875'
tRp214
sg36
g22
(S'3.875'
tRp215
sbag1
(g13
g3
NtRp216
(dp217
g16
S'T(-2)./mid\\Enya_FWIA.mid'
p218
sg18
S'Em'
p219
sg20
I4096
sg21
g22
(S'0.125'
tRp220
sg24
(lp221
g1
(g26
g3
NtRp222
(dp223
g29
g22
(S'0.123779296875'
tRp224
sg31
I5632
sg32
I0
sg33
I55
sbasg34
g22
(S'0.375'
tRp225
sg36
g22
(S'1.375'
tRp226
sbag1
(g13
g3
NtRp227
(dp228
g16
S'T(-2)./mid\\Enya_FWIA.mid'
p229
sg18
S'F'
sg20
I4096
sg21
g22
(S'0.125'
tRp230
sg24
(lp231
g1
(g26
g3
NtRp232
(dp233
g29
g22
(S'0.123779296875'
tRp234
sg31
I93696
sg32
I0
sg33
I50
sbasg34
g22
(S'0.875'
tRp235
sg36
g22
(S'22.875'
tRp236
sbag1
(g13
g3
NtRp237
(dp238
g16
S'T(-2)./mid\\Enya_FWIA.mid'
p239
sg18
S'C'
sg20
I4096
sg21
g22
(S'0.125'
tRp240
sg24
(lp241
g1
(g26
g3
NtRp242
(dp243
g29
g22
(S'0.123779296875'
tRp244
sg31
I12288
sg32
I0
sg33
I48
sbag1
(g26
g3
NtRp245
(dp246
g29
g22
(S'0.998779296875'
tRp247
sg31
I12288
sg32
I0
sg33
I64
sbasg34
g22
(S'0'
tRp248
sg36
g22
(S'3'
tRp249
sbag1
(g13
g3
NtRp250
(dp251
g16
S'T(-2)./mid\\Enya_FWIA.mid'
p252
sg18
S'F'
sg20
I4096
sg21
g22
(S'0.125'
tRp253
sg24
(lp254
g1
(g26
g3
NtRp255
(dp256
g29
g22
(S'0.123779296875'
tRp257
sg31
I25600
sg32
I0
sg33
I53
sbasg34
g22
(S'0.25'
tRp258
sg36
g22
(S'6.25'
tRp259
sbag1
(g13
g3
NtRp260
(dp261
g16
S'T(-2)./mid\\Enya_FWIA.mid'
p262
sg18
S'F'
sg20
I4096
sg21
g22
(S'0.125'
tRp263
sg24
(lp264
g1
(g26
g3
NtRp265
(dp266
g29
g22
(S'0.123779296875'
tRp267
sg31
I93184
sg32
I0
sg33
I43
sbag1
(g26
g3
NtRp268
(dp269
g29
g22
(S'0.248779296875'
tRp270
sg31
I93184
sg32
I0
sg33
I71
sbasg34
g22
(S'0.75'
tRp271
sg36
g22
(S'22.75'
tRp272
sbag1
(g13
g3
NtRp273
(dp274
g16
S'T(-2)./mid\\Enya_FWIA.mid'
p275
sg18
S'Cm'
p276
sg20
I4096
sg21
g22
(S'0.125'
tRp277
sg24
(lp278
g1
(g26
g3
NtRp279
(dp280
g29
g22
(S'0.123779296875'
tRp281
sg31
I512
sg32
I0
sg33
I55
sbasg34
g22
(S'0.125'
tRp282
sg36
g22
(S'0.125'
tRp283
sbag1
(g13
g3
NtRp284
(dp285
g16
S'T(-2)./mid\\Enya_FWIA.mid'
p286
sg18
S'Cm'
p287
sg20
I4096
sg21
g22
(S'0.125'
tRp288
sg24
(lp289
g1
(g26
g3
NtRp290
(dp291
g29
g22
(S'0.123779296875'
tRp292
sg31
I1024
sg32
I0
sg33
I60
sbasg34
g22
(S'0.25'
tRp293
sg36
g22
(S'0.25'
tRp294
sbag1
(g13
g3
NtRp295
(dp296
g16
S'T(-2)./mid\\Enya_FWIA.mid'
p297
sg18
S'C'
sg20
I4096
sg21
g22
(S'0.125'
tRp298
sg24
(lp299
g1
(g26
g3
NtRp300
(dp301
g29
g22
(S'0.123779296875'
tRp302
sg31
I34816
sg32
I0
sg33
I52
sbag1
(g26
g3
NtRp303
(dp304
g29
g22
(S'0.373779296875'
tRp305
sg31
I34816
sg32
I0
sg33
I67
sbasg34
g22
(S'0.5'
tRp306
sg36
g22
(S'8.5'
tRp307
sbag1
(g13
g3
NtRp308
(dp309
g16
S'T(-2)./mid\\Enya_FWIA.mid'
p310
sg18
S'G'
sg20
I4096
sg21
g22
(S'0.125'
tRp311
sg24
(lp312
g1
(g26
g3
NtRp313
(dp314
g29
g22
(S'0.123779296875'
tRp315
sg31
I30208
sg32
I0
sg33
I50
sbasg34
g22
(S'0.375'
tRp316
sg36
g22
(S'7.375'
tRp317
sbag1
(g13
g3
NtRp318
(dp319
g16
S'T(-2)./mid\\Enya_FWIA.mid'
p320
sg18
S'F'
sg20
I4096
sg21
g22
(S'0.125'
tRp321
sg24
(lp322
g1
(g26
g3
NtRp323
(dp324
g29
g22
(S'0.123779296875'
tRp325
sg31
I74752
sg32
I0
sg33
I65
sbasg34
g22
(S'0.25'
tRp326
sg36
g22
(S'18.25'
tRp327
sbag1
(g13
g3
NtRp328
(dp329
g16
S'T(-2)./mid\\Enya_FWIA.mid'
p330
sg18
S'C'
sg20
I4096
sg21
g22
(S'0.125'
tRp331
sg24
(lp332
g1
(g26
g3
NtRp333
(dp334
g29
g22
(S'0.123779296875'
tRp335
sg31
I23552
sg32
I0
sg33
I55
sbasg34
g22
(S'0.75'
tRp336
sg36
g22
(S'5.75'
tRp337
sbag1
(g13
g3
NtRp338
(dp339
g16
S'T(-2)./mid\\Enya_FWIA.mid'
p340
sg18
S'C'
sg20
I4096
sg21
g22
(S'0.125'
tRp341
sg24
(lp342
g1
(g26
g3
NtRp343
(dp344
g29
g22
(S'0.123779296875'
tRp345
sg31
I13824
sg32
I0
sg33
I55
sbasg34
g22
(S'0.375'
tRp346
sg36
g22
(S'3.375'
tRp347
sbag1
(g13
g3
NtRp348
(dp349
g16
S'T(-2)./mid\\Enya_FWIA.mid'
p350
sg18
S'F'
sg20
I4096
sg21
g22
(S'0.125'
tRp351
sg24
(lp352
g1
(g26
g3
NtRp353
(dp354
g29
g22
(S'0.123779296875'
tRp355
sg31
I85504
sg32
I0
sg33
I60
sbasg34
g22
(S'0.875'
tRp356
sg36
g22
(S'20.875'
tRp357
sbag1
(g13
g3
NtRp358
(dp359
g16
S'T(-2)./mid\\Enya_FWIA.mid'
p360
sg18
S'F'
sg20
I4096
sg21
g22
(S'0.125'
tRp361
sg24
(lp362
g1
(g26
g3
NtRp363
(dp364
g29
g22
(S'0.123779296875'
tRp365
sg31
I27136
sg32
I0
sg33
I48
sbasg34
g22
(S'0.625'
tRp366
sg36
g22
(S'6.625'
tRp367
sbag1
(g13
g3
NtRp368
(dp369
g16
S'T(-2)./mid\\Enya_FWIA.mid'
p370
sg18
S'C'
sg20
I4096
sg21
g22
(S'0.125'
tRp371
sg24
(lp372
g1
(g26
g3
NtRp373
(dp374
g29
g22
(S'0.123779296875'
tRp375
sg31
I24064
sg32
I0
sg33
I48
sbasg34
g22
(S'0.875'
tRp376
sg36
g22
(S'5.875'
tRp377
sbag1
(g13
g3
NtRp378
(dp379
g16
S'T(-2)./mid\\Enya_FWIA.mid'
p380
sg18
S'F'
sg20
I4096
sg21
g22
(S'0.125'
tRp381
sg24
(lp382
g1
(g26
g3
NtRp383
(dp384
g29
g22
(S'0.123779296875'
tRp385
sg31
I56832
sg32
I0
sg33
I45
sbasg34
g22
(S'0.875'
tRp386
sg36
g22
(S'13.875'
tRp387
sbag1
(g13
g3
NtRp388
(dp389
g16
S'T(-2)./mid\\Enya_FWIA.mid'
p390
sg18
S'C'
sg20
I4096
sg21
g22
(S'0.998779296875'
tRp391
sg24
(lp392
g1
(g26
g3
NtRp393
(dp394
g29
g22
(S'0.998779296875'
tRp395
sg31
I155648
sg32
I0
sg33
I36
sbag1
(g26
g3
NtRp396
(dp397
g29
g22
(S'0.998779296875'
tRp398
sg31
I155648
sg32
I0
sg33
I43
sbag1
(g26
g3
NtRp399
(dp400
g29
g22
(S'0.998779296875'
tRp401
sg31
I155648
sg32
I0
sg33
I48
sbag1
(g26
g3
NtRp402
(dp403
g29
g22
(S'0.998779296875'
tRp404
sg31
I155648
sg32
I0
sg33
I52
sbag1
(g26
g3
NtRp405
(dp406
g29
g22
(S'0.998779296875'
tRp407
sg31
I155648
sg32
I0
sg33
I55
sbag1
(g26
g3
NtRp408
(dp409
g29
g22
(S'0.998779296875'
tRp410
sg31
I155648
sg32
I0
sg33
I60
sbasg34
g22
(S'0'
tRp411
sg36
g22
(S'38'
p412
tRp413
sbag1
(g13
g3
NtRp414
(dp415
g16
S'T(-2)./mid\\Enya_FWIA.mid'
p416
sg18
S'Cm'
p417
sg20
I4096
sg21
g22
(S'0.125'
tRp418
sg24
(lp419
g1
(g26
g3
NtRp420
(dp421
g29
g22
(S'0.123779296875'
tRp422
sg31
I69632
sg32
I0
sg33
I48
sbag1
(g26
g3
NtRp423
(dp424
g29
g22
(S'0.373779296875'
tRp425
sg31
I69632
sg32
I0
sg33
I60
sbasg34
g22
(S'0'
tRp426
sg36
g22
(S'17'
p427
tRp428
sbag1
(g13
g3
NtRp429
(dp430
g16
S'T(-2)./mid\\Enya_FWIA.mid'
p431
sg18
S'F'
sg20
I4096
sg21
g22
(S'0.125'
tRp432
sg24
(lp433
g1
(g26
g3
NtRp434
(dp435
g29
g22
(S'0.123779296875'
tRp436
sg31
I28160
sg32
I0
sg33
I48
sbasg34
g22
(S'0.875'
tRp437
sg36
g22
(S'6.875'
tRp438
sbag1
(g13
g3
NtRp439
(dp440
g16
S'T(-2)./mid\\Enya_FWIA.mid'
p441
sg18
S'C'
sg20
I4096
sg21
g22
(S'0.125'
tRp442
sg24
(lp443
g1
(g26
g3
NtRp444
(dp445
g29
g22
(S'0.123779296875'
tRp446
sg31
I13312
sg32
I0
sg33
I60
sbasg34
g22
(S'0.25'
tRp447
sg36
g22
(S'3.25'
tRp448
sbag1
(g13
g3
NtRp449
(dp450
g16
S'T(-2)./mid\\Enya_FWIA.mid'
p451
sg18
S'Am'
p452
sg20
I4096
sg21
g22
(S'0.125'
tRp453
sg24
(lp454
g1
(g26
g3
NtRp455
(dp456
g29
g22
(S'0.123779296875'
tRp457
sg31
I80384
sg32
I0
sg33
I64
sbasg34
g22
(S'0.625'
tRp458
sg36
g22
(S'19.625'
tRp459
sbag1
(g13
g3
NtRp460
(dp461
g16
S'T(-2)./mid\\Enya_FWIA.mid'
p462
sg18
S'G'
sg20
I4096
sg21
g22
(S'0.125'
tRp463
sg24
(lp464
g1
(g26
g3
NtRp465
(dp466
g29
g22
(S'0.123779296875'
tRp467
sg31
I102400
sg32
I0
sg33
I43
sbag1
(g26
g3
NtRp468
(dp469
g29
g22
(S'0.748779296875'
tRp470
sg31
I102400
sg32
I0
sg33
I59
sbag1
(g26
g3
NtRp471
(dp472
g29
g22
(S'0.748779296875'
tRp473
sg31
I102400
sg32
I0
sg33
I62
sbag1
(g26
g3
NtRp474
(dp475
g29
g22
(S'0.748779296875'
tRp476
sg31
I102400
sg32
I0
sg33
I67
sbasg34
g22
(S'0'
tRp477
sg36
g22
(S'25'
p478
tRp479
sbag1
(g13
g3
NtRp480
(dp481
g16
S'T(-2)./mid\\Enya_FWIA.mid'
p482
sg18
S'C'
sg20
I4096
sg21
g22
(S'0.125'
tRp483
sg24
(lp484
g1
(g26
g3
NtRp485
(dp486
g29
g22
(S'0.123779296875'
tRp487
sg31
I12800
sg32
I0
sg33
I55
sbasg34
g22
(S'0.125'
tRp488
sg36
g22
(S'3.125'
tRp489
sbag1
(g13
g3
NtRp490
(dp491
g16
S'T(-2)./mid\\Enya_FWIA.mid'
p492
sg18
S'G'
sg20
I4096
sg21
g22
(S'0.125'
tRp493
sg24
(lp494
g1
(g26
g3
NtRp495
(dp496
g29
g22
(S'0.123779296875'
tRp497
sg31
I32256
sg32
I0
sg33
I43
sbag1
(g26
g3
NtRp498
(dp499
g29
g22
(S'0.123779296875'
tRp500
sg31
I32256
sg32
I0
sg33
I60
sbasg34
g22
(S'0.875'
tRp501
sg36
g22
(S'7.875'
tRp502
sbag1
(g13
g3
NtRp503
(dp504
g16
S'T(-2)./mid\\Enya_FWIA.mid'
p505
sg18
S'F'
sg20
I4096
sg21
g22
(S'0.125'
tRp506
sg24
(lp507
g1
(g26
g3
NtRp508
(dp509
g29
g22
(S'0.123779296875'
tRp510
sg31
I77312
sg32
I0
sg33
I62
sbasg34
g22
(S'0.875'
tRp511
sg36
g22
(S'18.875'
tRp512
sbag1
(g13
g3
NtRp513
(dp514
g16
S'T(-2)./mid\\Enya_FWIA.mid'
p515
sg18
g19
sg20
I4096
sg21
g22
(S'0.125'
tRp516
sg24
(lp517
g1
(g26
g3
NtRp518
(dp519
g29
g22
(S'0.123779296875'
tRp520
sg31
I18944
sg32
I0
sg33
I53
sbasg34
g22
(S'0.625'
tRp521
sg36
g22
(S'4.625'
tRp522
sbag1
(g13
g3
NtRp523
(dp524
g16
S'T(-2)./mid\\Enya_FWIA.mid'
p525
sg18
S'Cm'
p526
sg20
I4096
sg21
g22
(S'0.125'
tRp527
sg24
(lp528
g1
(g26
g3
NtRp529
(dp530
g29
g22
(S'0.123779296875'
tRp531
sg31
I1536
sg32
I0
sg33
I55
sbasg34
g22
(S'0.375'
tRp532
sg36
g22
(S'0.375'
tRp533
sbag1
(g13
g3
NtRp534
(dp535
g16
S'T(-2)./mid\\Enya_FWIA.mid'
p536
sg18
S'Am'
p537
sg20
I4096
sg21
g22
(S'0.125'
tRp538
sg24
(lp539
g1
(g26
g3
NtRp540
(dp541
g29
g22
(S'0.123779296875'
tRp542
sg31
I9216
sg32
I0
sg33
I57
sbasg34
g22
(S'0.25'
tRp543
sg36
g22
(S'2.25'
tRp544
sbag1
(g13
g3
NtRp545
(dp546
g16
S'T(-2)./mid\\Enya_FWIA.mid'
p547
sg18
S'F'
sg20
I4096
sg21
g22
(S'0.125'
tRp548
sg24
(lp549
g1
(g26
g3
NtRp550
(dp551
g29
g22
(S'0.248779296875'
tRp552
sg31
I75776
sg32
I0
sg33
I69
sbasg34
g22
(S'0.5'
tRp553
sg36
g22
(S'18.5'
tRp554
sbag1
(g13
g3
NtRp555
(dp556
g16
S'T(-2)./mid\\Enya_FWIA.mid'
p557
sg18
S'C'
sg20
I4096
sg21
g22
(S'0.125'
tRp558
sg24
(lp559
g1
(g26
g3
NtRp560
(dp561
g29
g22
(S'0.123779296875'
tRp562
sg31
I15360
sg32
I0
sg33
I60
sbasg34
g22
(S'0.75'
tRp563
sg36
g22
(S'3.75'
tRp564
sbag1
(g13
g3
NtRp565
(dp566
g16
S'T(-2)./mid\\Enya_FWIA.mid'
p567
sg18
S'C'
sg20
I4096
sg21
g22
(S'0.125'
tRp568
sg24
(lp569
g1
(g26
g3
NtRp570
(dp571
g29
g22
(S'0.248779296875'
tRp572
sg31
I35840
sg32
I0
sg33
I64
sbasg34
g22
(S'0.75'
tRp573
sg36
g22
(S'8.75'
tRp574
sbag1
(g13
g3
NtRp575
(dp576
g16
S'T(-2)./mid\\Enya_FWIA.mid'
p577
sg18
S'Am'
p578
sg20
I4096
sg21
g22
(S'0.125'
tRp579
sg24
(lp580
g1
(g26
g3
NtRp581
(dp582
g29
g22
(S'0.123779296875'
tRp583
sg31
I8192
sg32
I0
sg33
I45
sbag1
(g26
g3
NtRp584
(dp585
g29
g22
(S'0.748779296875'
tRp586
sg31
I8192
sg32
I0
sg33
I60
sbasg34
g22
(S'0'
tRp587
sg36
g22
(S'2'
tRp588
sbag1
(g13
g3
NtRp589
(dp590
g16
S'T(-2)./mid\\Enya_FWIA.mid'
p591
sg18
g19
sg20
I4096
sg21
g22
(S'0.125'
tRp592
sg24
(lp593
g1
(g26
g3
NtRp594
(dp595
g29
g22
(S'0.123779296875'
tRp596
sg31
I17920
sg32
I0
sg33
I53
sbasg34
g22
(S'0.375'
tRp597
sg36
g22
(S'4.375'
tRp598
sbag1
(g13
g3
NtRp599
(dp600
g16
S'T(-2)./mid\\Enya_FWIA.mid'
p601
sg18
g19
sg20
I4096
sg21
g22
(S'0.125'
tRp602
sg24
(lp603
g1
(g26
g3
NtRp604
(dp605
g29
g22
(S'0.123779296875'
tRp606
sg31
I17408
sg32
I0
sg33
I58
sbasg34
g22
(S'0.25'
tRp607
sg36
g22
(S'4.25'
tRp608
sbag1
(g13
g3
NtRp609
(dp610
g16
S'T(-2)./mid\\Enya_FWIA.mid'
p611
sg18
S'Am'
p612
sg20
I4096
sg21
g22
(S'0.125'
tRp613
sg24
(lp614
g1
(g26
g3
NtRp615
(dp616
g29
g22
(S'0.123779296875'
tRp617
sg31
I10240
sg32
I0
sg33
I45
sbasg34
g22
(S'0.5'
tRp618
sg36
g22
(S'2.5'
tRp619
sbag1
(g13
g3
NtRp620
(dp621
g16
S'T(-2)./mid\\Enya_FWIA.mid'
p622
sg18
S'Em'
p623
sg20
I4096
sg21
g22
(S'0.125'
tRp624
sg24
(lp625
g1
(g26
g3
NtRp626
(dp627
g29
g22
(S'0.123779296875'
tRp628
sg31
I4608
sg32
I0
sg33
I55
sbasg34
g22
(S'0.125'
tRp629
sg36
g22
(S'1.125'
tRp630
sbag1
(g13
g3
NtRp631
(dp632
g16
S'T(-2)./mid\\Enya_FWIA.mid'
p633
sg18
S'F'
sg20
I4096
sg21
g22
(S'0.125'
tRp634
sg24
(lp635
g1
(g26
g3
NtRp636
(dp637
g29
g22
(S'0.123779296875'
tRp638
sg31
I25088
sg32
I0
sg33
I48
sbasg34
g22
(S'0.125'
tRp639
sg36
g22
(S'6.125'
tRp640
sbag1
(g13
g3
NtRp641
(dp642
g16
S'T(-2)./mid\\Enya_FWIA.mid'
p643
sg18
S'Em'
p644
sg20
I4096
sg21
g22
(S'0.125'
tRp645
sg24
(lp646
g1
(g26
g3
NtRp647
(dp648
g29
g22
(S'0.123779296875'
tRp649
sg31
I7680
sg32
I0
sg33
I59
sbag1
(g26
g3
NtRp650
(dp651
g29
g22
(S'0.123779296875'
tRp652
sg31
I7680
sg32
I0
sg33
I64
sbasg34
g22
(S'0.875'
tRp653
sg36
g22
(S'1.875'
tRp654
sbag1
(g13
g3
NtRp655
(dp656
g16
S'T(-2)./mid\\Enya_FWIA.mid'
p657
sg18
S'F'
sg20
I4096
sg21
g22
(S'0.125'
tRp658
sg24
(lp659
g1
(g26
g3
NtRp660
(dp661
g29
g22
(S'0.123779296875'
tRp662
sg31
I26112
sg32
I0
sg33
I48
sbasg34
g22
(S'0.375'
tRp663
sg36
g22
(S'6.375'
tRp664
sbag1
(g13
g3
NtRp665
(dp666
g16
S'T(-2)./mid\\Enya_FWIA.mid'
p667
sg18
S'F'
sg20
I4096
sg21
g22
(S'0.125'
tRp668
sg24
(lp669
g1
(g26
g3
NtRp670
(dp671
g29
g22
(S'0.123779296875'
tRp672
sg31
I55808
sg32
I0
sg33
I53
sbasg34
g22
(S'0.625'
tRp673
sg36
g22
(S'13.625'
tRp674
sbag1
(g13
g3
NtRp675
(dp676
g16
S'T(-2)./mid\\Enya_FWIA.mid'
p677
sg18
S'G'
sg20
I4096
sg21
g22
(S'0.125'
tRp678
sg24
(lp679
g1
(g26
g3
NtRp680
(dp681
g29
g22
(S'0.123779296875'
tRp682
sg31
I28672
sg32
I0
sg33
I43
sbag1
(g26
g3
NtRp683
(dp684
g29
g22
(S'0.873779296875'
tRp685
sg31
I28672
sg32
I0
sg33
I62
sbasg34
g22
(S'0'
tRp686
sg36
g22
(S'7'
tRp687
sbag1
(g13
g3
NtRp688
(dp689
g16
S'T(-2)./mid\\Enya_FWIA.mid'
p690
sg18
S'F'
sg20
I4096
sg21
g22
(S'0.125'
tRp691
sg24
(lp692
g1
(g26
g3
NtRp693
(dp694
g29
g22
(S'0.123779296875'
tRp695
sg31
I73728
sg32
I0
sg33
I53
sbag1
(g26
g3
NtRp696
(dp697
g29
g22
(S'0.498779296875'
tRp698
sg31
I73728
sg32
I0
sg33
I69
sbasg34
g22
(S'0'
tRp699
sg36
g22
(S'18'
p700
tRp701
sbag1
(g13
g3
NtRp702
(dp703
g16
S'T(-2)./mid\\Enya_FWIA.mid'
p704
sg18
S'Am'
p705
sg20
I4096
sg21
g22
(S'0.125'
tRp706
sg24
(lp707
g1
(g26
g3
NtRp708
(dp709
g29
g22
(S'0.123779296875'
tRp710
sg31
I8704
sg32
I0
sg33
I52
sbasg34
g22
(S'0.125'
tRp711
sg36
g22
(S'2.125'
tRp712
sbag1
(g13
g3
NtRp713
(dp714
g16
S'T(-2)./mid\\Enya_FWIA.mid'
p715
sg18
S'C'
sg20
I4096
sg21
g22
(S'0.125'
tRp716
sg24
(lp717
g1
(g26
g3
NtRp718
(dp719
g29
g22
(S'0.123779296875'
tRp720
sg31
I36352
sg32
I0
sg33
I69
sbasg34
g22
(S'0.875'
tRp721
sg36
g22
(S'8.875'
tRp722
sbag1
(g13
g3
NtRp723
(dp724
g16
S'T(-2)./mid\\Enya_FWIA.mid'
p725
sg18
S'Am'
p726
sg20
I4096
sg21
g22
(S'0.125'
tRp727
sg24
(lp728
g1
(g26
g3
NtRp729
(dp730
g29
g22
(S'0.248779296875'
tRp731
sg31
I79872
sg32
I0
sg33
I71
sbasg34
g22
(S'0.5'
tRp732
sg36
g22
(S'19.5'
tRp733
sbag1
(g13
g3
NtRp734
(dp735
g16
S'T(-2)./mid\\Enya_FWIA.mid'
p736
sg18
S'G'
sg20
I4096
sg21
g22
(S'0.125'
tRp737
sg24
(lp738
g1
(g26
g3
NtRp739
(dp740
g29
g22
(S'0.123779296875'
tRp741
sg31
I30720
sg32
I0
sg33
I43
sbasg34
g22
(S'0.5'
tRp742
sg36
g22
(S'7.5'
tRp743
sbag1
(g13
g3
NtRp744
(dp745
g16
S'T(-2)./mid\\Enya_FWIA.mid'
p746
sg18
S'G'
sg20
I4096
sg21
g22
(S'0.125'
tRp747
sg24
(lp748
g1
(g26
g3
NtRp749
(dp750
g29
g22
(S'0.123779296875'
tRp751
sg31
I105984
sg32
I0
sg33
I50
sbasg34
g22
(S'0.875'
tRp752
sg36
g22
(S'25.875'
tRp753
sbag1
(g13
g3
NtRp754
(dp755
g16
S'T(-2)./mid\\Enya_FWIA.mid'
p756
sg18
S'Em'
p757
sg20
I4096
sg21
g22
(S'0.125'
tRp758
sg24
(lp759
g1
(g26
g3
NtRp760
(dp761
g29
g22
(S'0.123779296875'
tRp762
sg31
I6144
sg32
I0
sg33
I52
sbag1
(g26
g3
NtRp763
(dp764
g29
g22
(S'0.373779296875'
tRp765
sg31
I6144
sg32
I0
sg33
I67
sbasg34
g22
(S'0.5'
tRp766
sg36
g22
(S'1.5'
tRp767
sbag1
(g13
g3
NtRp768
(dp769
g16
S'T(-2)./mid\\Enya_FWIA.mid'
p770
sg18
S'Am'
p771
sg20
I4096
sg21
g22
(S'0.125'
tRp772
sg24
(lp773
g1
(g26
g3
NtRp774
(dp775
g29
g22
(S'0.123779296875'
tRp776
sg31
I81408
sg32
I0
sg33
I64
sbasg34
g22
(S'0.875'
tRp777
sg36
g22
(S'19.875'
tRp778
sbag1
(g13
g3
NtRp779
(dp780
g16
S'T(-2)./mid\\Enya_FWIA.mid'
p781
sg18
S'F'
sg20
I4096
sg21
g22
(S'0.125'
tRp782
sg24
(lp783
g1
(g26
g3
NtRp784
(dp785
g29
g22
(S'0.123779296875'
tRp786
sg31
I90112
sg32
I0
sg33
I41
sbag1
(g26
g3
NtRp787
(dp788
g29
g22
(S'0.498779296875'
tRp789
sg31
I90112
sg32
I0
sg33
I69
sbasg34
g22
(S'0'
tRp790
sg36
g22
(S'22'
p791
tRp792
sbag1
(g13
g3
NtRp793
(dp794
g16
S'T(-2)./mid\\Enya_FWIA.mid'
p795
sg18
g19
sg20
I4096
sg21
g22
(S'0.125'
tRp796
sg24
(lp797
g1
(g26
g3
NtRp798
(dp799
g29
g22
(S'0.123779296875'
tRp800
sg31
I16896
sg32
I0
sg33
I53
sbasg34
g22
(S'0.125'
tRp801
sg36
g22
(S'4.125'
tRp802
sbag1
(g13
g3
NtRp803
(dp804
g16
S'T(-2)./mid\\Enya_FWIA.mid'
p805
sg18
S'C'
sg20
I4096
sg21
g22
(S'0.125'
tRp806
sg24
(lp807
g1
(g26
g3
NtRp808
(dp809
g29
g22
(S'0.123779296875'
tRp810
sg31
I14848
sg32
I0
sg33
I55
sbasg34
g22
(S'0.625'
tRp811
sg36
g22
(S'3.625'
tRp812
sbag1
(g13
g3
NtRp813
(dp814
g16
S'T(-2)./mid\\Enya_FWIA.mid'
p815
sg18
S'Am'
p816
sg20
I4096
sg21
g22
(S'0.125'
tRp817
sg24
(lp818
g1
(g26
g3
NtRp819
(dp820
g29
g22
(S'0.248779296875'
tRp821
sg31
I80896
sg32
I0
sg33
I67
sbasg34
g22
(S'0.75'
tRp822
sg36
g22
(S'19.75'
tRp823
sbag1
(g13
g3
NtRp824
(dp825
g16
S'T(-2)./mid\\Enya_FWIA.mid'
p826
sg18
S'Em'
p827
sg20
I4096
sg21
g22
(S'0.125'
tRp828
sg24
(lp829
g1
(g26
g3
NtRp830
(dp831
g29
g22
(S'0.123779296875'
tRp832
sg31
I4096
sg32
I0
sg33
I48
sbag1
(g26
g3
NtRp833
(dp834
g29
g22
(S'0.498779296875'
tRp835
sg31
I4096
sg32
I0
sg33
I64
sbasg34
g22
(S'0'
tRp836
sg36
g22
(S'1'
tRp837
sbag1
(g13
g3
NtRp838
(dp839
g16
S'T(-2)./mid\\Enya_FWIA.mid'
p840
sg18
S'G'
sg20
I4096
sg21
g22
(S'0.125'
tRp841
sg24
(lp842
g1
(g26
g3
NtRp843
(dp844
g29
g22
(S'0.123779296875'
tRp845
sg31
I29184
sg32
I0
sg33
I50
sbasg34
g22
(S'0.125'
tRp846
sg36
g22
(S'7.125'
tRp847
sbag1
(g13
g3
NtRp848
(dp849
g16
S'T(-2)./mid\\Enya_FWIA.mid'
p850
sg18
S'G'
sg20
I4096
sg21
g22
(S'0.125'
tRp851
sg24
(lp852
g1
(g26
g3
NtRp853
(dp854
g29
g22
(S'0.123779296875'
tRp855
sg31
I31744
sg32
I0
sg33
I55
sbasg34
g22
(S'0.75'
tRp856
sg36
g22
(S'7.75'
tRp857
sbag1
(g13
g3
NtRp858
(dp859
g16
S'T(-2)./mid\\Enya_FWIA.mid'
p860
sg18
S'F'
sg20
I4096
sg21
g22
(S'0.125'
tRp861
sg24
(lp862
g1
(g26
g3
NtRp863
(dp864
g29
g22
(S'0.123779296875'
tRp865
sg31
I76288
sg32
I0
sg33
I60
sbasg34
g22
(S'0.625'
tRp866
sg36
g22
(S'18.625'
tRp867
sbag1
(g13
g3
NtRp868
(dp869
g16
S'T(-2)./mid\\Enya_FWIA.mid'
p870
sg18
S'Am'
p871
sg20
I4096
sg21
g22
(S'0.125'
tRp872
sg24
(lp873
g1
(g26
g3
NtRp874
(dp875
g29
g22
(S'0.123779296875'
tRp876
sg31
I78336
sg32
I0
sg33
I64
sbasg34
g22
(S'0.125'
tRp877
sg36
g22
(S'19.125'
tRp878
sbag1
(g13
g3
NtRp879
(dp880
g16
S'T(-2)./mid\\Enya_FWIA.mid'
p881
sg18
S'F'
sg20
I4096
sg21
g22
(S'0.125'
tRp882
sg24
(lp883
g1
(g26
g3
NtRp884
(dp885
g29
g22
(S'0.123779296875'
tRp886
sg31
I56320
sg32
I0
sg33
I48
sbasg34
g22
(S'0.75'
tRp887
sg36
g22
(S'13.75'
tRp888
sbag1
(g13
g3
NtRp889
(dp890
g16
S'T(-2)./mid\\Enya_FWIA.mid'
p891
sg18
S'Cm'
p892
sg20
I4096
sg21
g22
(S'0.125'
tRp893
sg24
(lp894
g1
(g26
g3
NtRp895
(dp896
g29
g22
(S'0.123779296875'
tRp897
sg31
I2560
sg32
I0
sg33
I55
sbasg34
g22
(S'0.625'
tRp898
sg36
g22
(S'0.625'
tRp899
sbag1
(g13
g3
NtRp900
(dp901
g16
S'T(-2)./mid\\Enya_FWIA.mid'
p902
sg18
S'Am'
p903
sg20
I4096
sg21
g22
(S'0.125'
tRp904
sg24
(lp905
g1
(g26
g3
NtRp906
(dp907
g29
g22
(S'0.123779296875'
tRp908
sg31
I11776
sg32
I0
sg33
I60
sbasg34
g22
(S'0.875'
tRp909
sg36
g22
(S'2.875'
tRp910
sbag1
(g13
g3
NtRp911
(dp912
g16
S'T(-2)./mid\\Enya_FWIA.mid'
p913
sg18
S'F'
sg20
I4096
sg21
g22
(S'0.125'
tRp914
sg24
(lp915
g1
(g26
g3
NtRp916
(dp917
g29
g22
(S'0.123779296875'
tRp918
sg31
I76800
sg32
I0
sg33
I55
sbag1
(g26
g3
NtRp919
(dp920
g29
g22
(S'0.248779296875'
tRp921
sg31
I76800
sg32
I0
sg33
I71
sbasg34
g22
(S'0.75'
tRp922
sg36
g22
(S'18.75'
tRp923
sbag1
(g13
g3
NtRp924
(dp925
g16
S'T(-2)./mid\\Enya_FWIA.mid'
p926
sg18
S'Am'
p927
sg20
I4096
sg21
g22
(S'0.125'
tRp928
sg24
(lp929
g1
(g26
g3
NtRp930
(dp931
g29
g22
(S'0.123779296875'
tRp932
sg31
I77824
sg32
I0
sg33
I57
sbag1
(g26
g3
NtRp933
(dp934
g29
g22
(S'0.498779296875'
tRp935
sg31
I77824
sg32
I0
sg33
I72
sbasg34
g22
(S'0'
tRp936
sg36
g22
(S'19'
p937
tRp938
sbag1
(g13
g3
NtRp939
(dp940
g16
S'T(-2)./mid\\Enya_FWIA.mid'
p941
sg18
S'Am'
p942
sg20
I4096
sg21
g22
(S'0.125'
tRp943
sg24
(lp944
g1
(g26
g3
NtRp945
(dp946
g29
g22
(S'0.123779296875'
tRp947
sg31
I97792
sg32
I0
sg33
I57
sbasg34
g22
(S'0.875'
tRp948
sg36
g22
(S'23.875'
tRp949
sbag1
(g13
g3
NtRp950
(dp951
g16
S'T(-2)./mid\\Enya_FWIA.mid'
p952
sg18
S'F'
sg20
I4096
sg21
g22
(S'0.125'
tRp953
sg24
(lp954
g1
(g26
g3
NtRp955
(dp956
g29
g22
(S'0.123779296875'
tRp957
sg31
I138752
sg32
I0
sg33
I53
sbasg34
g22
(S'0.875'
tRp958
sg36
g22
(S'33.875'
tRp959
sbag1
(g13
g3
NtRp960
(dp961
g16
S'T(-2)./mid\\Enya_FWIA.mid'
p962
sg18
S'F'
sg20
I4096
sg21
g22
(S'0.125'
tRp963
sg24
(lp964
g1
(g26
g3
NtRp965
(dp966
g29
g22
(S'0.123779296875'
tRp967
sg31
I75264
sg32
I0
sg33
I60
sbasg34
g22
(S'0.375'
tRp968
sg36
g22
(S'18.375'
tRp969
sbag1
(g13
g3
NtRp970
(dp971
g16
S'T(-2)./mid\\Enya_FWIA.mid'
p972
sg18
S'Am'
p973
sg20
I4096
sg21
g22
(S'0.125'
tRp974
sg24
(lp975
g1
(g26
g3
NtRp976
(dp977
g29
g22
(S'0.123779296875'
tRp978
sg31
I10752
sg32
I0
sg33
I52
sbasg34
g22
(S'0.625'
tRp979
sg36
g22
(S'2.625'
tRp980
sbag1
(g13
g3
NtRp981
(dp982
g16
S'T(-2)./mid\\Enya_FWIA.mid'
p983
sg18
S'F'
sg20
I4096
sg21
g22
(S'0.125'
tRp984
sg24
(lp985
g1
(g26
g3
NtRp986
(dp987
g29
g22
(S'0.123779296875'
tRp988
sg31
I74240
sg32
I0
sg33
I60
sbasg34
g22
(S'0.125'
tRp989
sg36
g22
(S'18.125'
tRp990
sbag1
(g13
g3
NtRp991
(dp992
g16
S'T(-2)./mid\\Enya_FWIA.mid'
p993
sg18
S'Cm'
p994
sg20
I4096
sg21
g22
(S'0.125'
tRp995
sg24
(lp996
g1
(g26
g3
NtRp997
(dp998
g29
g22
(S'0.123779296875'
tRp999
sg31
I3072
sg32
I0
sg33
I60
sbasg34
g22
(S'0.75'
tRp1000
sg36
g22
(S'0.75'
tRp1001
sbag1
(g13
g3
NtRp1002
(dp1003
g16
S'T(-2)./mid\\Enya_FWIA.mid'
p1004
sg18
S'G'
sg20
I4096
sg21
g22
(S'0.125'
tRp1005
sg24
(lp1006
g1
(g26
g3
NtRp1007
(dp1008
g29
g22
(S'0.123779296875'
tRp1009
sg31
I31232
sg32
I0
sg33
I50
sbasg34
g22
(S'0.625'
tRp1010
sg36
g22
(S'7.625'
tRp1011
sbag1
(g13
g3
NtRp1012
(dp1013
g16
S'T(-2)./mid\\Enya_FWIA.mid'
p1014
sg18
S'C'
sg20
I4096
sg21
g22
(S'0.125'
tRp1015
sg24
(lp1016
g1
(g26
g3
NtRp1017
(dp1018
g29
g22
(S'0.123779296875'
tRp1019
sg31
I14336
sg32
I0
sg33
I48
sbasg34
g22
(S'0.5'
tRp1020
sg36
g22
(S'3.5'
tRp1021
sbag1
(g13
g3
NtRp1022
(dp1023
g16
S'T(-2)./mid\\Enya_FWIA.mid'
p1024
sg18
S'C'
sg20
I4096
sg21
g22
(S'0.125'
tRp1025
sg24
(lp1026
g1
(g26
g3
NtRp1027
(dp1028
g29
g22
(S'0.123779296875'
tRp1029
sg31
I22528
sg32
I0
sg33
I60
sbasg34
g22
(S'0.5'
tRp1030
sg36
g22
(S'5.5'
tRp1031
sbag1
(g13
g3
NtRp1032
(dp1033
g16
S'T(-2)./mid\\Enya_FWIA.mid'
p1034
sg18
S'Am'
p1035
sg20
I4096
sg21
g22
(S'0.125'
tRp1036
sg24
(lp1037
g1
(g26
g3
NtRp1038
(dp1039
g29
g22
(S'0.123779296875'
tRp1040
sg31
I9728
sg32
I0
sg33
I52
sbasg34
g22
(S'0.375'
tRp1041
sg36
g22
(S'2.375'
tRp1042
sbag1
(g13
g3
NtRp1043
(dp1044
g16
S'T(-2)./mid\\Enya_FWIA.mid'
p1045
sg18
S'Em'
p1046
sg20
I4096
sg21
g22
(S'0.125'
tRp1047
sg24
(lp1048
g1
(g26
g3
NtRp1049
(dp1050
g29
g22
(S'0.123779296875'
tRp1051
sg31
I7168
sg32
I0
sg33
I64
sbasg34
g22
(S'0.75'
tRp1052
sg36
g22
(S'1.75'
tRp1053
sbag1
(g13
g3
NtRp1054
(dp1055
g16
S'T(-2)./mid\\Enya_FWIA.mid'
p1056
sg18
S'C'
sg20
I4096
sg21
g22
(S'0.125'
tRp1057
sg24
(lp1058
g1
(g26
g3
NtRp1059
(dp1060
g29
g22
(S'0.248779296875'
tRp1061
sg31
I88064
sg32
I0
sg33
I64
sbasg34
g22
(S'0.5'
tRp1062
sg36
g22
(S'21.5'
tRp1063
sbag1
(g13
g3
NtRp1064
(dp1065
g16
S'T(-2)./mid\\Enya_FWIA.mid'
p1066
sg18
g19
sg20
I4096
sg21
g22
(S'0.125'
tRp1067
sg24
(lp1068
g1
(g26
g3
NtRp1069
(dp1070
g29
g22
(S'0.248779296875'
tRp1071
sg31
I19456
sg32
I0
sg33
I62
sbasg34
g22
(S'0.75'
tRp1072
sg36
g22
(S'4.75'
tRp1073
sbag1
(g13
g3
NtRp1074
(dp1075
g16
S'T(-2)./mid\\Enya_FWIA.mid'
p1076
sg18
S'F'
sg20
I4096
sg21
g22
(S'0.125'
tRp1077
sg24
(lp1078
g1
(g26
g3
NtRp1079
(dp1080
g29
g22
(S'0.498779296875'
tRp1081
sg31
I55296
sg32
I0
sg33
I60
sbasg34
g22
(S'0.5'
tRp1082
sg36
g22
(S'13.5'
tRp1083
sbag1
(g13
g3
NtRp1084
(dp1085
g16
S'T(-2)./mid\\Enya_FWIA.mid'
p1086
sg18
g19
sg20
I4096
sg21
g22
(S'0.125'
tRp1087
sg24
(lp1088
g1
(g26
g3
NtRp1089
(dp1090
g29
g22
(S'0.123779296875'
tRp1091
sg31
I16384
sg32
I0
sg33
I46
sbag1
(g26
g3
NtRp1092
(dp1093
g29
g22
(S'0.498779296875'
tRp1094
sg31
I16384
sg32
I0
sg33
I65
sbasg34
g22
(S'0'
tRp1095
sg36
g22
(S'4'
tRp1096
sbag1
(g13
g3
NtRp1097
(dp1098
g16
S'T(-2)./mid\\Enya_FWIA.mid'
p1099
sg18
S'Am'
p1100
sg20
I4096
sg21
g22
(S'0.125'
tRp1101
sg24
(lp1102
g1
(g26
g3
NtRp1103
(dp1104
g29
g22
(S'0.123779296875'
tRp1105
sg31
I79360
sg32
I0
sg33
I64
sbasg34
g22
(S'0.375'
tRp1106
sg36
g22
(S'19.375'
tRp1107
sbag1
(g13
g3
NtRp1108
(dp1109
g16
S'T(-2)./mid\\Enya_FWIA.mid'
p1110
sg18
S'C'
sg20
I4096
sg21
g22
(S'0.125'
tRp1111
sg24
(lp1112
g1
(g26
g3
NtRp1113
(dp1114
g29
g22
(S'0.123779296875'
tRp1115
sg31
I35328
sg32
I0
sg33
I59
sbasg34
g22
(S'0.625'
tRp1116
sg36
g22
(S'8.625'
tRp1117
sbag1
(g13
g3
NtRp1118
(dp1119
g16
S'T(-2)./mid\\Enya_FWIA.mid'
p1120
sg18
S'F'
sg20
I4096
sg21
g22
(S'0.125'
tRp1121
sg24
(lp1122
g1
(g26
g3
NtRp1123
(dp1124
g29
g22
(S'0.248779296875'
tRp1125
sg31
I84992
sg32
I0
sg33
I67
sbasg34
g22
(S'0.75'
tRp1126
sg36
g22
(S'20.75'
tRp1127
sbag1
(g13
g3
NtRp1128
(dp1129
g16
S'T(-2)./mid\\Enya_FWIA.mid'
p1130
sg18
S'F'
sg20
I4096
sg21
g22
(S'0.125'
tRp1131
sg24
(lp1132
g1
(g26
g3
NtRp1133
(dp1134
g29
g22
(S'0.123779296875'
tRp1135
sg31
I24576
sg32
I0
sg33
I41
sbag1
(g26
g3
NtRp1136
(dp1137
g29
g22
(S'0.498779296875'
tRp1138
sg31
I24576
sg32
I0
sg33
I57
sbasg34
g22
(S'0'
tRp1139
sg36
g22
(S'6'
tRp1140
sbatRp1141
sS'markov'
p1142
(dp1143
(g889
tp1144
(lp1145
g991
ag1
(g13
g3
NtRp1146
(dp1147
g16
S'T(-2)./mid\\Enya_FWIA.mid'
p1148
sg18
S'Cm'
p1149
sg20
I4096
sg21
g22
(S'0.125'
tRp1150
sg24
(lp1151
g1
(g26
g3
NtRp1152
(dp1153
g29
g22
(S'0.123779296875'
tRp1154
sg31
I72704
sg32
I0
sg33
I60
sbasg34
g22
(S'0.75'
tRp1155
sg36
g22
(S'17.75'
tRp1156
sbag1
(g13
g3
NtRp1157
(dp1158
g16
S'T(-2)./mid\\Enya_FWIA.mid'
p1159
sg18
S'Cm'
p1160
sg20
I4096
sg21
g22
(S'0.125'
tRp1161
sg24
(lp1162
g1
(g26
g3
NtRp1163
(dp1164
g29
g22
(S'0.123779296875'
tRp1165
sg31
I154624
sg32
I0
sg33
I60
sbasg34
g22
(S'0.75'
tRp1166
sg36
g22
(S'37.75'
tRp1167
sbas(g368
tp1168
(lp1169
g1128
ag1
(g13
g3
NtRp1170
(dp1171
g16
S'T(-2)./mid\\Enya_FWIA.mid'
p1172
sg18
S'F'
sg20
I4096
sg21
g22
(S'0.125'
tRp1173
sg24
(lp1174
g1
(g26
g3
NtRp1175
(dp1176
g29
g22
(S'0.123779296875'
tRp1177
sg31
I53248
sg32
I0
sg33
I41
sbag1
(g26
g3
NtRp1178
(dp1179
g29
g22
(S'0.498779296875'
tRp1180
sg31
I53248
sg32
I0
sg33
I57
sbasg34
g22
(S'0'
tRp1181
sg36
g22
(S'13'
p1182
tRp1183
sbag1
(g13
g3
NtRp1184
(dp1185
g16
S'T(-2)./mid\\Enya_FWIA.mid'
p1186
sg18
S'F'
sg20
I4096
sg21
g22
(S'0.125'
tRp1187
sg24
(lp1188
g1
(g26
g3
NtRp1189
(dp1190
g29
g22
(S'0.123779296875'
tRp1191
sg31
I61440
sg32
I0
sg33
I41
sbag1
(g26
g3
NtRp1192
(dp1193
g29
g22
(S'0.498779296875'
tRp1194
sg31
I61440
sg32
I0
sg33
I57
sbasg34
g22
(S'0'
tRp1195
sg36
g22
(S'15'
p1196
tRp1197
sbag1
(g13
g3
NtRp1198
(dp1199
g16
S'T(-2)./mid\\Enya_FWIA.mid'
p1200
sg18
S'F'
sg20
I4096
sg21
g22
(S'0.125'
tRp1201
sg24
(lp1202
g1
(g26
g3
NtRp1203
(dp1204
g29
g22
(S'0.123779296875'
tRp1205
sg31
I126976
sg32
I0
sg33
I41
sbag1
(g26
g3
NtRp1206
(dp1207
g29
g22
(S'0.498779296875'
tRp1208
sg31
I126976
sg32
I0
sg33
I57
sbasg34
g22
(S'0'
tRp1209
sg36
g22
(S'31'
p1210
tRp1211
sbag1
(g13
g3
NtRp1212
(dp1213
g16
S'T(-2)./mid\\Enya_FWIA.mid'
p1214
sg18
S'F'
sg20
I4096
sg21
g22
(S'0.125'
tRp1215
sg24
(lp1216
g1
(g26
g3
NtRp1217
(dp1218
g29
g22
(S'0.123779296875'
tRp1219
sg31
I135168
sg32
I0
sg33
I41
sbag1
(g26
g3
NtRp1220
(dp1221
g29
g22
(S'0.498779296875'
tRp1222
sg31
I135168
sg32
I0
sg33
I57
sbasg34
g22
(S'0'
tRp1223
sg36
g22
(S'33'
p1224
tRp1225
sbag1
(g13
g3
NtRp1226
(dp1227
g16
S'T(-2)./mid\\Enya_FWIA.mid'
p1228
sg18
S'F'
sg20
I4096
sg21
g22
(S'0.125'
tRp1229
sg24
(lp1230
g1
(g26
g3
NtRp1231
(dp1232
g29
g22
(S'0.123779296875'
tRp1233
sg31
I143360
sg32
I0
sg33
I41
sbag1
(g26
g3
NtRp1234
(dp1235
g29
g22
(S'0.498779296875'
tRp1236
sg31
I143360
sg32
I0
sg33
I57
sbasg34
g22
(S'0'
tRp1237
sg36
g22
(S'35'
p1238
tRp1239
sbas(g439
tp1240
(lp1241
g338
ag1
(g13
g3
NtRp1242
(dp1243
g16
S'T(-2)./mid\\Enya_FWIA.mid'
p1244
sg18
S'C'
sg20
I4096
sg21
g22
(S'0.125'
tRp1245
sg24
(lp1246
g1
(g26
g3
NtRp1247
(dp1248
g29
g22
(S'0.123779296875'
tRp1249
sg31
I22016
sg32
I0
sg33
I55
sbasg34
g22
(S'0.375'
tRp1250
sg36
g22
(S'5.375'
tRp1251
sbag1
(g13
g3
NtRp1252
(dp1253
g16
S'T(-2)./mid\\Enya_FWIA.mid'
p1254
sg18
S'C'
sg20
I4096
sg21
g22
(S'0.125'
tRp1255
sg24
(lp1256
g1
(g26
g3
NtRp1257
(dp1258
g29
g22
(S'0.123779296875'
tRp1259
sg31
I34304
sg32
I0
sg33
I55
sbasg34
g22
(S'0.375'
tRp1260
sg36
g22
(S'8.375'
tRp1261
sbag1
(g13
g3
NtRp1262
(dp1263
g16
S'T(-2)./mid\\Enya_FWIA.mid'
p1264
sg18
S'C'
sg20
I4096
sg21
g22
(S'0.125'
tRp1265
sg24
(lp1266
g1
(g26
g3
NtRp1267
(dp1268
g29
g22
(S'0.123779296875'
tRp1269
sg31
I42496
sg32
I0
sg33
I55
sbasg34
g22
(S'0.375'
tRp1270
sg36
g22
(S'10.375'
tRp1271
sbag1
(g13
g3
NtRp1272
(dp1273
g16
S'T(-2)./mid\\Enya_FWIA.mid'
p1274
sg18
S'C'
sg20
I4096
sg21
g22
(S'0.125'
tRp1275
sg24
(lp1276
g1
(g26
g3
NtRp1277
(dp1278
g29
g22
(S'0.123779296875'
tRp1279
sg31
I50688
sg32
I0
sg33
I55
sbasg34
g22
(S'0.375'
tRp1280
sg36
g22
(S'12.375'
tRp1281
sbag1
(g13
g3
NtRp1282
(dp1283
g16
S'T(-2)./mid\\Enya_FWIA.mid'
p1284
sg18
S'C'
sg20
I4096
sg21
g22
(S'0.125'
tRp1285
sg24
(lp1286
g1
(g26
g3
NtRp1287
(dp1288
g29
g22
(S'0.123779296875'
tRp1289
sg31
I58880
sg32
I0
sg33
I55
sbasg34
g22
(S'0.375'
tRp1290
sg36
g22
(S'14.375'
tRp1291
sbag1
(g13
g3
NtRp1292
(dp1293
g16
S'T(-2)./mid\\Enya_FWIA.mid'
p1294
sg18
S'C'
sg20
I4096
sg21
g22
(S'0.125'
tRp1295
sg24
(lp1296
g1
(g26
g3
NtRp1297
(dp1298
g29
g22
(S'0.123779296875'
tRp1299
sg31
I87552
sg32
I0
sg33
I55
sbasg34
g22
(S'0.375'
tRp1300
sg36
g22
(S'21.375'
tRp1301
sbag1
(g13
g3
NtRp1302
(dp1303
g16
S'T(-2)./mid\\Enya_FWIA.mid'
p1304
sg18
S'C'
sg20
I4096
sg21
g22
(S'0.125'
tRp1305
sg24
(lp1306
g1
(g26
g3
NtRp1307
(dp1308
g29
g22
(S'0.123779296875'
tRp1309
sg31
I116224
sg32
I0
sg33
I55
sbasg34
g22
(S'0.375'
tRp1310
sg36
g22
(S'28.375'
tRp1311
sbag1
(g13
g3
NtRp1312
(dp1313
g16
S'T(-2)./mid\\Enya_FWIA.mid'
p1314
sg18
S'C'
sg20
I4096
sg21
g22
(S'0.125'
tRp1315
sg24
(lp1316
g1
(g26
g3
NtRp1317
(dp1318
g29
g22
(S'0.123779296875'
tRp1319
sg31
I124416
sg32
I0
sg33
I55
sbasg34
g22
(S'0.375'
tRp1320
sg36
g22
(S'30.375'
tRp1321
sbag1
(g13
g3
NtRp1322
(dp1323
g16
S'T(-2)./mid\\Enya_FWIA.mid'
p1324
sg18
S'C'
sg20
I4096
sg21
g22
(S'0.125'
tRp1325
sg24
(lp1326
g1
(g26
g3
NtRp1327
(dp1328
g29
g22
(S'0.123779296875'
tRp1329
sg31
I132608
sg32
I0
sg33
I55
sbasg34
g22
(S'0.375'
tRp1330
sg36
g22
(S'32.375'
tRp1331
sbag1
(g13
g3
NtRp1332
(dp1333
g16
S'T(-2)./mid\\Enya_FWIA.mid'
p1334
sg18
S'C'
sg20
I4096
sg21
g22
(S'0.125'
tRp1335
sg24
(lp1336
g1
(g26
g3
NtRp1337
(dp1338
g29
g22
(S'0.123779296875'
tRp1339
sg31
I140800
sg32
I0
sg33
I55
sbasg34
g22
(S'0.375'
tRp1340
sg36
g22
(S'34.375'
tRp1341
sbas(g102
tp1342
(lp1343
g513
ag1
(g13
g3
NtRp1344
(dp1345
g16
S'T(-2)./mid\\Enya_FWIA.mid'
p1346
sg18
g19
sg20
I4096
sg21
g22
(S'0.125'
tRp1347
sg24
(lp1348
g1
(g26
g3
NtRp1349
(dp1350
g29
g22
(S'0.123779296875'
tRp1351
sg31
I47616
sg32
I0
sg33
I53
sbasg34
g22
(S'0.625'
tRp1352
sg36
g22
(S'11.625'
tRp1353
sbag1
(g13
g3
NtRp1354
(dp1355
g16
S'T(-2)./mid\\Enya_FWIA.mid'
p1356
sg18
g19
sg20
I4096
sg21
g22
(S'0.125'
tRp1357
sg24
(lp1358
g1
(g26
g3
NtRp1359
(dp1360
g29
g22
(S'0.123779296875'
tRp1361
sg31
I121344
sg32
I0
sg33
I53
sbasg34
g22
(S'0.625'
tRp1362
sg36
g22
(S'29.625'
tRp1363
sbas(g71
tp1364
(lp1365
g414
ag1
(g13
g3
NtRp1366
(dp1367
g16
S'T(-2)./mid\\Enya_FWIA.mid'
p1368
sg18
S'Cm'
p1369
sg20
I4096
sg21
g22
(S'0.125'
tRp1370
sg24
(lp1371
g1
(g26
g3
NtRp1372
(dp1373
g29
g22
(S'0.123779296875'
tRp1374
sg31
I151552
sg32
I0
sg33
I48
sbag1
(g26
g3
NtRp1375
(dp1376
g29
g22
(S'0.373779296875'
tRp1377
sg31
I151552
sg32
I0
sg33
I60
sbasg34
g22
(S'0'
tRp1378
sg36
g22
(S'37'
p1379
tRp1380
sbas(g523
tp1381
(lp1382
g81
ag1
(g13
g3
NtRp1383
(dp1384
g16
S'T(-2)./mid\\Enya_FWIA.mid'
p1385
sg18
S'Cm'
p1386
sg20
I4096
sg21
g22
(S'0.125'
tRp1387
sg24
(lp1388
g1
(g26
g3
NtRp1389
(dp1390
g29
g22
(S'0.123779296875'
tRp1391
sg31
I71680
sg32
I0
sg33
I48
sbasg34
g22
(S'0.5'
tRp1392
sg36
g22
(S'17.5'
tRp1393
sbag1
(g13
g3
NtRp1394
(dp1395
g16
S'T(-2)./mid\\Enya_FWIA.mid'
p1396
sg18
S'Cm'
p1397
sg20
I4096
sg21
g22
(S'0.125'
tRp1398
sg24
(lp1399
g1
(g26
g3
NtRp1400
(dp1401
g29
g22
(S'0.123779296875'
tRp1402
sg31
I153600
sg32
I0
sg33
I48
sbasg34
g22
(S'0.5'
tRp1403
sg36
g22
(S'37.5'
tRp1404
sbas(g779
tp1405
(lp1406
g1
(g13
g3
NtRp1407
(dp1408
g16
S'T(-2)./mid\\Enya_FWIA.mid'
p1409
sg18
S'F'
sg20
I4096
sg21
g22
(S'0.125'
tRp1410
sg24
(lp1411
g1
(g26
g3
NtRp1412
(dp1413
g29
g22
(S'0.123779296875'
tRp1414
sg31
I90624
sg32
I0
sg33
I48
sbasg34
g22
(S'0.125'
tRp1415
sg36
g22
(S'22.125'
tRp1416
sbas(g227
tp1417
(lp1418
g135
as(g216
tp1419
(lp1420
g754
ag1
(g13
g3
NtRp1421
(dp1422
g16
S'T(-2)./mid\\Enya_FWIA.mid'
p1423
sg18
S'Em'
p1424
sg20
I4096
sg21
g22
(S'0.125'
tRp1425
sg24
(lp1426
g1
(g26
g3
NtRp1427
(dp1428
g29
g22
(S'0.123779296875'
tRp1429
sg31
I108544
sg32
I0
sg33
I52
sbag1
(g26
g3
NtRp1430
(dp1431
g29
g22
(S'0.373779296875'
tRp1432
sg31
I108544
sg32
I0
sg33
I67
sbasg34
g22
(S'0.5'
tRp1433
sg36
g22
(S'26.5'
tRp1434
sbas(g1022
tp1435
(lp1436
g1
(g13
g3
NtRp1437
(dp1438
g16
S'T(-2)./mid\\Enya_FWIA.mid'
p1439
sg18
S'C'
sg20
I4096
sg21
g22
(S'0.125'
tRp1440
sg24
(lp1441
g1
(g26
g3
NtRp1442
(dp1443
g29
g22
(S'0.123779296875'
tRp1444
sg31
I23040
sg32
I0
sg33
I55
sbasg34
g22
(S'0.625'
tRp1445
sg36
g22
(S'5.625'
tRp1446
sbag1
(g13
g3
NtRp1447
(dp1448
g16
S'T(-2)./mid\\Enya_FWIA.mid'
p1449
sg18
S'C'
sg20
I4096
sg21
g22
(S'0.125'
tRp1450
sg24
(lp1451
g1
(g26
g3
NtRp1452
(dp1453
g29
g22
(S'0.123779296875'
tRp1454
sg31
I51712
sg32
I0
sg33
I55
sbasg34
g22
(S'0.625'
tRp1455
sg36
g22
(S'12.625'
tRp1456
sbag1
(g13
g3
NtRp1457
(dp1458
g16
S'T(-2)./mid\\Enya_FWIA.mid'
p1459
sg18
S'C'
sg20
I4096
sg21
g22
(S'0.125'
tRp1460
sg24
(lp1461
g1
(g26
g3
NtRp1462
(dp1463
g29
g22
(S'0.123779296875'
tRp1464
sg31
I59904
sg32
I0
sg33
I55
sbasg34
g22
(S'0.625'
tRp1465
sg36
g22
(S'14.625'
tRp1466
sbag1
(g13
g3
NtRp1467
(dp1468
g16
S'T(-2)./mid\\Enya_FWIA.mid'
p1469
sg18
S'C'
sg20
I4096
sg21
g22
(S'0.125'
tRp1470
sg24
(lp1471
g1
(g26
g3
NtRp1472
(dp1473
g29
g22
(S'0.123779296875'
tRp1474
sg31
I125440
sg32
I0
sg33
I55
sbasg34
g22
(S'0.625'
tRp1475
sg36
g22
(S'30.625'
tRp1476
sbag1
(g13
g3
NtRp1477
(dp1478
g16
S'T(-2)./mid\\Enya_FWIA.mid'
p1479
sg18
S'C'
sg20
I4096
sg21
g22
(S'0.125'
tRp1480
sg24
(lp1481
g1
(g26
g3
NtRp1482
(dp1483
g29
g22
(S'0.123779296875'
tRp1484
sg31
I133632
sg32
I0
sg33
I55
sbasg34
g22
(S'0.625'
tRp1485
sg36
g22
(S'32.625'
tRp1486
sbag1
(g13
g3
NtRp1487
(dp1488
g16
S'T(-2)./mid\\Enya_FWIA.mid'
p1489
sg18
S'C'
sg20
I4096
sg21
g22
(S'0.125'
tRp1490
sg24
(lp1491
g1
(g26
g3
NtRp1492
(dp1493
g29
g22
(S'0.123779296875'
tRp1494
sg31
I141824
sg32
I0
sg33
I55
sbasg34
g22
(S'0.625'
tRp1495
sg36
g22
(S'34.625'
tRp1496
sbas(g318
tp1497
(lp1498
g960
ag1
(g13
g3
NtRp1499
(dp1500
g16
S'T(-2)./mid\\Enya_FWIA.mid'
p1501
sg18
S'F'
sg20
I4096
sg21
g22
(S'0.125'
tRp1502
sg24
(lp1503
g1
(g26
g3
NtRp1504
(dp1505
g29
g22
(S'0.123779296875'
tRp1506
sg31
I83456
sg32
I0
sg33
I60
sbasg34
g22
(S'0.375'
tRp1507
sg36
g22
(S'20.375'
tRp1508
sbag1
(g13
g3
NtRp1509
(dp1510
g16
S'T(-2)./mid\\Enya_FWIA.mid'
p1511
sg18
S'F'
sg20
I4096
sg21
g22
(S'0.125'
tRp1512
sg24
(lp1513
g1
(g26
g3
NtRp1514
(dp1515
g29
g22
(S'0.123779296875'
tRp1516
sg31
I99840
sg32
I0
sg33
I60
sbasg34
g22
(S'0.375'
tRp1517
sg36
g22
(S'24.375'
tRp1518
sbas(g939
tp1519
(lp1520
g1
(g13
g3
NtRp1521
(dp1522
g16
S'T(-2)./mid\\Enya_FWIA.mid'
p1523
sg18
S'F'
sg20
I4096
sg21
g22
(S'0.125'
tRp1524
sg24
(lp1525
g1
(g26
g3
NtRp1526
(dp1527
g29
g22
(S'0.123779296875'
tRp1528
sg31
I98304
sg32
I0
sg33
I53
sbag1
(g26
g3
NtRp1529
(dp1530
g29
g22
(S'0.748779296875'
tRp1531
sg31
I98304
sg32
I0
sg33
I69
sbasg34
g22
(S'0'
tRp1532
sg36
g22
(S'24'
p1533
tRp1534
sbas(g1064
tp1535
(lp1536
g14
ag1
(g13
g3
NtRp1537
(dp1538
g16
S'T(-2)./mid\\Enya_FWIA.mid'
p1539
sg18
g19
sg20
I4096
sg21
g22
(S'0.125'
tRp1540
sg24
(lp1541
g1
(g26
g3
NtRp1542
(dp1543
g29
g22
(S'0.123779296875'
tRp1544
sg31
I48640
sg32
I0
sg33
I53
sbasg34
g22
(S'0.875'
tRp1545
sg36
g22
(S'11.875'
tRp1546
sbag1
(g13
g3
NtRp1547
(dp1548
g16
S'T(-2)./mid\\Enya_FWIA.mid'
p1549
sg18
g19
sg20
I4096
sg21
g22
(S'0.125'
tRp1550
sg24
(lp1551
g1
(g26
g3
NtRp1552
(dp1553
g29
g22
(S'0.123779296875'
tRp1554
sg31
I122368
sg32
I0
sg33
I53
sbasg34
g22
(S'0.875'
tRp1555
sg36
g22
(S'29.875'
tRp1556
sbas(g49
tp1557
(lp1558
g273
as(g348
tp1559
(lp1560
g1
(g13
g3
NtRp1561
(dp1562
g16
S'T(-2)./mid\\Enya_FWIA.mid'
p1563
sg18
S'C'
sg20
I4096
sg21
g22
(S'0.125'
tRp1564
sg24
(lp1565
g1
(g26
g3
NtRp1566
(dp1567
g29
g22
(S'0.123779296875'
tRp1568
sg31
I86016
sg32
I0
sg33
I48
sbag1
(g26
g3
NtRp1569
(dp1570
g29
g22
(S'0.498779296875'
tRp1571
sg31
I86016
sg32
I0
sg33
I64
sbasg34
g22
(S'0'
tRp1572
sg36
g22
(S'21'
p1573
tRp1574
sbag460
as(g970
tp1575
(lp1576
g184
ag1
(g13
g3
NtRp1577
(dp1578
g16
S'T(-2)./mid\\Enya_FWIA.mid'
p1579
sg18
S'Am'
p1580
sg20
I4096
sg21
g22
(S'0.125'
tRp1581
sg24
(lp1582
g1
(g26
g3
NtRp1583
(dp1584
g29
g22
(S'0.123779296875'
tRp1585
sg31
I39936
sg32
I0
sg33
I62
sbasg34
g22
(S'0.75'
tRp1586
sg36
g22
(S'9.75'
tRp1587
sbag1
(g13
g3
NtRp1588
(dp1589
g16
S'T(-2)./mid\\Enya_FWIA.mid'
p1590
sg18
S'Am'
p1591
sg20
I4096
sg21
g22
(S'0.125'
tRp1592
sg24
(lp1593
g1
(g26
g3
NtRp1594
(dp1595
g29
g22
(S'0.248779296875'
tRp1596
sg31
I97280
sg32
I0
sg33
I67
sbasg34
g22
(S'0.75'
tRp1597
sg36
g22
(S'23.75'
tRp1598
sbag1
(g13
g3
NtRp1599
(dp1600
g16
S'T(-2)./mid\\Enya_FWIA.mid'
p1601
sg18
S'Am'
p1602
sg20
I4096
sg21
g22
(S'0.125'
tRp1603
sg24
(lp1604
g1
(g26
g3
NtRp1605
(dp1606
g29
g22
(S'0.123779296875'
tRp1607
sg31
I113664
sg32
I0
sg33
I62
sbasg34
g22
(S'0.75'
tRp1608
sg36
g22
(S'27.75'
tRp1609
sbas(g631
tp1610
(lp1611
g250
ag1
(g13
g3
NtRp1612
(dp1613
g16
S'T(-2)./mid\\Enya_FWIA.mid'
p1614
sg18
S'F'
sg20
I4096
sg21
g22
(S'0.125'
tRp1615
sg24
(lp1616
g1
(g26
g3
NtRp1617
(dp1618
g29
g22
(S'0.123779296875'
tRp1619
sg31
I54272
sg32
I0
sg33
I53
sbasg34
g22
(S'0.25'
tRp1620
sg36
g22
(S'13.25'
tRp1621
sbag1
(g13
g3
NtRp1622
(dp1623
g16
S'T(-2)./mid\\Enya_FWIA.mid'
p1624
sg18
S'F'
sg20
I4096
sg21
g22
(S'0.125'
tRp1625
sg24
(lp1626
g1
(g26
g3
NtRp1627
(dp1628
g29
g22
(S'0.123779296875'
tRp1629
sg31
I62464
sg32
I0
sg33
I53
sbasg34
g22
(S'0.25'
tRp1630
sg36
g22
(S'15.25'
tRp1631
sbag1
(g13
g3
NtRp1632
(dp1633
g16
S'T(-2)./mid\\Enya_FWIA.mid'
p1634
sg18
S'F'
sg20
I4096
sg21
g22
(S'0.125'
tRp1635
sg24
(lp1636
g1
(g26
g3
NtRp1637
(dp1638
g29
g22
(S'0.123779296875'
tRp1639
sg31
I91136
sg32
I0
sg33
I53
sbasg34
g22
(S'0.25'
tRp1640
sg36
g22
(S'22.25'
tRp1641
sbag1
(g13
g3
NtRp1642
(dp1643
g16
S'T(-2)./mid\\Enya_FWIA.mid'
p1644
sg18
S'F'
sg20
I4096
sg21
g22
(S'0.125'
tRp1645
sg24
(lp1646
g1
(g26
g3
NtRp1647
(dp1648
g29
g22
(S'0.123779296875'
tRp1649
sg31
I128000
sg32
I0
sg33
I53
sbasg34
g22
(S'0.25'
tRp1650
sg36
g22
(S'31.25'
tRp1651
sbag1
(g13
g3
NtRp1652
(dp1653
g16
S'T(-2)./mid\\Enya_FWIA.mid'
p1654
sg18
S'F'
sg20
I4096
sg21
g22
(S'0.125'
tRp1655
sg24
(lp1656
g1
(g26
g3
NtRp1657
(dp1658
g29
g22
(S'0.123779296875'
tRp1659
sg31
I136192
sg32
I0
sg33
I53
sbasg34
g22
(S'0.25'
tRp1660
sg36
g22
(S'33.25'
tRp1661
sbag1
(g13
g3
NtRp1662
(dp1663
g16
S'T(-2)./mid\\Enya_FWIA.mid'
p1664
sg18
S'F'
sg20
I4096
sg21
g22
(S'0.125'
tRp1665
sg24
(lp1666
g1
(g26
g3
NtRp1667
(dp1668
g29
g22
(S'0.123779296875'
tRp1669
sg31
I144384
sg32
I0
sg33
I53
sbasg34
g22
(S'0.25'
tRp1670
sg36
g22
(S'35.25'
tRp1671
sbas(g1012
tp1672
(lp1673
g803
ag1
(g13
g3
NtRp1674
(dp1675
g16
S'T(-2)./mid\\Enya_FWIA.mid'
p1676
sg18
S'C'
sg20
I4096
sg21
g22
(S'0.125'
tRp1677
sg24
(lp1678
g1
(g26
g3
NtRp1679
(dp1680
g29
g22
(S'0.123779296875'
tRp1681
sg31
I43520
sg32
I0
sg33
I55
sbasg34
g22
(S'0.625'
tRp1682
sg36
g22
(S'10.625'
tRp1683
sbag1
(g13
g3
NtRp1684
(dp1685
g16
S'T(-2)./mid\\Enya_FWIA.mid'
p1686
sg18
S'C'
sg20
I4096
sg21
g22
(S'0.125'
tRp1687
sg24
(lp1688
g1
(g26
g3
NtRp1689
(dp1690
g29
g22
(S'0.123779296875'
tRp1691
sg31
I117248
sg32
I0
sg33
I55
sbasg34
g22
(S'0.625'
tRp1692
sg36
g22
(S'28.625'
tRp1693
sbas(g1074
tp1694
(lp1695
g665
ag1
(g13
g3
NtRp1696
(dp1697
g16
S'T(-2)./mid\\Enya_FWIA.mid'
p1698
sg18
S'F'
sg20
I4096
sg21
g22
(S'0.125'
tRp1699
sg24
(lp1700
g1
(g26
g3
NtRp1701
(dp1702
g29
g22
(S'0.123779296875'
tRp1703
sg31
I129536
sg32
I0
sg33
I53
sbasg34
g22
(S'0.625'
tRp1704
sg36
g22
(S'31.625'
tRp1705
sbag1
(g13
g3
NtRp1706
(dp1707
g16
S'T(-2)./mid\\Enya_FWIA.mid'
p1708
sg18
S'F'
sg20
I4096
sg21
g22
(S'0.125'
tRp1709
sg24
(lp1710
g1
(g26
g3
NtRp1711
(dp1712
g29
g22
(S'0.123779296875'
tRp1713
sg31
I137728
sg32
I0
sg33
I53
sbasg34
g22
(S'0.625'
tRp1714
sg36
g22
(S'33.625'
tRp1715
sbas(g565
tp1716
(lp1717
g713
as(g125
tp1718
(lp1719
g308
ag1
(g13
g3
NtRp1720
(dp1721
g16
S'T(-2)./mid\\Enya_FWIA.mid'
p1722
sg18
S'G'
sg20
I4096
sg21
g22
(S'0.125'
tRp1723
sg24
(lp1724
g1
(g26
g3
NtRp1725
(dp1726
g29
g22
(S'0.123779296875'
tRp1727
sg31
I67072
sg32
I0
sg33
I50
sbasg34
g22
(S'0.375'
tRp1728
sg36
g22
(S'16.375'
tRp1729
sbag1
(g13
g3
NtRp1730
(dp1731
g16
S'T(-2)./mid\\Enya_FWIA.mid'
p1732
sg18
S'G'
sg20
I4096
sg21
g22
(S'0.125'
tRp1733
sg24
(lp1734
g1
(g26
g3
NtRp1735
(dp1736
g29
g22
(S'0.123779296875'
tRp1737
sg31
I103936
sg32
I0
sg33
I50
sbasg34
g22
(S'0.375'
tRp1738
sg36
g22
(S'25.375'
tRp1739
sbag1
(g13
g3
NtRp1740
(dp1741
g16
S'T(-2)./mid\\Enya_FWIA.mid'
p1742
sg18
S'G'
sg20
I4096
sg21
g22
(S'0.125'
tRp1743
sg24
(lp1744
g1
(g26
g3
NtRp1745
(dp1746
g29
g22
(S'0.123779296875'
tRp1747
sg31
I148992
sg32
I0
sg33
I50
sbasg34
g22
(S'0.375'
tRp1748
sg36
g22
(S'36.375'
tRp1749
sbas(g171
tp1750
(lp1751
g1
(g13
g3
NtRp1752
(dp1753
g16
S'T(-2)./mid\\Enya_FWIA.mid'
p1754
sg18
S'C'
sg20
I4096
sg21
g22
(S'0.125'
tRp1755
sg24
(lp1756
g1
(g26
g3
NtRp1757
(dp1758
g29
g22
(S'0.123779296875'
tRp1759
sg31
I89600
sg32
I0
sg33
I55
sbasg34
g22
(S'0.875'
tRp1760
sg36
g22
(S'21.875'
tRp1761
sbas(g609
tp1762
(lp1763
g970
ag1
(g13
g3
NtRp1764
(dp1765
g16
S'T(-2)./mid\\Enya_FWIA.mid'
p1766
sg18
S'Am'
p1767
sg20
I4096
sg21
g22
(S'0.125'
tRp1768
sg24
(lp1769
g1
(g26
g3
NtRp1770
(dp1771
g29
g22
(S'0.123779296875'
tRp1772
sg31
I39424
sg32
I0
sg33
I52
sbasg34
g22
(S'0.625'
tRp1773
sg36
g22
(S'9.625'
tRp1774
sbag1
(g13
g3
NtRp1775
(dp1776
g16
S'T(-2)./mid\\Enya_FWIA.mid'
p1777
sg18
S'Am'
p1778
sg20
I4096
sg21
g22
(S'0.125'
tRp1779
sg24
(lp1780
g1
(g26
g3
NtRp1781
(dp1782
g29
g22
(S'0.123779296875'
tRp1783
sg31
I113152
sg32
I0
sg33
I52
sbasg34
g22
(S'0.625'
tRp1784
sg36
g22
(S'27.625'
tRp1785
sbas(g1054
tp1786
(lp1787
g1
(g13
g3
NtRp1788
(dp1789
g16
S'T(-2)./mid\\Enya_FWIA.mid'
p1790
sg18
S'C'
sg20
I4096
sg21
g22
(S'0.125'
tRp1791
sg24
(lp1792
g1
(g26
g3
NtRp1793
(dp1794
g29
g22
(S'0.123779296875'
tRp1795
sg31
I88576
sg32
I0
sg33
I55
sbasg34
g22
(S'0.625'
tRp1796
sg36
g22
(S'21.625'
tRp1797
sbas(g575
tp1798
(lp1799
g702
ag1
(g13
g3
NtRp1800
(dp1801
g16
S'T(-2)./mid\\Enya_FWIA.mid'
p1802
sg18
S'Am'
p1803
sg20
I4096
sg21
g22
(S'0.125'
tRp1804
sg24
(lp1805
g1
(g26
g3
NtRp1806
(dp1807
g29
g22
(S'0.123779296875'
tRp1808
sg31
I37376
sg32
I0
sg33
I52
sbasg34
g22
(S'0.125'
tRp1809
sg36
g22
(S'9.125'
tRp1810
sbag1
(g13
g3
NtRp1811
(dp1812
g16
S'T(-2)./mid\\Enya_FWIA.mid'
p1813
sg18
S'Am'
p1814
sg20
I4096
sg21
g22
(S'0.125'
tRp1815
sg24
(lp1816
g1
(g26
g3
NtRp1817
(dp1818
g29
g22
(S'0.123779296875'
tRp1819
sg31
I111104
sg32
I0
sg33
I52
sbasg34
g22
(S'0.125'
tRp1820
sg36
g22
(S'27.125'
tRp1821
sbas(g1108
tp1822
(lp1823
g565
as(g250
tp1824
(lp1825
g655
ag1
(g13
g3
NtRp1826
(dp1827
g16
S'T(-2)./mid\\Enya_FWIA.mid'
p1828
sg18
S'F'
sg20
I4096
sg21
g22
(S'0.125'
tRp1829
sg24
(lp1830
g1
(g26
g3
NtRp1831
(dp1832
g29
g22
(S'0.123779296875'
tRp1833
sg31
I54784
sg32
I0
sg33
I48
sbasg34
g22
(S'0.375'
tRp1834
sg36
g22
(S'13.375'
tRp1835
sbag1
(g13
g3
NtRp1836
(dp1837
g16
S'T(-2)./mid\\Enya_FWIA.mid'
p1838
sg18
S'F'
sg20
I4096
sg21
g22
(S'0.125'
tRp1839
sg24
(lp1840
g1
(g26
g3
NtRp1841
(dp1842
g29
g22
(S'0.123779296875'
tRp1843
sg31
I62976
sg32
I0
sg33
I48
sbasg34
g22
(S'0.375'
tRp1844
sg36
g22
(S'15.375'
tRp1845
sbag1
(g13
g3
NtRp1846
(dp1847
g16
S'T(-2)./mid\\Enya_FWIA.mid'
p1848
sg18
S'F'
sg20
I4096
sg21
g22
(S'0.125'
tRp1849
sg24
(lp1850
g1
(g26
g3
NtRp1851
(dp1852
g29
g22
(S'0.123779296875'
tRp1853
sg31
I91648
sg32
I0
sg33
I48
sbasg34
g22
(S'0.375'
tRp1854
sg36
g22
(S'22.375'
tRp1855
sbag1
(g13
g3
NtRp1856
(dp1857
g16
S'T(-2)./mid\\Enya_FWIA.mid'
p1858
sg18
S'F'
sg20
I4096
sg21
g22
(S'0.125'
tRp1859
sg24
(lp1860
g1
(g26
g3
NtRp1861
(dp1862
g29
g22
(S'0.123779296875'
tRp1863
sg31
I128512
sg32
I0
sg33
I48
sbasg34
g22
(S'0.375'
tRp1864
sg36
g22
(S'31.375'
tRp1865
sbag1
(g13
g3
NtRp1866
(dp1867
g16
S'T(-2)./mid\\Enya_FWIA.mid'
p1868
sg18
S'F'
sg20
I4096
sg21
g22
(S'0.125'
tRp1869
sg24
(lp1870
g1
(g26
g3
NtRp1871
(dp1872
g29
g22
(S'0.123779296875'
tRp1873
sg31
I136704
sg32
I0
sg33
I48
sbasg34
g22
(S'0.375'
tRp1874
sg36
g22
(S'33.375'
tRp1875
sbag1
(g13
g3
NtRp1876
(dp1877
g16
S'T(-2)./mid\\Enya_FWIA.mid'
p1878
sg18
S'F'
sg20
I4096
sg21
g22
(S'0.125'
tRp1879
sg24
(lp1880
g1
(g26
g3
NtRp1881
(dp1882
g29
g22
(S'0.123779296875'
tRp1883
sg31
I144896
sg32
I0
sg33
I48
sbasg34
g22
(S'0.375'
tRp1884
sg36
g22
(S'35.375'
tRp1885
sbas(g858
tp1886
(lp1887
g911
ag1118
ag1
(g13
g3
NtRp1888
(dp1889
g16
S'T(-2)./mid\\Enya_FWIA.mid'
p1890
sg18
S'F'
sg20
I4096
sg21
g22
(S'0.125'
tRp1891
sg24
(lp1892
g1
(g26
g3
NtRp1893
(dp1894
g29
g22
(S'0.248779296875'
tRp1895
sg31
I101376
sg32
I0
sg33
I67
sbasg34
g22
(S'0.75'
tRp1896
sg36
g22
(S'24.75'
tRp1897
sbas(g273
tp1898
(lp1899
g284
ag1
(g13
g3
NtRp1900
(dp1901
g16
S'T(-2)./mid\\Enya_FWIA.mid'
p1902
sg18
S'Cm'
p1903
sg20
I4096
sg21
g22
(S'0.125'
tRp1904
sg24
(lp1905
g1
(g26
g3
NtRp1906
(dp1907
g29
g22
(S'0.123779296875'
tRp1908
sg31
I70656
sg32
I0
sg33
I60
sbasg34
g22
(S'0.25'
tRp1909
sg36
g22
(S'17.25'
tRp1910
sbag1
(g13
g3
NtRp1911
(dp1912
g16
S'T(-2)./mid\\Enya_FWIA.mid'
p1913
sg18
S'Cm'
p1914
sg20
I4096
sg21
g22
(S'0.125'
tRp1915
sg24
(lp1916
g1
(g26
g3
NtRp1917
(dp1918
g29
g22
(S'0.123779296875'
tRp1919
sg31
I152576
sg32
I0
sg33
I60
sbasg34
g22
(S'0.25'
tRp1920
sg36
g22
(S'37.25'
tRp1921
sbas(g60
tp1922
(lp1923
g216
ag1
(g13
g3
NtRp1924
(dp1925
g16
S'T(-2)./mid\\Enya_FWIA.mid'
p1926
sg18
S'Em'
p1927
sg20
I4096
sg21
g22
(S'0.125'
tRp1928
sg24
(lp1929
g1
(g26
g3
NtRp1930
(dp1931
g29
g22
(S'0.123779296875'
tRp1932
sg31
I108032
sg32
I0
sg33
I55
sbasg34
g22
(S'0.375'
tRp1933
sg36
g22
(S'26.375'
tRp1934
sbas(g195
tp1935
(lp1936
g1097
as(g981
tp1937
(lp1938
g318
ag1
(g13
g3
NtRp1939
(dp1940
g16
S'T(-2)./mid\\Enya_FWIA.mid'
p1941
sg18
S'F'
sg20
I4096
sg21
g22
(S'0.125'
tRp1942
sg24
(lp1943
g1
(g26
g3
NtRp1944
(dp1945
g29
g22
(S'0.123779296875'
tRp1946
sg31
I82944
sg32
I0
sg33
I65
sbasg34
g22
(S'0.25'
tRp1947
sg36
g22
(S'20.25'
tRp1948
sbag1
(g13
g3
NtRp1949
(dp1950
g16
S'T(-2)./mid\\Enya_FWIA.mid'
p1951
sg18
S'F'
sg20
I4096
sg21
g22
(S'0.125'
tRp1952
sg24
(lp1953
g1
(g26
g3
NtRp1954
(dp1955
g29
g22
(S'0.123779296875'
tRp1956
sg31
I99328
sg32
I0
sg33
I65
sbasg34
g22
(S'0.25'
tRp1957
sg36
g22
(S'24.25'
tRp1958
sbas(g534
tp1959
(lp1960
g1032
ag1
(g13
g3
NtRp1961
(dp1962
g16
S'T(-2)./mid\\Enya_FWIA.mid'
p1963
sg18
S'Am'
p1964
sg20
I4096
sg21
g22
(S'0.125'
tRp1965
sg24
(lp1966
g1
(g26
g3
NtRp1967
(dp1968
g29
g22
(S'0.123779296875'
tRp1969
sg31
I38400
sg32
I0
sg33
I52
sbasg34
g22
(S'0.375'
tRp1970
sg36
g22
(S'9.375'
tRp1971
sbag1
(g13
g3
NtRp1972
(dp1973
g16
S'T(-2)./mid\\Enya_FWIA.mid'
p1974
sg18
S'Am'
p1975
sg20
I4096
sg21
g22
(S'0.125'
tRp1976
sg24
(lp1977
g1
(g26
g3
NtRp1978
(dp1979
g29
g22
(S'0.123779296875'
tRp1980
sg31
I95744
sg32
I0
sg33
I52
sbasg34
g22
(S'0.375'
tRp1981
sg36
g22
(S'23.375'
tRp1982
sbag1
(g13
g3
NtRp1983
(dp1984
g16
S'T(-2)./mid\\Enya_FWIA.mid'
p1985
sg18
S'Am'
p1986
sg20
I4096
sg21
g22
(S'0.125'
tRp1987
sg24
(lp1988
g1
(g26
g3
NtRp1989
(dp1990
g29
g22
(S'0.123779296875'
tRp1991
sg31
I112128
sg32
I0
sg33
I52
sbasg34
g22
(S'0.375'
tRp1992
sg36
g22
(S'27.375'
tRp1993
sbas(g723
tp1994
(lp1995
g449
ag1
(g13
g3
NtRp1996
(dp1997
g16
S'T(-2)./mid\\Enya_FWIA.mid'
p1998
sg18
S'Am'
p1999
sg20
I4096
sg21
g22
(S'0.125'
tRp2000
sg24
(lp2001
g1
(g26
g3
NtRp2002
(dp2003
g29
g22
(S'0.123779296875'
tRp2004
sg31
I96768
sg32
I0
sg33
I52
sbasg34
g22
(S'0.625'
tRp2005
sg36
g22
(S'23.625'
tRp2006
sbas(g793
tp2007
(lp2008
g599
ag1
(g13
g3
NtRp2009
(dp2010
g16
S'T(-2)./mid\\Enya_FWIA.mid'
p2011
sg18
g19
sg20
I4096
sg21
g22
(S'0.125'
tRp2012
sg24
(lp2013
g1
(g26
g3
NtRp2014
(dp2015
g29
g22
(S'0.123779296875'
tRp2016
sg31
I46080
sg32
I0
sg33
I58
sbasg34
g22
(S'0.25'
tRp2017
sg36
g22
(S'11.25'
tRp2018
sbag1
(g13
g3
NtRp2019
(dp2020
g16
S'T(-2)./mid\\Enya_FWIA.mid'
p2021
sg18
g19
sg20
I4096
sg21
g22
(S'0.125'
tRp2022
sg24
(lp2023
g1
(g26
g3
NtRp2024
(dp2025
g29
g22
(S'0.123779296875'
tRp2026
sg31
I119808
sg32
I0
sg33
I58
sbasg34
g22
(S'0.25'
tRp2027
sg36
g22
(S'29.25'
tRp2028
sbas(g688
tp2029
(lp2030
g981
ag1
(g13
g3
NtRp2031
(dp2032
g16
S'T(-2)./mid\\Enya_FWIA.mid'
p2033
sg18
S'F'
sg20
I4096
sg21
g22
(S'0.125'
tRp2034
sg24
(lp2035
g1
(g26
g3
NtRp2036
(dp2037
g29
g22
(S'0.123779296875'
tRp2038
sg31
I82432
sg32
I0
sg33
I60
sbasg34
g22
(S'0.125'
tRp2039
sg36
g22
(S'20.125'
tRp2040
sbag1
(g13
g3
NtRp2041
(dp2042
g16
S'T(-2)./mid\\Enya_FWIA.mid'
p2043
sg18
S'F'
sg20
I4096
sg21
g22
(S'0.125'
tRp2044
sg24
(lp2045
g1
(g26
g3
NtRp2046
(dp2047
g29
g22
(S'0.123779296875'
tRp2048
sg31
I98816
sg32
I0
sg33
I60
sbasg34
g22
(S'0.125'
tRp2049
sg36
g22
(S'24.125'
tRp2050
sbas(g112
tp2051
(lp2052
g358
ag1
(g13
g3
NtRp2053
(dp2054
g16
S'T(-2)./mid\\Enya_FWIA.mid'
p2055
sg18
S'F'
sg20
I4096
sg21
g22
(S'0.125'
tRp2056
sg24
(lp2057
g1
(g26
g3
NtRp2058
(dp2059
g29
g22
(S'0.123779296875'
tRp2060
sg31
I64000
sg32
I0
sg33
I48
sbasg34
g22
(S'0.625'
tRp2061
sg36
g22
(S'15.625'
tRp2062
sbag1
(g13
g3
NtRp2063
(dp2064
g16
S'T(-2)./mid\\Enya_FWIA.mid'
p2065
sg18
S'F'
sg20
I4096
sg21
g22
(S'0.125'
tRp2066
sg24
(lp2067
g1
(g26
g3
NtRp2068
(dp2069
g29
g22
(S'0.123779296875'
tRp2070
sg31
I145920
sg32
I0
sg33
I48
sbasg34
g22
(S'0.625'
tRp2071
sg36
g22
(S'35.625'
tRp2072
sbas(g991
tp2073
(lp2074
g38
ag1
(g13
g3
NtRp2075
(dp2076
g16
S'T(-2)./mid\\Enya_FWIA.mid'
p2077
sg18
S'Cm'
p2078
sg20
I4096
sg21
g22
(S'0.125'
tRp2079
sg24
(lp2080
g1
(g26
g3
NtRp2081
(dp2082
g29
g22
(S'0.123779296875'
tRp2083
sg31
I73216
sg32
I0
sg33
I55
sbasg34
g22
(S'0.875'
tRp2084
sg36
g22
(S'17.875'
tRp2085
sbag1
(g13
g3
NtRp2086
(dp2087
g16
S'T(-2)./mid\\Enya_FWIA.mid'
p2088
sg18
S'Cm'
p2089
sg20
I4096
sg21
g22
(S'0.125'
tRp2090
sg24
(lp2091
g1
(g26
g3
NtRp2092
(dp2093
g29
g22
(S'0.123779296875'
tRp2094
sg31
I155136
sg32
I0
sg33
I55
sbasg34
g22
(S'0.875'
tRp2095
sg36
g22
(S'37.875'
tRp2096
sbas(g503
tp2097
(lp2098
g924
as(g641
tp2099
(lp2100
g575
ag1
(g13
g3
NtRp2101
(dp2102
g16
S'T(-2)./mid\\Enya_FWIA.mid'
p2103
sg18
S'Am'
p2104
sg20
I4096
sg21
g22
(S'0.125'
tRp2105
sg24
(lp2106
g1
(g26
g3
NtRp2107
(dp2108
g29
g22
(S'0.123779296875'
tRp2109
sg31
I110592
sg32
I0
sg33
I45
sbag1
(g26
g3
NtRp2110
(dp2111
g29
g22
(S'0.748779296875'
tRp2112
sg31
I110592
sg32
I0
sg33
I60
sbasg34
g22
(S'0'
tRp2113
sg36
g22
(S'27'
p2114
tRp2115
sbas(g135
tp2116
(lp2117
g1
(g13
g3
NtRp2118
(dp2119
g16
S'T(-2)./mid\\Enya_FWIA.mid'
p2120
sg18
S'Am'
p2121
sg20
I4096
sg21
g22
(S'0.125'
tRp2122
sg24
(lp2123
g1
(g26
g3
NtRp2124
(dp2125
g29
g22
(S'0.123779296875'
tRp2126
sg31
I94720
sg32
I0
sg33
I52
sbasg34
g22
(S'0.125'
tRp2127
sg36
g22
(S'23.125'
tRp2128
sbas(g284
tp2129
(lp2130
g523
ag1
(g13
g3
NtRp2131
(dp2132
g16
S'T(-2)./mid\\Enya_FWIA.mid'
p2133
sg18
S'Cm'
p2134
sg20
I4096
sg21
g22
(S'0.125'
tRp2135
sg24
(lp2136
g1
(g26
g3
NtRp2137
(dp2138
g29
g22
(S'0.123779296875'
tRp2139
sg31
I71168
sg32
I0
sg33
I55
sbasg34
g22
(S'0.375'
tRp2140
sg36
g22
(S'17.375'
tRp2141
sbag1
(g13
g3
NtRp2142
(dp2143
g16
S'T(-2)./mid\\Enya_FWIA.mid'
p2144
sg18
S'Cm'
p2145
sg20
I4096
sg21
g22
(S'0.125'
tRp2146
sg24
(lp2147
g1
(g26
g3
NtRp2148
(dp2149
g29
g22
(S'0.123779296875'
tRp2150
sg31
I153088
sg32
I0
sg33
I55
sbasg34
g22
(S'0.375'
tRp2151
sg36
g22
(S'37.375'
tRp2152
sbas(g1118
tp2153
(lp2154
g348
ag1
(g13
g3
NtRp2155
(dp2156
g16
S'T(-2)./mid\\Enya_FWIA.mid'
p2157
sg18
S'F'
sg20
I4096
sg21
g22
(S'0.125'
tRp2158
sg24
(lp2159
g1
(g26
g3
NtRp2160
(dp2161
g29
g22
(S'0.123779296875'
tRp2162
sg31
I101888
sg32
I0
sg33
I60
sbasg34
g22
(S'0.875'
tRp2163
sg36
g22
(S'24.875'
tRp2164
sbas(g378
tp2165
(lp2166
g1
(g13
g3
NtRp2167
(dp2168
g16
S'T(-2)./mid\\Enya_FWIA.mid'
p2169
sg18
S'C'
sg20
I4096
sg21
g22
(S'0.125'
tRp2170
sg24
(lp2171
g1
(g26
g3
NtRp2172
(dp2173
g29
g22
(S'0.123779296875'
tRp2174
sg31
I57344
sg32
I0
sg33
I48
sbag1
(g26
g3
NtRp2175
(dp2176
g29
g22
(S'0.498779296875'
tRp2177
sg31
I57344
sg32
I0
sg33
I64
sbasg34
g22
(S'0'
tRp2178
sg36
g22
(S'14'
p2179
tRp2180
sbag1
(g13
g3
NtRp2181
(dp2182
g16
S'T(-2)./mid\\Enya_FWIA.mid'
p2183
sg18
S'C'
sg20
I4096
sg21
g22
(S'0.125'
tRp2184
sg24
(lp2185
g1
(g26
g3
NtRp2186
(dp2187
g29
g22
(S'0.123779296875'
tRp2188
sg31
I131072
sg32
I0
sg33
I48
sbag1
(g26
g3
NtRp2189
(dp2190
g29
g22
(S'0.498779296875'
tRp2191
sg31
I131072
sg32
I0
sg33
I64
sbasg34
g22
(S'0'
tRp2192
sg36
g22
(S'32'
p2193
tRp2194
sbas(g429
tp2195
(lp2196
g675
ag1
(g13
g3
NtRp2197
(dp2198
g16
S'T(-2)./mid\\Enya_FWIA.mid'
p2199
sg18
S'G'
sg20
I4096
sg21
g22
(S'0.125'
tRp2200
sg24
(lp2201
g1
(g26
g3
NtRp2202
(dp2203
g29
g22
(S'0.123779296875'
tRp2204
sg31
I65536
sg32
I0
sg33
I43
sbag1
(g26
g3
NtRp2205
(dp2206
g29
g22
(S'0.873779296875'
tRp2207
sg31
I65536
sg32
I0
sg33
I62
sbasg34
g22
(S'0'
tRp2208
sg36
g22
(S'16'
p2209
tRp2210
sbag1
(g13
g3
NtRp2211
(dp2212
g16
S'T(-2)./mid\\Enya_FWIA.mid'
p2213
sg18
S'G'
sg20
I4096
sg21
g22
(S'0.125'
tRp2214
sg24
(lp2215
g1
(g26
g3
NtRp2216
(dp2217
g29
g22
(S'0.123779296875'
tRp2218
sg31
I147456
sg32
I0
sg33
I43
sbag1
(g26
g3
NtRp2219
(dp2220
g29
g22
(S'0.873779296875'
tRp2221
sg31
I147456
sg32
I0
sg33
I62
sbasg34
g22
(S'0'
tRp2222
sg36
g22
(S'36'
p2223
tRp2224
sbas(S'start_token'
p2225
tp2226
(lp2227
S'stop_token'
p2228
ag49
as(g1084
tp2229
(lp2230
g793
ag1
(g13
g3
NtRp2231
(dp2232
g16
S'T(-2)./mid\\Enya_FWIA.mid'
p2233
sg18
g19
sg20
I4096
sg21
g22
(S'0.125'
tRp2234
sg24
(lp2235
g1
(g26
g3
NtRp2236
(dp2237
g29
g22
(S'0.123779296875'
tRp2238
sg31
I45568
sg32
I0
sg33
I53
sbasg34
g22
(S'0.125'
tRp2239
sg36
g22
(S'11.125'
tRp2240
sbag1
(g13
g3
NtRp2241
(dp2242
g16
S'T(-2)./mid\\Enya_FWIA.mid'
p2243
sg18
g19
sg20
I4096
sg21
g22
(S'0.125'
tRp2244
sg24
(lp2245
g1
(g26
g3
NtRp2246
(dp2247
g29
g22
(S'0.123779296875'
tRp2248
sg31
I119296
sg32
I0
sg33
I53
sbasg34
g22
(S'0.125'
tRp2249
sg36
g22
(S'29.125'
tRp2250
sbas(g14
tp2251
(lp2252
g1
(g13
g3
NtRp2253
(dp2254
g16
S'T(-2)./mid\\Enya_FWIA.mid'
p2255
sg18
S'C'
sg20
I4096
sg21
g22
(S'0.125'
tRp2256
sg24
(lp2257
g1
(g26
g3
NtRp2258
(dp2259
g29
g22
(S'0.123779296875'
tRp2260
sg31
I20480
sg32
I0
sg33
I48
sbag1
(g26
g3
NtRp2261
(dp2262
g29
g22
(S'0.998779296875'
tRp2263
sg31
I20480
sg32
I0
sg33
I64
sbasg34
g22
(S'0'
tRp2264
sg36
g22
(S'5'
tRp2265
sbag1
(g13
g3
NtRp2266
(dp2267
g16
S'T(-2)./mid\\Enya_FWIA.mid'
p2268
sg18
S'C'
sg20
I4096
sg21
g22
(S'0.125'
tRp2269
sg24
(lp2270
g1
(g26
g3
NtRp2271
(dp2272
g29
g22
(S'0.123779296875'
tRp2273
sg31
I49152
sg32
I0
sg33
I48
sbag1
(g26
g3
NtRp2274
(dp2275
g29
g22
(S'0.998779296875'
tRp2276
sg31
I49152
sg32
I0
sg33
I64
sbasg34
g22
(S'0'
tRp2277
sg36
g22
(S'12'
p2278
tRp2279
sbag1
(g13
g3
NtRp2280
(dp2281
g16
S'T(-2)./mid\\Enya_FWIA.mid'
p2282
sg18
S'C'
sg20
I4096
sg21
g22
(S'0.125'
tRp2283
sg24
(lp2284
g1
(g26
g3
NtRp2285
(dp2286
g29
g22
(S'0.123779296875'
tRp2287
sg31
I122880
sg32
I0
sg33
I48
sbag1
(g26
g3
NtRp2288
(dp2289
g29
g22
(S'0.998779296875'
tRp2290
sg31
I122880
sg32
I0
sg33
I64
sbasg34
g22
(S'0'
tRp2291
sg36
g22
(S'30'
p2292
tRp2293
sbas(g734
tp2294
(lp2295
g1002
ag1
(g13
g3
NtRp2296
(dp2297
g16
S'T(-2)./mid\\Enya_FWIA.mid'
p2298
sg18
S'G'
sg20
I4096
sg21
g22
(S'0.125'
tRp2299
sg24
(lp2300
g1
(g26
g3
NtRp2301
(dp2302
g29
g22
(S'0.123779296875'
tRp2303
sg31
I68096
sg32
I0
sg33
I50
sbasg34
g22
(S'0.625'
tRp2304
sg36
g22
(S'16.625'
tRp2305
sbag1
(g13
g3
NtRp2306
(dp2307
g16
S'T(-2)./mid\\Enya_FWIA.mid'
p2308
sg18
S'G'
sg20
I4096
sg21
g22
(S'0.125'
tRp2309
sg24
(lp2310
g1
(g26
g3
NtRp2311
(dp2312
g29
g22
(S'0.123779296875'
tRp2313
sg31
I104960
sg32
I0
sg33
I50
sbasg34
g22
(S'0.625'
tRp2314
sg36
g22
(S'25.625'
tRp2315
sbag1
(g13
g3
NtRp2316
(dp2317
g16
S'T(-2)./mid\\Enya_FWIA.mid'
p2318
sg18
S'G'
sg20
I4096
sg21
g22
(S'0.125'
tRp2319
sg24
(lp2320
g1
(g26
g3
NtRp2321
(dp2322
g29
g22
(S'0.123779296875'
tRp2323
sg31
I150016
sg32
I0
sg33
I50
sbasg34
g22
(S'0.625'
tRp2324
sg36
g22
(S'36.625'
tRp2325
sbas(g460
tp2326
(lp2327
g1
(g13
g3
NtRp2328
(dp2329
g16
S'T(-2)./mid\\Enya_FWIA.mid'
p2330
sg18
S'G'
sg20
I4096
sg21
g22
(S'0.125'
tRp2331
sg24
(lp2332
g1
(g26
g3
NtRp2333
(dp2334
g29
g22
(S'0.123779296875'
tRp2335
sg31
I102912
sg32
I0
sg33
I50
sbasg34
g22
(S'0.125'
tRp2336
sg36
g22
(S'25.125'
tRp2337
sbas(g237
tp2338
(lp2339
g480
ag1
(g13
g3
NtRp2340
(dp2341
g16
S'T(-2)./mid\\Enya_FWIA.mid'
p2342
sg18
S'C'
sg20
I4096
sg21
g22
(S'0.125'
tRp2343
sg24
(lp2344
g1
(g26
g3
NtRp2345
(dp2346
g29
g22
(S'0.123779296875'
tRp2347
sg31
I20992
sg32
I0
sg33
I55
sbasg34
g22
(S'0.125'
tRp2348
sg36
g22
(S'5.125'
tRp2349
sbag1
(g13
g3
NtRp2350
(dp2351
g16
S'T(-2)./mid\\Enya_FWIA.mid'
p2352
sg18
S'C'
sg20
I4096
sg21
g22
(S'0.125'
tRp2353
sg24
(lp2354
g1
(g26
g3
NtRp2355
(dp2356
g29
g22
(S'0.123779296875'
tRp2357
sg31
I33280
sg32
I0
sg33
I55
sbasg34
g22
(S'0.125'
tRp2358
sg36
g22
(S'8.125'
tRp2359
sbag1
(g13
g3
NtRp2360
(dp2361
g16
S'T(-2)./mid\\Enya_FWIA.mid'
p2362
sg18
S'C'
sg20
I4096
sg21
g22
(S'0.125'
tRp2363
sg24
(lp2364
g1
(g26
g3
NtRp2365
(dp2366
g29
g22
(S'0.123779296875'
tRp2367
sg31
I41472
sg32
I0
sg33
I55
sbasg34
g22
(S'0.125'
tRp2368
sg36
g22
(S'10.125'
tRp2369
sbag1
(g13
g3
NtRp2370
(dp2371
g16
S'T(-2)./mid\\Enya_FWIA.mid'
p2372
sg18
S'C'
sg20
I4096
sg21
g22
(S'0.125'
tRp2373
sg24
(lp2374
g1
(g26
g3
NtRp2375
(dp2376
g29
g22
(S'0.123779296875'
tRp2377
sg31
I49664
sg32
I0
sg33
I55
sbasg34
g22
(S'0.125'
tRp2378
sg36
g22
(S'12.125'
tRp2379
sbag1
(g13
g3
NtRp2380
(dp2381
g16
S'T(-2)./mid\\Enya_FWIA.mid'
p2382
sg18
S'C'
sg20
I4096
sg21
g22
(S'0.125'
tRp2383
sg24
(lp2384
g1
(g26
g3
NtRp2385
(dp2386
g29
g22
(S'0.123779296875'
tRp2387
sg31
I57856
sg32
I0
sg33
I55
sbasg34
g22
(S'0.125'
tRp2388
sg36
g22
(S'14.125'
tRp2389
sbag1
(g13
g3
NtRp2390
(dp2391
g16
S'T(-2)./mid\\Enya_FWIA.mid'
p2392
sg18
S'C'
sg20
I4096
sg21
g22
(S'0.125'
tRp2393
sg24
(lp2394
g1
(g26
g3
NtRp2395
(dp2396
g29
g22
(S'0.123779296875'
tRp2397
sg31
I86528
sg32
I0
sg33
I55
sbasg34
g22
(S'0.125'
tRp2398
sg36
g22
(S'21.125'
tRp2399
sbag1
(g13
g3
NtRp2400
(dp2401
g16
S'T(-2)./mid\\Enya_FWIA.mid'
p2402
sg18
S'C'
sg20
I4096
sg21
g22
(S'0.125'
tRp2403
sg24
(lp2404
g1
(g26
g3
NtRp2405
(dp2406
g29
g22
(S'0.123779296875'
tRp2407
sg31
I115200
sg32
I0
sg33
I55
sbasg34
g22
(S'0.125'
tRp2408
sg36
g22
(S'28.125'
tRp2409
sbag1
(g13
g3
NtRp2410
(dp2411
g16
S'T(-2)./mid\\Enya_FWIA.mid'
p2412
sg18
S'C'
sg20
I4096
sg21
g22
(S'0.125'
tRp2413
sg24
(lp2414
g1
(g26
g3
NtRp2415
(dp2416
g29
g22
(S'0.123779296875'
tRp2417
sg31
I123392
sg32
I0
sg33
I55
sbasg34
g22
(S'0.125'
tRp2418
sg36
g22
(S'30.125'
tRp2419
sbag1
(g13
g3
NtRp2420
(dp2421
g16
S'T(-2)./mid\\Enya_FWIA.mid'
p2422
sg18
S'C'
sg20
I4096
sg21
g22
(S'0.125'
tRp2423
sg24
(lp2424
g1
(g26
g3
NtRp2425
(dp2426
g29
g22
(S'0.123779296875'
tRp2427
sg31
I131584
sg32
I0
sg33
I55
sbasg34
g22
(S'0.125'
tRp2428
sg36
g22
(S'32.125'
tRp2429
sbag1
(g13
g3
NtRp2430
(dp2431
g16
S'T(-2)./mid\\Enya_FWIA.mid'
p2432
sg18
S'C'
sg20
I4096
sg21
g22
(S'0.125'
tRp2433
sg24
(lp2434
g1
(g26
g3
NtRp2435
(dp2436
g29
g22
(S'0.123779296875'
tRp2437
sg31
I139776
sg32
I0
sg33
I55
sbasg34
g22
(S'0.125'
tRp2438
sg36
g22
(S'34.125'
tRp2439
sbas(g358
tp2440
(lp2441
g92
ag1
(g13
g3
NtRp2442
(dp2443
g16
S'T(-2)./mid\\Enya_FWIA.mid'
p2444
sg18
S'F'
sg20
I4096
sg21
g22
(S'0.125'
tRp2445
sg24
(lp2446
g1
(g26
g3
NtRp2447
(dp2448
g29
g22
(S'0.248779296875'
tRp2449
sg31
I64512
sg32
I0
sg33
I64
sbasg34
g22
(S'0.75'
tRp2450
sg36
g22
(S'15.75'
tRp2451
sbag260
ag1
(g13
g3
NtRp2452
(dp2453
g16
S'T(-2)./mid\\Enya_FWIA.mid'
p2454
sg18
S'F'
sg20
I4096
sg21
g22
(S'0.125'
tRp2455
sg24
(lp2456
g1
(g26
g3
NtRp2457
(dp2458
g29
g22
(S'0.248779296875'
tRp2459
sg31
I146432
sg32
I0
sg33
I64
sbasg34
g22
(S'0.75'
tRp2460
sg36
g22
(S'35.75'
tRp2461
sbas(g513
tp2462
(lp2463
g1064
ag1
(g13
g3
NtRp2464
(dp2465
g16
S'T(-2)./mid\\Enya_FWIA.mid'
p2466
sg18
g19
sg20
I4096
sg21
g22
(S'0.125'
tRp2467
sg24
(lp2468
g1
(g26
g3
NtRp2469
(dp2470
g29
g22
(S'0.248779296875'
tRp2471
sg31
I48128
sg32
I0
sg33
I62
sbasg34
g22
(S'0.75'
tRp2472
sg36
g22
(S'11.75'
tRp2473
sbag1
(g13
g3
NtRp2474
(dp2475
g16
S'T(-2)./mid\\Enya_FWIA.mid'
p2476
sg18
g19
sg20
I4096
sg21
g22
(S'0.125'
tRp2477
sg24
(lp2478
g1
(g26
g3
NtRp2479
(dp2480
g29
g22
(S'0.248779296875'
tRp2481
sg31
I121856
sg32
I0
sg33
I62
sbasg34
g22
(S'0.75'
tRp2482
sg36
g22
(S'29.75'
tRp2483
sbas(g702
tp2484
(lp2485
g534
ag1
(g13
g3
NtRp2486
(dp2487
g16
S'T(-2)./mid\\Enya_FWIA.mid'
p2488
sg18
S'Am'
p2489
sg20
I4096
sg21
g22
(S'0.125'
tRp2490
sg24
(lp2491
g1
(g26
g3
NtRp2492
(dp2493
g29
g22
(S'0.123779296875'
tRp2494
sg31
I37888
sg32
I0
sg33
I57
sbasg34
g22
(S'0.25'
tRp2495
sg36
g22
(S'9.25'
tRp2496
sbag1
(g13
g3
NtRp2497
(dp2498
g16
S'T(-2)./mid\\Enya_FWIA.mid'
p2499
sg18
S'Am'
p2500
sg20
I4096
sg21
g22
(S'0.125'
tRp2501
sg24
(lp2502
g1
(g26
g3
NtRp2503
(dp2504
g29
g22
(S'0.123779296875'
tRp2505
sg31
I95232
sg32
I0
sg33
I57
sbasg34
g22
(S'0.25'
tRp2506
sg36
g22
(S'23.25'
tRp2507
sbag1
(g13
g3
NtRp2508
(dp2509
g16
S'T(-2)./mid\\Enya_FWIA.mid'
p2510
sg18
S'Am'
p2511
sg20
I4096
sg21
g22
(S'0.125'
tRp2512
sg24
(lp2513
g1
(g26
g3
NtRp2514
(dp2515
g29
g22
(S'0.123779296875'
tRp2516
sg31
I111616
sg32
I0
sg33
I57
sbasg34
g22
(S'0.25'
tRp2517
sg36
g22
(S'27.25'
tRp2518
sbas(g1002
tp2519
(lp2520
g848
ag1
(g13
g3
NtRp2521
(dp2522
g16
S'T(-2)./mid\\Enya_FWIA.mid'
p2523
sg18
S'G'
sg20
I4096
sg21
g22
(S'0.125'
tRp2524
sg24
(lp2525
g1
(g26
g3
NtRp2526
(dp2527
g29
g22
(S'0.248779296875'
tRp2528
sg31
I68608
sg32
I0
sg33
I55
sbasg34
g22
(S'0.75'
tRp2529
sg36
g22
(S'16.75'
tRp2530
sbag1
(g13
g3
NtRp2531
(dp2532
g16
S'T(-2)./mid\\Enya_FWIA.mid'
p2533
sg18
S'G'
sg20
I4096
sg21
g22
(S'0.125'
tRp2534
sg24
(lp2535
g1
(g26
g3
NtRp2536
(dp2537
g29
g22
(S'0.123779296875'
tRp2538
sg31
I105472
sg32
I0
sg33
I55
sbasg34
g22
(S'0.75'
tRp2539
sg36
g22
(S'25.75'
tRp2540
sbag1
(g13
g3
NtRp2541
(dp2542
g16
S'T(-2)./mid\\Enya_FWIA.mid'
p2543
sg18
S'G'
sg20
I4096
sg21
g22
(S'0.125'
tRp2544
sg24
(lp2545
g1
(g26
g3
NtRp2546
(dp2547
g29
g22
(S'0.248779296875'
tRp2548
sg31
I150528
sg32
I0
sg33
I55
sbasg34
g22
(S'0.75'
tRp2549
sg36
g22
(S'36.75'
tRp2550
sbas(g388
tp2551
(lp2552
g2228
as(g768
tp2553
(lp2554
g1
(g13
g3
NtRp2555
(dp2556
g16
S'T(-2)./mid\\Enya_FWIA.mid'
p2557
sg18
S'F'
sg20
I4096
sg21
g22
(S'0.125'
tRp2558
sg24
(lp2559
g1
(g26
g3
NtRp2560
(dp2561
g29
g22
(S'0.123779296875'
tRp2562
sg31
I81920
sg32
I0
sg33
I53
sbag1
(g26
g3
NtRp2563
(dp2564
g29
g22
(S'0.748779296875'
tRp2565
sg31
I81920
sg32
I0
sg33
I69
sbasg34
g22
(S'0'
tRp2566
sg36
g22
(S'20'
p2567
tRp2568
sbas(g868
tp2569
(lp2570
g195
as(g655
tp2571
(lp2572
g112
ag1074
ag1
(g13
g3
NtRp2573
(dp2574
g16
S'T(-2)./mid\\Enya_FWIA.mid'
p2575
sg18
S'F'
sg20
I4096
sg21
g22
(S'0.125'
tRp2576
sg24
(lp2577
g1
(g26
g3
NtRp2578
(dp2579
g29
g22
(S'0.123779296875'
tRp2580
sg31
I63488
sg32
I0
sg33
I41
sbag1
(g26
g3
NtRp2581
(dp2582
g29
g22
(S'0.248779296875'
tRp2583
sg31
I63488
sg32
I0
sg33
I60
sbasg34
g22
(S'0.5'
tRp2584
sg36
g22
(S'15.5'
tRp2585
sbag1
(g13
g3
NtRp2586
(dp2587
g16
S'T(-2)./mid\\Enya_FWIA.mid'
p2588
sg18
S'F'
sg20
I4096
sg21
g22
(S'0.125'
tRp2589
sg24
(lp2590
g1
(g26
g3
NtRp2591
(dp2592
g29
g22
(S'0.248779296875'
tRp2593
sg31
I92160
sg32
I0
sg33
I69
sbasg34
g22
(S'0.5'
tRp2594
sg36
g22
(S'22.5'
tRp2595
sbag1
(g13
g3
NtRp2596
(dp2597
g16
S'T(-2)./mid\\Enya_FWIA.mid'
p2598
sg18
S'F'
sg20
I4096
sg21
g22
(S'0.125'
tRp2599
sg24
(lp2600
g1
(g26
g3
NtRp2601
(dp2602
g29
g22
(S'0.498779296875'
tRp2603
sg31
I129024
sg32
I0
sg33
I60
sbasg34
g22
(S'0.5'
tRp2604
sg36
g22
(S'31.5'
tRp2605
sbag1
(g13
g3
NtRp2606
(dp2607
g16
S'T(-2)./mid\\Enya_FWIA.mid'
p2608
sg18
S'F'
sg20
I4096
sg21
g22
(S'0.125'
tRp2609
sg24
(lp2610
g1
(g26
g3
NtRp2611
(dp2612
g29
g22
(S'0.498779296875'
tRp2613
sg31
I137216
sg32
I0
sg33
I60
sbasg34
g22
(S'0.5'
tRp2614
sg36
g22
(S'33.5'
tRp2615
sbag1
(g13
g3
NtRp2616
(dp2617
g16
S'T(-2)./mid\\Enya_FWIA.mid'
p2618
sg18
S'F'
sg20
I4096
sg21
g22
(S'0.125'
tRp2619
sg24
(lp2620
g1
(g26
g3
NtRp2621
(dp2622
g29
g22
(S'0.123779296875'
tRp2623
sg31
I145408
sg32
I0
sg33
I41
sbag1
(g26
g3
NtRp2624
(dp2625
g29
g22
(S'0.248779296875'
tRp2626
sg31
I145408
sg32
I0
sg33
I60
sbasg34
g22
(S'0.5'
tRp2627
sg36
g22
(S'35.5'
tRp2628
sbas(g150
tp2629
(lp2630
g1043
ag1
(g13
g3
NtRp2631
(dp2632
g16
S'T(-2)./mid\\Enya_FWIA.mid'
p2633
sg18
S'Em'
p2634
sg20
I4096
sg21
g22
(S'0.125'
tRp2635
sg24
(lp2636
g1
(g26
g3
NtRp2637
(dp2638
g29
g22
(S'0.123779296875'
tRp2639
sg31
I109568
sg32
I0
sg33
I64
sbasg34
g22
(S'0.75'
tRp2640
sg36
g22
(S'26.75'
tRp2641
sbas(g1128
tp2642
(lp2643
g631
ag1
(g13
g3
NtRp2644
(dp2645
g16
S'T(-2)./mid\\Enya_FWIA.mid'
p2646
sg18
S'F'
sg20
I4096
sg21
g22
(S'0.125'
tRp2647
sg24
(lp2648
g1
(g26
g3
NtRp2649
(dp2650
g29
g22
(S'0.123779296875'
tRp2651
sg31
I53760
sg32
I0
sg33
I48
sbasg34
g22
(S'0.125'
tRp2652
sg36
g22
(S'13.125'
tRp2653
sbag1
(g13
g3
NtRp2654
(dp2655
g16
S'T(-2)./mid\\Enya_FWIA.mid'
p2656
sg18
S'F'
sg20
I4096
sg21
g22
(S'0.125'
tRp2657
sg24
(lp2658
g1
(g26
g3
NtRp2659
(dp2660
g29
g22
(S'0.123779296875'
tRp2661
sg31
I61952
sg32
I0
sg33
I48
sbasg34
g22
(S'0.125'
tRp2662
sg36
g22
(S'15.125'
tRp2663
sbag1
(g13
g3
NtRp2664
(dp2665
g16
S'T(-2)./mid\\Enya_FWIA.mid'
p2666
sg18
S'F'
sg20
I4096
sg21
g22
(S'0.125'
tRp2667
sg24
(lp2668
g1
(g26
g3
NtRp2669
(dp2670
g29
g22
(S'0.123779296875'
tRp2671
sg31
I127488
sg32
I0
sg33
I48
sbasg34
g22
(S'0.125'
tRp2672
sg36
g22
(S'31.125'
tRp2673
sbag1
(g13
g3
NtRp2674
(dp2675
g16
S'T(-2)./mid\\Enya_FWIA.mid'
p2676
sg18
S'F'
sg20
I4096
sg21
g22
(S'0.125'
tRp2677
sg24
(lp2678
g1
(g26
g3
NtRp2679
(dp2680
g29
g22
(S'0.123779296875'
tRp2681
sg31
I135680
sg32
I0
sg33
I48
sbasg34
g22
(S'0.125'
tRp2682
sg36
g22
(S'33.125'
tRp2683
sbag1
(g13
g3
NtRp2684
(dp2685
g16
S'T(-2)./mid\\Enya_FWIA.mid'
p2686
sg18
S'F'
sg20
I4096
sg21
g22
(S'0.125'
tRp2687
sg24
(lp2688
g1
(g26
g3
NtRp2689
(dp2690
g29
g22
(S'0.123779296875'
tRp2691
sg31
I143872
sg32
I0
sg33
I48
sbasg34
g22
(S'0.125'
tRp2692
sg36
g22
(S'35.125'
tRp2693
sbas(g813
tp2694
(lp2695
g768
ag939
as(g744
tp2696
(lp2697
g1
(g13
g3
NtRp2698
(dp2699
g16
S'T(-2)./mid\\Enya_FWIA.mid'
p2700
sg18
S'Em'
p2701
sg20
I4096
sg21
g22
(S'0.125'
tRp2702
sg24
(lp2703
g1
(g26
g3
NtRp2704
(dp2705
g29
g22
(S'0.123779296875'
tRp2706
sg31
I106496
sg32
I0
sg33
I48
sbag1
(g26
g3
NtRp2707
(dp2708
g29
g22
(S'0.498779296875'
tRp2709
sg31
I106496
sg32
I0
sg33
I64
sbasg34
g22
(S'0'
tRp2710
sg36
g22
(S'26'
p2711
tRp2712
sbas(g665
tp2713
(lp2714
g879
ag1
(g13
g3
NtRp2715
(dp2716
g16
S'T(-2)./mid\\Enya_FWIA.mid'
p2717
sg18
S'F'
sg20
I4096
sg21
g22
(S'0.125'
tRp2718
sg24
(lp2719
g1
(g26
g3
NtRp2720
(dp2721
g29
g22
(S'0.123779296875'
tRp2722
sg31
I130048
sg32
I0
sg33
I48
sbasg34
g22
(S'0.75'
tRp2723
sg36
g22
(S'31.75'
tRp2724
sbag1
(g13
g3
NtRp2725
(dp2726
g16
S'T(-2)./mid\\Enya_FWIA.mid'
p2727
sg18
S'F'
sg20
I4096
sg21
g22
(S'0.125'
tRp2728
sg24
(lp2729
g1
(g26
g3
NtRp2730
(dp2731
g29
g22
(S'0.123779296875'
tRp2732
sg31
I138240
sg32
I0
sg33
I48
sbasg34
g22
(S'0.75'
tRp2733
sg36
g22
(S'33.75'
tRp2734
sbas(g838
tp2735
(lp2736
g125
ag1
(g13
g3
NtRp2737
(dp2738
g16
S'T(-2)./mid\\Enya_FWIA.mid'
p2739
sg18
S'G'
sg20
I4096
sg21
g22
(S'0.125'
tRp2740
sg24
(lp2741
g1
(g26
g3
NtRp2742
(dp2743
g29
g22
(S'0.123779296875'
tRp2744
sg31
I66560
sg32
I0
sg33
I55
sbasg34
g22
(S'0.25'
tRp2745
sg36
g22
(S'16.25'
tRp2746
sbag1
(g13
g3
NtRp2747
(dp2748
g16
S'T(-2)./mid\\Enya_FWIA.mid'
p2749
sg18
S'G'
sg20
I4096
sg21
g22
(S'0.125'
tRp2750
sg24
(lp2751
g1
(g26
g3
NtRp2752
(dp2753
g29
g22
(S'0.123779296875'
tRp2754
sg31
I103424
sg32
I0
sg33
I55
sbasg34
g22
(S'0.25'
tRp2755
sg36
g22
(S'25.25'
tRp2756
sbag1
(g13
g3
NtRp2757
(dp2758
g16
S'T(-2)./mid\\Enya_FWIA.mid'
p2759
sg18
S'G'
sg20
I4096
sg21
g22
(S'0.125'
tRp2760
sg24
(lp2761
g1
(g26
g3
NtRp2762
(dp2763
g29
g22
(S'0.123779296875'
tRp2764
sg31
I148480
sg32
I0
sg33
I55
sbasg34
g22
(S'0.25'
tRp2765
sg36
g22
(S'36.25'
tRp2766
sbas(g589
tp2767
(lp2768
g102
ag1
(g13
g3
NtRp2769
(dp2770
g16
S'T(-2)./mid\\Enya_FWIA.mid'
p2771
sg18
g19
sg20
I4096
sg21
g22
(S'0.125'
tRp2772
sg24
(lp2773
g1
(g26
g3
NtRp2774
(dp2775
g29
g22
(S'0.248779296875'
tRp2776
sg31
I47104
sg32
I0
sg33
I63
sbasg34
g22
(S'0.5'
tRp2777
sg36
g22
(S'11.5'
tRp2778
sbag1
(g13
g3
NtRp2779
(dp2780
g16
S'T(-2)./mid\\Enya_FWIA.mid'
p2781
sg18
g19
sg20
I4096
sg21
g22
(S'0.125'
tRp2782
sg24
(lp2783
g1
(g26
g3
NtRp2784
(dp2785
g29
g22
(S'0.248779296875'
tRp2786
sg31
I120832
sg32
I0
sg33
I63
sbasg34
g22
(S'0.5'
tRp2787
sg36
g22
(S'29.5'
tRp2788
sbas(g1032
tp2789
(lp2790
g609
ag1
(g13
g3
NtRp2791
(dp2792
g16
S'T(-2)./mid\\Enya_FWIA.mid'
p2793
sg18
S'Am'
p2794
sg20
I4096
sg21
g22
(S'0.125'
tRp2795
sg24
(lp2796
g1
(g26
g3
NtRp2797
(dp2798
g29
g22
(S'0.123779296875'
tRp2799
sg31
I38912
sg32
I0
sg33
I45
sbasg34
g22
(S'0.5'
tRp2800
sg36
g22
(S'9.5'
tRp2801
sbag1
(g13
g3
NtRp2802
(dp2803
g16
S'T(-2)./mid\\Enya_FWIA.mid'
p2804
sg18
S'Am'
p2805
sg20
I4096
sg21
g22
(S'0.125'
tRp2806
sg24
(lp2807
g1
(g26
g3
NtRp2808
(dp2809
g29
g22
(S'0.248779296875'
tRp2810
sg31
I96256
sg32
I0
sg33
I71
sbasg34
g22
(S'0.5'
tRp2811
sg36
g22
(S'23.5'
tRp2812
sbag1
(g13
g3
NtRp2813
(dp2814
g16
S'T(-2)./mid\\Enya_FWIA.mid'
p2815
sg18
S'Am'
p2816
sg20
I4096
sg21
g22
(S'0.125'
tRp2817
sg24
(lp2818
g1
(g26
g3
NtRp2819
(dp2820
g29
g22
(S'0.123779296875'
tRp2821
sg31
I112640
sg32
I0
sg33
I45
sbasg34
g22
(S'0.5'
tRp2822
sg36
g22
(S'27.5'
tRp2823
sbas(g620
tp2824
(lp2825
g60
ag1
(g13
g3
NtRp2826
(dp2827
g16
S'T(-2)./mid\\Enya_FWIA.mid'
p2828
sg18
S'Em'
p2829
sg20
I4096
sg21
g22
(S'0.125'
tRp2830
sg24
(lp2831
g1
(g26
g3
NtRp2832
(dp2833
g29
g22
(S'0.123779296875'
tRp2834
sg31
I107520
sg32
I0
sg33
I60
sbasg34
g22
(S'0.25'
tRp2835
sg36
g22
(S'26.25'
tRp2836
sbas(g414
tp2837
(lp2838
g1
(g13
g3
NtRp2839
(dp2840
g16
S'T(-2)./mid\\Enya_FWIA.mid'
p2841
sg18
S'Cm'
p2842
sg20
I4096
sg21
g22
(S'0.125'
tRp2843
sg24
(lp2844
g1
(g26
g3
NtRp2845
(dp2846
g29
g22
(S'0.123779296875'
tRp2847
sg31
I70144
sg32
I0
sg33
I55
sbasg34
g22
(S'0.125'
tRp2848
sg36
g22
(S'17.125'
tRp2849
sbag1
(g13
g3
NtRp2850
(dp2851
g16
S'T(-2)./mid\\Enya_FWIA.mid'
p2852
sg18
S'Cm'
p2853
sg20
I4096
sg21
g22
(S'0.125'
tRp2854
sg24
(lp2855
g1
(g26
g3
NtRp2856
(dp2857
g29
g22
(S'0.123779296875'
tRp2858
sg31
I152064
sg32
I0
sg33
I55
sbasg34
g22
(S'0.125'
tRp2859
sg36
g22
(S'37.125'
tRp2860
sbas(g81
tp2861
(lp2862
g889
ag1
(g13
g3
NtRp2863
(dp2864
g16
S'T(-2)./mid\\Enya_FWIA.mid'
p2865
sg18
S'Cm'
p2866
sg20
I4096
sg21
g22
(S'0.125'
tRp2867
sg24
(lp2868
g1
(g26
g3
NtRp2869
(dp2870
g29
g22
(S'0.123779296875'
tRp2871
sg31
I72192
sg32
I0
sg33
I55
sbasg34
g22
(S'0.625'
tRp2872
sg36
g22
(S'17.625'
tRp2873
sbag1
(g13
g3
NtRp2874
(dp2875
g16
S'T(-2)./mid\\Enya_FWIA.mid'
p2876
sg18
S'Cm'
p2877
sg20
I4096
sg21
g22
(S'0.125'
tRp2878
sg24
(lp2879
g1
(g26
g3
NtRp2880
(dp2881
g29
g22
(S'0.123779296875'
tRp2882
sg31
I154112
sg32
I0
sg33
I55
sbasg34
g22
(S'0.625'
tRp2883
sg36
g22
(S'37.625'
tRp2884
sbas(g206
tp2885
(lp2886
g1084
ag1
(g13
g3
NtRp2887
(dp2888
g16
S'T(-2)./mid\\Enya_FWIA.mid'
p2889
sg18
g19
sg20
I4096
sg21
g22
(S'0.125'
tRp2890
sg24
(lp2891
g1
(g26
g3
NtRp2892
(dp2893
g29
g22
(S'0.123779296875'
tRp2894
sg31
I45056
sg32
I0
sg33
I46
sbag1
(g26
g3
NtRp2895
(dp2896
g29
g22
(S'0.498779296875'
tRp2897
sg31
I45056
sg32
I0
sg33
I65
sbasg34
g22
(S'0'
tRp2898
sg36
g22
(S'11'
p2899
tRp2900
sbag779
ag1
(g13
g3
NtRp2901
(dp2902
g16
S'T(-2)./mid\\Enya_FWIA.mid'
p2903
sg18
g19
sg20
I4096
sg21
g22
(S'0.125'
tRp2904
sg24
(lp2905
g1
(g26
g3
NtRp2906
(dp2907
g29
g22
(S'0.123779296875'
tRp2908
sg31
I118784
sg32
I0
sg33
I46
sbag1
(g26
g3
NtRp2909
(dp2910
g29
g22
(S'0.498779296875'
tRp2911
sg31
I118784
sg32
I0
sg33
I65
sbasg34
g22
(S'0'
tRp2912
sg36
g22
(S'29'
p2913
tRp2914
sbas(g555
tp2915
(lp2916
g206
ag1
(g13
g3
NtRp2917
(dp2918
g16
S'T(-2)./mid\\Enya_FWIA.mid'
p2919
sg18
S'C'
sg20
I4096
sg21
g22
(S'0.125'
tRp2920
sg24
(lp2921
g1
(g26
g3
NtRp2922
(dp2923
g29
g22
(S'0.123779296875'
tRp2924
sg31
I44544
sg32
I0
sg33
I55
sbasg34
g22
(S'0.875'
tRp2925
sg36
g22
(S'10.875'
tRp2926
sbag1
(g13
g3
NtRp2927
(dp2928
g16
S'T(-2)./mid\\Enya_FWIA.mid'
p2929
sg18
S'C'
sg20
I4096
sg21
g22
(S'0.125'
tRp2930
sg24
(lp2931
g1
(g26
g3
NtRp2932
(dp2933
g29
g22
(S'0.123779296875'
tRp2934
sg31
I118272
sg32
I0
sg33
I55
sbasg34
g22
(S'0.875'
tRp2935
sg36
g22
(S'28.875'
tRp2936
sbas(g900
tp2937
(lp2938
g237
ag1
(g13
g3
NtRp2939
(dp2940
g16
S'T(-2)./mid\\Enya_FWIA.mid'
p2941
sg18
S'C'
sg20
I4096
sg21
g22
(S'0.125'
tRp2942
sg24
(lp2943
g1
(g26
g3
NtRp2944
(dp2945
g29
g22
(S'0.123779296875'
tRp2946
sg31
I40960
sg32
I0
sg33
I48
sbag1
(g26
g3
NtRp2947
(dp2948
g29
g22
(S'0.998779296875'
tRp2949
sg31
I40960
sg32
I0
sg33
I64
sbasg34
g22
(S'0'
tRp2950
sg36
g22
(S'10'
p2951
tRp2952
sbag1
(g13
g3
NtRp2953
(dp2954
g16
S'T(-2)./mid\\Enya_FWIA.mid'
p2955
sg18
S'C'
sg20
I4096
sg21
g22
(S'0.125'
tRp2956
sg24
(lp2957
g1
(g26
g3
NtRp2958
(dp2959
g29
g22
(S'0.123779296875'
tRp2960
sg31
I114688
sg32
I0
sg33
I48
sbag1
(g26
g3
NtRp2961
(dp2962
g29
g22
(S'0.998779296875'
tRp2963
sg31
I114688
sg32
I0
sg33
I64
sbasg34
g22
(S'0'
tRp2964
sg36
g22
(S'28'
p2965
tRp2966
sbas(g848
tp2967
(lp2968
g490
ag71
ag744
ag1
(g13
g3
NtRp2969
(dp2970
g16
S'T(-2)./mid\\Enya_FWIA.mid'
p2971
sg18
S'G'
sg20
I4096
sg21
g22
(S'0.125'
tRp2972
sg24
(lp2973
g1
(g26
g3
NtRp2974
(dp2975
g29
g22
(S'0.123779296875'
tRp2976
sg31
I151040
sg32
I0
sg33
I60
sbasg34
g22
(S'0.875'
tRp2977
sg36
g22
(S'36.875'
tRp2978
sbas(g38
tp2979
(lp2980
g824
ag688
ag388
as(g754
tp2981
(lp2982
g150
ag1
(g13
g3
NtRp2983
(dp2984
g16
S'T(-2)./mid\\Enya_FWIA.mid'
p2985
sg18
S'Em'
p2986
sg20
I4096
sg21
g22
(S'0.125'
tRp2987
sg24
(lp2988
g1
(g26
g3
NtRp2989
(dp2990
g29
g22
(S'0.123779296875'
tRp2991
sg31
I109056
sg32
I0
sg33
I59
sbasg34
g22
(S'0.625'
tRp2992
sg36
g22
(S'26.625'
tRp2993
sbas(g545
tp2994
(lp2995
g858
ag1
(g13
g3
NtRp2996
(dp2997
g16
S'T(-2)./mid\\Enya_FWIA.mid'
p2998
sg18
S'F'
sg20
I4096
sg21
g22
(S'0.125'
tRp2999
sg24
(lp3000
g1
(g26
g3
NtRp3001
(dp3002
g29
g22
(S'0.123779296875'
tRp3003
sg31
I92672
sg32
I0
sg33
I48
sbasg34
g22
(S'0.625'
tRp3004
sg36
g22
(S'22.625'
tRp3005
sbas(g184
tp3006
(lp3007
g900
ag1
(g13
g3
NtRp3008
(dp3009
g16
S'T(-2)./mid\\Enya_FWIA.mid'
p3010
sg18
S'Am'
p3011
sg20
I4096
sg21
g22
(S'0.125'
tRp3012
sg24
(lp3013
g1
(g26
g3
NtRp3014
(dp3015
g29
g22
(S'0.123779296875'
tRp3016
sg31
I40448
sg32
I0
sg33
I60
sbasg34
g22
(S'0.875'
tRp3017
sg36
g22
(S'9.875'
tRp3018
sbag1
(g13
g3
NtRp3019
(dp3020
g16
S'T(-2)./mid\\Enya_FWIA.mid'
p3021
sg18
S'Am'
p3022
sg20
I4096
sg21
g22
(S'0.125'
tRp3023
sg24
(lp3024
g1
(g26
g3
NtRp3025
(dp3026
g29
g22
(S'0.123779296875'
tRp3027
sg31
I114176
sg32
I0
sg33
I60
sbasg34
g22
(S'0.875'
tRp3028
sg36
g22
(S'27.875'
tRp3029
sbas(g480
tp3030
(lp3031
g439
ag1
(g13
g3
NtRp3032
(dp3033
g16
S'T(-2)./mid\\Enya_FWIA.mid'
p3034
sg18
S'C'
sg20
I4096
sg21
g22
(S'0.125'
tRp3035
sg24
(lp3036
g1
(g26
g3
NtRp3037
(dp3038
g29
g22
(S'0.123779296875'
tRp3039
sg31
I21504
sg32
I0
sg33
I60
sbasg34
g22
(S'0.25'
tRp3040
sg36
g22
(S'5.25'
tRp3041
sbag1
(g13
g3
NtRp3042
(dp3043
g16
S'T(-2)./mid\\Enya_FWIA.mid'
p3044
sg18
S'C'
sg20
I4096
sg21
g22
(S'0.125'
tRp3045
sg24
(lp3046
g1
(g26
g3
NtRp3047
(dp3048
g29
g22
(S'0.123779296875'
tRp3049
sg31
I33792
sg32
I0
sg33
I60
sbasg34
g22
(S'0.25'
tRp3050
sg36
g22
(S'8.25'
tRp3051
sbag1
(g13
g3
NtRp3052
(dp3053
g16
S'T(-2)./mid\\Enya_FWIA.mid'
p3054
sg18
S'C'
sg20
I4096
sg21
g22
(S'0.125'
tRp3055
sg24
(lp3056
g1
(g26
g3
NtRp3057
(dp3058
g29
g22
(S'0.123779296875'
tRp3059
sg31
I41984
sg32
I0
sg33
I60
sbasg34
g22
(S'0.25'
tRp3060
sg36
g22
(S'10.25'
tRp3061
sbag1
(g13
g3
NtRp3062
(dp3063
g16
S'T(-2)./mid\\Enya_FWIA.mid'
p3064
sg18
S'C'
sg20
I4096
sg21
g22
(S'0.125'
tRp3065
sg24
(lp3066
g1
(g26
g3
NtRp3067
(dp3068
g29
g22
(S'0.123779296875'
tRp3069
sg31
I50176
sg32
I0
sg33
I60
sbasg34
g22
(S'0.25'
tRp3070
sg36
g22
(S'12.25'
tRp3071
sbag1
(g13
g3
NtRp3072
(dp3073
g16
S'T(-2)./mid\\Enya_FWIA.mid'
p3074
sg18
S'C'
sg20
I4096
sg21
g22
(S'0.125'
tRp3075
sg24
(lp3076
g1
(g26
g3
NtRp3077
(dp3078
g29
g22
(S'0.123779296875'
tRp3079
sg31
I58368
sg32
I0
sg33
I60
sbasg34
g22
(S'0.25'
tRp3080
sg36
g22
(S'14.25'
tRp3081
sbag1
(g13
g3
NtRp3082
(dp3083
g16
S'T(-2)./mid\\Enya_FWIA.mid'
p3084
sg18
S'C'
sg20
I4096
sg21
g22
(S'0.125'
tRp3085
sg24
(lp3086
g1
(g26
g3
NtRp3087
(dp3088
g29
g22
(S'0.123779296875'
tRp3089
sg31
I87040
sg32
I0
sg33
I60
sbasg34
g22
(S'0.25'
tRp3090
sg36
g22
(S'21.25'
tRp3091
sbag1
(g13
g3
NtRp3092
(dp3093
g16
S'T(-2)./mid\\Enya_FWIA.mid'
p3094
sg18
S'C'
sg20
I4096
sg21
g22
(S'0.125'
tRp3095
sg24
(lp3096
g1
(g26
g3
NtRp3097
(dp3098
g29
g22
(S'0.123779296875'
tRp3099
sg31
I115712
sg32
I0
sg33
I60
sbasg34
g22
(S'0.25'
tRp3100
sg36
g22
(S'28.25'
tRp3101
sbag1
(g13
g3
NtRp3102
(dp3103
g16
S'T(-2)./mid\\Enya_FWIA.mid'
p3104
sg18
S'C'
sg20
I4096
sg21
g22
(S'0.125'
tRp3105
sg24
(lp3106
g1
(g26
g3
NtRp3107
(dp3108
g29
g22
(S'0.123779296875'
tRp3109
sg31
I123904
sg32
I0
sg33
I60
sbasg34
g22
(S'0.25'
tRp3110
sg36
g22
(S'30.25'
tRp3111
sbag1
(g13
g3
NtRp3112
(dp3113
g16
S'T(-2)./mid\\Enya_FWIA.mid'
p3114
sg18
S'C'
sg20
I4096
sg21
g22
(S'0.125'
tRp3115
sg24
(lp3116
g1
(g26
g3
NtRp3117
(dp3118
g29
g22
(S'0.123779296875'
tRp3119
sg31
I132096
sg32
I0
sg33
I60
sbasg34
g22
(S'0.25'
tRp3120
sg36
g22
(S'32.25'
tRp3121
sbag1
(g13
g3
NtRp3122
(dp3123
g16
S'T(-2)./mid\\Enya_FWIA.mid'
p3124
sg18
S'C'
sg20
I4096
sg21
g22
(S'0.125'
tRp3125
sg24
(lp3126
g1
(g26
g3
NtRp3127
(dp3128
g29
g22
(S'0.123779296875'
tRp3129
sg31
I140288
sg32
I0
sg33
I60
sbasg34
g22
(S'0.25'
tRp3130
sg36
g22
(S'34.25'
tRp3131
sbas(g260
tp3132
(lp3133
g227
as(g803
tp3134
(lp3135
g555
ag328
ag1
(g13
g3
NtRp3136
(dp3137
g16
S'T(-2)./mid\\Enya_FWIA.mid'
p3138
sg18
S'C'
sg20
I4096
sg21
g22
(S'0.125'
tRp3139
sg24
(lp3140
g1
(g26
g3
NtRp3141
(dp3142
g29
g22
(S'0.123779296875'
tRp3143
sg31
I44032
sg32
I0
sg33
I60
sbasg34
g22
(S'0.75'
tRp3144
sg36
g22
(S'10.75'
tRp3145
sbag1
(g13
g3
NtRp3146
(dp3147
g16
S'T(-2)./mid\\Enya_FWIA.mid'
p3148
sg18
S'C'
sg20
I4096
sg21
g22
(S'0.125'
tRp3149
sg24
(lp3150
g1
(g26
g3
NtRp3151
(dp3152
g29
g22
(S'0.123779296875'
tRp3153
sg31
I52224
sg32
I0
sg33
I55
sbasg34
g22
(S'0.75'
tRp3154
sg36
g22
(S'12.75'
tRp3155
sbag1
(g13
g3
NtRp3156
(dp3157
g16
S'T(-2)./mid\\Enya_FWIA.mid'
p3158
sg18
S'C'
sg20
I4096
sg21
g22
(S'0.125'
tRp3159
sg24
(lp3160
g1
(g26
g3
NtRp3161
(dp3162
g29
g22
(S'0.248779296875'
tRp3163
sg31
I60416
sg32
I0
sg33
I55
sbasg34
g22
(S'0.75'
tRp3164
sg36
g22
(S'14.75'
tRp3165
sbag171
ag1
(g13
g3
NtRp3166
(dp3167
g16
S'T(-2)./mid\\Enya_FWIA.mid'
p3168
sg18
S'C'
sg20
I4096
sg21
g22
(S'0.125'
tRp3169
sg24
(lp3170
g1
(g26
g3
NtRp3171
(dp3172
g29
g22
(S'0.123779296875'
tRp3173
sg31
I117760
sg32
I0
sg33
I60
sbasg34
g22
(S'0.75'
tRp3174
sg36
g22
(S'28.75'
tRp3175
sbag1
(g13
g3
NtRp3176
(dp3177
g16
S'T(-2)./mid\\Enya_FWIA.mid'
p3178
sg18
S'C'
sg20
I4096
sg21
g22
(S'0.125'
tRp3179
sg24
(lp3180
g1
(g26
g3
NtRp3181
(dp3182
g29
g22
(S'0.123779296875'
tRp3183
sg31
I125952
sg32
I0
sg33
I55
sbasg34
g22
(S'0.75'
tRp3184
sg36
g22
(S'30.75'
tRp3185
sbag1
(g13
g3
NtRp3186
(dp3187
g16
S'T(-2)./mid\\Enya_FWIA.mid'
p3188
sg18
S'C'
sg20
I4096
sg21
g22
(S'0.125'
tRp3189
sg24
(lp3190
g1
(g26
g3
NtRp3191
(dp3192
g29
g22
(S'0.248779296875'
tRp3193
sg31
I134144
sg32
I0
sg33
I55
sbasg34
g22
(S'0.75'
tRp3194
sg36
g22
(S'32.75'
tRp3195
sbag1
(g13
g3
NtRp3196
(dp3197
g16
S'T(-2)./mid\\Enya_FWIA.mid'
p3198
sg18
S'C'
sg20
I4096
sg21
g22
(S'0.125'
tRp3199
sg24
(lp3200
g1
(g26
g3
NtRp3201
(dp3202
g29
g22
(S'0.248779296875'
tRp3203
sg31
I142336
sg32
I0
sg33
I55
sbasg34
g22
(S'0.75'
tRp3204
sg36
g22
(S'34.75'
tRp3205
sbas(g1043
tp3206
(lp3207
g641
ag1
(g13
g3
NtRp3208
(dp3209
g16
S'T(-2)./mid\\Enya_FWIA.mid'
p3210
sg18
S'Em'
p3211
sg20
I4096
sg21
g22
(S'0.125'
tRp3212
sg24
(lp3213
g1
(g26
g3
NtRp3214
(dp3215
g29
g22
(S'0.123779296875'
tRp3216
sg31
I110080
sg32
I0
sg33
I59
sbag1
(g26
g3
NtRp3217
(dp3218
g29
g22
(S'0.123779296875'
tRp3219
sg31
I110080
sg32
I0
sg33
I64
sbasg34
g22
(S'0.875'
tRp3220
sg36
g22
(S'26.875'
tRp3221
sbas(g960
tp3222
(lp3223
g545
ag161
ag1
(g13
g3
NtRp3224
(dp3225
g16
S'T(-2)./mid\\Enya_FWIA.mid'
p3226
sg18
S'F'
sg20
I4096
sg21
g22
(S'0.125'
tRp3227
sg24
(lp3228
g1
(g26
g3
NtRp3229
(dp3230
g29
g22
(S'0.123779296875'
tRp3231
sg31
I100352
sg32
I0
sg33
I53
sbasg34
g22
(S'0.5'
tRp3232
sg36
g22
(S'24.5'
tRp3233
sbas(g713
tp3234
(lp3235
g1
(g13
g3
NtRp3236
(dp3237
g16
S'T(-2)./mid\\Enya_FWIA.mid'
p3238
sg18
S'Am'
p3239
sg20
I4096
sg21
g22
(S'0.125'
tRp3240
sg24
(lp3241
g1
(g26
g3
NtRp3242
(dp3243
g29
g22
(S'0.123779296875'
tRp3244
sg31
I36864
sg32
I0
sg33
I45
sbag1
(g26
g3
NtRp3245
(dp3246
g29
g22
(S'0.748779296875'
tRp3247
sg31
I36864
sg32
I0
sg33
I60
sbasg34
g22
(S'0'
tRp3248
sg36
g22
(S'9'
tRp3249
sbas(g911
tp3250
(lp3251
g503
as(g950
tp3252
(lp3253
g1
(g13
g3
NtRp3254
(dp3255
g16
S'T(-2)./mid\\Enya_FWIA.mid'
p3256
sg18
S'C'
sg20
I4096
sg21
g22
(S'0.125'
tRp3257
sg24
(lp3258
g1
(g26
g3
NtRp3259
(dp3260
g29
g22
(S'0.123779296875'
tRp3261
sg31
I139264
sg32
I0
sg33
I48
sbag1
(g26
g3
NtRp3262
(dp3263
g29
g22
(S'0.498779296875'
tRp3264
sg31
I139264
sg32
I0
sg33
I64
sbasg34
g22
(S'0'
tRp3265
sg36
g22
(S'34'
p3266
tRp3267
sbas(g92
tp3268
(lp3269
g429
ag1
(g13
g3
NtRp3270
(dp3271
g16
S'T(-2)./mid\\Enya_FWIA.mid'
p3272
sg18
S'F'
sg20
I4096
sg21
g22
(S'0.125'
tRp3273
sg24
(lp3274
g1
(g26
g3
NtRp3275
(dp3276
g29
g22
(S'0.123779296875'
tRp3277
sg31
I65024
sg32
I0
sg33
I48
sbasg34
g22
(S'0.875'
tRp3278
sg36
g22
(S'15.875'
tRp3279
sbag1
(g13
g3
NtRp3280
(dp3281
g16
S'T(-2)./mid\\Enya_FWIA.mid'
p3282
sg18
S'F'
sg20
I4096
sg21
g22
(S'0.125'
tRp3283
sg24
(lp3284
g1
(g26
g3
NtRp3285
(dp3286
g29
g22
(S'0.123779296875'
tRp3287
sg31
I146944
sg32
I0
sg33
I48
sbasg34
g22
(S'0.875'
tRp3288
sg36
g22
(S'35.875'
tRp3289
sbas(g161
tp3290
(lp3291
g1
(g13
g3
NtRp3292
(dp3293
g16
S'T(-2)./mid\\Enya_FWIA.mid'
p3294
sg18
S'F'
sg20
I4096
sg21
g22
(S'0.125'
tRp3295
sg24
(lp3296
g1
(g26
g3
NtRp3297
(dp3298
g29
g22
(S'0.123779296875'
tRp3299
sg31
I84480
sg32
I0
sg33
I60
sbasg34
g22
(S'0.625'
tRp3300
sg36
g22
(S'20.625'
tRp3301
sbag1
(g13
g3
NtRp3302
(dp3303
g16
S'T(-2)./mid\\Enya_FWIA.mid'
p3304
sg18
S'F'
sg20
I4096
sg21
g22
(S'0.125'
tRp3305
sg24
(lp3306
g1
(g26
g3
NtRp3307
(dp3308
g29
g22
(S'0.123779296875'
tRp3309
sg31
I100864
sg32
I0
sg33
I60
sbasg34
g22
(S'0.625'
tRp3310
sg36
g22
(S'24.625'
tRp3311
sbas(g328
tp3312
(lp3313
g368
ag1
(g13
g3
NtRp3314
(dp3315
g16
S'T(-2)./mid\\Enya_FWIA.mid'
p3316
sg18
S'C'
sg20
I4096
sg21
g22
(S'0.125'
tRp3317
sg24
(lp3318
g1
(g26
g3
NtRp3319
(dp3320
g29
g22
(S'0.123779296875'
tRp3321
sg31
I52736
sg32
I0
sg33
I48
sbasg34
g22
(S'0.875'
tRp3322
sg36
g22
(S'12.875'
tRp3323
sbag1
(g13
g3
NtRp3324
(dp3325
g16
S'T(-2)./mid\\Enya_FWIA.mid'
p3326
sg18
S'C'
sg20
I4096
sg21
g22
(S'0.125'
tRp3327
sg24
(lp3328
g1
(g26
g3
NtRp3329
(dp3330
g29
g22
(S'0.123779296875'
tRp3331
sg31
I60928
sg32
I0
sg33
I48
sbasg34
g22
(S'0.875'
tRp3332
sg36
g22
(S'14.875'
tRp3333
sbag1
(g13
g3
NtRp3334
(dp3335
g16
S'T(-2)./mid\\Enya_FWIA.mid'
p3336
sg18
S'C'
sg20
I4096
sg21
g22
(S'0.125'
tRp3337
sg24
(lp3338
g1
(g26
g3
NtRp3339
(dp3340
g29
g22
(S'0.123779296875'
tRp3341
sg31
I126464
sg32
I0
sg33
I48
sbasg34
g22
(S'0.875'
tRp3342
sg36
g22
(S'30.875'
tRp3343
sbag1
(g13
g3
NtRp3344
(dp3345
g16
S'T(-2)./mid\\Enya_FWIA.mid'
p3346
sg18
S'C'
sg20
I4096
sg21
g22
(S'0.125'
tRp3347
sg24
(lp3348
g1
(g26
g3
NtRp3349
(dp3350
g29
g22
(S'0.123779296875'
tRp3351
sg31
I134656
sg32
I0
sg33
I48
sbasg34
g22
(S'0.875'
tRp3352
sg36
g22
(S'32.875'
tRp3353
sbag1
(g13
g3
NtRp3354
(dp3355
g16
S'T(-2)./mid\\Enya_FWIA.mid'
p3356
sg18
S'C'
sg20
I4096
sg21
g22
(S'0.125'
tRp3357
sg24
(lp3358
g1
(g26
g3
NtRp3359
(dp3360
g29
g22
(S'0.123779296875'
tRp3361
sg31
I142848
sg32
I0
sg33
I48
sbasg34
g22
(S'0.875'
tRp3362
sg36
g22
(S'34.875'
tRp3363
sbas(g675
tp3364
(lp3365
g838
ag1
(g13
g3
NtRp3366
(dp3367
g16
S'T(-2)./mid\\Enya_FWIA.mid'
p3368
sg18
S'G'
sg20
I4096
sg21
g22
(S'0.125'
tRp3369
sg24
(lp3370
g1
(g26
g3
NtRp3371
(dp3372
g29
g22
(S'0.123779296875'
tRp3373
sg31
I66048
sg32
I0
sg33
I50
sbasg34
g22
(S'0.125'
tRp3374
sg36
g22
(S'16.125'
tRp3375
sbag1
(g13
g3
NtRp3376
(dp3377
g16
S'T(-2)./mid\\Enya_FWIA.mid'
p3378
sg18
S'G'
sg20
I4096
sg21
g22
(S'0.125'
tRp3379
sg24
(lp3380
g1
(g26
g3
NtRp3381
(dp3382
g29
g22
(S'0.123779296875'
tRp3383
sg31
I147968
sg32
I0
sg33
I50
sbasg34
g22
(S'0.125'
tRp3384
sg36
g22
(S'36.125'
tRp3385
sbas(g879
tp3386
(lp3387
g378
ag1
(g13
g3
NtRp3388
(dp3389
g16
S'T(-2)./mid\\Enya_FWIA.mid'
p3390
sg18
S'F'
sg20
I4096
sg21
g22
(S'0.125'
tRp3391
sg24
(lp3392
g1
(g26
g3
NtRp3393
(dp3394
g29
g22
(S'0.123779296875'
tRp3395
sg31
I130560
sg32
I0
sg33
I45
sbasg34
g22
(S'0.875'
tRp3396
sg36
g22
(S'31.875'
tRp3397
sbag950
as(g449
tp3398
(lp3399
g813
as(g1097
tp3400
(lp3401
g723
as(g599
tp3402
(lp3403
g589
ag1
(g13
g3
NtRp3404
(dp3405
g16
S'T(-2)./mid\\Enya_FWIA.mid'
p3406
sg18
g19
sg20
I4096
sg21
g22
(S'0.125'
tRp3407
sg24
(lp3408
g1
(g26
g3
NtRp3409
(dp3410
g29
g22
(S'0.123779296875'
tRp3411
sg31
I46592
sg32
I0
sg33
I53
sbasg34
g22
(S'0.375'
tRp3412
sg36
g22
(S'11.375'
tRp3413
sbag1
(g13
g3
NtRp3414
(dp3415
g16
S'T(-2)./mid\\Enya_FWIA.mid'
p3416
sg18
g19
sg20
I4096
sg21
g22
(S'0.125'
tRp3417
sg24
(lp3418
g1
(g26
g3
NtRp3419
(dp3420
g29
g22
(S'0.123779296875'
tRp3421
sg31
I120320
sg32
I0
sg33
I53
sbasg34
g22
(S'0.375'
tRp3422
sg36
g22
(S'29.375'
tRp3423
sbas(g308
tp3424
(lp3425
g734
ag1
(g13
g3
NtRp3426
(dp3427
g16
S'T(-2)./mid\\Enya_FWIA.mid'
p3428
sg18
S'G'
sg20
I4096
sg21
g22
(S'0.125'
tRp3429
sg24
(lp3430
g1
(g26
g3
NtRp3431
(dp3432
g29
g22
(S'0.123779296875'
tRp3433
sg31
I67584
sg32
I0
sg33
I43
sbasg34
g22
(S'0.5'
tRp3434
sg36
g22
(S'16.5'
tRp3435
sbag1
(g13
g3
NtRp3436
(dp3437
g16
S'T(-2)./mid\\Enya_FWIA.mid'
p3438
sg18
S'G'
sg20
I4096
sg21
g22
(S'0.125'
tRp3439
sg24
(lp3440
g1
(g26
g3
NtRp3441
(dp3442
g29
g22
(S'0.123779296875'
tRp3443
sg31
I104448
sg32
I0
sg33
I43
sbasg34
g22
(S'0.5'
tRp3444
sg36
g22
(S'25.5'
tRp3445
sbag1
(g13
g3
NtRp3446
(dp3447
g16
S'T(-2)./mid\\Enya_FWIA.mid'
p3448
sg18
S'G'
sg20
I4096
sg21
g22
(S'0.125'
tRp3449
sg24
(lp3450
g1
(g26
g3
NtRp3451
(dp3452
g29
g22
(S'0.123779296875'
tRp3453
sg31
I149504
sg32
I0
sg33
I43
sbasg34
g22
(S'0.5'
tRp3454
sg36
g22
(S'36.5'
tRp3455
sbas(g295
tp3456
(lp3457
g1108
as(g824
tp3458
(lp3459
g620
ag1
(g13
g3
NtRp3460
(dp3461
g16
S'T(-2)./mid\\Enya_FWIA.mid'
p3462
sg18
S'Em'
p3463
sg20
I4096
sg21
g22
(S'0.125'
tRp3464
sg24
(lp3465
g1
(g26
g3
NtRp3466
(dp3467
g29
g22
(S'0.123779296875'
tRp3468
sg31
I107008
sg32
I0
sg33
I55
sbasg34
g22
(S'0.125'
tRp3469
sg36
g22
(S'26.125'
tRp3470
sbas(g338
tp3471
(lp3472
g1012
ag1022
ag295
ag1
(g13
g3
NtRp3473
(dp3474
g16
S'T(-2)./mid\\Enya_FWIA.mid'
p3475
sg18
S'C'
sg20
I4096
sg21
g22
(S'0.125'
tRp3476
sg24
(lp3477
g1
(g26
g3
NtRp3478
(dp3479
g29
g22
(S'0.123779296875'
tRp3480
sg31
I43008
sg32
I0
sg33
I48
sbasg34
g22
(S'0.5'
tRp3481
sg36
g22
(S'10.5'
tRp3482
sbag1
(g13
g3
NtRp3483
(dp3484
g16
S'T(-2)./mid\\Enya_FWIA.mid'
p3485
sg18
S'C'
sg20
I4096
sg21
g22
(S'0.125'
tRp3486
sg24
(lp3487
g1
(g26
g3
NtRp3488
(dp3489
g29
g22
(S'0.123779296875'
tRp3490
sg31
I51200
sg32
I0
sg33
I60
sbasg34
g22
(S'0.5'
tRp3491
sg36
g22
(S'12.5'
tRp3492
sbag1
(g13
g3
NtRp3493
(dp3494
g16
S'T(-2)./mid\\Enya_FWIA.mid'
p3495
sg18
S'C'
sg20
I4096
sg21
g22
(S'0.125'
tRp3496
sg24
(lp3497
g1
(g26
g3
NtRp3498
(dp3499
g29
g22
(S'0.248779296875'
tRp3500
sg31
I59392
sg32
I0
sg33
I60
sbasg34
g22
(S'0.5'
tRp3501
sg36
g22
(S'14.5'
tRp3502
sbag1054
ag1
(g13
g3
NtRp3503
(dp3504
g16
S'T(-2)./mid\\Enya_FWIA.mid'
p3505
sg18
S'C'
sg20
I4096
sg21
g22
(S'0.125'
tRp3506
sg24
(lp3507
g1
(g26
g3
NtRp3508
(dp3509
g29
g22
(S'0.123779296875'
tRp3510
sg31
I116736
sg32
I0
sg33
I48
sbasg34
g22
(S'0.5'
tRp3511
sg36
g22
(S'28.5'
tRp3512
sbag1
(g13
g3
NtRp3513
(dp3514
g16
S'T(-2)./mid\\Enya_FWIA.mid'
p3515
sg18
S'C'
sg20
I4096
sg21
g22
(S'0.125'
tRp3516
sg24
(lp3517
g1
(g26
g3
NtRp3518
(dp3519
g29
g22
(S'0.123779296875'
tRp3520
sg31
I124928
sg32
I0
sg33
I60
sbasg34
g22
(S'0.5'
tRp3521
sg36
g22
(S'30.5'
tRp3522
sbag1
(g13
g3
NtRp3523
(dp3524
g16
S'T(-2)./mid\\Enya_FWIA.mid'
p3525
sg18
S'C'
sg20
I4096
sg21
g22
(S'0.125'
tRp3526
sg24
(lp3527
g1
(g26
g3
NtRp3528
(dp3529
g29
g22
(S'0.248779296875'
tRp3530
sg31
I133120
sg32
I0
sg33
I60
sbasg34
g22
(S'0.5'
tRp3531
sg36
g22
(S'32.5'
tRp3532
sbag1
(g13
g3
NtRp3533
(dp3534
g16
S'T(-2)./mid\\Enya_FWIA.mid'
p3535
sg18
S'C'
sg20
I4096
sg21
g22
(S'0.125'
tRp3536
sg24
(lp3537
g1
(g26
g3
NtRp3538
(dp3539
g29
g22
(S'0.248779296875'
tRp3540
sg31
I141312
sg32
I0
sg33
I60
sbasg34
g22
(S'0.5'
tRp3541
sg36
g22
(S'34.5'
tRp3542
sbas(g924
tp3543
(lp3544
g868
as(g490
tp3545
(lp3546
g1
(g13
g3
NtRp3547
(dp3548
g16
S'T(-2)./mid\\Enya_FWIA.mid'
p3549
sg18
S'C'
sg20
I4096
sg21
g22
(S'0.125'
tRp3550
sg24
(lp3551
g1
(g26
g3
NtRp3552
(dp3553
g29
g22
(S'0.123779296875'
tRp3554
sg31
I32768
sg32
I0
sg33
I48
sbag1
(g26
g3
NtRp3555
(dp3556
g29
g22
(S'0.498779296875'
tRp3557
sg31
I32768
sg32
I0
sg33
I64
sbasg34
g22
(S'0'
tRp3558
sg36
g22
(S'8'
tRp3559
sbassS'state_chains'
p3560
(lp3561
(lp3562
a(lp3563
a(lp3564
g49
ag273
ag284
ag523
ag81
ag889
ag991
ag38
ag824
ag620
ag60
ag216
ag754
ag150
ag1043
ag641
ag575
ag702
ag534
ag1032
ag609
ag970
ag184
ag900
ag237
ag480
ag439
ag338
ag1012
ag803
ag555
ag206
ag1084
ag793
ag599
ag589
ag102
ag513
ag1064
ag14
ag2253
ag2340
ag3032
ag1242
ag1022
ag1437
ag328
ag368
ag1128
ag631
ag250
ag655
ag112
ag358
ag92
ag429
ag675
ag838
ag125
ag308
ag734
ag1002
ag848
ag490
ag3547
ag2350
ag3042
ag1252
ag295
ag1108
ag565
ag713
ag3236
ag1800
ag2486
ag1961
ag2791
ag1764
ag1577
ag3008
ag2939
ag2360
ag3052
ag1262
ag3473
ag1674
ag3136
ag2917
ag2887
ag2231
ag2009
ag3404
ag2769
ag1344
ag2464
ag1537
ag2266
ag2370
ag3062
ag1272
ag3483
ag1447
ag3146
ag3314
ag1170
ag2644
ag1612
ag1826
ag1074
ag665
ag879
ag378
ag2167
ag2380
ag3072
ag1282
ag3493
ag1457
ag3156
ag3324
ag1184
ag2654
ag1622
ag1836
ag2573
ag2053
ag2442
ag3270
ag2197
ag3366
ag2737
ag1720
ag3426
ag2296
ag2521
ag71
ag414
ag2839
ag1900
ag2131
ag1383
ag2863
ag1146
ag2075
ag688
ag981
ag318
ag960
ag545
ag858
ag911
ag503
ag924
ag868
ag195
ag1097
ag723
ag449
ag813
ag768
ag2555
ag2031
ag1939
ag1499
ag161
ag3292
ag1118
ag348
ag1561
ag2390
ag3082
ag1292
ag1054
ag1788
ag171
ag1752
ag779
ag1407
ag1632
ag1846
ag2586
ag2996
ag260
ag227
ag135
ag2118
ag2497
ag1972
ag2802
ag1996
ag1588
ag939
ag1521
ag2041
ag1949
ag1509
ag3224
ag3302
ag1888
ag2155
ag460
ag2328
ag2747
ag1730
ag3436
ag2306
ag2531
ag744
ag2698
ag3460
ag2826
ag1924
ag1421
ag2983
ag2631
ag3208
ag2101
ag1811
ag2508
ag1983
ag2813
ag1775
ag1599
ag3019
ag2953
ag2400
ag3092
ag1302
ag3503
ag1684
ag3166
ag2927
ag2901
ag2241
ag2019
ag3414
ag2779
ag1354
ag2474
ag1547
ag2280
ag2410
ag3102
ag1312
ag3513
ag1467
ag3176
ag3334
ag1198
ag2664
ag1642
ag1856
ag2596
ag1696
ag2715
ag3388
ag2181
ag2420
ag3112
ag1322
ag3523
ag1477
ag3186
ag3344
ag1212
ag2674
ag1652
ag1866
ag2606
ag1706
ag2725
ag950
ag3254
ag2430
ag3122
ag1332
ag3533
ag1487
ag3196
ag3354
ag1226
ag2684
ag1662
ag1876
ag2616
ag2063
ag2452
ag3280
ag2211
ag3376
ag2757
ag1740
ag3446
ag2316
ag2541
ag2969
ag1366
ag2850
ag1911
ag2142
ag1394
ag2874
ag1157
ag2086
ag388
aasS'chain_length'
p3565
I1
sbsS'rev_mm'
p3566
g1
(g7
g3
NtRp3567
(dp3568
g10
g11
((lp3569
g1547
ag2086
ag49
ag2826
ag2969
ag1394
ag2452
ag2779
ag2616
ag227
ag135
ag2983
ag1662
ag171
ag1599
ag195
ag2927
ag1924
ag3354
ag260
ag2850
ag1157
ag295
ag1740
ag1949
ag3196
ag1332
ag2155
ag2063
ag3254
ag3388
ag388
ag1366
ag3280
ag3533
ag449
ag460
ag2430
ag490
ag503
ag1354
ag2142
ag2508
ag2586
ag868
ag3122
ag1054
ag2101
ag3414
ag2019
ag2813
ag3460
ag2684
ag3208
ag1876
ag1706
ag2211
ag1521
ag1811
ag713
ag2802
ag3446
ag744
ag1421
ag768
ag779
ag2241
ag1487
ag1588
ag2698
ag3376
ag2541
ag3302
ag3224
ag2725
ag2874
ag3019
ag911
ag924
ag939
ag950
ag1509
ag1775
ag2041
ag1911
ag2316
ag3503
ag3166
ag1983
ag2631
ag565
ag2474
ag2606
ag2901
ag1097
ag2757
ag1108
ag1888
ag1226
atRp3570
sg1142
(dp3571
(g2874
tp3572
(lp3573
g1394
ag1383
ag81
as(g3254
tp3574
(lp3575
g950
ag3388
ag1547
ag3019
ag348
ag378
ag1537
ag3008
ag490
ag14
ag900
as(g2779
tp3576
(lp3577
g3414
ag3404
ag589
as(g2969
tp3578
(lp3579
g2541
ag2521
as(g2142
tp3580
(lp3581
g1911
ag1900
ag284
as(g1924
tp3582
(lp3583
g2826
ag60
as(g3533
tp3584
(lp3585
g1332
ag1322
ag1312
ag1282
ag1272
ag1242
as(g1949
tp3586
(lp3587
g2041
ag2031
ag981
as(g868
tp3588
(lp3589
g924
as(g939
tp3590
(lp3591
g1588
as(g2474
tp3592
(lp3593
g1354
ag1344
ag513
as(g49
tp3594
(lp3595
g2228
as(g2155
tp3596
(lp3597
g1888
ag1118
as(g1775
tp3598
(lp3599
g2813
ag2802
ag2791
ag609
as(g2684
tp3600
(lp3601
g1226
ag1212
ag1198
ag779
ag1184
ag1170
ag1128
as(g3503
tp3602
(lp3603
g1302
ag1262
ag338
as(g2606
tp3604
(lp3605
g1866
ag1856
ag1826
as(g1054
tp3606
(lp3607
g1292
as(g2541
tp3608
(lp3609
g2316
ag2306
ag2296
ag1002
as(g171
tp3610
(lp3611
g1788
as(g2813
tp3612
(lp3613
g1983
ag1961
ag1032
as(g565
tp3614
(lp3615
g1108
as(g2101
tp3616
(lp3617
g3208
ag713
ag641
as(g1108
tp3618
(lp3619
g295
as(g1662
tp3620
(lp3621
g2684
ag2674
ag2664
ag1407
ag2654
ag2644
ag631
as(g3302
tp3622
(lp3623
g3224
ag161
ag545
as(g2850
tp3624
(lp3625
g1366
ag414
ag49
as(g2826
tp3626
(lp3627
g3460
ag620
as(g195
tp3628
(lp3629
g868
as(g2041
tp3630
(lp3631
g1521
ag2555
ag688
as(g2508
tp3632
(lp3633
g1811
ag2118
ag1800
ag702
as(g2802
tp3634
(lp3635
g1972
ag1097
as(g2241
tp3636
(lp3637
g2901
ag2887
ag1084
as(g1521
tp3638
(lp3639
g939
ag768
ag2075
as(g2616
tp3640
(lp3641
g1876
ag1836
ag655
as(g1911
tp3642
(lp3643
g2850
ag2839
ag273
as(g503
tp3644
(lp3645
g911
as(g3208
tp3646
(lp3647
g2631
ag1043
as(g135
tp3648
(lp3649
g227
as(g1157
tp3650
(lp3651
g2874
ag2863
ag889
as(g1888
tp3652
(lp3653
g3302
ag3292
as(g3388
tp3654
(lp3655
g2715
ag879
as(g3280
tp3656
(lp3657
g2452
ag2442
ag92
as(g2225
tp3658
(lp3659
g2228
ag388
as(g2901
tp3660
(lp3661
g2927
ag2917
ag206
as(g1547
tp3662
(lp3663
g2474
ag2464
ag1064
as(g3446
tp3664
(lp3665
g1740
ag1730
ag1720
ag308
as(g460
tp3666
(lp3667
g2155
as(g3354
tp3668
(lp3669
g3196
ag3186
ag3176
ag3156
ag3146
ag328
as(g2063
tp3670
(lp3671
g2616
ag2586
ag2573
ag112
as(g1354
tp3672
(lp3673
g2779
ag2769
ag102
as(g1811
tp3674
(lp3675
g2101
ag135
ag3236
ag575
as(g2316
tp3676
(lp3677
g3446
ag3436
ag3426
ag734
as(g388
tp3678
(lp3679
g2086
as(g768
tp3680
(lp3681
g813
as(g3224
tp3682
(lp3683
g1509
ag1499
as(g1876
tp3684
(lp3685
g1662
ag1652
ag1642
ag1632
ag1622
ag1612
ag250
as(g2983
tp3686
(lp3687
g1421
ag754
as(g1226
tp3688
(lp3689
g3354
ag3344
ag3334
ag3324
ag3314
ag368
as(g1588
tp3690
(lp3691
g1996
ag449
as(g744
tp3692
(lp3693
g2531
as(g1706
tp3694
(lp3695
g2606
ag2596
ag1074
as(g3376
tp3696
(lp3697
g2211
ag460
ag2197
ag675
as(g3414
tp3698
(lp3699
g2019
ag2009
ag599
as(g1983
tp3700
(lp3701
g2508
ag2497
ag2486
ag534
as(g3460
tp3702
(lp3703
g2698
ag824
as(g1366
tp3704
(lp3705
g2969
ag71
as(g779
tp3706
(lp3707
g1752
as(g2927
tp3708
(lp3709
g3166
ag171
ag3136
ag555
as(g3122
tp3710
(lp3711
g2430
ag2420
ag2410
ag2400
ag2390
ag2380
ag2370
ag2360
ag2350
ag2340
ag480
as(g3019
tp3712
(lp3713
g1599
ag1577
ag184
as(g227
tp3714
(lp3715
g260
as(g2086
tp3716
(lp3717
g1157
ag1146
ag991
as(g1421
tp3718
(lp3719
g1924
ag216
as(g2586
tp3720
(lp3721
g1846
ag960
as(g1394
tp3722
(lp3723
g2142
ag2131
ag523
as(g1599
tp3724
(lp3725
g1775
ag1764
ag970
as(g2430
tp3726
(lp3727
g3254
ag2181
ag2280
ag2953
ag1561
ag2167
ag2266
ag2939
ag3547
ag2253
ag237
as(g260
tp3728
(lp3729
g2996
as(g2757
tp3730
(lp3731
g3376
ag2328
ag3366
ag838
as(g1487
tp3732
(lp3733
g3533
ag3523
ag3513
ag3503
ag1054
ag3493
ag3483
ag3473
ag1022
ag1012
as(g2631
tp3734
(lp3735
g2983
ag150
as(g1509
tp3736
(lp3737
g1949
ag1939
ag318
as(g713
tp3738
(lp3739
g565
as(g911
tp3740
(lp3741
g858
as(g950
tp3742
(lp3743
g2725
as(g2452
tp3744
(lp3745
g2063
ag2053
ag358
as(g3196
tp3746
(lp3747
g1487
ag1477
ag1467
ag1457
ag1447
ag1437
as(g2211
tp3748
(lp3749
g3280
ag3270
ag429
as(g2725
tp3750
(lp3751
g1706
ag1696
ag665
as(g449
tp3752
(lp3753
g723
as(g1097
tp3754
(lp3755
g195
as(g2019
tp3756
(lp3757
g2241
ag2231
ag793
as(g1740
tp3758
(lp3759
g2757
ag2747
ag2737
ag125
as(g3166
tp3760
(lp3761
g1684
ag1674
ag803
as(g295
tp3762
(lp3763
g1252
as(g2698
tp3764
(lp3765
g744
ag38
as(g1332
tp3766
(lp3767
g3122
ag3112
ag3102
ag3092
ag3082
ag3072
ag3062
ag3052
ag3042
ag3032
ag439
as(g924
tp3768
(lp3769
g503
as(g490
tp3770
(lp3771
g848
assg3560
(lp3772
(lp3773
a(lp3774
a(lp3775
g388
ag2086
ag1157
ag2874
ag1394
ag2142
ag1911
ag2850
ag1366
ag2969
ag2541
ag2316
ag3446
ag1740
ag2757
ag3376
ag2211
ag3280
ag2452
ag2063
ag2616
ag1876
ag1662
ag2684
ag1226
ag3354
ag3196
ag1487
ag3533
ag1332
ag3122
ag2430
ag3254
ag950
ag2725
ag1706
ag2606
ag1866
ag1652
ag2674
ag1212
ag3344
ag3186
ag1477
ag3523
ag1322
ag3112
ag2420
ag2181
ag3388
ag2715
ag1696
ag2596
ag1856
ag1642
ag2664
ag1198
ag3334
ag3176
ag1467
ag3513
ag1312
ag3102
ag2410
ag2280
ag1547
ag2474
ag1354
ag2779
ag3414
ag2019
ag2241
ag2901
ag2927
ag3166
ag1684
ag3503
ag1302
ag3092
ag2400
ag2953
ag3019
ag1599
ag1775
ag2813
ag1983
ag2508
ag1811
ag2101
ag3208
ag2631
ag2983
ag1421
ag1924
ag2826
ag3460
ag2698
ag744
ag2531
ag2306
ag3436
ag1730
ag2747
ag2328
ag460
ag2155
ag1888
ag3302
ag3224
ag1509
ag1949
ag2041
ag1521
ag939
ag1588
ag1996
ag2802
ag1972
ag2497
ag2118
ag135
ag227
ag260
ag2996
ag2586
ag1846
ag1632
ag1407
ag779
ag1752
ag171
ag1788
ag1054
ag1292
ag3082
ag2390
ag1561
ag348
ag1118
ag3292
ag161
ag1499
ag1939
ag2031
ag2555
ag768
ag813
ag449
ag723
ag1097
ag195
ag868
ag924
ag503
ag911
ag858
ag545
ag960
ag318
ag981
ag688
ag2075
ag1146
ag2863
ag1383
ag2131
ag1900
ag2839
ag414
ag71
ag2521
ag2296
ag3426
ag1720
ag2737
ag3366
ag2197
ag3270
ag2442
ag2053
ag2573
ag1836
ag1622
ag2654
ag1184
ag3324
ag3156
ag1457
ag3493
ag1282
ag3072
ag2380
ag2167
ag378
ag879
ag665
ag1074
ag1826
ag1612
ag2644
ag1170
ag3314
ag3146
ag1447
ag3483
ag1272
ag3062
ag2370
ag2266
ag1537
ag2464
ag1344
ag2769
ag3404
ag2009
ag2231
ag2887
ag2917
ag3136
ag1674
ag3473
ag1262
ag3052
ag2360
ag2939
ag3008
ag1577
ag1764
ag2791
ag1961
ag2486
ag1800
ag3236
ag713
ag565
ag1108
ag295
ag1252
ag3042
ag2350
ag3547
ag490
ag848
ag1002
ag734
ag308
ag125
ag838
ag675
ag429
ag92
ag358
ag112
ag655
ag250
ag631
ag1128
ag368
ag328
ag1437
ag1022
ag1242
ag3032
ag2340
ag2253
ag14
ag1064
ag513
ag102
ag589
ag599
ag793
ag1084
ag206
ag555
ag803
ag1012
ag338
ag439
ag480
ag237
ag900
ag184
ag970
ag609
ag1032
ag534
ag702
ag575
ag641
ag1043
ag150
ag754
ag216
ag60
ag620
ag824
ag38
ag991
ag889
ag81
ag523
ag284
ag273
ag49
aasg3565
I1
sbsS'type'
p3776
S'enya other half'
p3777
sS'pieces'
p3778
g11
((lp3779
S'./mid\\Enya_FWIA.mid'
p3780
atRp3781
sb.