ccopy_reg
_reconstructor
p1
(c__main__
Recommender
p2
c__builtin__
object
p3
NtRp4
(dp5
S'mm'
p6
g1
(ccmm
Markov
p7
g3
NtRp8
(dp9
S'states'
p10
c__builtin__
set
p11
((lp12
g1
(ccmm
NoteState
p13
g3
NtRp14
(dp15
S'origin'
p16
S'T(0)./mid/invention1.mid'
p17
sS'chord'
p18
S'C'
sS'bar'
p19
I960
sS'state_duration'
p20
cdecimal
Decimal
p21
(S'0.0625'
tRp22
sS'notes'
p23
(lp24
g1
(cdata
note
p25
g3
NtRp26
(dp27
S'dur'
p28
g21
(S'0.0625'
tRp29
sS'pos'
p30
I19800
sS'chn'
p31
I1
sS'pitch'
p32
I52
sbag1
(g25
g3
NtRp33
(dp34
g28
g21
(S'0.0625'
tRp35
sg30
I19800
sg31
I0
sg32
I72
sbasS'bar_pos'
p36
g21
(S'0.625'
tRp37
sS'state_position'
p38
g21
(S'20.625'
tRp39
sbag1
(g13
g3
NtRp40
(dp41
g16
S'T(0)./mid/invention1.mid'
p42
sg18
S'Dm'
p43
sg19
I960
sg20
g21
(S'0.0625'
tRp44
sg23
(lp45
g1
(g25
g3
NtRp46
(dp47
g28
g21
(S'0.0625'
tRp48
sg30
I7740
sg31
I1
sg32
I67
sbasg36
g21
(S'0.0625'
tRp49
sg38
g21
(S'8.0625'
tRp50
sbag1
(g13
g3
NtRp51
(dp52
g16
S'T(0)./mid/invention1.mid'
p53
sg18
S'Dm'
p54
sg19
I960
sg20
g21
(S'0.0625'
tRp55
sg23
(lp56
g1
(g25
g3
NtRp57
(dp58
g28
g21
(S'0.0625'
tRp59
sg30
I9900
sg31
I1
sg32
I69
sbasg36
g21
(S'0.3125'
tRp60
sg38
g21
(S'10.3125'
tRp61
sbag1
(g13
g3
NtRp62
(dp63
g16
S'T(0)./mid/invention1.mid'
p64
sg18
S'Dm'
p65
sg19
I960
sg20
g21
(S'0.0625'
tRp66
sg23
(lp67
g1
(g25
g3
NtRp68
(dp69
g28
g21
(S'0.0625'
tRp70
sg30
I14520
sg31
I0
sg32
I77
sbasg36
g21
(S'0.125'
tRp71
sg38
g21
(S'15.125'
tRp72
sbag1
(g13
g3
NtRp73
(dp74
g16
S'T(0)./mid/invention1.mid'
p75
sg18
S'Em'
p76
sg19
I960
sg20
g21
(S'0.0625'
tRp77
sg23
(lp78
g1
(g25
g3
NtRp79
(dp80
g28
g21
(S'0.0625'
tRp81
sg30
I13440
sg31
I0
sg32
I69
sbag1
(g25
g3
NtRp82
(dp83
g28
g21
(S'0.125'
tRp84
sg30
I13440
sg31
I1
sg32
I57
sbasg36
g21
(S'0'
tRp85
sg38
g21
(S'14'
p86
tRp87
sbag1
(g13
g3
NtRp88
(dp89
g16
S'T(0)./mid/invention1.mid'
p90
sg18
S'Dm'
p91
sg19
I960
sg20
g21
(S'0.0625'
tRp92
sg23
(lp93
g1
(g25
g3
NtRp94
(dp95
g28
g21
(S'0.0625'
tRp96
sg30
I15000
sg31
I1
sg32
I59
sbasg36
g21
(S'0.625'
tRp97
sg38
g21
(S'15.625'
tRp98
sbag1
(g13
g3
NtRp99
(dp100
g16
S'T(0)./mid/invention1.mid'
p101
sg18
S'D'
sg19
I960
sg20
g21
(S'0.0625'
tRp102
sg23
(lp103
g1
(g25
g3
NtRp104
(dp105
g28
g21
(S'0.0625'
tRp106
sg30
I4560
sg31
I0
sg32
I64
sbag1
(g25
g3
NtRp107
(dp108
g28
g21
(S'0.125'
tRp109
sg30
I4560
sg31
I1
sg32
I48
sbasg36
g21
(S'0.75'
tRp110
sg38
g21
(S'4.75'
tRp111
sbag1
(g13
g3
NtRp112
(dp113
g16
S'T(0)./mid/invention1.mid'
p114
sg18
S'Am'
p115
sg19
I960
sg20
g21
(S'0.0625'
tRp116
sg23
(lp117
g1
(g25
g3
NtRp118
(dp119
g28
g21
(S'0.0625'
tRp120
sg30
I12660
sg31
I1
sg32
I62
sbag1
(g25
g3
NtRp121
(dp122
g28
g21
(S'0.0625'
tRp123
sg30
I12660
sg31
I0
sg32
I83
sbasg36
g21
(S'0.1875'
tRp124
sg38
g21
(S'13.1875'
tRp125
sbag1
(g13
g3
NtRp126
(dp127
g16
S'T(0)./mid/invention1.mid'
p128
sg18
S'C'
sg19
I960
sg20
g21
(S'0.0625'
tRp129
sg23
(lp130
g1
(g25
g3
NtRp131
(dp132
g28
g21
(S'0.0625'
tRp133
sg30
I8760
sg31
I1
sg32
I67
sbasg36
g21
(S'0.125'
tRp134
sg38
g21
(S'9.125'
tRp135
sbag1
(g13
g3
NtRp136
(dp137
g16
S'T(0)./mid/invention1.mid'
p138
sg18
S'Am'
p139
sg19
I960
sg20
g21
(S'0.0625'
tRp140
sg23
(lp141
g1
(g25
g3
NtRp142
(dp143
g28
g21
(S'0.0625'
tRp144
sg30
I3300
sg31
I0
sg32
I74
sbasg36
g21
(S'0.4375'
tRp145
sg38
g21
(S'3.4375'
tRp146
sbag1
(g13
g3
NtRp147
(dp148
g16
S'T(0)./mid/invention1.mid'
p149
sg18
S'G'
sg19
I960
sg20
g21
(S'0.0625'
tRp150
sg23
(lp151
g1
(g25
g3
NtRp152
(dp153
g28
g21
(S'0.0625'
tRp154
sg30
I15780
sg31
I0
sg32
I79
sbasg36
g21
(S'0.4375'
tRp155
sg38
g21
(S'16.4375'
tRp156
sbag1
(g13
g3
NtRp157
(dp158
g16
S'T(0)./mid/invention1.mid'
p159
sg18
S'Dm'
p160
sg19
I960
sg20
g21
(S'0.0625'
tRp161
sg23
(lp162
g1
(g25
g3
NtRp163
(dp164
g28
g21
(S'0.125'
tRp165
sg30
I8160
sg31
I1
sg32
I65
sbasg36
g21
(S'0.5'
tRp166
sg38
g21
(S'8.5'
tRp167
sbag1
(g13
g3
NtRp168
(dp169
g16
S'T(0)./mid/invention1.mid'
p170
sg18
S'G'
sg19
I960
sg20
g21
(S'0.0625'
tRp171
sg23
(lp172
g1
(g25
g3
NtRp173
(dp174
g28
g21
(S'0.0625'
tRp175
sg30
I6540
sg31
I0
sg32
I69
sbasg36
g21
(S'0.8125'
tRp176
sg38
g21
(S'6.8125'
tRp177
sbag1
(g13
g3
NtRp178
(dp179
g16
S'T(0)./mid/invention1.mid'
p180
sg18
S'C'
sg19
I960
sg20
g21
(S'0.0625'
tRp181
sg23
(lp182
g1
(g25
g3
NtRp183
(dp184
g28
g21
(S'0.0625'
tRp185
sg30
I9240
sg31
I0
sg32
I74
sbag1
(g25
g3
NtRp186
(dp187
g28
g21
(S'0.125'
tRp188
sg30
I9240
sg31
I1
sg32
I65
sbasg36
g21
(S'0.625'
tRp189
sg38
g21
(S'9.625'
tRp190
sbag1
(g13
g3
NtRp191
(dp192
g16
S'T(0)./mid/invention1.mid'
p193
sg18
S'Dm'
p194
sg19
I960
sg20
g21
(S'0.0625'
tRp195
sg23
(lp196
g1
(g25
g3
NtRp197
(dp198
g28
g21
(S'0.0625'
tRp199
sg30
I18720
sg31
I1
sg32
I64
sbag1
(g25
g3
NtRp200
(dp201
g28
g21
(S'0.125'
tRp202
sg30
I18720
sg31
I0
sg32
I84
sbasg36
g21
(S'0.5'
tRp203
sg38
g21
(S'19.5'
tRp204
sbag1
(g13
g3
NtRp205
(dp206
g16
S'T(0)./mid/invention1.mid'
p207
sg18
S'C'
sg19
I960
sg20
g21
(S'1'
tRp208
sg23
(lp209
g1
(g25
g3
NtRp210
(dp211
g28
g21
(S'1'
tRp212
sg30
I20160
sg31
I1
sg32
I36
sbag1
(g25
g3
NtRp213
(dp214
g28
g21
(S'1'
tRp215
sg30
I20160
sg31
I1
sg32
I48
sbag1
(g25
g3
NtRp216
(dp217
g28
g21
(S'1'
tRp218
sg30
I20160
sg31
I0
sg32
I64
sbag1
(g25
g3
NtRp219
(dp220
g28
g21
(S'1'
tRp221
sg30
I20160
sg31
I0
sg32
I67
sbag1
(g25
g3
NtRp222
(dp223
g28
g21
(S'1'
tRp224
sg30
I20160
sg31
I0
sg32
I72
sbasg36
g21
(S'0'
tRp225
sg38
g21
(S'21'
p226
tRp227
sbag1
(g13
g3
NtRp228
(dp229
g16
S'T(0)./mid/invention1.mid'
p230
sg18
S'D'
sg19
I960
sg20
g21
(S'0.0625'
tRp231
sg23
(lp232
g1
(g25
g3
NtRp233
(dp234
g28
g21
(S'0.0625'
tRp235
sg30
I7320
sg31
I0
sg32
I71
sbag1
(g25
g3
NtRp236
(dp237
g28
g21
(S'0.125'
tRp238
sg30
I7320
sg31
I1
sg32
I62
sbasg36
g21
(S'0.625'
tRp239
sg38
g21
(S'7.625'
tRp240
sbag1
(g13
g3
NtRp241
(dp242
g16
S'T(0)./mid/invention1.mid'
p243
sg18
S'C'
sg19
I960
sg20
g21
(S'0.0625'
tRp244
sg23
(lp245
g1
(g25
g3
NtRp246
(dp247
g28
g21
(S'0.0625'
tRp248
sg30
I9540
sg31
I0
sg32
I76
sbasg36
g21
(S'0.9375'
tRp249
sg38
g21
(S'9.9375'
tRp250
sbag1
(g13
g3
NtRp251
(dp252
g16
S'T(0)./mid/invention1.mid'
p253
sg18
S'G'
sg19
I960
sg20
g21
(S'0.03125'
tRp254
sg23
(lp255
g1
(g25
g3
NtRp256
(dp257
g28
g21
(S'0.03125'
tRp258
sg30
I5520
sg31
I0
sg32
I71
sbag1
(g25
g3
NtRp259
(dp260
g28
g21
(S'0.125'
tRp261
sg30
I5520
sg31
I1
sg32
I50
sbasg36
g21
(S'0.75'
tRp262
sg38
g21
(S'5.75'
tRp263
sbag1
(g13
g3
NtRp264
(dp265
g16
S'T(0)./mid/invention1.mid'
p266
sg18
S'G'
sg19
I960
sg20
g21
(S'0.0625'
tRp267
sg23
(lp268
g1
(g25
g3
NtRp269
(dp270
g28
g21
(S'0.0625'
tRp271
sg30
I1560
sg31
I1
sg32
I57
sbag1
(g25
g3
NtRp272
(dp273
g28
g21
(S'0.125'
tRp274
sg30
I1560
sg31
I0
sg32
I79
sbasg36
g21
(S'0.625'
tRp275
sg38
g21
(S'1.625'
tRp276
sbag1
(g13
g3
NtRp277
(dp278
g16
S'T(0)./mid/invention1.mid'
p279
sg18
S'Dm'
p280
sg19
I960
sg20
g21
(S'0.0625'
tRp281
sg23
(lp282
g1
(g25
g3
NtRp283
(dp284
g28
g21
(S'0.0625'
tRp285
sg30
I8400
sg31
I0
sg32
I69
sbag1
(g25
g3
NtRp286
(dp287
g28
g21
(S'0.125'
tRp288
sg30
I8400
sg31
I1
sg32
I65
sbasg36
g21
(S'0.75'
tRp289
sg38
g21
(S'8.75'
tRp290
sbag1
(g13
g3
NtRp291
(dp292
g16
S'T(0)./mid/invention1.mid'
p293
sg18
S'Dm'
p294
sg19
I960
sg20
g21
(S'0.0625'
tRp295
sg23
(lp296
g1
(g25
g3
NtRp297
(dp298
g28
g21
(S'0.0625'
tRp299
sg30
I14820
sg31
I0
sg32
I76
sbasg36
g21
(S'0.4375'
tRp300
sg38
g21
(S'15.4375'
tRp301
sbag1
(g13
g3
NtRp302
(dp303
g16
S'T(0)./mid/invention1.mid'
p304
sg18
S'C'
sg19
I960
sg20
g21
(S'0.0625'
tRp305
sg23
(lp306
g1
(g25
g3
NtRp307
(dp308
g28
g21
(S'0.0625'
tRp309
sg30
I16440
sg31
I0
sg32
I76
sbasg36
g21
(S'0.125'
tRp310
sg38
g21
(S'17.125'
tRp311
sbag1
(g13
g3
NtRp312
(dp313
g16
S'T(0)./mid/invention1.mid'
p314
sg18
S'C'
sg19
I960
sg20
g21
(S'0.0625'
tRp315
sg23
(lp316
g1
(g25
g3
NtRp317
(dp318
g28
g21
(S'0.0625'
tRp319
sg30
I16680
sg31
I0
sg32
I77
sbasg36
g21
(S'0.375'
tRp320
sg38
g21
(S'17.375'
tRp321
sbag1
(g13
g3
NtRp322
(dp323
g16
S'T(0)./mid/invention1.mid'
p324
sg18
S'Dm'
p325
sg19
I960
sg20
g21
(S'0.0625'
tRp326
sg23
(lp327
g1
(g25
g3
NtRp328
(dp329
g28
g21
(S'0.0625'
tRp330
sg30
I7920
sg31
I1
sg32
I62
sbasg36
g21
(S'0.25'
tRp331
sg38
g21
(S'8.25'
tRp332
sbag1
(g13
g3
NtRp333
(dp334
g16
S'T(0)./mid/invention1.mid'
p335
sg18
S'Dm'
p336
sg19
I960
sg20
g21
(S'0.0625'
tRp337
sg23
(lp338
g1
(g25
g3
NtRp339
(dp340
g28
g21
(S'0.0625'
tRp341
sg30
I18300
sg31
I0
sg32
I79
sbasg36
g21
(S'0.0625'
tRp342
sg38
g21
(S'19.0625'
tRp343
sbag1
(g13
g3
NtRp344
(dp345
g16
S'T(0)./mid/invention1.mid'
p346
sg18
S'Em'
p347
sg19
I960
sg20
g21
(S'0.0625'
tRp348
sg23
(lp349
g1
(g25
g3
NtRp350
(dp351
g28
g21
(S'0.0625'
tRp352
sg30
I13740
sg31
I0
sg32
I79
sbasg36
g21
(S'0.3125'
tRp353
sg38
g21
(S'14.3125'
tRp354
sbag1
(g13
g3
NtRp355
(dp356
g16
S'T(0)./mid/invention1.mid'
p357
sg18
S'C'
sg19
I960
sg20
g21
(S'0.0625'
tRp358
sg23
(lp359
g1
(g25
g3
NtRp360
(dp361
g28
g21
(S'0.0625'
tRp362
sg30
I780
sg31
I1
sg32
I50
sbag1
(g25
g3
NtRp363
(dp364
g28
g21
(S'0.0625'
tRp365
sg30
I780
sg31
I0
sg32
I71
sbasg36
g21
(S'0.8125'
tRp366
sg38
g21
(S'0.8125'
tRp367
sbag1
(g13
g3
NtRp368
(dp369
g16
S'T(0)./mid/invention1.mid'
p370
sg18
S'C'
sg19
I960
sg20
g21
(S'0.0625'
tRp371
sg23
(lp372
g1
(g25
g3
NtRp373
(dp374
g28
g21
(S'0.0625'
tRp375
sg30
I16920
sg31
I1
sg32
I57
sbasg36
g21
(S'0.625'
tRp376
sg38
g21
(S'17.625'
tRp377
sbag1
(g13
g3
NtRp378
(dp379
g16
S'T(0)./mid/invention1.mid'
p380
sg18
S'Em'
p381
sg19
I960
sg20
g21
(S'0.0625'
tRp382
sg23
(lp383
g1
(g25
g3
NtRp384
(dp385
g28
g21
(S'0.0625'
tRp386
sg30
I13860
sg31
I0
sg32
I81
sbasg36
g21
(S'0.4375'
tRp387
sg38
g21
(S'14.4375'
tRp388
sbag1
(g13
g3
NtRp389
(dp390
g16
S'T(0)./mid/invention1.mid'
p391
sg18
S'Dm'
p392
sg19
I960
sg20
g21
(S'0.0625'
tRp393
sg23
(lp394
g1
(g25
g3
NtRp395
(dp396
g28
g21
(S'0.0625'
tRp397
sg30
I10200
sg31
I1
sg32
I65
sbag1
(g25
g3
NtRp398
(dp399
g28
g21
(S'0.125'
tRp400
sg30
I10200
sg31
I0
sg32
I69
sbasg36
g21
(S'0.625'
tRp401
sg38
g21
(S'10.625'
tRp402
sbag1
(g13
g3
NtRp403
(dp404
g16
S'T(0)./mid/invention1.mid'
p405
sg18
S'G'
sg19
I960
sg20
g21
(S'0.0625'
tRp406
sg23
(lp407
g1
(g25
g3
NtRp408
(dp409
g28
g21
(S'0.0625'
tRp410
sg30
I1800
sg31
I1
sg32
I59
sbag1
(g25
g3
NtRp411
(dp412
g28
g21
(S'0.125'
tRp413
sg30
I1800
sg31
I0
sg32
I79
sbasg36
g21
(S'0.875'
tRp414
sg38
g21
(S'1.875'
tRp415
sbag1
(g13
g3
NtRp416
(dp417
g16
S'T(0)./mid/invention1.mid'
p418
sg18
S'G'
sg19
I960
sg20
g21
(S'0.0625'
tRp419
sg23
(lp420
g1
(g25
g3
NtRp421
(dp422
g28
g21
(S'0.0625'
tRp423
sg30
I16260
sg31
I1
sg32
I62
sbasg36
g21
(S'0.9375'
tRp424
sg38
g21
(S'16.9375'
tRp425
sbag1
(g13
g3
NtRp426
(dp427
g16
S'T(0)./mid/invention1.mid'
p428
sg18
S'Am'
p429
sg19
I960
sg20
g21
(S'0.0625'
tRp430
sg23
(lp431
g1
(g25
g3
NtRp432
(dp433
g28
g21
(S'0.0625'
tRp434
sg30
I12480
sg31
I1
sg32
I57
sbag1
(g25
g3
NtRp435
(dp436
g28
g21
(S'0.0625'
tRp437
sg30
I12480
sg31
I0
sg32
I72
sbasg36
g21
(S'0'
tRp438
sg38
g21
(S'13'
p439
tRp440
sbag1
(g13
g3
NtRp441
(dp442
g16
S'T(0)./mid/invention1.mid'
p443
sg18
S'D'
sg19
I960
sg20
g21
(S'0.0625'
tRp444
sg23
(lp445
g1
(g25
g3
NtRp446
(dp447
g28
g21
(S'0.0625'
tRp448
sg30
I4500
sg31
I0
sg32
I66
sbasg36
g21
(S'0.6875'
tRp449
sg38
g21
(S'4.6875'
tRp450
sbag1
(g13
g3
NtRp451
(dp452
g16
S'T(0)./mid/invention1.mid'
p453
sg18
S'Dm'
p454
sg19
I960
sg20
g21
(S'0.0625'
tRp455
sg23
(lp456
g1
(g25
g3
NtRp457
(dp458
g28
g21
(S'0.0625'
tRp459
sg30
I18120
sg31
I0
sg32
I79
sbag1
(g25
g3
NtRp460
(dp461
g28
g21
(S'0.125'
tRp462
sg30
I18120
sg31
I1
sg32
I58
sbasg36
g21
(S'0.875'
tRp463
sg38
g21
(S'18.875'
tRp464
sbag1
(g13
g3
NtRp465
(dp466
g16
S'T(0)./mid/invention1.mid'
p467
sg18
S'Am'
p468
sg19
I960
sg20
g21
(S'0.0625'
tRp469
sg23
(lp470
g1
(g25
g3
NtRp471
(dp472
g28
g21
(S'0.0625'
tRp473
sg30
I13080
sg31
I0
sg32
I76
sbag1
(g25
g3
NtRp474
(dp475
g28
g21
(S'0.125'
tRp476
sg30
I13080
sg31
I1
sg32
I57
sbasg36
g21
(S'0.625'
tRp477
sg38
g21
(S'13.625'
tRp478
sbag1
(g13
g3
NtRp479
(dp480
g16
S'T(0)./mid/invention1.mid'
p481
sg18
S'C'
sg19
I960
sg20
g21
(S'0.0625'
tRp482
sg23
(lp483
g1
(g25
g3
NtRp484
(dp485
g28
g21
(S'0.0625'
tRp486
sg30
I16560
sg31
I0
sg32
I79
sbasg36
g21
(S'0.25'
tRp487
sg38
g21
(S'17.25'
tRp488
sbag1
(g13
g3
NtRp489
(dp490
g16
S'T(0)./mid/invention1.mid'
p491
sg18
S'G'
sg19
I960
sg20
g21
(S'0.0625'
tRp492
sg23
(lp493
g1
(g25
g3
NtRp494
(dp495
g28
g21
(S'0.0625'
tRp496
sg30
I5400
sg31
I0
sg32
I74
sbasg36
g21
(S'0.625'
tRp497
sg38
g21
(S'5.625'
tRp498
sbag1
(g13
g3
NtRp499
(dp500
g16
S'T(0)./mid/invention1.mid'
p501
sg18
S'G'
sg19
I960
sg20
g21
(S'0.0625'
tRp502
sg23
(lp503
g1
(g25
g3
NtRp504
(dp505
g28
g21
(S'0.0625'
tRp506
sg30
I6000
sg31
I1
sg32
I48
sbasg36
g21
(S'0.25'
tRp507
sg38
g21
(S'6.25'
tRp508
sbag1
(g13
g3
NtRp509
(dp510
g16
S'T(0)./mid/invention1.mid'
p511
sg18
S'Dm'
p512
sg19
I960
sg20
g21
(S'0.0625'
tRp513
sg23
(lp514
g1
(g25
g3
NtRp515
(dp516
g28
g21
(S'0.0625'
tRp517
sg30
I9960
sg31
I1
sg32
I67
sbag1
(g25
g3
NtRp518
(dp519
g28
g21
(S'0.125'
tRp520
sg30
I9960
sg31
I0
sg32
I76
sbasg36
g21
(S'0.375'
tRp521
sg38
g21
(S'10.375'
tRp522
sbag1
(g13
g3
NtRp523
(dp524
g16
S'T(0)./mid/invention1.mid'
p525
sg18
S'Dm'
p526
sg19
I960
sg20
g21
(S'0.0625'
tRp527
sg23
(lp528
g1
(g25
g3
NtRp529
(dp530
g28
g21
(S'0.0625'
tRp531
sg30
I10320
sg31
I1
sg32
I62
sbag1
(g25
g3
NtRp532
(dp533
g28
g21
(S'0.125'
tRp534
sg30
I10320
sg31
I0
sg32
I71
sbasg36
g21
(S'0.75'
tRp535
sg38
g21
(S'10.75'
tRp536
sbag1
(g13
g3
NtRp537
(dp538
g16
S'T(0)./mid/invention1.mid'
p539
sg18
S'C'
sg19
I960
sg20
g21
(S'0.0625'
tRp540
sg23
(lp541
g1
(g25
g3
NtRp542
(dp543
g28
g21
(S'0.0625'
tRp544
sg30
I2400
sg31
I0
sg32
I79
sbag1
(g25
g3
NtRp545
(dp546
g28
g21
(S'0.125'
tRp547
sg30
I2400
sg31
I1
sg32
I64
sbasg36
g21
(S'0.5'
tRp548
sg38
g21
(S'2.5'
tRp549
sbag1
(g13
g3
NtRp550
(dp551
g16
S'T(0)./mid/invention1.mid'
p552
sg18
S'Em'
p553
sg19
I960
sg20
g21
(S'0.0625'
tRp554
sg23
(lp555
g1
(g25
g3
NtRp556
(dp557
g28
g21
(S'0.0625'
tRp558
sg30
I14280
sg31
I1
sg32
I61
sbasg36
g21
(S'0.875'
tRp559
sg38
g21
(S'14.875'
tRp560
sbag1
(g13
g3
NtRp561
(dp562
g16
S'T(0)./mid/invention1.mid'
p563
sg18
S'Dm'
p564
sg19
I960
sg20
g21
(S'0.0625'
tRp565
sg23
(lp566
g1
(g25
g3
NtRp567
(dp568
g28
g21
(S'0.0625'
tRp569
sg30
I7680
sg31
I1
sg32
I55
sbag1
(g25
g3
NtRp570
(dp571
g28
g21
(S'0.125'
tRp572
sg30
I7680
sg31
I0
sg32
I71
sbasg36
g21
(S'0'
tRp573
sg38
g21
(S'8'
tRp574
sbag1
(g13
g3
NtRp575
(dp576
g16
S'T(0)./mid/invention1.mid'
p577
sg18
S'D'
sg19
I960
sg20
g21
(S'0.0625'
tRp578
sg23
(lp579
g1
(g25
g3
NtRp580
(dp581
g28
g21
(S'0.0625'
tRp582
sg30
I4200
sg31
I1
sg32
I54
sbasg36
g21
(S'0.375'
tRp583
sg38
g21
(S'4.375'
tRp584
sbag1
(g13
g3
NtRp585
(dp586
g16
S'T(0)./mid/invention1.mid'
p587
sg18
S'G'
sg19
I960
sg20
g21
(S'0.0625'
tRp588
sg23
(lp589
g1
(g25
g3
NtRp590
(dp591
g28
g21
(S'0.0625'
tRp592
sg30
I5220
sg31
I0
sg32
I76
sbasg36
g21
(S'0.4375'
tRp593
sg38
g21
(S'5.4375'
tRp594
sbag1
(g13
g3
NtRp595
(dp596
g16
S'T(0)./mid/invention1.mid'
p597
sg18
S'G'
sg19
I960
sg20
g21
(S'0.0625'
tRp598
sg23
(lp599
g1
(g25
g3
NtRp600
(dp601
g28
g21
(S'0.0625'
tRp602
sg30
I1260
sg31
I0
sg32
I69
sbasg36
g21
(S'0.3125'
tRp603
sg38
g21
(S'1.3125'
tRp604
sbag1
(g13
g3
NtRp605
(dp606
g16
S'T(0)./mid/invention1.mid'
p607
sg18
S'Dm'
p608
sg19
I960
sg20
g21
(S'0.0625'
tRp609
sg23
(lp610
g1
(g25
g3
NtRp611
(dp612
g28
g21
(S'0.5'
tRp613
sg30
I14880
sg31
I0
sg32
I77
sbasg36
g21
(S'0.5'
tRp614
sg38
g21
(S'15.5'
tRp615
sbag1
(g13
g3
NtRp616
(dp617
g16
S'T(0)./mid/invention1.mid'
p618
sg18
S'E'
sg19
I960
sg20
g21
(S'0.0625'
tRp619
sg23
(lp620
g1
(g25
g3
NtRp621
(dp622
g28
g21
(S'0.0625'
tRp623
sg30
I11700
sg31
I0
sg32
I68
sbasg36
g21
(S'0.1875'
tRp624
sg38
g21
(S'12.1875'
tRp625
sbag1
(g13
g3
NtRp626
(dp627
g16
S'T(0)./mid/invention1.mid'
p628
sg18
S'C'
sg19
I960
sg20
g21
(S'0.0625'
tRp629
sg23
(lp630
g1
(g25
g3
NtRp631
(dp632
g28
g21
(S'0.0625'
tRp633
sg30
I20040
sg31
I0
sg32
I65
sbag1
(g25
g3
NtRp634
(dp635
g28
g21
(S'0.125'
tRp636
sg30
I20040
sg31
I1
sg32
I43
sbasg36
g21
(S'0.875'
tRp637
sg38
g21
(S'20.875'
tRp638
sbag1
(g13
g3
NtRp639
(dp640
g16
S'T(0)./mid/invention1.mid'
p641
sg18
S'Dm'
p642
sg19
I960
sg20
g21
(S'0.0625'
tRp643
sg23
(lp644
g1
(g25
g3
NtRp645
(dp646
g28
g21
(S'0.0625'
tRp647
sg30
I17580
sg31
I0
sg32
I74
sbasg36
g21
(S'0.3125'
tRp648
sg38
g21
(S'18.3125'
tRp649
sbag1
(g13
g3
NtRp650
(dp651
g16
S'T(0)./mid/invention1.mid'
p652
sg18
S'Bm'
p653
sg19
I960
sg20
g21
(S'0.0625'
tRp654
sg23
(lp655
g1
(g25
g3
NtRp656
(dp657
g28
g21
(S'0.0625'
tRp658
sg30
I11040
sg31
I1
sg32
I62
sbag1
(g25
g3
NtRp659
(dp660
g28
g21
(S'0.125'
tRp661
sg30
I11040
sg31
I0
sg32
I71
sbasg36
g21
(S'0.5'
tRp662
sg38
g21
(S'11.5'
tRp663
sbag1
(g13
g3
NtRp664
(dp665
g16
S'T(0)./mid/invention1.mid'
p666
sg18
S'Bm'
p667
sg19
I960
sg20
g21
(S'0.0625'
tRp668
sg23
(lp669
g1
(g25
g3
NtRp670
(dp671
g28
g21
(S'0.0625'
tRp672
sg30
I10860
sg31
I1
sg32
I62
sbasg36
g21
(S'0.3125'
tRp673
sg38
g21
(S'11.3125'
tRp674
sbag1
(g13
g3
NtRp675
(dp676
g16
S'T(0)./mid/invention1.mid'
p677
sg18
S'Em'
p678
sg19
I960
sg20
g21
(S'0.0625'
tRp679
sg23
(lp680
g1
(g25
g3
NtRp681
(dp682
g28
g21
(S'0.0625'
tRp683
sg30
I13980
sg31
I1
sg32
I64
sbasg36
g21
(S'0.5625'
tRp684
sg38
g21
(S'14.5625'
tRp685
sbag1
(g13
g3
NtRp686
(dp687
g16
S'T(0)./mid/invention1.mid'
p688
sg18
S'C'
sg19
I960
sg20
g21
(S'0.0625'
tRp689
sg23
(lp690
g1
(g25
g3
NtRp691
(dp692
g28
g21
(S'0.0625'
tRp693
sg30
I19260
sg31
I0
sg32
I70
sbasg36
g21
(S'0.0625'
tRp694
sg38
g21
(S'20.0625'
tRp695
sbag1
(g13
g3
NtRp696
(dp697
g16
S'T(0)./mid/invention1.mid'
p698
sg18
S'C'
sg19
I960
sg20
g21
(S'0.0625'
tRp699
sg23
(lp700
g1
(g25
g3
NtRp701
(dp702
g28
g21
(S'0.0625'
tRp703
sg30
I840
sg31
I1
sg32
I52
sbag1
(g25
g3
NtRp704
(dp705
g28
g21
(S'0.125'
tRp706
sg30
I840
sg31
I0
sg32
I72
sbasg36
g21
(S'0.875'
tRp707
sg38
g21
(S'0.875'
tRp708
sbag1
(g13
g3
NtRp709
(dp710
g16
S'T(0)./mid/invention1.mid'
p711
sg18
S'D'
sg19
I960
sg20
g21
(S'0.03125'
tRp712
sg23
(lp713
g1
(g25
g3
NtRp714
(dp715
g28
g21
(S'0.03125'
tRp716
sg30
I4110
sg31
I0
sg32
I71
sbasg36
g21
(S'0.28125'
tRp717
sg38
g21
(S'4.28125'
tRp718
sbag1
(g13
g3
NtRp719
(dp720
g16
S'T(0)./mid/invention1.mid'
p721
sg18
S'G'
sg19
I960
sg20
g21
(S'0.03125'
tRp722
sg23
(lp723
g1
(g25
g3
NtRp724
(dp725
g28
g21
(S'0.03125'
tRp726
sg30
I1710
sg31
I0
sg32
I76
sbasg36
g21
(S'0.78125'
tRp727
sg38
g21
(S'1.78125'
tRp728
sbag1
(g13
g3
NtRp729
(dp730
g16
S'T(0)./mid/invention1.mid'
p731
sg18
S'C'
sg19
I960
sg20
g21
(S'0.0625'
tRp732
sg23
(lp733
g1
(g25
g3
NtRp734
(dp735
g28
g21
(S'0.0625'
tRp736
sg30
I2760
sg31
I0
sg32
I74
sbag1
(g25
g3
NtRp737
(dp738
g28
g21
(S'0.125'
tRp739
sg30
I2760
sg31
I1
sg32
I59
sbasg36
g21
(S'0.875'
tRp740
sg38
g21
(S'2.875'
tRp741
sbag1
(g13
g3
NtRp742
(dp743
g16
S'T(0)./mid/invention1.mid'
p744
sg18
S'C'
sg19
I960
sg20
g21
(S'0.0625'
tRp745
sg23
(lp746
g1
(g25
g3
NtRp747
(dp748
g28
g21
(S'0.0625'
tRp749
sg30
I1920
sg31
I0
sg32
I76
sbag1
(g25
g3
NtRp750
(dp751
g28
g21
(S'0.125'
tRp752
sg30
I1920
sg31
I1
sg32
I60
sbasg36
g21
(S'0'
tRp753
sg38
g21
(S'2'
tRp754
sbag1
(g13
g3
NtRp755
(dp756
g16
S'T(0)./mid/invention1.mid'
p757
sg18
S'E'
sg19
I960
sg20
g21
(S'0.0625'
tRp758
sg23
(lp759
g1
(g25
g3
NtRp760
(dp761
g28
g21
(S'0.0625'
tRp762
sg30
I12300
sg31
I1
sg32
I57
sbag1
(g25
g3
NtRp763
(dp764
g28
g21
(S'0.0625'
tRp765
sg30
I12300
sg31
I0
sg32
I72
sbasg36
g21
(S'0.8125'
tRp766
sg38
g21
(S'12.8125'
tRp767
sbag1
(g13
g3
NtRp768
(dp769
g16
S'T(0)./mid/invention1.mid'
p770
sg18
S'C'
sg19
I960
sg20
g21
(S'0.0625'
tRp771
sg23
(lp772
g1
(g25
g3
NtRp773
(dp774
g28
g21
(S'0.0625'
tRp775
sg30
I19380
sg31
I0
sg32
I67
sbasg36
g21
(S'0.1875'
tRp776
sg38
g21
(S'20.1875'
tRp777
sbag1
(g13
g3
NtRp778
(dp779
g16
S'T(0)./mid/invention1.mid'
p780
sg18
S'C'
sg19
I960
sg20
g21
(S'0.0625'
tRp781
sg23
(lp782
g1
(g25
g3
NtRp783
(dp784
g28
g21
(S'0.0625'
tRp785
sg30
I8820
sg31
I1
sg32
I65
sbasg36
g21
(S'0.1875'
tRp786
sg38
g21
(S'9.1875'
tRp787
sbag1
(g13
g3
NtRp788
(dp789
g16
S'T(0)./mid/invention1.mid'
p790
sg18
S'Dm'
p791
sg19
I960
sg20
g21
(S'0.0625'
tRp792
sg23
(lp793
g1
(g25
g3
NtRp794
(dp795
g28
g21
(S'0.0625'
tRp796
sg30
I9720
sg31
I1
sg32
I69
sbag1
(g25
g3
NtRp797
(dp798
g28
g21
(S'0.125'
tRp799
sg30
I9720
sg31
I0
sg32
I73
sbasg36
g21
(S'0.125'
tRp800
sg38
g21
(S'10.125'
tRp801
sbag1
(g13
g3
NtRp802
(dp803
g16
S'T(0)./mid/invention1.mid'
p804
sg18
S'C'
sg19
I960
sg20
g21
(S'0.0625'
tRp805
sg23
(lp806
g1
(g25
g3
NtRp807
(dp808
g28
g21
(S'0.0625'
tRp809
sg30
I19560
sg31
I0
sg32
I67
sbag1
(g25
g3
NtRp810
(dp811
g28
g21
(S'0.125'
tRp812
sg30
I19560
sg31
I1
sg32
I52
sbasg36
g21
(S'0.375'
tRp813
sg38
g21
(S'20.375'
tRp814
sbag1
(g13
g3
NtRp815
(dp816
g16
S'T(0)./mid/invention1.mid'
p817
sg18
S'C'
sg19
I960
sg20
g21
(S'0.0625'
tRp818
sg23
(lp819
g1
(g25
g3
NtRp820
(dp821
g28
g21
(S'0.0625'
tRp822
sg30
I19500
sg31
I0
sg32
I69
sbasg36
g21
(S'0.3125'
tRp823
sg38
g21
(S'20.3125'
tRp824
sbag1
(g13
g3
NtRp825
(dp826
g16
S'T(0)./mid/invention1.mid'
p827
sg18
S'C'
sg19
I960
sg20
g21
(S'0.03125'
tRp828
sg23
(lp829
g1
(g25
g3
NtRp830
(dp831
g28
g21
(S'0.03125'
tRp832
sg30
I750
sg31
I0
sg32
I69
sbasg36
g21
(S'0.78125'
tRp833
sg38
g21
(S'0.78125'
tRp834
sbag1
(g13
g3
NtRp835
(dp836
g16
S'T(0)./mid/invention1.mid'
p837
sg18
S'G'
sg19
I960
sg20
g21
(S'0.0625'
tRp838
sg23
(lp839
g1
(g25
g3
NtRp840
(dp841
g28
g21
(S'0.0625'
tRp842
sg30
I1080
sg31
I0
sg32
I69
sbag1
(g25
g3
NtRp843
(dp844
g28
g21
(S'0.125'
tRp845
sg30
I1080
sg31
I1
sg32
I43
sbasg36
g21
(S'0.125'
tRp846
sg38
g21
(S'1.125'
tRp847
sbag1
(g13
g3
NtRp848
(dp849
g16
S'T(0)./mid/invention1.mid'
p850
sg18
S'D'
sg19
I960
sg20
g21
(S'0.0625'
tRp851
sg23
(lp852
g1
(g25
g3
NtRp853
(dp854
g28
g21
(S'0.0625'
tRp855
sg30
I3960
sg31
I1
sg32
I52
sbag1
(g25
g3
NtRp856
(dp857
g28
g21
(S'0.125'
tRp858
sg30
I3960
sg31
I0
sg32
I62
sbasg36
g21
(S'0.125'
tRp859
sg38
g21
(S'4.125'
tRp860
sbag1
(g13
g3
NtRp861
(dp862
g16
S'T(0)./mid/invention1.mid'
p863
sg18
S'G'
sg19
I960
sg20
g21
(S'0.0625'
tRp864
sg23
(lp865
g1
(g25
g3
NtRp866
(dp867
g28
g21
(S'0.0625'
tRp868
sg30
I5100
sg31
I0
sg32
I74
sbasg36
g21
(S'0.3125'
tRp869
sg38
g21
(S'5.3125'
tRp870
sbag1
(g13
g3
NtRp871
(dp872
g16
S'T(0)./mid/invention1.mid'
p873
sg18
S'G'
sg19
I960
sg20
g21
(S'0.0625'
tRp874
sg23
(lp875
g1
(g25
g3
NtRp876
(dp877
g28
g21
(S'0.0625'
tRp878
sg30
I5160
sg31
I0
sg32
I72
sbag1
(g25
g3
NtRp879
(dp880
g28
g21
(S'0.125'
tRp881
sg30
I5160
sg31
I1
sg32
I52
sbasg36
g21
(S'0.375'
tRp882
sg38
g21
(S'5.375'
tRp883
sbag1
(g13
g3
NtRp884
(dp885
g16
S'T(0)./mid/invention1.mid'
p886
sg18
S'C'
sg19
I960
sg20
g21
(S'0.0625'
tRp887
sg23
(lp888
g1
(g25
g3
NtRp889
(dp890
g28
g21
(S'0.0625'
tRp891
sg30
I19680
sg31
I1
sg32
I53
sbag1
(g25
g3
NtRp892
(dp893
g28
g21
(S'0.0625'
tRp894
sg30
I19680
sg31
I0
sg32
I69
sbasg36
g21
(S'0.5'
tRp895
sg38
g21
(S'20.5'
tRp896
sbag1
(g13
g3
NtRp897
(dp898
g16
S'T(0)./mid/invention1.mid'
p899
sg18
S'G'
sg19
I960
sg20
g21
(S'0.0625'
tRp900
sg23
(lp901
g1
(g25
g3
NtRp902
(dp903
g28
g21
(S'0.125'
tRp904
sg30
I5760
sg31
I0
sg32
I67
sbasg36
g21
(S'0'
tRp905
sg38
g21
(S'6'
tRp906
sbag1
(g13
g3
NtRp907
(dp908
g16
S'T(0)./mid/invention1.mid'
p909
sg18
S'E'
sg19
I960
sg20
g21
(S'0.0625'
tRp910
sg23
(lp911
g1
(g25
g3
NtRp912
(dp913
g28
g21
(S'0.0625'
tRp914
sg30
I12360
sg31
I1
sg32
I56
sbag1
(g25
g3
NtRp915
(dp916
g28
g21
(S'0.0625'
tRp917
sg30
I12360
sg31
I0
sg32
I71
sbasg36
g21
(S'0.875'
tRp918
sg38
g21
(S'12.875'
tRp919
sbag1
(g13
g3
NtRp920
(dp921
g16
S'T(0)./mid/invention1.mid'
p922
sg18
S'Bm'
p923
sg19
I960
sg20
g21
(S'0.0625'
tRp924
sg23
(lp925
g1
(g25
g3
NtRp926
(dp927
g28
g21
(S'0.0625'
tRp928
sg30
I10980
sg31
I1
sg32
I64
sbasg36
g21
(S'0.4375'
tRp929
sg38
g21
(S'11.4375'
tRp930
sbag1
(g13
g3
NtRp931
(dp932
g16
S'T(0)./mid/invention1.mid'
p933
sg18
S'Bm'
p934
sg19
I960
sg20
g21
(S'0.0625'
tRp935
sg23
(lp936
g1
(g25
g3
NtRp937
(dp938
g28
g21
(S'0.0625'
tRp939
sg30
I11460
sg31
I1
sg32
I60
sbasg36
g21
(S'0.9375'
tRp940
sg38
g21
(S'11.9375'
tRp941
sbag1
(g13
g3
NtRp942
(dp943
g16
S'T(0)./mid/invention1.mid'
p944
sg18
S'Am'
p945
sg19
I960
sg20
g21
(S'0.0625'
tRp946
sg23
(lp947
g1
(g25
g3
NtRp948
(dp949
g28
g21
(S'0.0625'
tRp950
sg30
I3660
sg31
I0
sg32
I69
sbasg36
g21
(S'0.8125'
tRp951
sg38
g21
(S'3.8125'
tRp952
sbag1
(g13
g3
NtRp953
(dp954
g16
S'T(0)./mid/invention1.mid'
p955
sg18
S'D'
sg19
I960
sg20
g21
(S'0.0625'
tRp956
sg23
(lp957
g1
(g25
g3
NtRp958
(dp959
g28
g21
(S'0.0625'
tRp960
sg30
I4260
sg31
I1
sg32
I50
sbag1
(g25
g3
NtRp961
(dp962
g28
g21
(S'0.0625'
tRp963
sg30
I4260
sg31
I0
sg32
I74
sbasg36
g21
(S'0.4375'
tRp964
sg38
g21
(S'4.4375'
tRp965
sbag1
(g13
g3
NtRp966
(dp967
g16
S'T(0)./mid/invention1.mid'
p968
sg18
S'Dm'
p969
sg19
I960
sg20
g21
(S'0.0625'
tRp970
sg23
(lp971
g1
(g25
g3
NtRp972
(dp973
g28
g21
(S'0.0625'
tRp974
sg30
I7980
sg31
I1
sg32
I65
sbasg36
g21
(S'0.3125'
tRp975
sg38
g21
(S'8.3125'
tRp976
sbag1
(g13
g3
NtRp977
(dp978
g16
S'T(0)./mid/invention1.mid'
p979
sg18
S'Dm'
p980
sg19
I960
sg20
g21
(S'0.0625'
tRp981
sg23
(lp982
g1
(g25
g3
NtRp983
(dp984
g28
g21
(S'0.0625'
tRp985
sg30
I17700
sg31
I0
sg32
I72
sbasg36
g21
(S'0.4375'
tRp986
sg38
g21
(S'18.4375'
tRp987
sbag1
(g13
g3
NtRp988
(dp989
g16
S'T(0)./mid/invention1.mid'
p990
sg18
S'Bm'
p991
sg19
I960
sg20
g21
(S'0.0625'
tRp992
sg23
(lp993
g1
(g25
g3
NtRp994
(dp995
g28
g21
(S'0.0625'
tRp996
sg30
I11280
sg31
I1
sg32
I56
sbag1
(g25
g3
NtRp997
(dp998
g28
g21
(S'0.25'
tRp999
sg30
I11280
sg31
I0
sg32
I74
sbasg36
g21
(S'0.75'
tRp1000
sg38
g21
(S'11.75'
tRp1001
sbag1
(g13
g3
NtRp1002
(dp1003
g16
S'T(0)./mid/invention1.mid'
p1004
sg18
S'G'
sg19
I960
sg20
g21
(S'0.0625'
tRp1005
sg23
(lp1006
g1
(g25
g3
NtRp1007
(dp1008
g28
g21
(S'0.0625'
tRp1009
sg30
I1380
sg31
I0
sg32
I67
sbasg36
g21
(S'0.4375'
tRp1010
sg38
g21
(S'1.4375'
tRp1011
sbag1
(g13
g3
NtRp1012
(dp1013
g16
S'T(0)./mid/invention1.mid'
p1014
sg18
S'C'
sg19
I960
sg20
g21
(S'0.0625'
tRp1015
sg23
(lp1016
g1
(g25
g3
NtRp1017
(dp1018
g28
g21
(S'0.0625'
tRp1019
sg30
I19740
sg31
I1
sg32
I50
sbag1
(g25
g3
NtRp1020
(dp1021
g28
g21
(S'0.0625'
tRp1022
sg30
I19740
sg31
I0
sg32
I71
sbasg36
g21
(S'0.5625'
tRp1023
sg38
g21
(S'20.5625'
tRp1024
sbag1
(g13
g3
NtRp1025
(dp1026
g16
S'T(0)./mid/invention1.mid'
p1027
sg18
S'E'
sg19
I960
sg20
g21
(S'0.0625'
tRp1028
sg23
(lp1029
g1
(g25
g3
NtRp1030
(dp1031
g28
g21
(S'0.0625'
tRp1032
sg30
I11640
sg31
I0
sg32
I66
sbag1
(g25
g3
NtRp1033
(dp1034
g28
g21
(S'0.125'
tRp1035
sg30
I11640
sg31
I1
sg32
I52
sbasg36
g21
(S'0.125'
tRp1036
sg38
g21
(S'12.125'
tRp1037
sbag1
(g13
g3
NtRp1038
(dp1039
g16
S'T(0)./mid/invention1.mid'
p1040
sg18
S'Dm'
p1041
sg19
I960
sg20
g21
(S'0.0625'
tRp1042
sg23
(lp1043
g1
(g25
g3
NtRp1044
(dp1045
g28
g21
(S'0.0625'
tRp1046
sg30
I14460
sg31
I0
sg32
I76
sbasg36
g21
(S'0.0625'
tRp1047
sg38
g21
(S'15.0625'
tRp1048
sbag1
(g13
g3
NtRp1049
(dp1050
g16
S'T(0)./mid/invention1.mid'
p1051
sg18
S'Bm'
p1052
sg19
I960
sg20
g21
(S'0.0625'
tRp1053
sg23
(lp1054
g1
(g25
g3
NtRp1055
(dp1056
g28
g21
(S'0.0625'
tRp1057
sg30
I11220
sg31
I1
sg32
I57
sbasg36
g21
(S'0.6875'
tRp1058
sg38
g21
(S'11.6875'
tRp1059
sbag1
(g13
g3
NtRp1060
(dp1061
g16
S'T(0)./mid/invention1.mid'
p1062
sg18
S'Dm'
p1063
sg19
I960
sg20
g21
(S'0.0625'
tRp1064
sg23
(lp1065
g1
(g25
g3
NtRp1066
(dp1067
g28
g21
(S'0.0625'
tRp1068
sg30
I17640
sg31
I0
sg32
I76
sbag1
(g25
g3
NtRp1069
(dp1070
g28
g21
(S'0.125'
tRp1071
sg30
I17640
sg31
I1
sg32
I55
sbasg36
g21
(S'0.375'
tRp1072
sg38
g21
(S'18.375'
tRp1073
sbag1
(g13
g3
NtRp1074
(dp1075
g16
S'T(0)./mid/invention1.mid'
p1076
sg18
S'C'
sg19
I960
sg20
g21
(S'0.0625'
tRp1077
sg23
(lp1078
g1
(g25
g3
NtRp1079
(dp1080
g28
g21
(S'0.0625'
tRp1081
sg30
I8700
sg31
I1
sg32
I69
sbasg36
g21
(S'0.0625'
tRp1082
sg38
g21
(S'9.0625'
tRp1083
sbag1
(g13
g3
NtRp1084
(dp1085
g16
S'T(0)./mid/invention1.mid'
p1086
sg18
S'D'
sg19
I960
sg20
g21
(S'0.0625'
tRp1087
sg23
(lp1088
g1
(g25
g3
NtRp1089
(dp1090
g28
g21
(S'0.0625'
tRp1091
sg30
I4680
sg31
I0
sg32
I66
sbag1
(g25
g3
NtRp1092
(dp1093
g28
g21
(S'0.125'
tRp1094
sg30
I4680
sg31
I1
sg32
I50
sbasg36
g21
(S'0.875'
tRp1095
sg38
g21
(S'4.875'
tRp1096
sbag1
(g13
g3
NtRp1097
(dp1098
g16
S'T(0)./mid/invention1.mid'
p1099
sg18
S'D'
sg19
I960
sg20
g21
(S'0.0625'
tRp1100
sg23
(lp1101
g1
(g25
g3
NtRp1102
(dp1103
g28
g21
(S'0.0625'
tRp1104
sg30
I4620
sg31
I0
sg32
I67
sbasg36
g21
(S'0.8125'
tRp1105
sg38
g21
(S'4.8125'
tRp1106
sbag1
(g13
g3
NtRp1107
(dp1108
g16
S'T(0)./mid/invention1.mid'
p1109
sg18
S'Bm'
p1110
sg19
I960
sg20
g21
(S'0.0625'
tRp1111
sg23
(lp1112
g1
(g25
g3
NtRp1113
(dp1114
g28
g21
(S'0.0625'
tRp1115
sg30
I11160
sg31
I1
sg32
I59
sbag1
(g25
g3
NtRp1116
(dp1117
g28
g21
(S'0.125'
tRp1118
sg30
I11160
sg31
I0
sg32
I72
sbasg36
g21
(S'0.625'
tRp1119
sg38
g21
(S'11.625'
tRp1120
sbag1
(g13
g3
NtRp1121
(dp1122
g16
S'T(0)./mid/invention1.mid'
p1123
sg18
S'D'
sg19
I960
sg20
g21
(S'0.0625'
tRp1124
sg23
(lp1125
g1
(g25
g3
NtRp1126
(dp1127
g28
g21
(S'0.0625'
tRp1128
sg30
I4320
sg31
I0
sg32
I71
sbag1
(g25
g3
NtRp1129
(dp1130
g28
g21
(S'0.125'
tRp1131
sg30
I4320
sg31
I1
sg32
I55
sbasg36
g21
(S'0.5'
tRp1132
sg38
g21
(S'4.5'
tRp1133
sbag1
(g13
g3
NtRp1134
(dp1135
g16
S'T(0)./mid/invention1.mid'
p1136
sg18
S'C'
sg19
I960
sg20
g21
(S'0.0625'
tRp1137
sg23
(lp1138
g1
(g25
g3
NtRp1139
(dp1140
g28
g21
(S'0.0625'
tRp1141
sg30
I19200
sg31
I0
sg32
I72
sbag1
(g25
g3
NtRp1142
(dp1143
g28
g21
(S'0.125'
tRp1144
sg30
I19200
sg31
I1
sg32
I52
sbasg36
g21
(S'0'
tRp1145
sg38
g21
(S'20'
p1146
tRp1147
sbag1
(g13
g3
NtRp1148
(dp1149
g16
S'T(0)./mid/invention1.mid'
p1150
sg18
S'G'
sg19
I960
sg20
g21
(S'0.03125'
tRp1151
sg23
(lp1152
g1
(g25
g3
NtRp1153
(dp1154
g28
g21
(S'0.03125'
tRp1155
sg30
I1680
sg31
I0
sg32
I77
sbag1
(g25
g3
NtRp1156
(dp1157
g28
g21
(S'0.0625'
tRp1158
sg30
I1680
sg31
I1
sg32
I60
sbasg36
g21
(S'0.75'
tRp1159
sg38
g21
(S'1.75'
tRp1160
sbag1
(g13
g3
NtRp1161
(dp1162
g16
S'T(0)./mid/invention1.mid'
p1163
sg18
S'G'
sg19
I960
sg20
g21
(S'0.0625'
tRp1164
sg23
(lp1165
g1
(g25
g3
NtRp1166
(dp1167
g28
g21
(S'0.0625'
tRp1168
sg30
I6120
sg31
I1
sg32
I47
sbasg36
g21
(S'0.375'
tRp1169
sg38
g21
(S'6.375'
tRp1170
sbag1
(g13
g3
NtRp1171
(dp1172
g16
S'T(0)./mid/invention1.mid'
p1173
sg18
S'Em'
p1174
sg19
I960
sg20
g21
(S'0.0625'
tRp1175
sg23
(lp1176
g1
(g25
g3
NtRp1177
(dp1178
g28
g21
(S'0.0625'
tRp1179
sg30
I13800
sg31
I0
sg32
I77
sbasg36
g21
(S'0.375'
tRp1180
sg38
g21
(S'14.375'
tRp1181
sbag1
(g13
g3
NtRp1182
(dp1183
g16
S'T(0)./mid/invention1.mid'
p1184
sg18
S'Dm'
p1185
sg19
I960
sg20
g21
(S'0.0625'
tRp1186
sg23
(lp1187
g1
(g25
g3
NtRp1188
(dp1189
g28
g21
(S'0.0625'
tRp1190
sg30
I15300
sg31
I1
sg32
I57
sbasg36
g21
(S'0.9375'
tRp1191
sg38
g21
(S'15.9375'
tRp1192
sbag1
(g13
g3
NtRp1193
(dp1194
g16
S'T(0)./mid/invention1.mid'
p1195
sg18
S'C'
sg19
I960
sg20
g21
(S'0.0625'
tRp1196
sg23
(lp1197
g1
(g25
g3
NtRp1198
(dp1199
g28
g21
(S'0.0625'
tRp1200
sg30
I8640
sg31
I1
sg32
I64
sbag1
(g25
g3
NtRp1201
(dp1202
g28
g21
(S'0.125'
tRp1203
sg30
I8640
sg31
I0
sg32
I72
sbasg36
g21
(S'0'
tRp1204
sg38
g21
(S'9'
tRp1205
sbag1
(g13
g3
NtRp1206
(dp1207
g16
S'T(0)./mid/invention1.mid'
p1208
sg18
S'Dm'
p1209
sg19
I960
sg20
g21
(S'0.0625'
tRp1210
sg23
(lp1211
g1
(g25
g3
NtRp1212
(dp1213
g28
g21
(S'0.0625'
tRp1214
sg30
I10500
sg31
I1
sg32
I67
sbasg36
g21
(S'0.9375'
tRp1215
sg38
g21
(S'10.9375'
tRp1216
sbag1
(g13
g3
NtRp1217
(dp1218
g16
S'T(0)./mid/invention1.mid'
p1219
sg18
S'G'
sg19
I960
sg20
g21
(S'0.0625'
tRp1220
sg23
(lp1221
g1
(g25
g3
NtRp1222
(dp1223
g28
g21
(S'0.0625'
tRp1224
sg30
I5460
sg31
I1
sg32
I48
sbag1
(g25
g3
NtRp1225
(dp1226
g28
g21
(S'0.0625'
tRp1227
sg30
I5460
sg31
I0
sg32
I79
sbasg36
g21
(S'0.6875'
tRp1228
sg38
g21
(S'5.6875'
tRp1229
sbag1
(g13
g3
NtRp1230
(dp1231
g16
S'T(0)./mid/invention1.mid'
p1232
sg18
S'G'
sg19
I960
sg20
g21
(S'0.0625'
tRp1233
sg23
(lp1234
g1
(g25
g3
NtRp1235
(dp1236
g28
g21
(S'0.125'
tRp1237
sg30
I1440
sg31
I0
sg32
I74
sbasg36
g21
(S'0.5'
tRp1238
sg38
g21
(S'1.5'
tRp1239
sbag1
(g13
g3
NtRp1240
(dp1241
g16
S'T(0)./mid/invention1.mid'
p1242
sg18
S'C'
sg19
I960
sg20
g21
(S'0.0625'
tRp1243
sg23
(lp1244
g1
(g25
g3
NtRp1245
(dp1246
g28
g21
(S'0.0625'
tRp1247
sg30
I300
sg31
I0
sg32
I62
sbasg36
g21
(S'0.3125'
tRp1248
sg38
g21
(S'0.3125'
tRp1249
sbag1
(g13
g3
NtRp1250
(dp1251
g16
S'T(0)./mid/invention1.mid'
p1252
sg18
S'E'
sg19
I960
sg20
g21
(S'0.0625'
tRp1253
sg23
(lp1254
g1
(g25
g3
NtRp1255
(dp1256
g28
g21
(S'0.0625'
tRp1257
sg30
I11940
sg31
I0
sg32
I64
sbasg36
g21
(S'0.4375'
tRp1258
sg38
g21
(S'12.4375'
tRp1259
sbag1
(g13
g3
NtRp1260
(dp1261
g16
S'T(0)./mid/invention1.mid'
p1262
sg18
S'G'
sg19
I960
sg20
g21
(S'0.0625'
tRp1263
sg23
(lp1264
g1
(g25
g3
NtRp1265
(dp1266
g28
g21
(S'0.0625'
tRp1267
sg30
I15660
sg31
I0
sg32
I77
sbasg36
g21
(S'0.3125'
tRp1268
sg38
g21
(S'16.3125'
tRp1269
sbag1
(g13
g3
NtRp1270
(dp1271
g16
S'T(0)./mid/invention1.mid'
p1272
sg18
S'C'
sg19
I960
sg20
g21
(S'0.0625'
tRp1273
sg23
(lp1274
g1
(g25
g3
NtRp1275
(dp1276
g28
g21
(S'0.0625'
tRp1277
sg30
I1980
sg31
I0
sg32
I81
sbasg36
g21
(S'0.0625'
tRp1278
sg38
g21
(S'2.0625'
tRp1279
sbag1
(g13
g3
NtRp1280
(dp1281
g16
S'T(0)./mid/invention1.mid'
p1282
sg18
S'G'
sg19
I960
sg20
g21
(S'0.0625'
tRp1283
sg23
(lp1284
g1
(g25
g3
NtRp1285
(dp1286
g28
g21
(S'0.0625'
tRp1287
sg30
I16200
sg31
I1
sg32
I59
sbasg36
g21
(S'0.875'
tRp1288
sg38
g21
(S'16.875'
tRp1289
sbag1
(g13
g3
NtRp1290
(dp1291
g16
S'T(0)./mid/invention1.mid'
p1292
sg18
S'Dm'
p1293
sg19
I960
sg20
g21
(S'0.0625'
tRp1294
sg23
(lp1295
g1
(g25
g3
NtRp1296
(dp1297
g28
g21
(S'0.0625'
tRp1298
sg30
I14580
sg31
I0
sg32
I79
sbasg36
g21
(S'0.1875'
tRp1299
sg38
g21
(S'15.1875'
tRp1300
sbag1
(g13
g3
NtRp1301
(dp1302
g16
S'T(0)./mid/invention1.mid'
p1303
sg18
S'Am'
p1304
sg19
I960
sg20
g21
(S'0.0625'
tRp1305
sg23
(lp1306
g1
(g25
g3
NtRp1307
(dp1308
g28
g21
(S'0.0625'
tRp1309
sg30
I13380
sg31
I0
sg32
I69
sbasg36
g21
(S'0.9375'
tRp1310
sg38
g21
(S'13.9375'
tRp1311
sbag1
(g13
g3
NtRp1312
(dp1313
g16
S'T(0)./mid/invention1.mid'
p1314
sg18
S'E'
sg19
I960
sg20
g21
(S'0.0625'
tRp1315
sg23
(lp1316
g1
(g25
g3
NtRp1317
(dp1318
g28
g21
(S'0.0625'
tRp1319
sg30
I12180
sg31
I1
sg32
I55
sbag1
(g25
g3
NtRp1320
(dp1321
g28
g21
(S'0.0625'
tRp1322
sg30
I12180
sg31
I0
sg32
I76
sbasg36
g21
(S'0.6875'
tRp1323
sg38
g21
(S'12.6875'
tRp1324
sbag1
(g13
g3
NtRp1325
(dp1326
g16
S'T(0)./mid/invention1.mid'
p1327
sg18
S'C'
sg19
I960
sg20
g21
(S'0.0625'
tRp1328
sg23
(lp1329
g1
(g25
g3
NtRp1330
(dp1331
g28
g21
(S'0.0625'
tRp1332
sg30
I360
sg31
I0
sg32
I64
sbasg36
g21
(S'0.375'
tRp1333
sg38
g21
(S'0.375'
tRp1334
sbag1
(g13
g3
NtRp1335
(dp1336
g16
S'T(0)./mid/invention1.mid'
p1337
sg18
S'Dm'
p1338
sg19
I960
sg20
g21
(S'0.0625'
tRp1339
sg23
(lp1340
g1
(g25
g3
NtRp1341
(dp1342
g28
g21
(S'0.0625'
tRp1343
sg30
I7860
sg31
I1
sg32
I64
sbasg36
g21
(S'0.1875'
tRp1344
sg38
g21
(S'8.1875'
tRp1345
sbag1
(g13
g3
NtRp1346
(dp1347
g16
S'T(0)./mid/invention1.mid'
p1348
sg18
S'Am'
p1349
sg19
I960
sg20
g21
(S'0.0625'
tRp1350
sg23
(lp1351
g1
(g25
g3
NtRp1352
(dp1353
g28
g21
(S'0.0625'
tRp1354
sg30
I3480
sg31
I0
sg32
I69
sbag1
(g25
g3
NtRp1355
(dp1356
g28
g21
(S'0.125'
tRp1357
sg30
I3480
sg31
I1
sg32
I59
sbasg36
g21
(S'0.625'
tRp1358
sg38
g21
(S'3.625'
tRp1359
sbag1
(g13
g3
NtRp1360
(dp1361
g16
S'T(0)./mid/invention1.mid'
p1362
sg18
S'D'
sg19
I960
sg20
g21
(S'0.0625'
tRp1363
sg23
(lp1364
g1
(g25
g3
NtRp1365
(dp1366
g28
g21
(S'0.0625'
tRp1367
sg30
I7440
sg31
I0
sg32
I74
sbag1
(g25
g3
NtRp1368
(dp1369
g28
g21
(S'0.125'
tRp1370
sg30
I7440
sg31
I1
sg32
I60
sbasg36
g21
(S'0.75'
tRp1371
sg38
g21
(S'7.75'
tRp1372
sbag1
(g13
g3
NtRp1373
(dp1374
g16
S'T(0)./mid/invention1.mid'
p1375
sg18
S'Am'
p1376
sg19
I960
sg20
g21
(S'0.0625'
tRp1377
sg23
(lp1378
g1
(g25
g3
NtRp1379
(dp1380
g28
g21
(S'0.0625'
tRp1381
sg30
I12540
sg31
I1
sg32
I60
sbag1
(g25
g3
NtRp1382
(dp1383
g28
g21
(S'0.0625'
tRp1384
sg30
I12540
sg31
I0
sg32
I81
sbasg36
g21
(S'0.0625'
tRp1385
sg38
g21
(S'13.0625'
tRp1386
sbag1
(g13
g3
NtRp1387
(dp1388
g16
S'T(0)./mid/invention1.mid'
p1389
sg18
S'G'
sg19
I960
sg20
g21
(S'0.0625'
tRp1390
sg23
(lp1391
g1
(g25
g3
NtRp1392
(dp1393
g28
g21
(S'0.0625'
tRp1394
sg30
I6480
sg31
I0
sg32
I72
sbag1
(g25
g3
NtRp1395
(dp1396
g28
g21
(S'0.125'
tRp1397
sg30
I6480
sg31
I1
sg32
I54
sbasg36
g21
(S'0.75'
tRp1398
sg38
g21
(S'6.75'
tRp1399
sbag1
(g13
g3
NtRp1400
(dp1401
g16
S'T(0)./mid/invention1.mid'
p1402
sg18
S'Am'
p1403
sg19
I960
sg20
g21
(S'0.0625'
tRp1404
sg23
(lp1405
g1
(g25
g3
NtRp1406
(dp1407
g28
g21
(S'0.0625'
tRp1408
sg30
I13020
sg31
I0
sg32
I77
sbasg36
g21
(S'0.5625'
tRp1409
sg38
g21
(S'13.5625'
tRp1410
sbag1
(g13
g3
NtRp1411
(dp1412
g16
S'T(0)./mid/invention1.mid'
p1413
sg18
S'C'
sg19
I960
sg20
g21
(S'0.0625'
tRp1414
sg23
(lp1415
g1
(g25
g3
NtRp1416
(dp1417
g28
g21
(S'0.0625'
tRp1418
sg30
I17160
sg31
I1
sg32
I58
sbasg36
g21
(S'0.875'
tRp1419
sg38
g21
(S'17.875'
tRp1420
sbag1
(g13
g3
NtRp1421
(dp1422
g16
S'T(0)./mid/invention1.mid'
p1423
sg18
S'Dm'
p1424
sg19
I960
sg20
g21
(S'0.0625'
tRp1425
sg23
(lp1426
g1
(g25
g3
NtRp1427
(dp1428
g28
g21
(S'0.0625'
tRp1429
sg30
I7800
sg31
I1
sg32
I65
sbasg36
g21
(S'0.125'
tRp1430
sg38
g21
(S'8.125'
tRp1431
sbag1
(g13
g3
NtRp1432
(dp1433
g16
S'T(0)./mid/invention1.mid'
p1434
sg18
S'E'
sg19
I960
sg20
g21
(S'0.0625'
tRp1435
sg23
(lp1436
g1
(g25
g3
NtRp1437
(dp1438
g28
g21
(S'0.0625'
tRp1439
sg30
I12120
sg31
I1
sg32
I57
sbag1
(g25
g3
NtRp1440
(dp1441
g28
g21
(S'0.0625'
tRp1442
sg30
I12120
sg31
I0
sg32
I72
sbasg36
g21
(S'0.625'
tRp1443
sg38
g21
(S'12.625'
tRp1444
sbag1
(g13
g3
NtRp1445
(dp1446
g16
S'T(0)./mid/invention1.mid'
p1447
sg18
S'G'
sg19
I960
sg20
g21
(S'0.0625'
tRp1448
sg23
(lp1449
g1
(g25
g3
NtRp1450
(dp1451
g28
g21
(S'0.0625'
tRp1452
sg30
I15480
sg31
I0
sg32
I77
sbasg36
g21
(S'0.125'
tRp1453
sg38
g21
(S'16.125'
tRp1454
sbag1
(g13
g3
NtRp1455
(dp1456
g16
S'T(0)./mid/invention1.mid'
p1457
sg18
S'C'
sg19
I960
sg20
g21
(S'0.0625'
tRp1458
sg23
(lp1459
g1
(g25
g3
NtRp1460
(dp1461
g28
g21
(S'0.0625'
tRp1462
sg30
I16740
sg31
I0
sg32
I74
sbasg36
g21
(S'0.4375'
tRp1463
sg38
g21
(S'17.4375'
tRp1464
sbag1
(g13
g3
NtRp1465
(dp1466
g16
S'T(0)./mid/invention1.mid'
p1467
sg18
S'C'
sg19
I960
sg20
g21
(S'0.0625'
tRp1468
sg23
(lp1469
g1
(g25
g3
NtRp1470
(dp1471
g28
g21
(S'0.0625'
tRp1472
sg30
I17040
sg31
I1
sg32
I60
sbasg36
g21
(S'0.75'
tRp1473
sg38
g21
(S'17.75'
tRp1474
sbag1
(g13
g3
NtRp1475
(dp1476
g16
S'T(0)./mid/invention1.mid'
p1477
sg18
S'E'
sg19
I960
sg20
g21
(S'0.0625'
tRp1478
sg23
(lp1479
g1
(g25
g3
NtRp1480
(dp1481
g28
g21
(S'0.0625'
tRp1482
sg30
I11880
sg31
I0
sg32
I68
sbasg36
g21
(S'0.375'
tRp1483
sg38
g21
(S'12.375'
tRp1484
sbag1
(g13
g3
NtRp1485
(dp1486
g16
S'T(0)./mid/invention1.mid'
p1487
sg18
S'Dm'
p1488
sg19
I960
sg20
g21
(S'0.0625'
tRp1489
sg23
(lp1490
g1
(g25
g3
NtRp1491
(dp1492
g28
g21
(S'0.0625'
tRp1493
sg30
I8100
sg31
I1
sg32
I67
sbasg36
g21
(S'0.4375'
tRp1494
sg38
g21
(S'8.4375'
tRp1495
sbag1
(g13
g3
NtRp1496
(dp1497
g16
S'T(0)./mid/invention1.mid'
p1498
sg18
S'D'
sg19
I960
sg20
g21
(S'0.0625'
tRp1499
sg23
(lp1500
g1
(g25
g3
NtRp1501
(dp1502
g28
g21
(S'0.0625'
tRp1503
sg30
I7020
sg31
I1
sg32
I52
sbasg36
g21
(S'0.3125'
tRp1504
sg38
g21
(S'7.3125'
tRp1505
sbag1
(g13
g3
NtRp1506
(dp1507
g16
S'T(0)./mid/invention1.mid'
p1508
sg18
S'Dm'
p1509
sg19
I960
sg20
g21
(S'0.0625'
tRp1510
sg23
(lp1511
g1
(g25
g3
NtRp1512
(dp1513
g28
g21
(S'0.0625'
tRp1514
sg30
I9660
sg31
I1
sg32
I70
sbasg36
g21
(S'0.0625'
tRp1515
sg38
g21
(S'10.0625'
tRp1516
sbag1
(g13
g3
NtRp1517
(dp1518
g16
S'T(0)./mid/invention1.mid'
p1519
sg18
S'E'
sg19
I960
sg20
g21
(S'0.0625'
tRp1520
sg23
(lp1521
g1
(g25
g3
NtRp1522
(dp1523
g28
g21
(S'0.0625'
tRp1524
sg30
I12240
sg31
I1
sg32
I54
sbag1
(g25
g3
NtRp1525
(dp1526
g28
g21
(S'0.0625'
tRp1527
sg30
I12240
sg31
I0
sg32
I74
sbasg36
g21
(S'0.75'
tRp1528
sg38
g21
(S'12.75'
tRp1529
sbag1
(g13
g3
NtRp1530
(dp1531
g16
S'T(0)./mid/invention1.mid'
p1532
sg18
S'Dm'
p1533
sg19
I960
sg20
g21
(S'0.0625'
tRp1534
sg23
(lp1535
g1
(g25
g3
NtRp1536
(dp1537
g28
g21
(S'0.0625'
tRp1538
sg30
I18900
sg31
I1
sg32
I53
sbasg36
g21
(S'0.6875'
tRp1539
sg38
g21
(S'19.6875'
tRp1540
sbag1
(g13
g3
NtRp1541
(dp1542
g16
S'T(0)./mid/invention1.mid'
p1543
sg18
S'G'
sg19
I960
sg20
g21
(S'0.0625'
tRp1544
sg23
(lp1545
g1
(g25
g3
NtRp1546
(dp1547
g28
g21
(S'0.0625'
tRp1548
sg30
I1020
sg31
I0
sg32
I67
sbasg36
g21
(S'0.0625'
tRp1549
sg38
g21
(S'1.0625'
tRp1550
sbag1
(g13
g3
NtRp1551
(dp1552
g16
S'T(0)./mid/invention1.mid'
p1553
sg18
S'C'
sg19
I960
sg20
g21
(S'0.0625'
tRp1554
sg23
(lp1555
g1
(g25
g3
NtRp1556
(dp1557
g28
g21
(S'0.0625'
tRp1558
sg30
I2580
sg31
I0
sg32
I74
sbasg36
g21
(S'0.6875'
tRp1559
sg38
g21
(S'2.6875'
tRp1560
sbag1
(g13
g3
NtRp1561
(dp1562
g16
S'T(0)./mid/invention1.mid'
p1563
sg18
S'C'
sg19
I960
sg20
g21
(S'0.0625'
tRp1564
sg23
(lp1565
g1
(g25
g3
NtRp1566
(dp1567
g28
g21
(S'0.0625'
tRp1568
sg30
I60
sg31
I0
sg32
I60
sbasg36
g21
(S'0.0625'
tRp1569
sg38
g21
(S'0.0625'
tRp1570
sbag1
(g13
g3
NtRp1571
(dp1572
g16
S'T(0)./mid/invention1.mid'
p1573
sg18
S'Bm'
p1574
sg19
I960
sg20
g21
(S'0.0625'
tRp1575
sg23
(lp1576
g1
(g25
g3
NtRp1577
(dp1578
g28
g21
(S'0.0625'
tRp1579
sg30
I10680
sg31
I1
sg32
I62
sbag1
(g25
g3
NtRp1580
(dp1581
g28
g21
(S'0.125'
tRp1582
sg30
I10680
sg31
I0
sg32
I66
sbasg36
g21
(S'0.125'
tRp1583
sg38
g21
(S'11.125'
tRp1584
sbag1
(g13
g3
NtRp1585
(dp1586
g16
S'T(0)./mid/invention1.mid'
p1587
sg18
S'G'
sg19
I960
sg20
g21
(S'0.0625'
tRp1588
sg23
(lp1589
g1
(g25
g3
NtRp1590
(dp1591
g28
g21
(S'0.0625'
tRp1592
sg30
I1500
sg31
I1
sg32
I55
sbasg36
g21
(S'0.5625'
tRp1593
sg38
g21
(S'1.5625'
tRp1594
sbag1
(g13
g3
NtRp1595
(dp1596
g16
S'T(0)./mid/invention1.mid'
p1597
sg18
S'C'
sg19
I960
sg20
g21
(S'0.0625'
tRp1598
sg23
(lp1599
g1
(g25
g3
NtRp1600
(dp1601
g28
g21
(S'0.5520833333333333333333333333'
tRp1602
sg30
I16800
sg31
I0
sg32
I76
sbasg36
g21
(S'0.5'
tRp1603
sg38
g21
(S'17.5'
tRp1604
sbag1
(g13
g3
NtRp1605
(dp1606
g16
S'T(0)./mid/invention1.mid'
p1607
sg18
S'D'
sg19
I960
sg20
g21
(S'0.0625'
tRp1608
sg23
(lp1609
g1
(g25
g3
NtRp1610
(dp1611
g28
g21
(S'0.0625'
tRp1612
sg30
I6960
sg31
I1
sg32
I55
sbasg36
g21
(S'0.25'
tRp1613
sg38
g21
(S'7.25'
tRp1614
sbag1
(g13
g3
NtRp1615
(dp1616
g16
S'T(0)./mid/invention1.mid'
p1617
sg18
S'C'
sg19
I960
sg20
g21
(S'0.0625'
tRp1618
sg23
(lp1619
g1
(g25
g3
NtRp1620
(dp1621
g28
g21
(S'0.0625'
tRp1622
sg30
I20100
sg31
I0
sg32
I71
sbasg36
g21
(S'0.9375'
tRp1623
sg38
g21
(S'20.9375'
tRp1624
sbag1
(g13
g3
NtRp1625
(dp1626
g16
S'T(0)./mid/invention1.mid'
p1627
sg18
S'G'
sg19
I960
sg20
g21
(S'0.03125'
tRp1628
sg23
(lp1629
g1
(g25
g3
NtRp1630
(dp1631
g28
g21
(S'0.03125'
tRp1632
sg30
I5550
sg31
I0
sg32
I72
sbasg36
g21
(S'0.78125'
tRp1633
sg38
g21
(S'5.78125'
tRp1634
sbag1
(g13
g3
NtRp1635
(dp1636
g16
S'T(0)./mid/invention1.mid'
p1637
sg18
S'Em'
p1638
sg19
I960
sg20
g21
(S'0.0625'
tRp1639
sg23
(lp1640
g1
(g25
g3
NtRp1641
(dp1642
g28
g21
(S'0.5520833333333333333333333333'
tRp1643
sg30
I13920
sg31
I0
sg32
I79
sbasg36
g21
(S'0.5'
tRp1644
sg38
g21
(S'14.5'
tRp1645
sbag1
(g13
g3
NtRp1646
(dp1647
g16
S'T(0)./mid/invention1.mid'
p1648
sg18
S'Dm'
p1649
sg19
I960
sg20
g21
(S'0.0625'
tRp1650
sg23
(lp1651
g1
(g25
g3
NtRp1652
(dp1653
g28
g21
(S'0.0625'
tRp1654
sg30
I17880
sg31
I0
sg32
I77
sbag1
(g25
g3
NtRp1655
(dp1656
g28
g21
(S'0.125'
tRp1657
sg30
I17880
sg31
I1
sg32
I62
sbasg36
g21
(S'0.625'
tRp1658
sg38
g21
(S'18.625'
tRp1659
sbag1
(g13
g3
NtRp1660
(dp1661
g16
S'T(0)./mid/invention1.mid'
p1662
sg18
S'Am'
p1663
sg19
I960
sg20
g21
(S'0.0625'
tRp1664
sg23
(lp1665
g1
(g25
g3
NtRp1666
(dp1667
g28
g21
(S'0.0625'
tRp1668
sg30
I13140
sg31
I0
sg32
I74
sbasg36
g21
(S'0.6875'
tRp1669
sg38
g21
(S'13.6875'
tRp1670
sbag1
(g13
g3
NtRp1671
(dp1672
g16
S'T(0)./mid/invention1.mid'
p1673
sg18
S'Am'
p1674
sg19
I960
sg20
g21
(S'0.0625'
tRp1675
sg23
(lp1676
g1
(g25
g3
NtRp1677
(dp1678
g28
g21
(S'0.0625'
tRp1679
sg30
I3240
sg31
I0
sg32
I71
sbag1
(g25
g3
NtRp1680
(dp1681
g28
g21
(S'0.125'
tRp1682
sg30
I3240
sg31
I1
sg32
I55
sbasg36
g21
(S'0.375'
tRp1683
sg38
g21
(S'3.375'
tRp1684
sbag1
(g13
g3
NtRp1685
(dp1686
g16
S'T(0)./mid/invention1.mid'
p1687
sg18
S'D'
sg19
I960
sg20
g21
(S'0.0625'
tRp1688
sg23
(lp1689
g1
(g25
g3
NtRp1690
(dp1691
g28
g21
(S'0.0625'
tRp1692
sg30
I6720
sg31
I1
sg32
I57
sbag1
(g25
g3
NtRp1693
(dp1694
g28
g21
(S'0.125'
tRp1695
sg30
I6720
sg31
I0
sg32
I66
sbasg36
g21
(S'0'
tRp1696
sg38
g21
(S'7'
tRp1697
sbag1
(g13
g3
NtRp1698
(dp1699
g16
S'T(0)./mid/invention1.mid'
p1700
sg18
S'C'
sg19
I960
sg20
g21
(S'0.0625'
tRp1701
sg23
(lp1702
g1
(g25
g3
NtRp1703
(dp1704
g28
g21
(S'0.0625'
tRp1705
sg30
I19860
sg31
I1
sg32
I53
sbag1
(g25
g3
NtRp1706
(dp1707
g28
g21
(S'0.0625'
tRp1708
sg30
I19860
sg31
I0
sg32
I64
sbasg36
g21
(S'0.6875'
tRp1709
sg38
g21
(S'20.6875'
tRp1710
sbag1
(g13
g3
NtRp1711
(dp1712
g16
S'T(0)./mid/invention1.mid'
p1713
sg18
S'Dm'
p1714
sg19
I960
sg20
g21
(S'0.0625'
tRp1715
sg23
(lp1716
g1
(g25
g3
NtRp1717
(dp1718
g28
g21
(S'0.0625'
tRp1719
sg30
I18480
sg31
I0
sg32
I84
sbag1
(g25
g3
NtRp1720
(dp1721
g28
g21
(S'0.125'
tRp1722
sg30
I18480
sg31
I1
sg32
I64
sbasg36
g21
(S'0.25'
tRp1723
sg38
g21
(S'19.25'
tRp1724
sbag1
(g13
g3
NtRp1725
(dp1726
g16
S'T(0)./mid/invention1.mid'
p1727
sg18
S'Bm'
p1728
sg19
I960
sg20
g21
(S'0.0625'
tRp1729
sg23
(lp1730
g1
(g25
g3
NtRp1731
(dp1732
g28
g21
(S'0.0625'
tRp1733
sg30
I11100
sg31
I1
sg32
I60
sbasg36
g21
(S'0.5625'
tRp1734
sg38
g21
(S'11.5625'
tRp1735
sbag1
(g13
g3
NtRp1736
(dp1737
g16
S'T(0)./mid/invention1.mid'
p1738
sg18
S'C'
sg19
I960
sg20
g21
(S'0.0625'
tRp1739
sg23
(lp1740
g1
(g25
g3
NtRp1741
(dp1742
g28
g21
(S'0.0625'
tRp1743
sg30
I17220
sg31
I1
sg32
I55
sbasg36
g21
(S'0.9375'
tRp1744
sg38
g21
(S'17.9375'
tRp1745
sbag1
(g13
g3
NtRp1746
(dp1747
g16
S'T(0)./mid/invention1.mid'
p1748
sg18
S'Am'
p1749
sg19
I960
sg20
g21
(S'0.0625'
tRp1750
sg23
(lp1751
g1
(g25
g3
NtRp1752
(dp1753
g28
g21
(S'0.0625'
tRp1754
sg30
I12840
sg31
I1
sg32
I62
sbag1
(g25
g3
NtRp1755
(dp1756
g28
g21
(S'0.0625'
tRp1757
sg30
I12840
sg31
I0
sg32
I77
sbasg36
g21
(S'0.375'
tRp1758
sg38
g21
(S'13.375'
tRp1759
sbag1
(g13
g3
NtRp1760
(dp1761
g16
S'T(0)./mid/invention1.mid'
p1762
sg18
S'Dm'
p1763
sg19
I960
sg20
g21
(S'0.0625'
tRp1764
sg23
(lp1765
g1
(g25
g3
NtRp1766
(dp1767
g28
g21
(S'0.0625'
tRp1768
sg30
I10440
sg31
I1
sg32
I64
sbag1
(g25
g3
NtRp1769
(dp1770
g28
g21
(S'0.125'
tRp1771
sg30
I10440
sg31
I0
sg32
I73
sbasg36
g21
(S'0.875'
tRp1772
sg38
g21
(S'10.875'
tRp1773
sbag1
(g13
g3
NtRp1774
(dp1775
g16
S'T(0)./mid/invention1.mid'
p1776
sg18
S'Dm'
p1777
sg19
I960
sg20
g21
(S'0.0625'
tRp1778
sg23
(lp1779
g1
(g25
g3
NtRp1780
(dp1781
g28
g21
(S'0.0625'
tRp1782
sg30
I14760
sg31
I0
sg32
I79
sbasg36
g21
(S'0.375'
tRp1783
sg38
g21
(S'15.375'
tRp1784
sbag1
(g13
g3
NtRp1785
(dp1786
g16
S'T(0)./mid/invention1.mid'
p1787
sg18
S'D'
sg19
I960
sg20
g21
(S'0.0625'
tRp1788
sg23
(lp1789
g1
(g25
g3
NtRp1790
(dp1791
g28
g21
(S'0.0625'
tRp1792
sg30
I7140
sg31
I1
sg32
I50
sbasg36
g21
(S'0.4375'
tRp1793
sg38
g21
(S'7.4375'
tRp1794
sbag1
(g13
g3
NtRp1795
(dp1796
g16
S'T(0)./mid/invention1.mid'
p1797
sg18
S'Em'
p1798
sg19
I960
sg20
g21
(S'0.0625'
tRp1799
sg23
(lp1800
g1
(g25
g3
NtRp1801
(dp1802
g28
g21
(S'0.0625'
tRp1803
sg30
I14220
sg31
I1
sg32
I62
sbasg36
g21
(S'0.8125'
tRp1804
sg38
g21
(S'14.8125'
tRp1805
sbag1
(g13
g3
NtRp1806
(dp1807
g16
S'T(0)./mid/invention1.mid'
p1808
sg18
S'C'
sg19
I960
sg20
g21
(S'0.0625'
tRp1809
sg23
(lp1810
g1
(g25
g3
NtRp1811
(dp1812
g28
g21
(S'0.0625'
tRp1813
sg30
I16620
sg31
I0
sg32
I76
sbasg36
g21
(S'0.3125'
tRp1814
sg38
g21
(S'17.3125'
tRp1815
sbag1
(g13
g3
NtRp1816
(dp1817
g16
S'T(0)./mid/invention1.mid'
p1818
sg18
S'G'
sg19
I960
sg20
g21
(S'0.0625'
tRp1819
sg23
(lp1820
g1
(g25
g3
NtRp1821
(dp1822
g28
g21
(S'0.0625'
tRp1823
sg30
I5940
sg31
I1
sg32
I47
sbasg36
g21
(S'0.1875'
tRp1824
sg38
g21
(S'6.1875'
tRp1825
sbag1
(g13
g3
NtRp1826
(dp1827
g16
S'T(0)./mid/invention1.mid'
p1828
sg18
S'Bm'
p1829
sg19
I960
sg20
g21
(S'0.0625'
tRp1830
sg23
(lp1831
g1
(g25
g3
NtRp1832
(dp1833
g28
g21
(S'0.0625'
tRp1834
sg30
I11340
sg31
I1
sg32
I59
sbasg36
g21
(S'0.8125'
tRp1835
sg38
g21
(S'11.8125'
tRp1836
sbag1
(g13
g3
NtRp1837
(dp1838
g16
S'T(0)./mid/invention1.mid'
p1839
sg18
S'G'
sg19
I960
sg20
g21
(S'0.0625'
tRp1840
sg23
(lp1841
g1
(g25
g3
NtRp1842
(dp1843
g28
g21
(S'0.0625'
tRp1844
sg30
I6600
sg31
I0
sg32
I71
sbag1
(g25
g3
NtRp1845
(dp1846
g28
g21
(S'0.125'
tRp1847
sg30
I6600
sg31
I1
sg32
I55
sbasg36
g21
(S'0.875'
tRp1848
sg38
g21
(S'6.875'
tRp1849
sbag1
(g13
g3
NtRp1850
(dp1851
g16
S'T(0)./mid/invention1.mid'
p1852
sg18
S'Em'
p1853
sg19
I960
sg20
g21
(S'0.0625'
tRp1854
sg23
(lp1855
g1
(g25
g3
NtRp1856
(dp1857
g28
g21
(S'0.0625'
tRp1858
sg30
I14340
sg31
I1
sg32
I64
sbasg36
g21
(S'0.9375'
tRp1859
sg38
g21
(S'14.9375'
tRp1860
sbag1
(g13
g3
NtRp1861
(dp1862
g16
S'T(0)./mid/invention1.mid'
p1863
sg18
S'C'
sg19
I960
sg20
g21
(S'0.0625'
tRp1864
sg23
(lp1865
g1
(g25
g3
NtRp1866
(dp1867
g28
g21
(S'0.0625'
tRp1868
sg30
I9480
sg31
I0
sg32
I73
sbag1
(g25
g3
NtRp1869
(dp1870
g28
g21
(S'0.125'
tRp1871
sg30
I9480
sg31
I1
sg32
I64
sbasg36
g21
(S'0.875'
tRp1872
sg38
g21
(S'9.875'
tRp1873
sbag1
(g13
g3
NtRp1874
(dp1875
g16
S'T(0)./mid/invention1.mid'
p1876
sg18
S'Dm'
p1877
sg19
I960
sg20
g21
(S'0.0625'
tRp1878
sg23
(lp1879
g1
(g25
g3
NtRp1880
(dp1881
g28
g21
(S'0.0625'
tRp1882
sg30
I8520
sg31
I0
sg32
I71
sbag1
(g25
g3
NtRp1883
(dp1884
g28
g21
(S'0.125'
tRp1885
sg30
I8520
sg31
I1
sg32
I62
sbasg36
g21
(S'0.875'
tRp1886
sg38
g21
(S'8.875'
tRp1887
sbag1
(g13
g3
NtRp1888
(dp1889
g16
S'T(0)./mid/invention1.mid'
p1890
sg18
S'Dm'
p1891
sg19
I960
sg20
g21
(S'0.0625'
tRp1892
sg23
(lp1893
g1
(g25
g3
NtRp1894
(dp1895
g28
g21
(S'0.0625'
tRp1896
sg30
I18360
sg31
I0
sg32
I81
sbag1
(g25
g3
NtRp1897
(dp1898
g28
g21
(S'0.125'
tRp1899
sg30
I18360
sg31
I1
sg32
I65
sbasg36
g21
(S'0.125'
tRp1900
sg38
g21
(S'19.125'
tRp1901
sbag1
(g13
g3
NtRp1902
(dp1903
g16
S'T(0)./mid/invention1.mid'
p1904
sg18
S'C'
sg19
I960
sg20
g21
(S'0.0625'
tRp1905
sg23
(lp1906
g1
(g25
g3
NtRp1907
(dp1908
g28
g21
(S'0.0625'
tRp1909
sg30
I2700
sg31
I0
sg32
I76
sbasg36
g21
(S'0.8125'
tRp1910
sg38
g21
(S'2.8125'
tRp1911
sbag1
(g13
g3
NtRp1912
(dp1913
g16
S'T(0)./mid/invention1.mid'
p1914
sg18
S'C'
sg19
I960
sg20
g21
(S'0.0625'
tRp1915
sg23
(lp1916
g1
(g25
g3
NtRp1917
(dp1918
g28
g21
(S'0.0625'
tRp1919
sg30
I19320
sg31
I0
sg32
I69
sbag1
(g25
g3
NtRp1920
(dp1921
g28
g21
(S'0.125'
tRp1922
sg30
I19320
sg31
I1
sg32
I48
sbasg36
g21
(S'0.125'
tRp1923
sg38
g21
(S'20.125'
tRp1924
sbag1
(g13
g3
NtRp1925
(dp1926
g16
S'T(0)./mid/invention1.mid'
p1927
sg18
S'C'
sg19
I960
sg20
g21
(S'0.0625'
tRp1928
sg23
(lp1929
g1
(g25
g3
NtRp1930
(dp1931
g28
g21
(S'0.0625'
tRp1932
sg30
I120
sg31
I0
sg32
I62
sbasg36
g21
(S'0.125'
tRp1933
sg38
g21
(S'0.125'
tRp1934
sbag1
(g13
g3
NtRp1935
(dp1936
g16
S'T(0)./mid/invention1.mid'
p1937
sg18
S'G'
sg19
I960
sg20
g21
(S'0.0625'
tRp1938
sg23
(lp1939
g1
(g25
g3
NtRp1940
(dp1941
g28
g21
(S'0.0625'
tRp1942
sg30
I15960
sg31
I1
sg32
I60
sbasg36
g21
(S'0.625'
tRp1943
sg38
g21
(S'16.625'
tRp1944
sbag1
(g13
g3
NtRp1945
(dp1946
g16
S'T(0)./mid/invention1.mid'
p1947
sg18
S'Dm'
p1948
sg19
I960
sg20
g21
(S'0.0625'
tRp1949
sg23
(lp1950
g1
(g25
g3
NtRp1951
(dp1952
g28
g21
(S'0.0625'
tRp1953
sg30
I18060
sg31
I0
sg32
I77
sbasg36
g21
(S'0.8125'
tRp1954
sg38
g21
(S'18.8125'
tRp1955
sbag1
(g13
g3
NtRp1956
(dp1957
g16
S'T(0)./mid/invention1.mid'
p1958
sg18
S'C'
sg19
I960
sg20
g21
(S'0.0625'
tRp1959
sg23
(lp1960
g1
(g25
g3
NtRp1961
(dp1962
g28
g21
(S'0.0625'
tRp1963
sg30
I420
sg31
I0
sg32
I60
sbasg36
g21
(S'0.4375'
tRp1964
sg38
g21
(S'0.4375'
tRp1965
sbag1
(g13
g3
NtRp1966
(dp1967
g16
S'T(0)./mid/invention1.mid'
p1968
sg18
S'G'
sg19
I960
sg20
g21
(S'0.0625'
tRp1969
sg23
(lp1970
g1
(g25
g3
NtRp1971
(dp1972
g28
g21
(S'0.125'
tRp1973
sg30
I6240
sg31
I1
sg32
I50
sbasg36
g21
(S'0.5'
tRp1974
sg38
g21
(S'6.5'
tRp1975
sbag1
(g13
g3
NtRp1976
(dp1977
g16
S'T(0)./mid/invention1.mid'
p1978
sg18
S'E'
sg19
I960
sg20
g21
(S'0.0625'
tRp1979
sg23
(lp1980
g1
(g25
g3
NtRp1981
(dp1982
g28
g21
(S'0.125'
tRp1983
sg30
I11520
sg31
I1
sg32
I59
sbasg36
g21
(S'0'
tRp1984
sg38
g21
(S'12'
p1985
tRp1986
sbag1
(g13
g3
NtRp1987
(dp1988
g16
S'T(0)./mid/invention1.mid'
p1989
sg18
S'Dm'
p1990
sg19
I960
sg20
g21
(S'0.0625'
tRp1991
sg23
(lp1992
g1
(g25
g3
NtRp1993
(dp1994
g28
g21
(S'0.0625'
tRp1995
sg30
I15180
sg31
I1
sg32
I59
sbasg36
g21
(S'0.8125'
tRp1996
sg38
g21
(S'15.8125'
tRp1997
sbag1
(g13
g3
NtRp1998
(dp1999
g16
S'T(0)./mid/invention1.mid'
p2000
sg18
S'Dm'
p2001
sg19
I960
sg20
g21
(S'0.0625'
tRp2002
sg23
(lp2003
g1
(g25
g3
NtRp2004
(dp2005
g28
g21
(S'0.0625'
tRp2006
sg30
I18660
sg31
I0
sg32
I79
sbasg36
g21
(S'0.4375'
tRp2007
sg38
g21
(S'19.4375'
tRp2008
sbag1
(g13
g3
NtRp2009
(dp2010
g16
S'T(0)./mid/invention1.mid'
p2011
sg18
S'G'
sg19
I960
sg20
g21
(S'0.0625'
tRp2012
sg23
(lp2013
g1
(g25
g3
NtRp2014
(dp2015
g28
g21
(S'0.5520833333333333333333333333'
tRp2016
sg30
I15840
sg31
I0
sg32
I77
sbasg36
g21
(S'0.5'
tRp2017
sg38
g21
(S'16.5'
tRp2018
sbag1
(g13
g3
NtRp2019
(dp2020
g16
S'T(0)./mid/invention1.mid'
p2021
sg18
S'D'
sg19
I960
sg20
g21
(S'0.0625'
tRp2022
sg23
(lp2023
g1
(g25
g3
NtRp2024
(dp2025
g28
g21
(S'0.0625'
tRp2026
sg30
I6840
sg31
I1
sg32
I52
sbasg36
g21
(S'0.125'
tRp2027
sg38
g21
(S'7.125'
tRp2028
sbag1
(g13
g3
NtRp2029
(dp2030
g16
S'T(0)./mid/invention1.mid'
p2031
sg18
S'G'
sg19
I960
sg20
g21
(S'0.0625'
tRp2032
sg23
(lp2033
g1
(g25
g3
NtRp2034
(dp2035
g28
g21
(S'0.0625'
tRp2036
sg30
I6060
sg31
I1
sg32
I45
sbasg36
g21
(S'0.3125'
tRp2037
sg38
g21
(S'6.3125'
tRp2038
sbag1
(g13
g3
NtRp2039
(dp2040
g16
S'T(0)./mid/invention1.mid'
p2041
sg18
S'C'
sg19
I960
sg20
g21
(S'0.0625'
tRp2042
sg23
(lp2043
g1
(g25
g3
NtRp2044
(dp2045
g28
g21
(S'0.0625'
tRp2046
sg30
I240
sg31
I0
sg32
I65
sbasg36
g21
(S'0.25'
tRp2047
sg38
g21
(S'0.25'
tRp2048
sbag1
(g13
g3
NtRp2049
(dp2050
g16
S'T(0)./mid/invention1.mid'
p2051
sg18
S'G'
sg19
I960
sg20
g21
(S'0.0625'
tRp2052
sg23
(lp2053
g1
(g25
g3
NtRp2054
(dp2055
g28
g21
(S'0.0625'
tRp2056
sg30
I15900
sg31
I1
sg32
I62
sbasg36
g21
(S'0.5625'
tRp2057
sg38
g21
(S'16.5625'
tRp2058
sbag1
(g13
g3
NtRp2059
(dp2060
g16
S'T(0)./mid/invention1.mid'
p2061
sg18
S'Dm'
p2062
sg19
I960
sg20
g21
(S'0.0625'
tRp2063
sg23
(lp2064
g1
(g25
g3
NtRp2065
(dp2066
g28
g21
(S'0.0625'
tRp2067
sg30
I19080
sg31
I1
sg32
I53
sbag1
(g25
g3
NtRp2068
(dp2069
g28
g21
(S'0.0625'
tRp2070
sg30
I19080
sg31
I0
sg32
I74
sbasg36
g21
(S'0.875'
tRp2071
sg38
g21
(S'19.875'
tRp2072
sbag1
(g13
g3
NtRp2073
(dp2074
g16
S'T(0)./mid/invention1.mid'
p2075
sg18
S'Dm'
p2076
sg19
I960
sg20
g21
(S'0.0625'
tRp2077
sg23
(lp2078
g1
(g25
g3
NtRp2079
(dp2080
g28
g21
(S'0.0625'
tRp2081
sg30
I14940
sg31
I1
sg32
I57
sbasg36
g21
(S'0.5625'
tRp2082
sg38
g21
(S'15.5625'
tRp2083
sbag1
(g13
g3
NtRp2084
(dp2085
g16
S'T(0)./mid/invention1.mid'
p2086
sg18
S'C'
sg19
I960
sg20
g21
(S'0.0625'
tRp2087
sg23
(lp2088
g1
(g25
g3
NtRp2089
(dp2090
g28
g21
(S'0.0625'
tRp2091
sg30
I2820
sg31
I0
sg32
I77
sbasg36
g21
(S'0.9375'
tRp2092
sg38
g21
(S'2.9375'
tRp2093
sbag1
(g13
g3
NtRp2094
(dp2095
g16
S'T(0)./mid/invention1.mid'
p2096
sg18
S'Dm'
p2097
sg19
I960
sg20
g21
(S'0.0625'
tRp2098
sg23
(lp2099
g1
(g25
g3
NtRp2100
(dp2101
g28
g21
(S'0.0625'
tRp2102
sg30
I15120
sg31
I1
sg32
I62
sbasg36
g21
(S'0.75'
tRp2103
sg38
g21
(S'15.75'
tRp2104
sbag1
(g13
g3
NtRp2105
(dp2106
g16
S'T(0)./mid/invention1.mid'
p2107
sg18
S'G'
sg19
I960
sg20
g21
(S'0.0625'
tRp2108
sg23
(lp2109
g1
(g25
g3
NtRp2110
(dp2111
g28
g21
(S'0.0625'
tRp2112
sg30
I4980
sg31
I0
sg32
I72
sbasg36
g21
(S'0.1875'
tRp2113
sg38
g21
(S'5.1875'
tRp2114
sbag1
(g13
g3
NtRp2115
(dp2116
g16
S'T(0)./mid/invention1.mid'
p2117
sg18
S'D'
sg19
I960
sg20
g21
(S'0.0625'
tRp2118
sg23
(lp2119
g1
(g25
g3
NtRp2120
(dp2121
g28
g21
(S'0.0625'
tRp2122
sg30
I4020
sg31
I1
sg32
I54
sbasg36
g21
(S'0.1875'
tRp2123
sg38
g21
(S'4.1875'
tRp2124
sbag1
(g13
g3
NtRp2125
(dp2126
g16
S'T(0)./mid/invention1.mid'
p2127
sg18
S'C'
sg19
I960
sg20
g21
(S'0.0625'
tRp2128
sg23
(lp2129
g1
(g25
g3
NtRp2130
(dp2131
g28
g21
(S'0.0625'
tRp2132
sg30
I17100
sg31
I1
sg32
I57
sbasg36
g21
(S'0.8125'
tRp2133
sg38
g21
(S'17.8125'
tRp2134
sbag1
(g13
g3
NtRp2135
(dp2136
g16
S'T(0)./mid/invention1.mid'
p2137
sg18
S'C'
sg19
I960
sg20
g21
(S'0.0625'
tRp2138
sg23
(lp2139
g1
(g25
g3
NtRp2140
(dp2141
g28
g21
(S'0.0625'
tRp2142
sg30
I2160
sg31
I0
sg32
I76
sbag1
(g25
g3
NtRp2143
(dp2144
g28
g21
(S'0.125'
tRp2145
sg30
I2160
sg31
I1
sg32
I60
sbasg36
g21
(S'0.25'
tRp2146
sg38
g21
(S'2.25'
tRp2147
sbag1
(g13
g3
NtRp2148
(dp2149
g16
S'T(0)./mid/invention1.mid'
p2150
sg18
S'Bm'
p2151
sg19
I960
sg20
g21
(S'0.0625'
tRp2152
sg23
(lp2153
g1
(g25
g3
NtRp2154
(dp2155
g28
g21
(S'0.0625'
tRp2156
sg30
I10620
sg31
I1
sg32
I64
sbasg36
g21
(S'0.0625'
tRp2157
sg38
g21
(S'11.0625'
tRp2158
sbag1
(g13
g3
NtRp2159
(dp2160
g16
S'T(0)./mid/invention1.mid'
p2161
sg18
S'G'
sg19
I960
sg20
g21
(S'0.0625'
tRp2162
sg23
(lp2163
g1
(g25
g3
NtRp2164
(dp2165
g28
g21
(S'0.0625'
tRp2166
sg30
I960
sg31
I0
sg32
I74
sbag1
(g25
g3
NtRp2167
(dp2168
g28
g21
(S'0.125'
tRp2169
sg30
I960
sg31
I1
sg32
I55
sbasg36
g21
(S'0'
tRp2170
sg38
g21
(S'1'
tRp2171
sbag1
(g13
g3
NtRp2172
(dp2173
g16
S'T(0)./mid/invention1.mid'
p2174
sg18
S'Dm'
p2175
sg19
I960
sg20
g21
(S'0.0625'
tRp2176
sg23
(lp2177
g1
(g25
g3
NtRp2178
(dp2179
g28
g21
(S'0.0625'
tRp2180
sg30
I14640
sg31
I0
sg32
I81
sbasg36
g21
(S'0.25'
tRp2181
sg38
g21
(S'15.25'
tRp2182
sbag1
(g13
g3
NtRp2183
(dp2184
g16
S'T(0)./mid/invention1.mid'
p2185
sg18
S'Dm'
p2186
sg19
I960
sg20
g21
(S'0.0625'
tRp2187
sg23
(lp2188
g1
(g25
g3
NtRp2189
(dp2190
g28
g21
(S'0.0625'
tRp2191
sg30
I18420
sg31
I0
sg32
I83
sbasg36
g21
(S'0.1875'
tRp2192
sg38
g21
(S'19.1875'
tRp2193
sbag1
(g13
g3
NtRp2194
(dp2195
g16
S'T(0)./mid/invention1.mid'
p2196
sg18
S'C'
sg19
I960
sg20
g21
(S'0.0625'
tRp2197
sg23
(lp2198
g1
(g25
g3
NtRp2199
(dp2200
g28
g21
(S'0.0625'
tRp2201
sg30
I19980
sg31
I0
sg32
I72
sbasg36
g21
(S'0.8125'
tRp2202
sg38
g21
(S'20.8125'
tRp2203
sbag1
(g13
g3
NtRp2204
(dp2205
g16
S'T(0)./mid/invention1.mid'
p2206
sg18
S'Em'
p2207
sg19
I960
sg20
g21
(S'0.0625'
tRp2208
sg23
(lp2209
g1
(g25
g3
NtRp2210
(dp2211
g28
g21
(S'0.0625'
tRp2212
sg30
I13680
sg31
I0
sg32
I76
sbasg36
g21
(S'0.25'
tRp2213
sg38
g21
(S'14.25'
tRp2214
sbag1
(g13
g3
NtRp2215
(dp2216
g16
S'T(0)./mid/invention1.mid'
p2217
sg18
S'C'
sg19
I960
sg20
g21
(S'0.0625'
tRp2218
sg23
(lp2219
g1
(g25
g3
NtRp2220
(dp2221
g28
g21
(S'0.0625'
tRp2222
sg30
I2040
sg31
I0
sg32
I79
sbag1
(g25
g3
NtRp2223
(dp2224
g28
g21
(S'0.125'
tRp2225
sg30
I2040
sg31
I1
sg32
I59
sbasg36
g21
(S'0.125'
tRp2226
sg38
g21
(S'2.125'
tRp2227
sbag1
(g13
g3
NtRp2228
(dp2229
g16
S'T(0)./mid/invention1.mid'
p2230
sg18
S'C'
sg19
I960
sg20
g21
(S'0.0625'
tRp2231
sg23
(lp2232
g1
(g25
g3
NtRp2233
(dp2234
g28
g21
(S'0.0625'
tRp2235
sg30
I900
sg31
I1
sg32
I48
sbasg36
g21
(S'0.9375'
tRp2236
sg38
g21
(S'0.9375'
tRp2237
sbag1
(g13
g3
NtRp2238
(dp2239
g16
S'T(0)./mid/invention1.mid'
p2240
sg18
S'G'
sg19
I960
sg20
g21
(S'0.0625'
tRp2241
sg23
(lp2242
g1
(g25
g3
NtRp2243
(dp2244
g28
g21
(S'0.0625'
tRp2245
sg30
I1620
sg31
I1
sg32
I59
sbasg36
g21
(S'0.6875'
tRp2246
sg38
g21
(S'1.6875'
tRp2247
sbag1
(g13
g3
NtRp2248
(dp2249
g16
S'T(0)./mid/invention1.mid'
p2250
sg18
S'C'
sg19
I960
sg20
g21
(S'0.0625'
tRp2251
sg23
(lp2252
g1
(g25
g3
NtRp2253
(dp2254
g28
g21
(S'0.0625'
tRp2255
sg30
I2520
sg31
I0
sg32
I76
sbag1
(g25
g3
NtRp2256
(dp2257
g28
g21
(S'0.125'
tRp2258
sg30
I2520
sg31
I1
sg32
I55
sbasg36
g21
(S'0.625'
tRp2259
sg38
g21
(S'2.625'
tRp2260
sbag1
(g13
g3
NtRp2261
(dp2262
g16
S'T(0)./mid/invention1.mid'
p2263
sg18
S'G'
sg19
I960
sg20
g21
(S'0.0625'
tRp2264
sg23
(lp2265
g1
(g25
g3
NtRp2266
(dp2267
g28
g21
(S'0.0625'
tRp2268
sg30
I5820
sg31
I1
sg32
I43
sbasg36
g21
(S'0.0625'
tRp2269
sg38
g21
(S'6.0625'
tRp2270
sbag1
(g13
g3
NtRp2271
(dp2272
g16
S'T(0)./mid/invention1.mid'
p2273
sg18
S'Em'
p2274
sg19
I960
sg20
g21
(S'0.0625'
tRp2275
sg23
(lp2276
g1
(g25
g3
NtRp2277
(dp2278
g28
g21
(S'0.0625'
tRp2279
sg30
I13500
sg31
I0
sg32
I81
sbasg36
g21
(S'0.0625'
tRp2280
sg38
g21
(S'14.0625'
tRp2281
sbag1
(g13
g3
NtRp2282
(dp2283
g16
S'T(0)./mid/invention1.mid'
p2284
sg18
S'G'
sg19
I960
sg20
g21
(S'0.0625'
tRp2285
sg23
(lp2286
g1
(g25
g3
NtRp2287
(dp2288
g28
g21
(S'0.0625'
tRp2289
sg30
I1140
sg31
I0
sg32
I71
sbasg36
g21
(S'0.1875'
tRp2290
sg38
g21
(S'1.1875'
tRp2291
sbag1
(g13
g3
NtRp2292
(dp2293
g16
S'T(0)./mid/invention1.mid'
p2294
sg18
S'D'
sg19
I960
sg20
g21
(S'0.0625'
tRp2295
sg23
(lp2296
g1
(g25
g3
NtRp2297
(dp2298
g28
g21
(S'0.0625'
tRp2299
sg30
I4140
sg31
I1
sg32
I52
sbag1
(g25
g3
NtRp2300
(dp2301
g28
g21
(S'0.125'
tRp2302
sg30
I4140
sg31
I0
sg32
I72
sbasg36
g21
(S'0.3125'
tRp2303
sg38
g21
(S'4.3125'
tRp2304
sbag1
(g13
g3
NtRp2305
(dp2306
g16
S'T(0)./mid/invention1.mid'
p2307
sg18
S'Dm'
p2308
sg19
I960
sg20
g21
(S'0.0625'
tRp2309
sg23
(lp2310
g1
(g25
g3
NtRp2311
(dp2312
g28
g21
(S'0.0625'
tRp2313
sg30
I9780
sg31
I1
sg32
I67
sbasg36
g21
(S'0.1875'
tRp2314
sg38
g21
(S'10.1875'
tRp2315
sbag1
(g13
g3
NtRp2316
(dp2317
g16
S'T(0)./mid/invention1.mid'
p2318
sg18
S'Dm'
p2319
sg19
I960
sg20
g21
(S'0.0625'
tRp2320
sg23
(lp2321
g1
(g25
g3
NtRp2322
(dp2323
g28
g21
(S'0.0625'
tRp2324
sg30
I15060
sg31
I1
sg32
I60
sbasg36
g21
(S'0.6875'
tRp2325
sg38
g21
(S'15.6875'
tRp2326
sbag1
(g13
g3
NtRp2327
(dp2328
g16
S'T(0)./mid/invention1.mid'
p2329
sg18
S'Dm'
p2330
sg19
I960
sg20
g21
(S'0.0625'
tRp2331
sg23
(lp2332
g1
(g25
g3
NtRp2333
(dp2334
g28
g21
(S'0.5520833333333333333333333333'
tRp2335
sg30
I14400
sg31
I1
sg32
I62
sbasg36
g21
(S'0'
tRp2336
sg38
g21
(S'15'
p2337
tRp2338
sbag1
(g13
g3
NtRp2339
(dp2340
g16
S'T(0)./mid/invention1.mid'
p2341
sg18
S'Dm'
p2342
sg19
I960
sg20
g21
(S'0.0625'
tRp2343
sg23
(lp2344
g1
(g25
g3
NtRp2345
(dp2346
g28
g21
(S'0.0625'
tRp2347
sg30
I9840
sg31
I1
sg32
I65
sbag1
(g25
g3
NtRp2348
(dp2349
g28
g21
(S'0.125'
tRp2350
sg30
I9840
sg31
I0
sg32
I74
sbasg36
g21
(S'0.25'
tRp2351
sg38
g21
(S'10.25'
tRp2352
sbag1
(g13
g3
NtRp2353
(dp2354
g16
S'T(0)./mid/invention1.mid'
p2355
sg18
S'Dm'
p2356
sg19
I960
sg20
g21
(S'0.0625'
tRp2357
sg23
(lp2358
g1
(g25
g3
NtRp2359
(dp2360
g28
g21
(S'0.0625'
tRp2361
sg30
I19020
sg31
I1
sg32
I52
sbag1
(g25
g3
NtRp2362
(dp2363
g28
g21
(S'0.0625'
tRp2364
sg30
I19020
sg31
I0
sg32
I76
sbasg36
g21
(S'0.8125'
tRp2365
sg38
g21
(S'19.8125'
tRp2366
sbag1
(g13
g3
NtRp2367
(dp2368
g16
S'T(0)./mid/invention1.mid'
p2369
sg18
S'C'
sg19
I960
sg20
g21
(S'0.0625'
tRp2370
sg23
(lp2371
g1
(g25
g3
NtRp2372
(dp2373
g28
g21
(S'0.0625'
tRp2374
sg30
I9060
sg31
I1
sg32
I69
sbasg36
g21
(S'0.4375'
tRp2375
sg38
g21
(S'9.4375'
tRp2376
sbag1
(g13
g3
NtRp2377
(dp2378
g16
S'T(0)./mid/invention1.mid'
p2379
sg18
S'Dm'
p2380
sg19
I960
sg20
g21
(S'0.0625'
tRp2381
sg23
(lp2382
g1
(g25
g3
NtRp2383
(dp2384
g28
g21
(S'0.0625'
tRp2385
sg30
I8220
sg31
I0
sg32
I74
sbasg36
g21
(S'0.5625'
tRp2386
sg38
g21
(S'8.5625'
tRp2387
sbag1
(g13
g3
NtRp2388
(dp2389
g16
S'T(0)./mid/invention1.mid'
p2390
sg18
S'G'
sg19
I960
sg20
g21
(S'0.0625'
tRp2391
sg23
(lp2392
g1
(g25
g3
NtRp2393
(dp2394
g28
g21
(S'0.0625'
tRp2395
sg30
I6180
sg31
I1
sg32
I43
sbasg36
g21
(S'0.4375'
tRp2396
sg38
g21
(S'6.4375'
tRp2397
sbag1
(g13
g3
NtRp2398
(dp2399
g16
S'T(0)./mid/invention1.mid'
p2400
sg18
S'D'
sg19
I960
sg20
g21
(S'0.0625'
tRp2401
sg23
(lp2402
g1
(g25
g3
NtRp2403
(dp2404
g28
g21
(S'0.125'
tRp2405
sg30
I7200
sg31
I1
sg32
I57
sbasg36
g21
(S'0.5'
tRp2406
sg38
g21
(S'7.5'
tRp2407
sbag1
(g13
g3
NtRp2408
(dp2409
g16
S'T(0)./mid/invention1.mid'
p2410
sg18
S'G'
sg19
I960
sg20
g21
(S'0.0625'
tRp2411
sg23
(lp2412
g1
(g25
g3
NtRp2413
(dp2414
g28
g21
(S'0.0625'
tRp2415
sg30
I4920
sg31
I0
sg32
I69
sbag1
(g25
g3
NtRp2416
(dp2417
g28
g21
(S'0.125'
tRp2418
sg30
I4920
sg31
I1
sg32
I54
sbasg36
g21
(S'0.125'
tRp2419
sg38
g21
(S'5.125'
tRp2420
sbag1
(g13
g3
NtRp2421
(dp2422
g16
S'T(0)./mid/invention1.mid'
p2423
sg18
S'Bm'
p2424
sg19
I960
sg20
g21
(S'0.0625'
tRp2425
sg23
(lp2426
g1
(g25
g3
NtRp2427
(dp2428
g28
g21
(S'0.0625'
tRp2429
sg30
I10920
sg31
I1
sg32
I60
sbag1
(g25
g3
NtRp2430
(dp2431
g28
g21
(S'0.125'
tRp2432
sg30
I10920
sg31
I0
sg32
I69
sbasg36
g21
(S'0.375'
tRp2433
sg38
g21
(S'11.375'
tRp2434
sbag1
(g13
g3
NtRp2435
(dp2436
g16
S'T(0)./mid/invention1.mid'
p2437
sg18
S'E'
sg19
I960
sg20
g21
(S'0.0625'
tRp2438
sg23
(lp2439
g1
(g25
g3
NtRp2440
(dp2441
g28
g21
(S'0.0625'
tRp2442
sg30
I12000
sg31
I1
sg32
I60
sbag1
(g25
g3
NtRp2443
(dp2444
g28
g21
(S'0.0625'
tRp2445
sg30
I12000
sg31
I0
sg32
I76
sbasg36
g21
(S'0.5'
tRp2446
sg38
g21
(S'12.5'
tRp2447
sbag1
(g13
g3
NtRp2448
(dp2449
g16
S'T(0)./mid/invention1.mid'
p2450
sg18
S'Am'
p2451
sg19
I960
sg20
g21
(S'0.0625'
tRp2452
sg23
(lp2453
g1
(g25
g3
NtRp2454
(dp2455
g28
g21
(S'0.0625'
tRp2456
sg30
I3180
sg31
I0
sg32
I72
sbasg36
g21
(S'0.3125'
tRp2457
sg38
g21
(S'3.3125'
tRp2458
sbag1
(g13
g3
NtRp2459
(dp2460
g16
S'T(0)./mid/invention1.mid'
p2461
sg18
S'Am'
p2462
sg19
I960
sg20
g21
(S'0.0625'
tRp2463
sg23
(lp2464
g1
(g25
g3
NtRp2465
(dp2466
g28
g21
(S'0.0625'
tRp2467
sg30
I3060
sg31
I0
sg32
I71
sbasg36
g21
(S'0.1875'
tRp2468
sg38
g21
(S'3.1875'
tRp2469
sbag1
(g13
g3
NtRp2470
(dp2471
g16
S'T(0)./mid/invention1.mid'
p2472
sg18
S'Dm'
p2473
sg19
I960
sg20
g21
(S'0.0625'
tRp2474
sg23
(lp2475
g1
(g25
g3
NtRp2476
(dp2477
g28
g21
(S'0.0625'
tRp2478
sg30
I18840
sg31
I1
sg32
I52
sbag1
(g25
g3
NtRp2479
(dp2480
g28
g21
(S'0.125'
tRp2481
sg30
I18840
sg31
I0
sg32
I79
sbasg36
g21
(S'0.625'
tRp2482
sg38
g21
(S'19.625'
tRp2483
sbag1
(g13
g3
NtRp2484
(dp2485
g16
S'T(0)./mid/invention1.mid'
p2486
sg18
S'E'
sg19
I960
sg20
g21
(S'0.0625'
tRp2487
sg23
(lp2488
g1
(g25
g3
NtRp2489
(dp2490
g28
g21
(S'0.0625'
tRp2491
sg30
I12060
sg31
I1
sg32
I59
sbag1
(g25
g3
NtRp2492
(dp2493
g28
g21
(S'0.0625'
tRp2494
sg30
I12060
sg31
I0
sg32
I74
sbasg36
g21
(S'0.5625'
tRp2495
sg38
g21
(S'12.5625'
tRp2496
sbag1
(g13
g3
NtRp2497
(dp2498
g16
S'T(0)./mid/invention1.mid'
p2499
sg18
S'Am'
p2500
sg19
I960
sg20
g21
(S'0.03125'
tRp2501
sg23
(lp2502
g1
(g25
g3
NtRp2503
(dp2504
g28
g21
(S'0.03125'
tRp2505
sg30
I13230
sg31
I0
sg32
I74
sbasg36
g21
(S'0.78125'
tRp2506
sg38
g21
(S'13.78125'
tRp2507
sbag1
(g13
g3
NtRp2508
(dp2509
g16
S'T(0)./mid/invention1.mid'
p2510
sg18
S'Em'
p2511
sg19
I960
sg20
g21
(S'0.0625'
tRp2512
sg23
(lp2513
g1
(g25
g3
NtRp2514
(dp2515
g28
g21
(S'0.0625'
tRp2516
sg30
I13560
sg31
I0
sg32
I79
sbag1
(g25
g3
NtRp2517
(dp2518
g28
g21
(S'0.125'
tRp2519
sg30
I13560
sg31
I1
sg32
I45
sbasg36
g21
(S'0.125'
tRp2520
sg38
g21
(S'14.125'
tRp2521
sbag1
(g13
g3
NtRp2522
(dp2523
g16
S'T(0)./mid/invention1.mid'
p2524
sg18
S'Dm'
p2525
sg19
I960
sg20
g21
(S'0.0625'
tRp2526
sg23
(lp2527
g1
(g25
g3
NtRp2528
(dp2529
g28
g21
(S'0.0625'
tRp2530
sg30
I17760
sg31
I0
sg32
I74
sbag1
(g25
g3
NtRp2531
(dp2532
g28
g21
(S'0.125'
tRp2533
sg30
I17760
sg31
I1
sg32
I53
sbasg36
g21
(S'0.5'
tRp2534
sg38
g21
(S'18.5'
tRp2535
sbag1
(g13
g3
NtRp2536
(dp2537
g16
S'T(0)./mid/invention1.mid'
p2538
sg18
S'Dm'
p2539
sg19
I960
sg20
g21
(S'0.0625'
tRp2540
sg23
(lp2541
g1
(g25
g3
NtRp2542
(dp2543
g28
g21
(S'0.0625'
tRp2544
sg30
I8340
sg31
I0
sg32
I71
sbasg36
g21
(S'0.6875'
tRp2545
sg38
g21
(S'8.6875'
tRp2546
sbag1
(g13
g3
NtRp2547
(dp2548
g16
S'T(0)./mid/invention1.mid'
p2549
sg18
S'Dm'
p2550
sg19
I960
sg20
g21
(S'0.0625'
tRp2551
sg23
(lp2552
g1
(g25
g3
NtRp2553
(dp2554
g28
g21
(S'0.0625'
tRp2555
sg30
I10380
sg31
I1
sg32
I65
sbasg36
g21
(S'0.8125'
tRp2556
sg38
g21
(S'10.8125'
tRp2557
sbag1
(g13
g3
NtRp2558
(dp2559
g16
S'T(0)./mid/invention1.mid'
p2560
sg18
S'D'
sg19
I960
sg20
g21
(S'0.0625'
tRp2561
sg23
(lp2562
g1
(g25
g3
NtRp2563
(dp2564
g28
g21
(S'0.0625'
tRp2565
sg30
I4380
sg31
I0
sg32
I69
sbasg36
g21
(S'0.5625'
tRp2566
sg38
g21
(S'4.5625'
tRp2567
sbag1
(g13
g3
NtRp2568
(dp2569
g16
S'T(0)./mid/invention1.mid'
p2570
sg18
S'Em'
p2571
sg19
I960
sg20
g21
(S'0.0625'
tRp2572
sg23
(lp2573
g1
(g25
g3
NtRp2574
(dp2575
g28
g21
(S'0.0625'
tRp2576
sg30
I14100
sg31
I1
sg32
I60
sbasg36
g21
(S'0.6875'
tRp2577
sg38
g21
(S'14.6875'
tRp2578
sbag1
(g13
g3
NtRp2579
(dp2580
g16
S'T(0)./mid/invention1.mid'
p2581
sg18
S'Dm'
p2582
sg19
I960
sg20
g21
(S'0.0625'
tRp2583
sg23
(lp2584
g1
(g25
g3
NtRp2585
(dp2586
g28
g21
(S'0.0625'
tRp2587
sg30
I18000
sg31
I0
sg32
I81
sbag1
(g25
g3
NtRp2588
(dp2589
g28
g21
(S'0.125'
tRp2590
sg30
I18000
sg31
I1
sg32
I60
sbasg36
g21
(S'0.75'
tRp2591
sg38
g21
(S'18.75'
tRp2592
sbag1
(g13
g3
NtRp2593
(dp2594
g16
S'T(0)./mid/invention1.mid'
p2595
sg18
S'Am'
p2596
sg19
I960
sg20
g21
(S'0.0625'
tRp2597
sg23
(lp2598
g1
(g25
g3
NtRp2599
(dp2600
g28
g21
(S'0.0625'
tRp2601
sg30
I12600
sg31
I1
sg32
I59
sbag1
(g25
g3
NtRp2602
(dp2603
g28
g21
(S'0.0625'
tRp2604
sg30
I12600
sg31
I0
sg32
I80
sbasg36
g21
(S'0.125'
tRp2605
sg38
g21
(S'13.125'
tRp2606
sbag1
(g13
g3
NtRp2607
(dp2608
g16
S'T(0)./mid/invention1.mid'
p2609
sg18
S'D'
sg19
I960
sg20
g21
(S'0.0625'
tRp2610
sg23
(lp2611
g1
(g25
g3
NtRp2612
(dp2613
g28
g21
(S'0.125'
tRp2614
sg30
I3840
sg31
I0
sg32
I69
sbasg36
g21
(S'0'
tRp2615
sg38
g21
(S'4'
tRp2616
sbag1
(g13
g3
NtRp2617
(dp2618
g16
S'T(0)./mid/invention1.mid'
p2619
sg18
S'Dm'
p2620
sg19
I960
sg20
g21
(S'0.0625'
tRp2621
sg23
(lp2622
g1
(g25
g3
NtRp2623
(dp2624
g28
g21
(S'0.0625'
tRp2625
sg30
I17340
sg31
I0
sg32
I72
sbasg36
g21
(S'0.0625'
tRp2626
sg38
g21
(S'18.0625'
tRp2627
sbag1
(g13
g3
NtRp2628
(dp2629
g16
S'T(0)./mid/invention1.mid'
p2630
sg18
S'Dm'
p2631
sg19
I960
sg20
g21
(S'0.0625'
tRp2632
sg23
(lp2633
g1
(g25
g3
NtRp2634
(dp2635
g28
g21
(S'0.0625'
tRp2636
sg30
I17460
sg31
I0
sg32
I76
sbasg36
g21
(S'0.1875'
tRp2637
sg38
g21
(S'18.1875'
tRp2638
sbag1
(g13
g3
NtRp2639
(dp2640
g16
S'T(0)./mid/invention1.mid'
p2641
sg18
S'Bm'
p2642
sg19
I960
sg20
g21
(S'0.0625'
tRp2643
sg23
(lp2644
g1
(g25
g3
NtRp2645
(dp2646
g28
g21
(S'0.0625'
tRp2647
sg30
I10800
sg31
I1
sg32
I59
sbag1
(g25
g3
NtRp2648
(dp2649
g28
g21
(S'0.125'
tRp2650
sg30
I10800
sg31
I0
sg32
I68
sbasg36
g21
(S'0.25'
tRp2651
sg38
g21
(S'11.25'
tRp2652
sbag1
(g13
g3
NtRp2653
(dp2654
g16
S'T(0)./mid/invention1.mid'
p2655
sg18
S'G'
sg19
I960
sg20
g21
(S'0.0625'
tRp2656
sg23
(lp2657
g1
(g25
g3
NtRp2658
(dp2659
g28
g21
(S'0.5520833333333333333333333333'
tRp2660
sg30
I15360
sg31
I1
sg32
I59
sbasg36
g21
(S'0'
tRp2661
sg38
g21
(S'16'
p2662
tRp2663
sbag1
(g13
g3
NtRp2664
(dp2665
g16
S'T(0)./mid/invention1.mid'
p2666
sg18
S'Am'
p2667
sg19
I960
sg20
g21
(S'0.0625'
tRp2668
sg23
(lp2669
g1
(g25
g3
NtRp2670
(dp2671
g28
g21
(S'0.0625'
tRp2672
sg30
I3720
sg31
I0
sg32
I67
sbasg36
g21
(S'0.875'
tRp2673
sg38
g21
(S'3.875'
tRp2674
sbag1
(g13
g3
NtRp2675
(dp2676
g16
S'T(0)./mid/invention1.mid'
p2677
sg18
S'Dm'
p2678
sg19
I960
sg20
g21
(S'0.0625'
tRp2679
sg23
(lp2680
g1
(g25
g3
NtRp2681
(dp2682
g28
g21
(S'0.0625'
tRp2683
sg30
I10140
sg31
I1
sg32
I67
sbasg36
g21
(S'0.5625'
tRp2684
sg38
g21
(S'10.5625'
tRp2685
sbag1
(g13
g3
NtRp2686
(dp2687
g16
S'T(0)./mid/invention1.mid'
p2688
sg18
S'Dm'
p2689
sg19
I960
sg20
g21
(S'0.0625'
tRp2690
sg23
(lp2691
g1
(g25
g3
NtRp2692
(dp2693
g28
g21
(S'0.0625'
tRp2694
sg30
I14700
sg31
I0
sg32
I77
sbasg36
g21
(S'0.3125'
tRp2695
sg38
g21
(S'15.3125'
tRp2696
sbag1
(g13
g3
NtRp2697
(dp2698
g16
S'T(0)./mid/invention1.mid'
p2699
sg18
S'G'
sg19
I960
sg20
g21
(S'0.0625'
tRp2700
sg23
(lp2701
g1
(g25
g3
NtRp2702
(dp2703
g28
g21
(S'0.0625'
tRp2704
sg30
I5280
sg31
I0
sg32
I74
sbag1
(g25
g3
NtRp2705
(dp2706
g28
g21
(S'0.1875'
tRp2707
sg30
I5280
sg31
I1
sg32
I47
sbasg36
g21
(S'0.5'
tRp2708
sg38
g21
(S'5.5'
tRp2709
sbag1
(g13
g3
NtRp2710
(dp2711
g16
S'T(0)./mid/invention1.mid'
p2712
sg18
S'G'
sg19
I960
sg20
g21
(S'0.0625'
tRp2713
sg23
(lp2714
g1
(g25
g3
NtRp2715
(dp2716
g28
g21
(S'0.0625'
tRp2717
sg30
I16140
sg31
I1
sg32
I60
sbasg36
g21
(S'0.8125'
tRp2718
sg38
g21
(S'16.8125'
tRp2719
sbag1
(g13
g3
NtRp2720
(dp2721
g16
S'T(0)./mid/invention1.mid'
p2722
sg18
S'Dm'
p2723
sg19
I960
sg20
g21
(S'0.0625'
tRp2724
sg23
(lp2725
g1
(g25
g3
NtRp2726
(dp2727
g28
g21
(S'0.0625'
tRp2728
sg30
I17400
sg31
I0
sg32
I74
sbag1
(g25
g3
NtRp2729
(dp2730
g28
g21
(S'0.125'
tRp2731
sg30
I17400
sg31
I1
sg32
I58
sbasg36
g21
(S'0.125'
tRp2732
sg38
g21
(S'18.125'
tRp2733
sbag1
(g13
g3
NtRp2734
(dp2735
g16
S'T(0)./mid/invention1.mid'
p2736
sg18
S'C'
sg19
I960
sg20
g21
(S'0.0625'
tRp2737
sg23
(lp2738
g1
(g25
g3
NtRp2739
(dp2740
g28
g21
(S'0.0625'
tRp2741
sg30
I19620
sg31
I0
sg32
I70
sbasg36
g21
(S'0.4375'
tRp2742
sg38
g21
(S'20.4375'
tRp2743
sbag1
(g13
g3
NtRp2744
(dp2745
g16
S'T(0)./mid/invention1.mid'
p2746
sg18
S'G'
sg19
I960
sg20
g21
(S'0.0625'
tRp2747
sg23
(lp2748
g1
(g25
g3
NtRp2749
(dp2750
g28
g21
(S'0.0625'
tRp2751
sg30
I1860
sg31
I1
sg32
I55
sbasg36
g21
(S'0.9375'
tRp2752
sg38
g21
(S'1.9375'
tRp2753
sbag1
(g13
g3
NtRp2754
(dp2755
g16
S'T(0)./mid/invention1.mid'
p2756
sg18
S'Dm'
p2757
sg19
I960
sg20
g21
(S'0.0625'
tRp2758
sg23
(lp2759
g1
(g25
g3
NtRp2760
(dp2761
g28
g21
(S'0.0625'
tRp2762
sg30
I10260
sg31
I1
sg32
I64
sbasg36
g21
(S'0.6875'
tRp2763
sg38
g21
(S'10.6875'
tRp2764
sbag1
(g13
g3
NtRp2765
(dp2766
g16
S'T(0)./mid/invention1.mid'
p2767
sg18
S'E'
sg19
I960
sg20
g21
(S'0.0625'
tRp2768
sg23
(lp2769
g1
(g25
g3
NtRp2770
(dp2771
g28
g21
(S'0.0625'
tRp2772
sg30
I11820
sg31
I0
sg32
I66
sbag1
(g25
g3
NtRp2773
(dp2774
g28
g21
(S'0.125'
tRp2775
sg30
I11820
sg31
I1
sg32
I62
sbasg36
g21
(S'0.3125'
tRp2776
sg38
g21
(S'12.3125'
tRp2777
sbag1
(g13
g3
NtRp2778
(dp2779
g16
S'T(0)./mid/invention1.mid'
p2780
sg18
S'Dm'
p2781
sg19
I960
sg20
g21
(S'0.0625'
tRp2782
sg23
(lp2783
g1
(g25
g3
NtRp2784
(dp2785
g28
g21
(S'0.0625'
tRp2786
sg30
I18180
sg31
I0
sg32
I76
sbasg36
g21
(S'0.9375'
tRp2787
sg38
g21
(S'18.9375'
tRp2788
sbag1
(g13
g3
NtRp2789
(dp2790
g16
S'T(0)./mid/invention1.mid'
p2791
sg18
S'Dm'
p2792
sg19
I960
sg20
g21
(S'0.0625'
tRp2793
sg23
(lp2794
g1
(g25
g3
NtRp2795
(dp2796
g28
g21
(S'0.0625'
tRp2797
sg30
I8460
sg31
I0
sg32
I72
sbasg36
g21
(S'0.8125'
tRp2798
sg38
g21
(S'8.8125'
tRp2799
sbag1
(g13
g3
NtRp2800
(dp2801
g16
S'T(0)./mid/invention1.mid'
p2802
sg18
S'Am'
p2803
sg19
I960
sg20
g21
(S'0.0625'
tRp2804
sg23
(lp2805
g1
(g25
g3
NtRp2806
(dp2807
g28
g21
(S'0.0625'
tRp2808
sg30
I12720
sg31
I1
sg32
I60
sbag1
(g25
g3
NtRp2809
(dp2810
g28
g21
(S'0.0625'
tRp2811
sg30
I12720
sg31
I0
sg32
I81
sbasg36
g21
(S'0.25'
tRp2812
sg38
g21
(S'13.25'
tRp2813
sbag1
(g13
g3
NtRp2814
(dp2815
g16
S'T(0)./mid/invention1.mid'
p2816
sg18
S'Am'
p2817
sg19
I960
sg20
g21
(S'0.0625'
tRp2818
sg23
(lp2819
g1
(g25
g3
NtRp2820
(dp2821
g28
g21
(S'0.0625'
tRp2822
sg30
I13260
sg31
I0
sg32
I72
sbasg36
g21
(S'0.8125'
tRp2823
sg38
g21
(S'13.8125'
tRp2824
sbag1
(g13
g3
NtRp2825
(dp2826
g16
S'T(0)./mid/invention1.mid'
p2827
sg18
S'G'
sg19
I960
sg20
g21
(S'0.0625'
tRp2828
sg23
(lp2829
g1
(g25
g3
NtRp2830
(dp2831
g28
g21
(S'0.0625'
tRp2832
sg30
I4800
sg31
I0
sg32
I67
sbag1
(g25
g3
NtRp2833
(dp2834
g28
g21
(S'0.125'
tRp2835
sg30
I4800
sg31
I1
sg32
I52
sbasg36
g21
(S'0'
tRp2836
sg38
g21
(S'5'
tRp2837
sbag1
(g13
g3
NtRp2838
(dp2839
g16
S'T(0)./mid/invention1.mid'
p2840
sg18
S'D'
sg19
I960
sg20
g21
(S'0.03125'
tRp2841
sg23
(lp2842
g1
(g25
g3
NtRp2843
(dp2844
g28
g21
(S'0.03125'
tRp2845
sg30
I4080
sg31
I0
sg32
I72
sbag1
(g25
g3
NtRp2846
(dp2847
g28
g21
(S'0.0625'
tRp2848
sg30
I4080
sg31
I1
sg32
I55
sbasg36
g21
(S'0.25'
tRp2849
sg38
g21
(S'4.25'
tRp2850
sbag1
(g13
g3
NtRp2851
(dp2852
g16
S'T(0)./mid/invention1.mid'
p2853
sg18
S'Dm'
p2854
sg19
I960
sg20
g21
(S'0.0625'
tRp2855
sg23
(lp2856
g1
(g25
g3
NtRp2857
(dp2858
g28
g21
(S'0.0625'
tRp2859
sg30
I17820
sg31
I0
sg32
I76
sbasg36
g21
(S'0.5625'
tRp2860
sg38
g21
(S'18.5625'
tRp2861
sbag1
(g13
g3
NtRp2862
(dp2863
g16
S'T(0)./mid/invention1.mid'
p2864
sg18
S'Am'
p2865
sg19
I960
sg20
g21
(S'0.0625'
tRp2866
sg23
(lp2867
g1
(g25
g3
NtRp2868
(dp2869
g28
g21
(S'0.0625'
tRp2870
sg30
I2880
sg31
I0
sg32
I76
sbag1
(g25
g3
NtRp2871
(dp2872
g28
g21
(S'0.125'
tRp2873
sg30
I2880
sg31
I1
sg32
I60
sbasg36
g21
(S'0'
tRp2874
sg38
g21
(S'3'
tRp2875
sbag1
(g13
g3
NtRp2876
(dp2877
g16
S'T(0)./mid/invention1.mid'
p2878
sg18
S'D'
sg19
I960
sg20
g21
(S'0.0625'
tRp2879
sg23
(lp2880
g1
(g25
g3
NtRp2881
(dp2882
g28
g21
(S'0.0625'
tRp2883
sg30
I7560
sg31
I0
sg32
I72
sbag1
(g25
g3
NtRp2884
(dp2885
g28
g21
(S'0.125'
tRp2886
sg30
I7560
sg31
I1
sg32
I62
sbasg36
g21
(S'0.875'
tRp2887
sg38
g21
(S'7.875'
tRp2888
sbag1
(g13
g3
NtRp2889
(dp2890
g16
S'T(0)./mid/invention1.mid'
p2891
sg18
S'C'
sg19
I960
sg20
g21
(S'0.0625'
tRp2892
sg23
(lp2893
g1
(g25
g3
NtRp2894
(dp2895
g28
g21
(S'0.0625'
tRp2896
sg30
I16380
sg31
I0
sg32
I74
sbasg36
g21
(S'0.0625'
tRp2897
sg38
g21
(S'17.0625'
tRp2898
sbag1
(g13
g3
NtRp2899
(dp2900
g16
S'T(0)./mid/invention1.mid'
p2901
sg18
S'Em'
p2902
sg19
I960
sg20
g21
(S'0.0625'
tRp2903
sg23
(lp2904
g1
(g25
g3
NtRp2905
(dp2906
g28
g21
(S'0.0625'
tRp2907
sg30
I14160
sg31
I1
sg32
I59
sbasg36
g21
(S'0.75'
tRp2908
sg38
g21
(S'14.75'
tRp2909
sbag1
(g13
g3
NtRp2910
(dp2911
g16
S'T(0)./mid/invention1.mid'
p2912
sg18
S'Am'
p2913
sg19
I960
sg20
g21
(S'0.0625'
tRp2914
sg23
(lp2915
g1
(g25
g3
NtRp2916
(dp2917
g28
g21
(S'0.0625'
tRp2918
sg30
I3780
sg31
I0
sg32
I71
sbasg36
g21
(S'0.9375'
tRp2919
sg38
g21
(S'3.9375'
tRp2920
sbag1
(g13
g3
NtRp2921
(dp2922
g16
S'T(0)./mid/invention1.mid'
p2923
sg18
S'C'
sg19
I960
sg20
g21
(S'0.0625'
tRp2924
sg23
(lp2925
g1
(g25
g3
NtRp2926
(dp2927
g28
g21
(S'0.0625'
tRp2928
sg30
I2100
sg31
I0
sg32
I77
sbasg36
g21
(S'0.1875'
tRp2929
sg38
g21
(S'2.1875'
tRp2930
sbag1
(g13
g3
NtRp2931
(dp2932
g16
S'T(0)./mid/invention1.mid'
p2933
sg18
S'Am'
p2934
sg19
I960
sg20
g21
(S'0.0625'
tRp2935
sg23
(lp2936
g1
(g25
g3
NtRp2937
(dp2938
g28
g21
(S'0.0625'
tRp2939
sg30
I3360
sg31
I0
sg32
I72
sbag1
(g25
g3
NtRp2940
(dp2941
g28
g21
(S'0.125'
tRp2942
sg30
I3360
sg31
I1
sg32
I57
sbasg36
g21
(S'0.5'
tRp2943
sg38
g21
(S'3.5'
tRp2944
sbag1
(g13
g3
NtRp2945
(dp2946
g16
S'T(0)./mid/invention1.mid'
p2947
sg18
S'D'
sg19
I960
sg20
g21
(S'0.0625'
tRp2948
sg23
(lp2949
g1
(g25
g3
NtRp2950
(dp2951
g28
g21
(S'0.0625'
tRp2952
sg30
I4740
sg31
I0
sg32
I69
sbasg36
g21
(S'0.9375'
tRp2953
sg38
g21
(S'4.9375'
tRp2954
sbag1
(g13
g3
NtRp2955
(dp2956
g16
S'T(0)./mid/invention1.mid'
p2957
sg18
S'Dm'
p2958
sg19
I960
sg20
g21
(S'0.0625'
tRp2959
sg23
(lp2960
g1
(g25
g3
NtRp2961
(dp2962
g28
g21
(S'0.0625'
tRp2963
sg30
I10080
sg31
I1
sg32
I69
sbag1
(g25
g3
NtRp2964
(dp2965
g28
g21
(S'0.125'
tRp2966
sg30
I10080
sg31
I0
sg32
I77
sbasg36
g21
(S'0.5'
tRp2967
sg38
g21
(S'10.5'
tRp2968
sbag1
(g13
g3
NtRp2969
(dp2970
g16
S'T(0)./mid/invention1.mid'
p2971
sg18
S'C'
sg19
I960
sg20
g21
(S'0.0625'
tRp2972
sg23
(lp2973
g1
(g25
g3
NtRp2974
(dp2975
g28
g21
(S'0.125'
tRp2976
sg30
I480
sg31
I0
sg32
I67
sbasg36
g21
(S'0.5'
tRp2977
sg38
g21
(S'0.5'
tRp2978
sbag1
(g13
g3
NtRp2979
(dp2980
g16
S'T(0)./mid/invention1.mid'
p2981
sg18
S'E'
sg19
I960
sg20
g21
(S'0.03125'
tRp2982
sg23
(lp2983
g1
(g25
g3
NtRp2984
(dp2985
g28
g21
(S'0.03125'
tRp2986
sg30
I11790
sg31
I1
sg32
I60
sbasg36
g21
(S'0.28125'
tRp2987
sg38
g21
(S'12.28125'
tRp2988
sbag1
(g13
g3
NtRp2989
(dp2990
g16
S'T(0)./mid/invention1.mid'
p2991
sg18
S'Am'
p2992
sg19
I960
sg20
g21
(S'0.0625'
tRp2993
sg23
(lp2994
g1
(g25
g3
NtRp2995
(dp2996
g28
g21
(S'0.0625'
tRp2997
sg30
I3600
sg31
I0
sg32
I66
sbag1
(g25
g3
NtRp2998
(dp2999
g28
g21
(S'0.3020833333333333333333333333'
tRp3000
sg30
I3600
sg31
I1
sg32
I60
sbasg36
g21
(S'0.75'
tRp3001
sg38
g21
(S'3.75'
tRp3002
sbag1
(g13
g3
NtRp3003
(dp3004
g16
S'T(0)./mid/invention1.mid'
p3005
sg18
S'G'
sg19
I960
sg20
g21
(S'0.03125'
tRp3006
sg23
(lp3007
g1
(g25
g3
NtRp3008
(dp3009
g28
g21
(S'0.03125'
tRp3010
sg30
I5340
sg31
I0
sg32
I71
sbasg36
g21
(S'0.5625'
tRp3011
sg38
g21
(S'5.5625'
tRp3012
sbag1
(g13
g3
NtRp3013
(dp3014
g16
S'T(0)./mid/invention1.mid'
p3015
sg18
S'C'
sg19
I960
sg20
g21
(S'0.0625'
tRp3016
sg23
(lp3017
g1
(g25
g3
NtRp3018
(dp3019
g28
g21
(S'0.0625'
tRp3020
sg30
I2220
sg31
I0
sg32
I79
sbasg36
g21
(S'0.3125'
tRp3021
sg38
g21
(S'2.3125'
tRp3022
sbag1
(g13
g3
NtRp3023
(dp3024
g16
S'T(0)./mid/invention1.mid'
p3025
sg18
S'G'
sg19
I960
sg20
g21
(S'0.0625'
tRp3026
sg23
(lp3027
g1
(g25
g3
NtRp3028
(dp3029
g28
g21
(S'0.0625'
tRp3030
sg30
I6360
sg31
I0
sg32
I69
sbag1
(g25
g3
NtRp3031
(dp3032
g28
g21
(S'0.125'
tRp3033
sg30
I6360
sg31
I1
sg32
I55
sbasg36
g21
(S'0.625'
tRp3034
sg38
g21
(S'6.625'
tRp3035
sbag1
(g13
g3
NtRp3036
(dp3037
g16
S'T(0)./mid/invention1.mid'
p3038
sg18
S'Am'
p3039
sg19
I960
sg20
g21
(S'0.0625'
tRp3040
sg23
(lp3041
g1
(g25
g3
NtRp3042
(dp3043
g28
g21
(S'0.0625'
tRp3044
sg30
I3000
sg31
I0
sg32
I72
sbag1
(g25
g3
NtRp3045
(dp3046
g28
g21
(S'0.125'
tRp3047
sg30
I3000
sg31
I1
sg32
I52
sbasg36
g21
(S'0.125'
tRp3048
sg38
g21
(S'3.125'
tRp3049
sbag1
(g13
g3
NtRp3050
(dp3051
g16
S'T(0)./mid/invention1.mid'
p3052
sg18
S'G'
sg19
I960
sg20
g21
(S'0.0625'
tRp3053
sg23
(lp3054
g1
(g25
g3
NtRp3055
(dp3056
g28
g21
(S'0.0625'
tRp3057
sg30
I6420
sg31
I0
sg32
I71
sbasg36
g21
(S'0.6875'
tRp3058
sg38
g21
(S'6.6875'
tRp3059
sbag1
(g13
g3
NtRp3060
(dp3061
g16
S'T(0)./mid/invention1.mid'
p3062
sg18
S'C'
sg19
I960
sg20
g21
(S'0.0625'
tRp3063
sg23
(lp3064
g1
(g25
g3
NtRp3065
(dp3066
g28
g21
(S'0.0625'
tRp3067
sg30
I180
sg31
I0
sg32
I64
sbasg36
g21
(S'0.1875'
tRp3068
sg38
g21
(S'0.1875'
tRp3069
sbag1
(g13
g3
NtRp3070
(dp3071
g16
S'T(0)./mid/invention1.mid'
p3072
sg18
S'Am'
p3073
sg19
I960
sg20
g21
(S'0.0625'
tRp3074
sg23
(lp3075
g1
(g25
g3
NtRp3076
(dp3077
g28
g21
(S'0.0625'
tRp3078
sg30
I12960
sg31
I0
sg32
I68
sbag1
(g25
g3
NtRp3079
(dp3080
g28
g21
(S'0.125'
tRp3081
sg30
I12960
sg31
I1
sg32
I64
sbasg36
g21
(S'0.5'
tRp3082
sg38
g21
(S'13.5'
tRp3083
sbag1
(g13
g3
NtRp3084
(dp3085
g16
S'T(0)./mid/invention1.mid'
p3086
sg18
S'D'
sg19
I960
sg20
g21
(S'0.0625'
tRp3087
sg23
(lp3088
g1
(g25
g3
NtRp3089
(dp3090
g28
g21
(S'0.0625'
tRp3091
sg30
I3900
sg31
I1
sg32
I50
sbasg36
g21
(S'0.0625'
tRp3092
sg38
g21
(S'4.0625'
tRp3093
sbag1
(g13
g3
NtRp3094
(dp3095
g16
S'T(0)./mid/invention1.mid'
p3096
sg18
S'C'
sg19
I960
sg20
g21
(S'0.03125'
tRp3097
sg23
(lp3098
g1
(g25
g3
NtRp3099
(dp3100
g28
g21
(S'0.03125'
tRp3101
sg30
I720
sg31
I0
sg32
I71
sbag1
(g25
g3
NtRp3102
(dp3103
g28
g21
(S'0.0625'
tRp3104
sg30
I720
sg31
I1
sg32
I53
sbasg36
g21
(S'0.75'
tRp3105
sg38
g21
(S'0.75'
tRp3106
sbag1
(g13
g3
NtRp3107
(dp3108
g16
S'T(0)./mid/invention1.mid'
p3109
sg18
S'Em'
p3110
sg19
I960
sg20
g21
(S'0.0625'
tRp3111
sg23
(lp3112
g1
(g25
g3
NtRp3113
(dp3114
g28
g21
(S'0.0625'
tRp3115
sg30
I14040
sg31
I1
sg32
I62
sbasg36
g21
(S'0.625'
tRp3116
sg38
g21
(S'14.625'
tRp3117
sbag1
(g13
g3
NtRp3118
(dp3119
g16
S'T(0)./mid/invention1.mid'
p3120
sg18
S'G'
sg19
I960
sg20
g21
(S'0.0625'
tRp3121
sg23
(lp3122
g1
(g25
g3
NtRp3123
(dp3124
g28
g21
(S'0.0625'
tRp3125
sg30
I5040
sg31
I0
sg32
I71
sbag1
(g25
g3
NtRp3126
(dp3127
g28
g21
(S'0.125'
tRp3128
sg30
I5040
sg31
I1
sg32
I55
sbasg36
g21
(S'0.25'
tRp3129
sg38
g21
(S'5.25'
tRp3130
sbag1
(g13
g3
NtRp3131
(dp3132
g16
S'T(0)./mid/invention1.mid'
p3133
sg18
S'G'
sg19
I960
sg20
g21
(S'0.0625'
tRp3134
sg23
(lp3135
g1
(g25
g3
NtRp3136
(dp3137
g28
g21
(S'0.0625'
tRp3138
sg30
I5880
sg31
I1
sg32
I45
sbasg36
g21
(S'0.125'
tRp3139
sg38
g21
(S'6.125'
tRp3140
sbag1
(g13
g3
NtRp3141
(dp3142
g16
S'T(0)./mid/invention1.mid'
p3143
sg18
S'Dm'
p3144
sg19
I960
sg20
g21
(S'0.0625'
tRp3145
sg23
(lp3146
g1
(g25
g3
NtRp3147
(dp3148
g28
g21
(S'0.0625'
tRp3149
sg30
I18240
sg31
I0
sg32
I77
sbag1
(g25
g3
NtRp3150
(dp3151
g28
g21
(S'0.125'
tRp3152
sg30
I18240
sg31
I1
sg32
I57
sbasg36
g21
(S'0'
tRp3153
sg38
g21
(S'19'
p3154
tRp3155
sbag1
(g13
g3
NtRp3156
(dp3157
g16
S'T(0)./mid/invention1.mid'
p3158
sg18
S'G'
sg19
I960
sg20
g21
(S'0.0625'
tRp3159
sg23
(lp3160
g1
(g25
g3
NtRp3161
(dp3162
g28
g21
(S'0.0625'
tRp3163
sg30
I15600
sg31
I0
sg32
I74
sbasg36
g21
(S'0.25'
tRp3164
sg38
g21
(S'16.25'
tRp3165
sbag1
(g13
g3
NtRp3166
(dp3167
g16
S'T(0)./mid/invention1.mid'
p3168
sg18
S'G'
sg19
I960
sg20
g21
(S'0.0625'
tRp3169
sg23
(lp3170
g1
(g25
g3
NtRp3171
(dp3172
g28
g21
(S'0.0625'
tRp3173
sg30
I5700
sg31
I0
sg32
I67
sbasg36
g21
(S'0.9375'
tRp3174
sg38
g21
(S'5.9375'
tRp3175
sbag1
(g13
g3
NtRp3176
(dp3177
g16
S'T(0)./mid/invention1.mid'
p3178
sg18
S'Dm'
p3179
sg19
I960
sg20
g21
(S'0.03125'
tRp3180
sg23
(lp3181
g1
(g25
g3
NtRp3182
(dp3183
g28
g21
(S'0.03125'
tRp3184
sg30
I18990
sg31
I0
sg32
I77
sbasg36
g21
(S'0.78125'
tRp3185
sg38
g21
(S'19.78125'
tRp3186
sbag1
(g13
g3
NtRp3187
(dp3188
g16
S'T(0)./mid/invention1.mid'
p3189
sg18
S'G'
sg19
I960
sg20
g21
(S'0.0625'
tRp3190
sg23
(lp3191
g1
(g25
g3
NtRp3192
(dp3193
g28
g21
(S'0.0625'
tRp3194
sg30
I4860
sg31
I0
sg32
I71
sbasg36
g21
(S'0.0625'
tRp3195
sg38
g21
(S'5.0625'
tRp3196
sbag1
(g13
g3
NtRp3197
(dp3198
g16
S'T(0)./mid/invention1.mid'
p3199
sg18
S'Am'
p3200
sg19
I960
sg20
g21
(S'0.0625'
tRp3201
sg23
(lp3202
g1
(g25
g3
NtRp3203
(dp3204
g28
g21
(S'0.0625'
tRp3205
sg30
I12780
sg31
I1
sg32
I64
sbag1
(g25
g3
NtRp3206
(dp3207
g28
g21
(S'0.0625'
tRp3208
sg30
I12780
sg31
I0
sg32
I76
sbasg36
g21
(S'0.3125'
tRp3209
sg38
g21
(S'13.3125'
tRp3210
sbag1
(g13
g3
NtRp3211
(dp3212
g16
S'T(0)./mid/invention1.mid'
p3213
sg18
S'C'
sg19
I960
sg20
g21
(S'0.0625'
tRp3214
sg23
(lp3215
g1
(g25
g3
NtRp3216
(dp3217
g28
g21
(S'0.0625'
tRp3218
sg30
I8940
sg31
I1
sg32
I67
sbasg36
g21
(S'0.3125'
tRp3219
sg38
g21
(S'9.3125'
tRp3220
sbag1
(g13
g3
NtRp3221
(dp3222
g16
S'T(0)./mid/invention1.mid'
p3223
sg18
S'C'
sg19
I960
sg20
g21
(S'0.0625'
tRp3224
sg23
(lp3225
g1
(g25
g3
NtRp3226
(dp3227
g28
g21
(S'0.0625'
tRp3228
sg30
I2460
sg31
I0
sg32
I77
sbasg36
g21
(S'0.5625'
tRp3229
sg38
g21
(S'2.5625'
tRp3230
sbag1
(g13
g3
NtRp3231
(dp3232
g16
S'T(0)./mid/invention1.mid'
p3233
sg18
S'E'
sg19
I960
sg20
g21
(S'0.0625'
tRp3234
sg23
(lp3235
g1
(g25
g3
NtRp3236
(dp3237
g28
g21
(S'0.0625'
tRp3238
sg30
I11580
sg31
I0
sg32
I64
sbasg36
g21
(S'0.0625'
tRp3239
sg38
g21
(S'12.0625'
tRp3240
sbag1
(g13
g3
NtRp3241
(dp3242
g16
S'T(0)./mid/invention1.mid'
p3243
sg18
S'G'
sg19
I960
sg20
g21
(S'0.0625'
tRp3244
sg23
(lp3245
g1
(g25
g3
NtRp3246
(dp3247
g28
g21
(S'0.0625'
tRp3248
sg30
I16080
sg31
I1
sg32
I57
sbasg36
g21
(S'0.75'
tRp3249
sg38
g21
(S'16.75'
tRp3250
sbag1
(g13
g3
NtRp3251
(dp3252
g16
S'T(0)./mid/invention1.mid'
p3253
sg18
S'C'
sg19
I960
sg20
g21
(S'0.0625'
tRp3254
sg23
(lp3255
g1
(g25
g3
NtRp3256
(dp3257
g28
g21
(S'0.0625'
tRp3258
sg30
I600
sg31
I1
sg32
I50
sbag1
(g25
g3
NtRp3259
(dp3260
g28
g21
(S'0.125'
tRp3261
sg30
I600
sg31
I0
sg32
I72
sbasg36
g21
(S'0.625'
tRp3262
sg38
g21
(S'0.625'
tRp3263
sbag1
(g13
g3
NtRp3264
(dp3265
g16
S'T(0)./mid/invention1.mid'
p3266
sg18
S'C'
sg19
I960
sg20
g21
(S'0.0625'
tRp3267
sg23
(lp3268
g1
(g25
g3
NtRp3269
(dp3270
g28
g21
(S'0.0625'
tRp3271
sg30
I16980
sg31
I1
sg32
I58
sbasg36
g21
(S'0.6875'
tRp3272
sg38
g21
(S'17.6875'
tRp3273
sbag1
(g13
g3
NtRp3274
(dp3275
g16
S'T(0)./mid/invention1.mid'
p3276
sg18
S'C'
sg19
I960
sg20
g21
(S'0.0625'
tRp3277
sg23
(lp3278
g1
(g25
g3
NtRp3279
(dp3280
g28
g21
(S'0.0625'
tRp3281
sg30
I19440
sg31
I0
sg32
I65
sbag1
(g25
g3
NtRp3282
(dp3283
g28
g21
(S'0.125'
tRp3284
sg30
I19440
sg31
I1
sg32
I50
sbasg36
g21
(S'0.25'
tRp3285
sg38
g21
(S'20.25'
tRp3286
sbag1
(g13
g3
NtRp3287
(dp3288
g16
S'T(0)./mid/invention1.mid'
p3289
sg18
S'C'
sg19
I960
sg20
g21
(S'0.0625'
tRp3290
sg23
(lp3291
g1
(g25
g3
NtRp3292
(dp3293
g28
g21
(S'0.0625'
tRp3294
sg30
I2280
sg31
I0
sg32
I77
sbag1
(g25
g3
NtRp3295
(dp3296
g28
g21
(S'0.125'
tRp3297
sg30
I2280
sg31
I1
sg32
I62
sbasg36
g21
(S'0.375'
tRp3298
sg38
g21
(S'2.375'
tRp3299
sbag1
(g13
g3
NtRp3300
(dp3301
g16
S'T(0)./mid/invention1.mid'
p3302
sg18
S'Dm'
p3303
sg19
I960
sg20
g21
(S'0.03125'
tRp3304
sg23
(lp3305
g1
(g25
g3
NtRp3306
(dp3307
g28
g21
(S'0.03125'
tRp3308
sg30
I18960
sg31
I0
sg32
I76
sbag1
(g25
g3
NtRp3309
(dp3310
g28
g21
(S'0.0625'
tRp3311
sg30
I18960
sg31
I1
sg32
I55
sbasg36
g21
(S'0.75'
tRp3312
sg38
g21
(S'19.75'
tRp3313
sbag1
(g13
g3
NtRp3314
(dp3315
g16
S'T(0)./mid/invention1.mid'
p3316
sg18
S'Am'
p3317
sg19
I960
sg20
g21
(S'0.0625'
tRp3318
sg23
(lp3319
g1
(g25
g3
NtRp3320
(dp3321
g28
g21
(S'0.0625'
tRp3322
sg30
I13320
sg31
I0
sg32
I71
sbag1
(g25
g3
NtRp3323
(dp3324
g28
g21
(S'0.125'
tRp3325
sg30
I13320
sg31
I1
sg32
I52
sbasg36
g21
(S'0.875'
tRp3326
sg38
g21
(S'13.875'
tRp3327
sbag1
(g13
g3
NtRp3328
(dp3329
g16
S'T(0)./mid/invention1.mid'
p3330
sg18
S'Am'
p3331
sg19
I960
sg20
g21
(S'0.03125'
tRp3332
sg23
(lp3333
g1
(g25
g3
NtRp3334
(dp3335
g28
g21
(S'0.03125'
tRp3336
sg30
I13200
sg31
I0
sg32
I72
sbag1
(g25
g3
NtRp3337
(dp3338
g28
g21
(S'0.125'
tRp3339
sg30
I13200
sg31
I1
sg32
I64
sbasg36
g21
(S'0.75'
tRp3340
sg38
g21
(S'13.75'
tRp3341
sbag1
(g13
g3
NtRp3342
(dp3343
g16
S'T(0)./mid/invention1.mid'
p3344
sg18
S'D'
sg19
I960
sg20
g21
(S'0.0625'
tRp3345
sg23
(lp3346
g1
(g25
g3
NtRp3347
(dp3348
g28
g21
(S'0.0625'
tRp3349
sg30
I7380
sg31
I0
sg32
I72
sbasg36
g21
(S'0.6875'
tRp3350
sg38
g21
(S'7.6875'
tRp3351
sbag1
(g13
g3
NtRp3352
(dp3353
g16
S'T(0)./mid/invention1.mid'
p3354
sg18
S'Bm'
p3355
sg19
I960
sg20
g21
(S'0.0625'
tRp3356
sg23
(lp3357
g1
(g25
g3
NtRp3358
(dp3359
g28
g21
(S'0.0625'
tRp3360
sg30
I10740
sg31
I1
sg32
I60
sbasg36
g21
(S'0.1875'
tRp3361
sg38
g21
(S'11.1875'
tRp3362
sbag1
(g13
g3
NtRp3363
(dp3364
g16
S'T(0)./mid/invention1.mid'
p3365
sg18
S'C'
sg19
I960
sg20
g21
(S'0.0625'
tRp3366
sg23
(lp3367
g1
(g25
g3
NtRp3368
(dp3369
g28
g21
(S'0.5520833333333333333333333333'
tRp3370
sg30
I16320
sg31
I1
sg32
I60
sbasg36
g21
(S'0'
tRp3371
sg38
g21
(S'17'
p3372
tRp3373
sbag1
(g13
g3
NtRp3374
(dp3375
g16
S'T(0)./mid/invention1.mid'
p3376
sg18
S'Am'
p3377
sg19
I960
sg20
g21
(S'0.0625'
tRp3378
sg23
(lp3379
g1
(g25
g3
NtRp3380
(dp3381
g28
g21
(S'0.0625'
tRp3382
sg30
I3420
sg31
I0
sg32
I71
sbasg36
g21
(S'0.5625'
tRp3383
sg38
g21
(S'3.5625'
tRp3384
sbag1
(g13
g3
NtRp3385
(dp3386
g16
S'T(0)./mid/invention1.mid'
p3387
sg18
S'G'
sg19
I960
sg20
g21
(S'0.0625'
tRp3388
sg23
(lp3389
g1
(g25
g3
NtRp3390
(dp3391
g28
g21
(S'0.0625'
tRp3392
sg30
I1320
sg31
I0
sg32
I71
sbasg36
g21
(S'0.375'
tRp3393
sg38
g21
(S'1.375'
tRp3394
sbag1
(g13
g3
NtRp3395
(dp3396
g16
S'T(0)./mid/invention1.mid'
p3397
sg18
S'C'
sg19
I960
sg20
g21
(S'0.0625'
tRp3398
sg23
(lp3399
g1
(g25
g3
NtRp3400
(dp3401
g28
g21
(S'0.0625'
tRp3402
sg30
I2640
sg31
I0
sg32
I72
sbag1
(g25
g3
NtRp3403
(dp3404
g28
g21
(S'0.125'
tRp3405
sg30
I2640
sg31
I1
sg32
I57
sbasg36
g21
(S'0.75'
tRp3406
sg38
g21
(S'2.75'
tRp3407
sbag1
(g13
g3
NtRp3408
(dp3409
g16
S'T(0)./mid/invention1.mid'
p3410
sg18
S'Dm'
p3411
sg19
I960
sg20
g21
(S'0.0625'
tRp3412
sg23
(lp3413
g1
(g25
g3
NtRp3414
(dp3415
g28
g21
(S'0.0625'
tRp3416
sg30
I17940
sg31
I0
sg32
I79
sbasg36
g21
(S'0.6875'
tRp3417
sg38
g21
(S'18.6875'
tRp3418
sbag1
(g13
g3
NtRp3419
(dp3420
g16
S'T(0)./mid/invention1.mid'
p3421
sg18
S'Dm'
p3422
sg19
I960
sg20
g21
(S'0.0625'
tRp3423
sg23
(lp3424
g1
(g25
g3
NtRp3425
(dp3426
g28
g21
(S'0.0625'
tRp3427
sg30
I19140
sg31
I1
sg32
I50
sbag1
(g25
g3
NtRp3428
(dp3429
g28
g21
(S'0.0625'
tRp3430
sg30
I19140
sg31
I0
sg32
I72
sbasg36
g21
(S'0.9375'
tRp3431
sg38
g21
(S'19.9375'
tRp3432
sbag1
(g13
g3
NtRp3433
(dp3434
g16
S'T(0)./mid/invention1.mid'
p3435
sg18
S'G'
sg19
I960
sg20
g21
(S'0.0625'
tRp3436
sg23
(lp3437
g1
(g25
g3
NtRp3438
(dp3439
g28
g21
(S'0.0625'
tRp3440
sg30
I15720
sg31
I0
sg32
I76
sbasg36
g21
(S'0.375'
tRp3441
sg38
g21
(S'16.375'
tRp3442
sbag1
(g13
g3
NtRp3443
(dp3444
g16
S'T(0)./mid/invention1.mid'
p3445
sg18
S'G'
sg19
I960
sg20
g21
(S'0.0625'
tRp3446
sg23
(lp3447
g1
(g25
g3
NtRp3448
(dp3449
g28
g21
(S'0.0625'
tRp3450
sg30
I15540
sg31
I0
sg32
I76
sbasg36
g21
(S'0.1875'
tRp3451
sg38
g21
(S'16.1875'
tRp3452
sbag1
(g13
g3
NtRp3453
(dp3454
g16
S'T(0)./mid/invention1.mid'
p3455
sg18
S'D'
sg19
I960
sg20
g21
(S'0.0625'
tRp3456
sg23
(lp3457
g1
(g25
g3
NtRp3458
(dp3459
g28
g21
(S'0.0625'
tRp3460
sg30
I4440
sg31
I0
sg32
I67
sbag1
(g25
g3
NtRp3461
(dp3462
g28
g21
(S'0.125'
tRp3463
sg30
I4440
sg31
I1
sg32
I47
sbasg36
g21
(S'0.625'
tRp3464
sg38
g21
(S'4.625'
tRp3465
sbag1
(g13
g3
NtRp3466
(dp3467
g16
S'T(0)./mid/invention1.mid'
p3468
sg18
S'G'
sg19
I960
sg20
g21
(S'0.0625'
tRp3469
sg23
(lp3470
g1
(g25
g3
NtRp3471
(dp3472
g28
g21
(S'0.0625'
tRp3473
sg30
I5640
sg31
I0
sg32
I69
sbag1
(g25
g3
NtRp3474
(dp3475
g28
g21
(S'0.125'
tRp3476
sg30
I5640
sg31
I1
sg32
I38
sbasg36
g21
(S'0.875'
tRp3477
sg38
g21
(S'5.875'
tRp3478
sbag1
(g13
g3
NtRp3479
(dp3480
g16
S'T(0)./mid/invention1.mid'
p3481
sg18
S'E'
sg19
I960
sg20
g21
(S'0.03125'
tRp3482
sg23
(lp3483
g1
(g25
g3
NtRp3484
(dp3485
g28
g21
(S'0.03125'
tRp3486
sg30
I11760
sg31
I1
sg32
I62
sbag1
(g25
g3
NtRp3487
(dp3488
g28
g21
(S'0.0625'
tRp3489
sg30
I11760
sg31
I0
sg32
I69
sbasg36
g21
(S'0.25'
tRp3490
sg38
g21
(S'12.25'
tRp3491
sbag1
(g13
g3
NtRp3492
(dp3493
g16
S'T(0)./mid/invention1.mid'
p3494
sg18
S'G'
sg19
I960
sg20
g21
(S'0.0625'
tRp3495
sg23
(lp3496
g1
(g25
g3
NtRp3497
(dp3498
g28
g21
(S'0.0625'
tRp3499
sg30
I1200
sg31
I0
sg32
I72
sbasg36
g21
(S'0.25'
tRp3500
sg38
g21
(S'1.25'
tRp3501
sbag1
(g13
g3
NtRp3502
(dp3503
g16
S'T(0)./mid/invention1.mid'
p3504
sg18
S'Am'
p3505
sg19
I960
sg20
g21
(S'0.0625'
tRp3506
sg23
(lp3507
g1
(g25
g3
NtRp3508
(dp3509
g28
g21
(S'0.0625'
tRp3510
sg30
I3120
sg31
I0
sg32
I69
sbag1
(g25
g3
NtRp3511
(dp3512
g28
g21
(S'0.125'
tRp3513
sg30
I3120
sg31
I1
sg32
I54
sbasg36
g21
(S'0.25'
tRp3514
sg38
g21
(S'3.25'
tRp3515
sbag1
(g13
g3
NtRp3516
(dp3517
g16
S'T(0)./mid/invention1.mid'
p3518
sg18
S'Dm'
p3519
sg19
I960
sg20
g21
(S'0.0625'
tRp3520
sg23
(lp3521
g1
(g25
g3
NtRp3522
(dp3523
g28
g21
(S'0.0625'
tRp3524
sg30
I10020
sg31
I1
sg32
I70
sbasg36
g21
(S'0.4375'
tRp3525
sg38
g21
(S'10.4375'
tRp3526
sbag1
(g13
g3
NtRp3527
(dp3528
g16
S'T(0)./mid/invention1.mid'
p3529
sg18
S'Dm'
p3530
sg19
I960
sg20
g21
(S'0.0625'
tRp3531
sg23
(lp3532
g1
(g25
g3
NtRp3533
(dp3534
g28
g21
(S'0.0625'
tRp3535
sg30
I18780
sg31
I1
sg32
I50
sbasg36
g21
(S'0.5625'
tRp3536
sg38
g21
(S'19.5625'
tRp3537
sbag1
(g13
g3
NtRp3538
(dp3539
g16
S'T(0)./mid/invention1.mid'
p3540
sg18
S'C'
sg19
I960
sg20
g21
(S'0.0625'
tRp3541
sg23
(lp3542
g1
(g25
g3
NtRp3543
(dp3544
g28
g21
(S'0.0625'
tRp3545
sg30
I8880
sg31
I1
sg32
I64
sbasg36
g21
(S'0.25'
tRp3546
sg38
g21
(S'9.25'
tRp3547
sbag1
(g13
g3
NtRp3548
(dp3549
g16
S'T(0)./mid/invention1.mid'
p3550
sg18
S'C'
sg19
I960
sg20
g21
(S'0.0625'
tRp3551
sg23
(lp3552
g1
(g25
g3
NtRp3553
(dp3554
g28
g21
(S'0.0625'
tRp3555
sg30
I2340
sg31
I0
sg32
I81
sbasg36
g21
(S'0.4375'
tRp3556
sg38
g21
(S'2.4375'
tRp3557
sbag1
(g13
g3
NtRp3558
(dp3559
g16
S'T(0)./mid/invention1.mid'
p3560
sg18
S'Bm'
p3561
sg19
I960
sg20
g21
(S'0.0625'
tRp3562
sg23
(lp3563
g1
(g25
g3
NtRp3564
(dp3565
g28
g21
(S'0.0625'
tRp3566
sg30
I10560
sg31
I1
sg32
I65
sbag1
(g25
g3
NtRp3567
(dp3568
g28
g21
(S'0.125'
tRp3569
sg30
I10560
sg31
I0
sg32
I74
sbasg36
g21
(S'0'
tRp3570
sg38
g21
(S'11'
p3571
tRp3572
sbag1
(g13
g3
NtRp3573
(dp3574
g16
S'T(0)./mid/invention1.mid'
p3575
sg18
S'E'
sg19
I960
sg20
g21
(S'0.0625'
tRp3576
sg23
(lp3577
g1
(g25
g3
NtRp3578
(dp3579
g28
g21
(S'0.0625'
tRp3580
sg30
I12420
sg31
I1
sg32
I59
sbag1
(g25
g3
NtRp3581
(dp3582
g28
g21
(S'0.0625'
tRp3583
sg30
I12420
sg31
I0
sg32
I74
sbasg36
g21
(S'0.9375'
tRp3584
sg38
g21
(S'12.9375'
tRp3585
sbag1
(g13
g3
NtRp3586
(dp3587
g16
S'T(0)./mid/invention1.mid'
p3588
sg18
S'Dm'
p3589
sg19
I960
sg20
g21
(S'0.0625'
tRp3590
sg23
(lp3591
g1
(g25
g3
NtRp3592
(dp3593
g28
g21
(S'0.125'
tRp3594
sg30
I17280
sg31
I1
sg32
I57
sbasg36
g21
(S'0'
tRp3595
sg38
g21
(S'18'
p3596
tRp3597
sbag1
(g13
g3
NtRp3598
(dp3599
g16
S'T(0)./mid/invention1.mid'
p3600
sg18
S'G'
sg19
I960
sg20
g21
(S'0.0625'
tRp3601
sg23
(lp3602
g1
(g25
g3
NtRp3603
(dp3604
g28
g21
(S'0.0625'
tRp3605
sg30
I1740
sg31
I1
sg32
I57
sbag1
(g25
g3
NtRp3606
(dp3607
g28
g21
(S'0.0625'
tRp3608
sg30
I1740
sg31
I0
sg32
I77
sbasg36
g21
(S'0.8125'
tRp3609
sg38
g21
(S'1.8125'
tRp3610
sbag1
(g13
g3
NtRp3611
(dp3612
g16
S'T(0)./mid/invention1.mid'
p3613
sg18
S'C'
sg19
I960
sg20
g21
(S'0.0625'
tRp3614
sg23
(lp3615
g1
(g25
g3
NtRp3616
(dp3617
g28
g21
(S'0.0625'
tRp3618
sg30
I9180
sg31
I0
sg32
I76
sbasg36
g21
(S'0.5625'
tRp3619
sg38
g21
(S'9.5625'
tRp3620
sbag1
(g13
g3
NtRp3621
(dp3622
g16
S'T(0)./mid/invention1.mid'
p3623
sg18
S'G'
sg19
I960
sg20
g21
(S'0.0625'
tRp3624
sg23
(lp3625
g1
(g25
g3
NtRp3626
(dp3627
g28
g21
(S'0.0625'
tRp3628
sg30
I6300
sg31
I0
sg32
I67
sbasg36
g21
(S'0.5625'
tRp3629
sg38
g21
(S'6.5625'
tRp3630
sbag1
(g13
g3
NtRp3631
(dp3632
g16
S'T(0)./mid/invention1.mid'
p3633
sg18
S'Dm'
p3634
sg19
I960
sg20
g21
(S'0.0625'
tRp3635
sg23
(lp3636
g1
(g25
g3
NtRp3637
(dp3638
g28
g21
(S'0.0625'
tRp3639
sg30
I9600
sg31
I1
sg32
I65
sbag1
(g25
g3
NtRp3640
(dp3641
g28
g21
(S'0.125'
tRp3642
sg30
I9600
sg31
I0
sg32
I74
sbasg36
g21
(S'0'
tRp3643
sg38
g21
(S'10'
p3644
tRp3645
sbag1
(g13
g3
NtRp3646
(dp3647
g16
S'T(0)./mid/invention1.mid'
p3648
sg18
S'Am'
p3649
sg19
I960
sg20
g21
(S'0.0625'
tRp3650
sg23
(lp3651
g1
(g25
g3
NtRp3652
(dp3653
g28
g21
(S'0.0625'
tRp3654
sg30
I12900
sg31
I1
sg32
I65
sbag1
(g25
g3
NtRp3655
(dp3656
g28
g21
(S'0.0625'
tRp3657
sg30
I12900
sg31
I0
sg32
I74
sbasg36
g21
(S'0.4375'
tRp3658
sg38
g21
(S'13.4375'
tRp3659
sbag1
(g13
g3
NtRp3660
(dp3661
g16
S'T(0)./mid/invention1.mid'
p3662
sg18
S'Bm'
p3663
sg19
I960
sg20
g21
(S'0.0625'
tRp3664
sg23
(lp3665
g1
(g25
g3
NtRp3666
(dp3667
g28
g21
(S'0.0625'
tRp3668
sg30
I11400
sg31
I1
sg32
I57
sbasg36
g21
(S'0.875'
tRp3669
sg38
g21
(S'11.875'
tRp3670
sbag1
(g13
g3
NtRp3671
(dp3672
g16
S'T(0)./mid/invention1.mid'
p3673
sg18
S'C'
sg19
I960
sg20
g21
(S'0.0625'
tRp3674
sg23
(lp3675
g1
(g25
g3
NtRp3676
(dp3677
g28
g21
(S'0.0625'
tRp3678
sg30
I19920
sg31
I0
sg32
I62
sbag1
(g25
g3
NtRp3679
(dp3680
g28
g21
(S'0.125'
tRp3681
sg30
I19920
sg31
I1
sg32
I55
sbasg36
g21
(S'0.75'
tRp3682
sg38
g21
(S'20.75'
tRp3683
sbag1
(g13
g3
NtRp3684
(dp3685
g16
S'T(0)./mid/invention1.mid'
p3686
sg18
S'C'
sg19
I960
sg20
g21
(S'0.0625'
tRp3687
sg23
(lp3688
g1
(g25
g3
NtRp3689
(dp3690
g28
g21
(S'0.0625'
tRp3691
sg30
I9360
sg31
I0
sg32
I71
sbag1
(g25
g3
NtRp3692
(dp3693
g28
g21
(S'0.125'
tRp3694
sg30
I9360
sg31
I1
sg32
I67
sbasg36
g21
(S'0.75'
tRp3695
sg38
g21
(S'9.75'
tRp3696
sbag1
(g13
g3
NtRp3697
(dp3698
g16
S'T(0)./mid/invention1.mid'
p3699
sg18
S'Am'
p3700
sg19
I960
sg20
g21
(S'0.0625'
tRp3701
sg23
(lp3702
g1
(g25
g3
NtRp3703
(dp3704
g28
g21
(S'0.0625'
tRp3705
sg30
I3540
sg31
I0
sg32
I67
sbasg36
g21
(S'0.6875'
tRp3706
sg38
g21
(S'3.6875'
tRp3707
sbag1
(g13
g3
NtRp3708
(dp3709
g16
S'T(0)./mid/invention1.mid'
p3710
sg18
S'G'
sg19
I960
sg20
g21
(S'0.0625'
tRp3711
sg23
(lp3712
g1
(g25
g3
NtRp3713
(dp3714
g28
g21
(S'0.0625'
tRp3715
sg30
I5580
sg31
I0
sg32
I71
sbasg36
g21
(S'0.8125'
tRp3716
sg38
g21
(S'5.8125'
tRp3717
sbag1
(g13
g3
NtRp3718
(dp3719
g16
S'T(0)./mid/invention1.mid'
p3720
sg18
S'C'
sg19
I960
sg20
g21
(S'0.0625'
tRp3721
sg23
(lp3722
g1
(g25
g3
NtRp3723
(dp3724
g28
g21
(S'0.0625'
tRp3725
sg30
I9420
sg31
I0
sg32
I74
sbasg36
g21
(S'0.8125'
tRp3726
sg38
g21
(S'9.8125'
tRp3727
sbag1
(g13
g3
NtRp3728
(dp3729
g16
S'T(0)./mid/invention1.mid'
p3730
sg18
S'Dm'
p3731
sg19
I960
sg20
g21
(S'0.0625'
tRp3732
sg23
(lp3733
g1
(g25
g3
NtRp3734
(dp3735
g28
g21
(S'0.0625'
tRp3736
sg30
I18540
sg31
I0
sg32
I81
sbasg36
g21
(S'0.3125'
tRp3737
sg38
g21
(S'19.3125'
tRp3738
sbag1
(g13
g3
NtRp3739
(dp3740
g16
S'T(0)./mid/invention1.mid'
p3741
sg18
S'Dm'
p3742
sg19
I960
sg20
g21
(S'0.0625'
tRp3743
sg23
(lp3744
g1
(g25
g3
NtRp3745
(dp3746
g28
g21
(S'0.0625'
tRp3747
sg30
I8280
sg31
I0
sg32
I72
sbag1
(g25
g3
NtRp3748
(dp3749
g28
g21
(S'0.125'
tRp3750
sg30
I8280
sg31
I1
sg32
I64
sbasg36
g21
(S'0.625'
tRp3751
sg38
g21
(S'8.625'
tRp3752
sbag1
(g13
g3
NtRp3753
(dp3754
g16
S'T(0)./mid/invention1.mid'
p3755
sg18
S'C'
sg19
I960
sg20
g21
(S'0.0625'
tRp3756
sg23
(lp3757
g1
(g25
g3
NtRp3758
(dp3759
g28
g21
(S'0.0625'
tRp3760
sg30
I540
sg31
I1
sg32
I48
sbasg36
g21
(S'0.5625'
tRp3761
sg38
g21
(S'0.5625'
tRp3762
sbag1
(g13
g3
NtRp3763
(dp3764
g16
S'T(0)./mid/invention1.mid'
p3765
sg18
S'Dm'
p3766
sg19
I960
sg20
g21
(S'0.0625'
tRp3767
sg23
(lp3768
g1
(g25
g3
NtRp3769
(dp3770
g28
g21
(S'0.0625'
tRp3771
sg30
I17520
sg31
I0
sg32
I77
sbag1
(g25
g3
NtRp3772
(dp3773
g28
g21
(S'0.125'
tRp3774
sg30
I17520
sg31
I1
sg32
I57
sbasg36
g21
(S'0.25'
tRp3775
sg38
g21
(S'18.25'
tRp3776
sbag1
(g13
g3
NtRp3777
(dp3778
g16
S'T(0)./mid/invention1.mid'
p3779
sg18
S'C'
sg19
I960
sg20
g21
(S'0.0625'
tRp3780
sg23
(lp3781
g1
(g25
g3
NtRp3782
(dp3783
g28
g21
(S'0.0625'
tRp3784
sg30
I660
sg31
I1
sg32
I52
sbasg36
g21
(S'0.6875'
tRp3785
sg38
g21
(S'0.6875'
tRp3786
sbag1
(g13
g3
NtRp3787
(dp3788
g16
S'T(0)./mid/invention1.mid'
p3789
sg18
S'Dm'
p3790
sg19
I960
sg20
g21
(S'0.0625'
tRp3791
sg23
(lp3792
g1
(g25
g3
NtRp3793
(dp3794
g28
g21
(S'0.0625'
tRp3795
sg30
I8580
sg31
I0
sg32
I74
sbasg36
g21
(S'0.9375'
tRp3796
sg38
g21
(S'8.9375'
tRp3797
sbag1
(g13
g3
NtRp3798
(dp3799
g16
S'T(0)./mid/invention1.mid'
p3800
sg18
S'G'
sg19
I960
sg20
g21
(S'0.03125'
tRp3801
sg23
(lp3802
g1
(g25
g3
NtRp3803
(dp3804
g28
g21
(S'0.03125'
tRp3805
sg30
I5370
sg31
I0
sg32
I72
sbasg36
g21
(S'0.59375'
tRp3806
sg38
g21
(S'5.59375'
tRp3807
sbag1
(g13
g3
NtRp3808
(dp3809
g16
S'T(0)./mid/invention1.mid'
p3810
sg18
S'Dm'
p3811
sg19
I960
sg20
g21
(S'0.0625'
tRp3812
sg23
(lp3813
g1
(g25
g3
NtRp3814
(dp3815
g28
g21
(S'0.0625'
tRp3816
sg30
I18600
sg31
I0
sg32
I83
sbag1
(g25
g3
NtRp3817
(dp3818
g28
g21
(S'0.125'
tRp3819
sg30
I18600
sg31
I1
sg32
I62
sbasg36
g21
(S'0.375'
tRp3820
sg38
g21
(S'19.375'
tRp3821
sbag1
(g13
g3
NtRp3822
(dp3823
g16
S'T(0)./mid/invention1.mid'
p3824
sg18
S'Dm'
p3825
sg19
I960
sg20
g21
(S'0.0625'
tRp3826
sg23
(lp3827
g1
(g25
g3
NtRp3828
(dp3829
g28
g21
(S'0.0625'
tRp3830
sg30
I8040
sg31
I1
sg32
I64
sbasg36
g21
(S'0.375'
tRp3831
sg38
g21
(S'8.375'
tRp3832
sbag1
(g13
g3
NtRp3833
(dp3834
g16
S'T(0)./mid/invention1.mid'
p3835
sg18
S'G'
sg19
I960
sg20
g21
(S'0.0625'
tRp3836
sg23
(lp3837
g1
(g25
g3
NtRp3838
(dp3839
g28
g21
(S'0.0625'
tRp3840
sg30
I15420
sg31
I0
sg32
I79
sbasg36
g21
(S'0.0625'
tRp3841
sg38
g21
(S'16.0625'
tRp3842
sbag1
(g13
g3
NtRp3843
(dp3844
g16
S'T(0)./mid/invention1.mid'
p3845
sg18
S'C'
sg19
I960
sg20
g21
(S'0.0625'
tRp3846
sg23
(lp3847
g1
(g25
g3
NtRp3848
(dp3849
g28
g21
(S'0.0625'
tRp3850
sg30
I9300
sg31
I0
sg32
I72
sbasg36
g21
(S'0.6875'
tRp3851
sg38
g21
(S'9.6875'
tRp3852
sbag1
(g13
g3
NtRp3853
(dp3854
g16
S'T(0)./mid/invention1.mid'
p3855
sg18
S'Dm'
p3856
sg19
I960
sg20
g21
(S'0.0625'
tRp3857
sg23
(lp3858
g1
(g25
g3
NtRp3859
(dp3860
g28
g21
(S'0.0625'
tRp3861
sg30
I15240
sg31
I1
sg32
I60
sbasg36
g21
(S'0.875'
tRp3862
sg38
g21
(S'15.875'
tRp3863
sbag1
(g13
g3
NtRp3864
(dp3865
g16
S'T(0)./mid/invention1.mid'
p3866
sg18
S'D'
sg19
I960
sg20
g21
(S'0.0625'
tRp3867
sg23
(lp3868
g1
(g25
g3
NtRp3869
(dp3870
g28
g21
(S'0.0625'
tRp3871
sg30
I7500
sg31
I0
sg32
I71
sbasg36
g21
(S'0.8125'
tRp3872
sg38
g21
(S'7.8125'
tRp3873
sbag1
(g13
g3
NtRp3874
(dp3875
g16
S'T(0)./mid/invention1.mid'
p3876
sg18
S'Em'
p3877
sg19
I960
sg20
g21
(S'0.0625'
tRp3878
sg23
(lp3879
g1
(g25
g3
NtRp3880
(dp3881
g28
g21
(S'0.0625'
tRp3882
sg30
I13620
sg31
I0
sg32
I77
sbasg36
g21
(S'0.1875'
tRp3883
sg38
g21
(S'14.1875'
tRp3884
sbag1
(g13
g3
NtRp3885
(dp3886
g16
S'T(0)./mid/invention1.mid'
p3887
sg18
S'C'
sg19
I960
sg20
g21
(S'0.0625'
tRp3888
sg23
(lp3889
g1
(g25
g3
NtRp3890
(dp3891
g28
g21
(S'0.0625'
tRp3892
sg30
I16860
sg31
I1
sg32
I55
sbasg36
g21
(S'0.5625'
tRp3893
sg38
g21
(S'17.5625'
tRp3894
sbag1
(g13
g3
NtRp3895
(dp3896
g16
S'T(0)./mid/invention1.mid'
p3897
sg18
S'Am'
p3898
sg19
I960
sg20
g21
(S'0.0625'
tRp3899
sg23
(lp3900
g1
(g25
g3
NtRp3901
(dp3902
g28
g21
(S'0.0625'
tRp3903
sg30
I2940
sg31
I0
sg32
I74
sbasg36
g21
(S'0.0625'
tRp3904
sg38
g21
(S'3.0625'
tRp3905
sbag1
(g13
g3
NtRp3906
(dp3907
g16
S'T(0)./mid/invention1.mid'
p3908
sg18
S'C'
sg19
I960
sg20
g21
(S'0.0625'
tRp3909
sg23
(lp3910
g1
(g25
g3
NtRp3911
(dp3912
g28
g21
(S'0.0625'
tRp3913
sg30
I9000
sg31
I1
sg32
I65
sbasg36
g21
(S'0.375'
tRp3914
sg38
g21
(S'9.375'
tRp3915
sbatRp3916
sS'markov'
p3917
(dp3918
(g2094
tp3919
(lp3920
g1987
as(g3885
tp3921
(lp3922
g368
as(g1465
tp3923
(lp3924
g2125
as(g3728
tp3925
(lp3926
g3808
as(g1496
tp3927
(lp3928
g1
(g13
g3
NtRp3929
(dp3930
g16
S'T(0)./mid/invention1.mid'
p3931
sg18
S'D'
sg19
I960
sg20
g21
(S'0.0625'
tRp3932
sg23
(lp3933
g1
(g25
g3
NtRp3934
(dp3935
g28
g21
(S'0.0625'
tRp3936
sg30
I7080
sg31
I1
sg32
I54
sbasg36
g21
(S'0.375'
tRp3937
sg38
g21
(S'7.375'
tRp3938
sbas(g1826
tp3939
(lp3940
g3660
as(g3660
tp3941
(lp3942
g931
as(g1012
tp3943
(lp3944
g14
as(g3363
tp3945
(lp3946
g2889
as(g2125
tp3947
(lp3948
g1411
as(g778
tp3949
(lp3950
g3538
as(g2039
tp3951
(lp3952
g1240
as(g2271
tp3953
(lp3954
g2508
as(g1850
tp3955
(lp3956
g2327
as(g3697
tp3957
(lp3958
g2989
as(g2316
tp3959
(lp3960
g2094
as(g1635
tp3961
(lp3962
g675
as(g178
tp3963
(lp3964
g3843
as(g3070
tp3965
(lp3966
g1400
as(g1432
tp3967
(lp3968
g1312
as(g2979
tp3969
(lp3970
g2765
as(g3611
tp3971
(lp3972
g178
as(g931
tp3973
(lp3974
g1976
as(g1240
tp3975
(lp3976
g1325
as(g2398
tp3977
(lp3978
g1
(g13
g3
NtRp3979
(dp3980
g16
S'T(0)./mid/invention1.mid'
p3981
sg18
S'D'
sg19
I960
sg20
g21
(S'0.0625'
tRp3982
sg23
(lp3983
g1
(g25
g3
NtRp3984
(dp3985
g28
g21
(S'0.0625'
tRp3986
sg30
I7260
sg31
I0
sg32
I69
sbasg36
g21
(S'0.5625'
tRp3987
sg38
g21
(S'7.5625'
tRp3988
sbas(g3479
tp3989
(lp3990
g2979
as(g312
tp3991
(lp3992
g1455
as(g2536
tp3993
(lp3994
g277
as(g2238
tp3995
(lp3996
g1148
ag3241
as(g291
tp3997
(lp3998
g605
as(g561
tp3999
(lp4000
g40
as(g1785
tp4001
(lp4002
g2398
as(g2789
tp4003
(lp4004
g1874
as(g3107
tp4005
(lp4006
g2568
as(g3197
tp4007
(lp4008
g1746
as(g2148
tp4009
(lp4010
g1571
as(g1615
tp4011
(lp4012
g205
as(g3118
tp4013
(lp4014
g861
as(g136
tp4015
(lp4016
g2931
as(g1746
tp4017
(lp4018
g3646
as(g1206
tp4019
(lp4020
g3558
as(g1121
tp4021
(lp4022
g2558
as(g378
tp4023
(lp4024
g1635
as(g368
tp4025
(lp4026
g3264
as(g465
tp4027
(lp4028
g1660
as(g696
tp4029
(lp4030
g2228
as(g2945
tp4031
(lp4032
g2825
ag561
as(g1312
tp4033
(lp4034
g1517
as(g3328
tp4035
(lp4036
g2497
as(g489
tp4037
(lp4038
g1217
as(g2720
tp4039
(lp4040
g2628
as(g3895
tp4041
(lp4042
g3036
as(g302
tp4043
(lp4044
g1
(g13
g3
NtRp4045
(dp4046
g16
S'T(0)./mid/invention1.mid'
p4047
sg18
S'C'
sg19
I960
sg20
g21
(S'0.0625'
tRp4048
sg23
(lp4049
g1
(g25
g3
NtRp4050
(dp4051
g28
g21
(S'0.0625'
tRp4052
sg30
I16500
sg31
I0
sg32
I77
sbasg36
g21
(S'0.1875'
tRp4053
sg38
g21
(S'17.1875'
tRp4054
sbas(g1506
tp4055
(lp4056
g788
as(g2639
tp4057
(lp4058
g664
as(g1182
tp4059
(lp4060
g2653
as(g1025
tp4061
(lp4062
g616
as(g1736
tp4063
(lp4064
g3586
as(g2484
tp4065
(lp4066
g1432
as(g788
tp4067
(lp4068
g2305
as(g1193
tp4069
(lp4070
g1074
as(g3342
tp4071
(lp4072
g1360
as(g1861
tp4073
(lp4074
g241
as(g2862
tp4075
(lp4076
g3895
as(g861
tp4077
(lp4078
g871
as(g441
tp4079
(lp4080
g99
as(g2327
tp4081
(lp4082
g1038
as(g3084
tp4083
(lp4084
g848
ag2019
as(g205
tp4085
(lp4086
S'stop_token'
p4087
as(g73
tp4088
(lp4089
g2271
as(g2579
tp4090
(lp4091
g1945
as(g3621
tp4092
(lp4093
g3023
as(g1912
tp4094
(lp4095
g768
as(g2408
tp4096
(lp4097
g2105
as(g2183
tp4098
(lp4099
g1711
as(g3538
tp4100
(lp4101
g3211
as(g1074
tp4102
(lp4103
g126
as(g426
tp4104
(lp4105
g1373
as(g3274
tp4106
(lp4107
g815
as(g575
tp4108
(lp4109
g953
ag1785
as(g2710
tp4110
(lp4111
g1280
as(g191
tp4112
(lp4113
g3527
as(g2261
tp4114
(lp4115
g3131
as(g675
tp4116
(lp4117
g3107
as(g2593
tp4118
(lp4119
g112
as(g3023
tp4120
(lp4121
g3050
as(g1373
tp4122
(lp4123
g2593
as(g3300
tp4124
(lp4125
g3176
as(g3573
tp4126
(lp4127
g426
as(g2778
tp4128
(lp4129
g3141
as(g2470
tp4130
(lp4131
g1530
as(g709
tp4132
(lp4133
g2292
as(g2228
tp4134
(lp4135
g2159
as(g2194
tp4136
(lp4137
g626
as(g3221
tp4138
(lp4139
g2248
as(g499
tp4140
(lp4141
g2029
as(g126
tp4142
(lp4143
g778
as(g755
tp4144
(lp4145
g907
as(g2955
tp4146
(lp4147
g2675
as(g848
tp4148
(lp4149
g2115
as(g1517
tp4150
(lp4151
g755
as(g1530
tp4152
(lp4153
g3300
as(g1038
tp4154
(lp4155
g62
as(g1301
tp4156
(lp4157
g73
as(g3671
tp4158
(lp4159
g2194
as(g3527
tp4160
(lp4161
g2470
as(g1280
tp4162
(lp4163
g416
as(g1956
tp4164
(lp4165
g2969
as(g1134
tp4166
(lp4167
g686
as(g3141
tp4168
(lp4169
g333
as(g3352
tp4170
(lp4171
g2639
as(g1874
tp4172
(lp4173
g3787
as(g1837
tp4174
(lp4175
g1
(g13
g3
NtRp4176
(dp4177
g16
S'T(0)./mid/invention1.mid'
p4178
sg18
S'G'
sg19
I960
sg20
g21
(S'0.0625'
tRp4179
sg23
(lp4180
g1
(g25
g3
NtRp4181
(dp4182
g28
g21
(S'0.0625'
tRp4183
sg30
I6660
sg31
I0
sg32
I67
sbasg36
g21
(S'0.9375'
tRp4184
sg38
g21
(S'6.9375'
tRp4185
sbas(g1445
tp4186
(lp4187
g3443
as(g3166
tp4188
(lp4189
g897
ag1685
as(g451
tp4190
(lp4191
g2778
as(g664
tp4192
(lp4193
g2421
as(g3833
tp4194
(lp4195
g1445
as(g3094
tp4196
(lp4197
g825
as(g228
tp4198
(lp4199
g3342
as(g14
tp4200
(lp4201
g1698
as(g942
tp4202
(lp4203
g2664
as(g40
tp4204
(lp4205
g1421
as(g626
tp4206
(lp4207
g1615
as(g2800
tp4208
(lp4209
g3197
as(g3287
tp4210
(lp4211
g3548
as(g585
tp4212
(lp4213
g2697
as(g3718
tp4214
(lp4215
g1861
as(g1585
tp4216
(lp4217
g264
as(g2607
tp4218
(lp4219
g3084
as(g3036
tp4220
(lp4221
g2459
as(g1925
tp4222
(lp4223
g3060
as(g1387
tp4224
(lp4225
g168
as(g2421
tp4226
(lp4227
g920
as(g871
tp4228
(lp4229
g585
as(g333
tp4230
(lp4231
g1888
as(g147
tp4232
(lp4233
g2009
as(g742
tp4234
(lp4235
g1270
as(g1806
tp4236
(lp4237
g312
as(g3231
tp4238
(lp4239
g1025
as(g509
tp4240
(lp4241
g3516
as(g2734
tp4242
(lp4243
g884
as(g3050
tp4244
(lp4245
g1387
as(g639
tp4246
(lp4247
g1060
as(g2547
tp4248
(lp4249
g1760
as(g88
tp4250
(lp4251
g2316
as(g3646
tp4252
(lp4253
g3070
as(g1060
tp4254
(lp4255
g977
as(g1998
tp4256
(lp4257
g191
as(g3408
tp4258
(lp4259
g2579
as(g1966
tp4260
(lp4261
g3621
as(g1148
tp4262
(lp4263
g719
as(g650
tp4264
(lp4265
g1725
as(g1250
tp4266
(lp4267
g2435
as(g1161
tp4268
(lp4269
g2388
as(g2009
tp4270
(lp4271
g2049
as(g1660
tp4272
(lp4273
g3328
as(g2664
tp4274
(lp4275
g2910
as(g241
tp4276
(lp4277
g3631
as(g1455
tp4278
(lp4279
g1595
as(S'start_token'
p4280
tp4281
(lp4282
g4087
ag1561
as(g953
tp4283
(lp4284
g1121
as(g1605
tp4285
(lp4286
g1496
as(g3492
tp4287
(lp4288
g595
as(g550
tp4289
(lp4290
g1850
as(g1902
tp4291
(lp4292
g729
as(g1084
tp4293
(lp4294
g2945
as(g2248
tp4295
(lp4296
g1551
as(g1888
tp4297
(lp4298
g2183
as(g595
tp4299
(lp4300
g3385
as(g2353
tp4301
(lp4302
g2059
as(g2814
tp4303
(lp4304
g3314
as(g2105
tp4305
(lp4306
g3118
as(g3586
tp4307
(lp4308
g2617
as(g3753
tp4309
(lp4310
g3251
as(g966
tp4311
(lp4312
g3822
as(g157
tp4313
(lp4314
g2377
as(g2339
tp4315
(lp4316
g51
as(g2435
tp4317
(lp4318
g2484
as(g2765
tp4319
(lp4320
g1475
as(g884
tp4321
(lp4322
g1012
as(g3176
tp4323
(lp4324
g2353
as(g51
tp4325
(lp4326
g509
as(g3453
tp4327
(lp4328
g441
as(g920
tp4329
(lp4330
g650
as(g1816
tp4331
(lp4332
g499
as(g2969
tp4333
(lp4334
g3753
ag3611
as(g1595
tp4335
(lp4336
g3885
as(g1698
tp4337
(lp4338
g3671
as(g2049
tp4339
(lp4340
g1935
as(g322
tp4341
(lp4342
g966
as(g897
tp4343
(lp4344
g2261
as(g1325
tp4345
(lp4346
g1956
as(g2367
tp4347
(lp4348
g1
(g13
g3
NtRp4349
(dp4350
g16
S'T(0)./mid/invention1.mid'
p4351
sg18
S'C'
sg19
I960
sg20
g21
(S'0.0625'
tRp4352
sg23
(lp4353
g1
(g25
g3
NtRp4354
(dp4355
g28
g21
(S'0.125'
tRp4356
sg30
I9120
sg31
I1
sg32
I67
sbasg36
g21
(S'0.5'
tRp4357
sg38
g21
(S'9.5'
tRp4358
sbas(g1976
tp4359
(lp4360
g3231
as(g907
tp4361
(lp4362
g3573
as(g1725
tp4363
(lp4364
g1107
as(g2135
tp4365
(lp4366
g3013
as(g1541
tp4367
(lp4368
g835
as(g2675
tp4369
(lp4370
g389
as(g3853
tp4371
(lp4372
g1182
as(g3433
tp4373
(lp4374
g147
as(g251
tp4375
(lp4376
g1625
as(g3808
tp4377
(lp4378
g1998
as(g3631
tp4379
(lp4380
g1506
as(g1270
tp4381
(lp4382
g2215
as(g2282
tp4383
(lp4384
g3492
as(g3241
tp4385
(lp4386
g2710
as(g3684
tp4387
(lp4388
g3718
as(g1097
tp4389
(lp4390
g1084
as(g3156
tp4391
(lp4392
g1260
as(g2059
tp4393
(lp4394
g3419
as(g2825
tp4395
(lp4396
g3187
as(g2115
tp4397
(lp4398
g2838
ag1605
as(g389
tp4399
(lp4400
g2754
as(g2497
tp4401
(lp4402
g2814
as(g2628
tp4403
(lp4404
g3763
as(g3763
tp4405
(lp4406
g639
as(g977
tp4407
(lp4408
g2522
as(g168
tp4409
(lp4410
g1837
as(g2448
tp4411
(lp4412
g1671
as(g3598
tp4413
(lp4414
g403
as(g264
tp4415
(lp4416
g2238
as(g719
tp4417
(lp4418
g3598
as(g2686
tp4419
(lp4420
g1774
as(g355
tp4421
(lp4422
g696
as(g3264
tp4423
(lp4424
g1465
as(g2744
tp4425
(lp4426
g742
as(g3906
tp4427
(lp4428
g2367
as(g3060
tp4429
(lp4430
g2039
as(g2558
tp4431
(lp4432
g3453
ag228
as(g3708
tp4433
(lp4434
g3466
as(g99
tp4435
(lp4436
g1097
as(g1335
tp4437
(lp4438
g322
as(g2377
tp4439
(lp4440
g3739
as(g3548
tp4441
(lp4442
g537
as(g1987
tp4443
(lp4444
g3853
as(g2215
tp4445
(lp4446
g2921
as(g3374
tp4447
(lp4448
g1346
as(g1290
tp4449
(lp4450
g2172
as(g2019
tp4451
(lp4452
g1
(g13
g3
NtRp4453
(dp4454
g16
S'T(0)./mid/invention1.mid'
p4455
sg18
S'D'
sg19
I960
sg20
g21
(S'0.0625'
tRp4456
sg23
(lp4457
g1
(g25
g3
NtRp4458
(dp4459
g28
g21
(S'0.0625'
tRp4460
sg30
I6900
sg31
I1
sg32
I54
sbasg36
g21
(S'0.1875'
tRp4461
sg38
g21
(S'7.1875'
tRp4462
sbas(g2508
tp4463
(lp4464
g3874
as(g1551
tp4465
(lp4466
g3395
as(g3822
tp4467
(lp4468
g1485
as(g1411
tp4469
(lp4470
g1736
as(g1346
tp4471
(lp4472
g3697
as(g3864
tp4473
(lp4474
g2876
as(g3013
tp4475
(lp4476
g3287
as(g2522
tp4477
(lp4478
g2851
as(g605
tp4479
(lp4480
g2073
as(g2838
tp4481
(lp4482
g709
as(g1260
tp4483
(lp4484
g3433
as(g1795
tp4485
(lp4486
g550
as(g3777
tp4487
(lp4488
g3094
as(g988
tp4489
(lp4490
g1826
as(g1049
tp4491
(lp4492
g988
as(g2459
tp4493
(lp4494
g3502
as(g344
tp4495
(lp4496
g1171
as(g768
tp4497
(lp4498
g3274
as(g2697
tp4499
(lp4500
g3003
as(g2204
tp4501
(lp4502
g344
as(g616
tp4503
(lp4504
g3479
as(g3314
tp4505
(lp4506
g1301
as(g523
tp4507
(lp4508
g2547
as(g2653
tp4509
(lp4510
g3833
as(g3787
tp4511
(lp4512
g1193
as(g1421
tp4513
(lp4514
g1335
as(g2876
tp4515
(lp4516
g1
(g13
g3
NtRp4517
(dp4518
g16
S'T(0)./mid/invention1.mid'
p4519
sg18
S'D'
sg19
I960
sg20
g21
(S'0.0625'
tRp4520
sg23
(lp4521
g1
(g25
g3
NtRp4522
(dp4523
g28
g21
(S'0.0625'
tRp4524
sg30
I7620
sg31
I0
sg32
I69
sbasg36
g21
(S'0.9375'
tRp4525
sg38
g21
(S'7.9375'
tRp4526
sbas(g1475
tp4527
(lp4528
g1250
as(g3798
tp4529
(lp4530
g489
as(g112
tp4531
(lp4532
g2800
as(g1217
tp4533
(lp4534
g251
as(g3251
tp4535
(lp4536
g3777
as(g3419
tp4537
(lp4538
g1134
as(g3385
tp4539
(lp4540
g1002
as(g537
tp4541
(lp4542
g3221
as(g1760
tp4543
(lp4544
g1206
as(g2910
tp4545
(lp4546
g2607
as(g2073
tp4547
(lp4548
g88
as(g3187
tp4549
(lp4550
g2408
as(g2388
tp4551
(lp4552
g1966
as(g3466
tp4553
(lp4554
g3166
as(g2172
tp4555
(lp4556
g2686
as(g277
tp4557
(lp4558
g2789
as(g1711
tp4559
(lp4560
g3728
as(g825
tp4561
(lp4562
g355
as(g62
tp4563
(lp4564
g1290
as(g2292
tp4565
(lp4566
g575
as(g3502
tp4567
(lp4568
g2448
as(g686
tp4569
(lp4570
g1912
as(g1935
tp4571
(lp4572
g1
(g13
g3
NtRp4573
(dp4574
g16
S'T(0)./mid/invention1.mid'
p4575
sg18
S'G'
sg19
I960
sg20
g21
(S'0.0625'
tRp4576
sg23
(lp4577
g1
(g25
g3
NtRp4578
(dp4579
g28
g21
(S'0.0625'
tRp4580
sg30
I16020
sg31
I1
sg32
I59
sbasg36
g21
(S'0.6875'
tRp4581
sg38
g21
(S'16.6875'
tRp4582
sbas(g2159
tp4583
(lp4584
g1541
as(g3874
tp4585
(lp4586
g2204
as(g479
tp4587
(lp4588
g1806
as(g1685
tp4589
(lp4590
g1
(g13
g3
NtRp4591
(dp4592
g16
S'T(0)./mid/invention1.mid'
p4593
sg18
S'D'
sg19
I960
sg20
g21
(S'0.0625'
tRp4594
sg23
(lp4595
g1
(g25
g3
NtRp4596
(dp4597
g28
g21
(S'0.0625'
tRp4598
sg30
I6780
sg31
I1
sg32
I50
sbasg36
g21
(S'0.0625'
tRp4599
sg38
g21
(S'7.0625'
tRp4600
sbas(g3131
tp4601
(lp4602
g1816
as(g403
tp4603
(lp4604
g2744
as(g1485
tp4605
(lp4606
g157
as(g1002
tp4607
(lp4608
g1230
as(g2029
tp4609
(lp4610
g1161
as(g1107
tp4611
(lp4612
g1049
as(g2889
tp4613
(lp4614
g302
as(g3211
tp4615
(lp4616
g3906
as(g2899
tp4617
(lp4618
g1795
as(g2989
tp4619
(lp4620
g942
as(g3003
tp4621
(lp4622
g3798
as(g1625
tp4623
(lp4624
g3708
as(g3843
tp4625
(lp4626
g3684
as(g815
tp4627
(lp4628
g802
as(g2617
tp4629
(lp4630
g2720
as(g2851
tp4631
(lp4632
g1646
as(g416
tp4633
(lp4634
g3363
as(g2568
tp4635
(lp4636
g2899
as(g1230
tp4637
(lp4638
g1585
as(g1571
tp4639
(lp4640
g3352
as(g3558
tp4641
(lp4642
g2148
as(g729
tp4643
(lp4644
g2084
as(g1671
tp4645
(lp4646
g136
as(g3395
tp4647
(lp4648
g1902
as(g802
tp4649
(lp4650
g2734
as(g1774
tp4651
(lp4652
g291
as(g2921
tp4653
(lp4654
g2135
ag479
as(g2084
tp4655
(lp4656
g2862
as(g1561
tp4657
(lp4658
g1925
as(g3739
tp4659
(lp4660
g2536
as(g1400
tp4661
(lp4662
g465
as(g3443
tp4663
(lp4664
g3156
as(g1360
tp4665
(lp4666
g3864
as(g1646
tp4667
(lp4668
g3408
as(g835
tp4669
(lp4670
g2282
as(g1171
tp4671
(lp4672
g378
as(g2305
tp4673
(lp4674
g2339
as(g3516
tp4675
(lp4676
g2955
as(g1945
tp4677
(lp4678
g451
as(g2931
tp4679
(lp4680
g3374
as(g2754
tp4681
(lp4682
g523
assS'state_chains'
p4683
(lp4684
(lp4685
a(lp4686
a(lp4687
g1561
ag1925
ag3060
ag2039
ag1240
ag1325
ag1956
ag2969
ag3753
ag3251
ag3777
ag3094
ag825
ag355
ag696
ag2228
ag2159
ag1541
ag835
ag2282
ag3492
ag595
ag3385
ag1002
ag1230
ag1585
ag264
ag2238
ag1148
ag719
ag3598
ag403
ag2744
ag742
ag1270
ag2215
ag2921
ag2135
ag3013
ag3287
ag3548
ag537
ag3221
ag2248
ag1551
ag3395
ag1902
ag729
ag2084
ag2862
ag3895
ag3036
ag2459
ag3502
ag2448
ag1671
ag136
ag2931
ag3374
ag1346
ag3697
ag2989
ag942
ag2664
ag2910
ag2607
ag3084
ag848
ag2115
ag2838
ag709
ag2292
ag575
ag953
ag1121
ag2558
ag3453
ag441
ag99
ag1097
ag1084
ag2945
ag2825
ag3187
ag2408
ag2105
ag3118
ag861
ag871
ag585
ag2697
ag3003
ag3798
ag489
ag1217
ag251
ag1625
ag3708
ag3466
ag3166
ag897
ag2261
ag3131
ag1816
ag499
ag2029
ag1161
ag2388
ag1966
ag3621
ag3023
ag3050
ag1387
ag168
ag1837
ag4176
ag1685
ag4591
ag2019
ag4453
ag1605
ag1496
ag3929
ag1785
ag2398
ag3979
ag228
ag3342
ag1360
ag3864
ag2876
ag4517
ag561
ag40
ag1421
ag1335
ag322
ag966
ag3822
ag1485
ag157
ag2377
ag3739
ag2536
ag277
ag2789
ag1874
ag3787
ag1193
ag1074
ag126
ag778
ag3538
ag3211
ag3906
ag2367
ag4349
ag3611
ag178
ag3843
ag3684
ag3718
ag1861
ag241
ag3631
ag1506
ag788
ag2305
ag2339
ag51
ag509
ag3516
ag2955
ag2675
ag389
ag2754
ag523
ag2547
ag1760
ag1206
ag3558
ag2148
ag1571
ag3352
ag2639
ag664
ag2421
ag920
ag650
ag1725
ag1107
ag1049
ag988
ag1826
ag3660
ag931
ag1976
ag3231
ag1025
ag616
ag3479
ag2979
ag2765
ag1475
ag1250
ag2435
ag2484
ag1432
ag1312
ag1517
ag755
ag907
ag3573
ag426
ag1373
ag2593
ag112
ag2800
ag3197
ag1746
ag3646
ag3070
ag1400
ag465
ag1660
ag3328
ag2497
ag2814
ag3314
ag1301
ag73
ag2271
ag2508
ag3874
ag2204
ag344
ag1171
ag378
ag1635
ag675
ag3107
ag2568
ag2899
ag1795
ag550
ag1850
ag2327
ag1038
ag62
ag1290
ag2172
ag2686
ag1774
ag291
ag605
ag2073
ag88
ag2316
ag2094
ag1987
ag3853
ag1182
ag2653
ag3833
ag1445
ag3443
ag3156
ag1260
ag3433
ag147
ag2009
ag2049
ag1935
ag4573
ag3241
ag2710
ag1280
ag416
ag3363
ag2889
ag302
ag4045
ag479
ag1806
ag312
ag1455
ag1595
ag3885
ag368
ag3264
ag1465
ag2125
ag1411
ag1736
ag3586
ag2617
ag2720
ag2628
ag3763
ag639
ag1060
ag977
ag2522
ag2851
ag1646
ag3408
ag2579
ag1945
ag451
ag2778
ag3141
ag333
ag1888
ag2183
ag1711
ag3728
ag3808
ag1998
ag191
ag3527
ag2470
ag1530
ag3300
ag3176
ag2353
ag2059
ag3419
ag1134
ag686
ag1912
ag768
ag3274
ag815
ag802
ag2734
ag884
ag1012
ag14
ag1698
ag3671
ag2194
ag626
ag1615
ag205
aasS'chain_length'
p4688
I1
sbsS'rev_mm'
p4689
g1
(g7
g3
NtRp4690
(dp4691
g10
g11
((lp4692
g73
ag51
ag333
ag378
ag2388
ag88
ag99
ag112
ag264
ag1387
ag3708
ag1301
ag168
ag1049
ag205
ag228
ag3328
ag251
ag1411
ag277
ag291
ag302
ag639
ag2094
ag136
ag1421
ag3385
ag848
ag389
ag1746
ag2931
ag441
ag451
ag479
ag489
ag1966
ag2800
ag2282
ag523
ag3003
ag802
ag561
ag3929
ag585
ag1455
ag729
ag605
ag616
ag650
ag2039
ag686
ag778
ag709
ag719
ag1956
ag2019
ag312
ag3443
ag768
ag1182
ag788
ag825
ag835
ag2686
ag2159
ag871
ag884
ag1280
ag550
ag403
ag2497
ag1475
ag1571
ag1485
ag966
ag977
ag988
ag1837
ag1012
ag1025
ag1998
ag1060
ag1074
ag1084
ag1097
ag1615
ag3573
ag1134
ag1148
ag2838
ag3479
ag1171
ag3492
ag2215
ag1736
ag3156
ag1240
ag1260
ag126
ag897
ag241
ag2271
ag3646
ag1325
ag1335
ag953
ag1360
ag1373
ag2979
ag1400
ag344
ag1432
ag1445
ag1646
ag1465
ag3502
ag1795
ag755
ag3843
ag1506
ag1517
ag1925
ag1541
ag1551
ag1625
ag942
ag1585
ag1217
ag3586
ag2789
ag191
ag1660
ag2059
ag1685
ag3798
ag1711
ag1725
ag4517
ag2327
ag1760
ag2183
ag2955
ag2049
ag1806
ag2536
ag1002
ag2710
ag1861
ag1874
ag1902
ag3013
ag1935
ag1945
ag3251
ag920
ag3264
ag1976
ag1987
ag1038
ag2009
ag675
ag1671
ag2989
ag62
ag2029
ag1698
ag2073
ag2084
ag1595
ag2105
ag4453
ag2125
ag2135
ag157
ag2148
ag861
ag3036
ag2194
ag3611
ag1206
ag2377
ag4573
ag742
ag2248
ag2261
ag2339
ag2851
ag2367
ag1774
ag1193
ag2305
ag368
ag595
ag147
ag2353
ag1107
ag2316
ag1605
ag2398
ag2408
ag1270
ag2421
ag2435
ag2697
ag1816
ag3060
ag2899
ag1496
ag14
ag2508
ag3808
ag3631
ag1346
ag3300
ag3408
ag178
ag2568
ag2579
ag2593
ag1912
ag2617
ag2628
ag1121
ag2639
ag2653
ag1250
ag2675
ag2664
ag2448
ag1850
ag2720
ag2734
ag499
ag2744
ag2754
ag2765
ag3906
ag1290
ag509
ag2814
ag2825
ag1161
ag2459
ag1826
ag1635
ag40
ag2484
ag2910
ag4045
ag426
ag2522
ag3314
ag4349
ag322
ag537
ag2172
ag3023
ag465
ag3050
ag2292
ag2470
ag3070
ag4591
ag3094
ag3107
ag3118
ag3131
ag3141
ag1230
ag4176
ag3777
ag3187
ag2876
ag3197
ag3211
ag3221
ag3231
ag1785
ag2228
ag2778
ag815
ag3274
ag3864
ag3874
ag416
ag3342
ag3352
ag3363
ag3374
ag2889
ag3395
ag2547
ag3419
ag355
ag3241
ag3453
ag3466
ag931
ag1888
ag3979
ag1312
ag3516
ag3527
ag3538
ag3548
ag3558
ag3895
ag3598
ag2204
ag3621
ag664
ag2862
ag696
ag3660
ag3671
ag1530
ag3697
ag3433
ag2607
ag3728
ag3739
ag3753
ag3763
ag3176
ag3787
ag626
ag1561
ag3822
ag3833
ag907
ag3853
ag3287
ag3885
ag3684
ag3718
atRp4693
sg3917
(dp4694
(g2327
tp4695
(lp4696
g1850
as(g3885
tp4697
(lp4698
g1595
as(g3843
tp4699
(lp4700
g178
as(g2862
tp4701
(lp4702
g2084
as(g3660
tp4703
(lp4704
g1826
as(g1012
tp4705
(lp4706
g884
as(g1465
tp4707
(lp4708
g3264
as(g1182
tp4709
(lp4710
g3853
as(g1698
tp4711
(lp4712
g14
as(g1107
tp4713
(lp4714
g1725
as(g2851
tp4715
(lp4716
g2522
as(g2710
tp4717
(lp4718
g3241
as(g3631
tp4719
(lp4720
g241
as(g2778
tp4721
(lp4722
g451
as(g2377
tp4723
(lp4724
g157
as(g178
tp4725
(lp4726
g3611
as(g3070
tp4727
(lp4728
g3646
as(g2664
tp4729
(lp4730
g942
as(g1432
tp4731
(lp4732
g2484
as(g2204
tp4733
(lp4734
g3874
as(g1475
tp4735
(lp4736
g2765
as(g1240
tp4737
(lp4738
g2039
as(g322
tp4739
(lp4740
g1335
as(g1060
tp4741
(lp4742
g639
as(g312
tp4743
(lp4744
g1806
as(g2009
tp4745
(lp4746
g147
as(g4573
tp4747
(lp4748
g1935
ag264
as(g2876
tp4749
(lp4750
g3864
as(g1987
tp4751
(lp4752
g2094
as(g1785
tp4753
(lp4754
g3929
as(g1290
tp4755
(lp4756
g62
as(g1595
tp4757
(lp4758
g1455
as(g291
tp4759
(lp4760
g1774
as(g136
tp4761
(lp4762
g1671
as(g2215
tp4763
(lp4764
g1270
as(g2686
tp4765
(lp4766
g2172
as(g378
tp4767
(lp4768
g1171
as(g368
tp4769
(lp4770
g3885
as(g3419
tp4771
(lp4772
g2059
as(g3822
tp4773
(lp4774
g966
as(g2522
tp4775
(lp4776
g977
as(g3502
tp4777
(lp4778
g2459
as(g3328
tp4779
(lp4780
g1660
as(g489
tp4781
(lp4782
g3798
as(g2720
tp4783
(lp4784
g2617
as(g3684
tp4785
(lp4786
g3843
as(g302
tp4787
(lp4788
g2889
as(g1506
tp4789
(lp4790
g3631
as(g2639
tp4791
(lp4792
g3352
as(g3671
tp4793
(lp4794
g1698
as(g1025
tp4795
(lp4796
g3231
as(g2899
tp4797
(lp4798
g2568
as(g907
tp4799
(lp4800
g755
as(g1193
tp4801
(lp4802
g3787
as(g848
tp4803
(lp4804
g3084
as(g3342
tp4805
(lp4806
g228
as(g1861
tp4807
(lp4808
g3718
as(g1826
tp4809
(lp4810
g988
as(g2125
tp4811
(lp4812
g1465
as(g2271
tp4813
(lp4814
g73
as(g441
tp4815
(lp4816
g3453
as(g2653
tp4817
(lp4818
g1182
as(g4591
tp4819
(lp4820
g1685
ag2607
as(g205
tp4821
(lp4822
g1615
as(g1445
tp4823
(lp4824
g3833
as(g2579
tp4825
(lp4826
g3408
as(g3621
tp4827
(lp4828
g1966
as(g1912
tp4829
(lp4830
g686
as(g3374
tp4831
(lp4832
g2931
as(g2408
tp4833
(lp4834
g3187
as(g675
tp4835
(lp4836
g1635
as(g1074
tp4837
(lp4838
g1193
as(g2931
tp4839
(lp4840
g136
as(g3274
tp4841
(lp4842
g768
as(g3929
tp4843
(lp4844
g1496
ag2292
as(g1850
tp4845
(lp4846
g550
as(g3211
tp4847
(lp4848
g3538
as(g3538
tp4849
(lp4850
g778
as(g1485
tp4851
(lp4852
g3822
as(g2593
tp4853
(lp4854
g1373
as(g2789
tp4855
(lp4856
g277
as(g1625
tp4857
(lp4858
g251
as(g1373
tp4859
(lp4860
g426
as(g3300
tp4861
(lp4862
g1530
as(g2339
tp4863
(lp4864
g2305
as(g537
tp4865
(lp4866
g3548
as(g3708
tp4867
(lp4868
g1625
as(g2261
tp4869
(lp4870
g897
as(g1671
tp4871
(lp4872
g2448
as(g3314
tp4873
(lp4874
g2814
as(g2194
tp4875
(lp4876
g3671
as(g1346
tp4877
(lp4878
g3374
as(g499
tp4879
(lp4880
g1816
as(g1725
tp4881
(lp4882
g650
as(g3443
tp4883
(lp4884
g1445
as(g3118
tp4885
(lp4886
g2105
as(g1517
tp4887
(lp4888
g1312
as(g1530
tp4889
(lp4890
g2470
as(g1998
tp4891
(lp4892
g3808
as(g778
tp4893
(lp4894
g126
as(g1301
tp4895
(lp4896
g3314
as(g742
tp4897
(lp4898
g2744
as(g3527
tp4899
(lp4900
g191
as(g1816
tp4901
(lp4902
g3131
as(g1956
tp4903
(lp4904
g1325
as(g1134
tp4905
(lp4906
g3419
as(g3352
tp4907
(lp4908
g1571
as(g1874
tp4909
(lp4910
g2789
as(g1635
tp4911
(lp4912
g378
as(g51
tp4913
(lp4914
g2339
as(g451
tp4915
(lp4916
g1945
as(g191
tp4917
(lp4918
g1998
as(g3833
tp4919
(lp4920
g2653
as(g3094
tp4921
(lp4922
g3777
as(g228
tp4923
(lp4924
g3979
as(g3221
tp4925
(lp4926
g537
as(g14
tp4927
(lp4928
g1012
as(g1571
tp4929
(lp4930
g2148
as(g73
tp4931
(lp4932
g1301
as(g509
tp4933
(lp4934
g51
as(g1217
tp4935
(lp4936
g489
as(g3864
tp4937
(lp4938
g1360
as(g585
tp4939
(lp4940
g871
as(g2049
tp4941
(lp4942
g2009
as(g3611
tp4943
(lp4944
g4349
as(g2607
tp4945
(lp4946
g2910
as(g465
tp4947
(lp4948
g1400
as(g1925
tp4949
(lp4950
g1561
as(g1387
tp4951
(lp4952
g3050
as(g931
tp4953
(lp4954
g3660
as(g871
tp4955
(lp4956
g861
as(g3023
tp4957
(lp4958
g3621
as(g147
tp4959
(lp4960
g3433
as(g3241
tp4961
(lp4962
g4573
as(g1806
tp4963
(lp4964
g479
as(g3231
tp4965
(lp4966
g1976
as(g2800
tp4967
(lp4968
g112
as(g2734
tp4969
(lp4970
g802
as(g3050
tp4971
(lp4972
g3023
as(g639
tp4973
(lp4974
g3763
as(g2398
tp4975
(lp4976
g1785
as(g3408
tp4977
(lp4978
g1646
as(g88
tp4979
(lp4980
g2073
as(g3646
tp4981
(lp4982
g1746
as(g2353
tp4983
(lp4984
g3176
as(g2547
tp4985
(lp4986
g523
as(g3264
tp4987
(lp4988
g368
as(g1148
tp4989
(lp4990
g2238
as(g2675
tp4991
(lp4992
g2955
as(g650
tp4993
(lp4994
g920
as(g1496
tp4995
(lp4996
g1605
as(g2838
tp4997
(lp4998
g2115
as(g4176
tp4999
(lp5000
g1837
ag3466
as(g1660
tp5001
(lp5002
g465
as(g1250
tp5003
(lp5004
g1475
as(g241
tp5005
(lp5006
g1861
as(g1646
tp5007
(lp5008
g2851
as(g4280
tp5009
(lp5010
g4087
ag205
as(g953
tp5011
(lp5012
g575
as(g2744
tp5013
(lp5014
g403
as(g1260
tp5015
(lp5016
g3156
as(g1002
tp5017
(lp5018
g3385
as(g3492
tp5019
(lp5020
g2282
as(g2039
tp5021
(lp5022
g3060
as(g1902
tp5023
(lp5024
g3395
as(g1084
tp5025
(lp5026
g1097
as(g2248
tp5027
(lp5028
g3221
as(g1888
tp5029
(lp5030
g333
as(g595
tp5031
(lp5032
g3492
as(g2814
tp5033
(lp5034
g2497
as(g2105
tp5035
(lp5036
g2408
as(g3251
tp5037
(lp5038
g3753
as(g561
tp5039
(lp5040
g4517
as(g2617
tp5041
(lp5042
g3586
as(g3753
tp5043
(lp5044
g2969
as(g966
tp5045
(lp5046
g322
as(g2497
tp5047
(lp5048
g3328
as(g1400
tp5049
(lp5050
g3070
as(g2435
tp5051
(lp5052
g1250
as(g884
tp5053
(lp5054
g2734
as(g3777
tp5055
(lp5056
g3251
as(g550
tp5057
(lp5058
g1795
as(g3453
tp5059
(lp5060
g2558
as(g626
tp5061
(lp5062
g2194
as(g2536
tp5063
(lp5064
g3739
as(g2955
tp5065
(lp5066
g3516
as(g2094
tp5067
(lp5068
g2316
as(g3287
tp5069
(lp5070
g3013
as(g1280
tp5071
(lp5072
g2710
as(g920
tp5073
(lp5074
g2421
as(g2367
tp5075
(lp5076
g3906
as(g1976
tp5077
(lp5078
g931
as(g2135
tp5079
(lp5080
g2921
as(g355
tp5081
(lp5082
g825
as(g4349
tp5083
(lp5084
g2367
ag1956
as(g1541
tp5085
(lp5086
g2159
as(g3197
tp5087
(lp5088
g2800
as(g3853
tp5089
(lp5090
g1987
as(g251
tp5091
(lp5092
g1217
as(g897
tp5093
(lp5094
g3166
as(g3808
tp5095
(lp5096
g3728
as(g664
tp5097
(lp5098
g2639
as(g1121
tp5099
(lp5100
g953
as(g126
tp5101
(lp5102
g1074
as(g2282
tp5103
(lp5104
g835
as(g157
tp5105
(lp5106
g1485
as(g1097
tp5107
(lp5108
g99
as(g1230
tp5109
(lp5110
g1002
as(g2059
tp5111
(lp5112
g2353
as(g2825
tp5113
(lp5114
g2945
as(g4453
tp5115
(lp5116
g2019
ag848
as(g389
tp5117
(lp5118
g2675
as(g2628
tp5119
(lp5120
g2720
as(g3141
tp5121
(lp5122
g2778
as(g977
tp5123
(lp5124
g1060
as(g168
tp5125
(lp5126
g1387
as(g2697
tp5127
(lp5128
g585
as(g3598
tp5129
(lp5130
g719
as(g2019
tp5131
(lp5132
g4591
as(g719
tp5133
(lp5134
g1148
as(g1270
tp5135
(lp5136
g742
as(g3573
tp5137
(lp5138
g907
as(g1038
tp5139
(lp5140
g2327
as(g3718
tp5141
(lp5142
g3684
as(g2470
tp5143
(lp5144
g3527
as(g3036
tp5145
(lp5146
g3895
as(g3697
tp5147
(lp5148
g1346
as(g3979
tp5149
(lp5150
g2398
ag1121
as(g3433
tp5151
(lp5152
g1260
as(g99
tp5153
(lp5154
g441
as(g1335
tp5155
(lp5156
g1421
as(g2316
tp5157
(lp5158
g88
as(g3548
tp5159
(lp5160
g3287
as(g3363
tp5161
(lp5162
g416
as(g1206
tp5163
(lp5164
g1760
as(g1455
tp5165
(lp5166
g312
as(g2159
tp5167
(lp5168
g2228
as(g264
tp5169
(lp5170
g1585
as(g709
tp5171
(lp5172
g2838
as(g2508
tp5173
(lp5174
g2271
as(g1551
tp5175
(lp5176
g2248
as(g696
tp5177
(lp5178
g355
as(g1411
tp5179
(lp5180
g2125
as(g1774
tp5181
(lp5182
g2686
as(g3763
tp5183
(lp5184
g2628
as(g942
tp5185
(lp5186
g2989
as(g3013
tp5187
(lp5188
g2135
as(g4517
tp5189
(lp5190
g2876
ag1084
as(g2084
tp5191
(lp5192
g729
as(g605
tp5193
(lp5194
g291
as(g1161
tp5195
(lp5196
g2029
as(g416
tp5197
(lp5198
g1280
as(g1795
tp5199
(lp5200
g2899
as(g3176
tp5201
(lp5202
g3300
as(g988
tp5203
(lp5204
g1049
as(g1049
tp5205
(lp5206
g1107
as(g2459
tp5207
(lp5208
g3036
as(g1421
tp5209
(lp5210
g40
as(g768
tp5211
(lp5212
g1912
as(g2448
tp5213
(lp5214
g3502
as(g616
tp5215
(lp5216
g1025
as(g1966
tp5217
(lp5218
g2388
as(g523
tp5219
(lp5220
g2754
as(g3395
tp5221
(lp5222
g1551
as(g2228
tp5223
(lp5224
g696
as(g3787
tp5225
(lp5226
g1874
as(g344
tp5227
(lp5228
g2204
as(g2979
tp5229
(lp5230
g3479
as(g3798
tp5231
(lp5232
g3003
as(g112
tp5233
(lp5234
g2593
as(g1736
tp5235
(lp5236
g1411
as(g1605
tp5237
(lp5238
g4453
as(g729
tp5239
(lp5240
g1902
as(g3895
tp5241
(lp5242
g2862
as(g1585
tp5243
(lp5244
g1230
as(g2889
tp5245
(lp5246
g3363
as(g3107
tp5247
(lp5248
g675
as(g1760
tp5249
(lp5250
g2547
as(g2910
tp5251
(lp5252
g2664
as(g2073
tp5253
(lp5254
g605
as(g3187
tp5255
(lp5256
g2825
as(g2388
tp5257
(lp5258
g1161
as(g3728
tp5259
(lp5260
g1711
as(g2172
tp5261
(lp5262
g1290
as(g277
tp5263
(lp5264
g2536
as(g1711
tp5265
(lp5266
g2183
as(g825
tp5267
(lp5268
g3094
as(g333
tp5269
(lp5270
g3141
as(g2292
tp5271
(lp5272
g709
as(g1312
tp5273
(lp5274
g1432
as(g686
tp5275
(lp5276
g1134
as(g1935
tp5277
(lp5278
g2049
as(g861
tp5279
(lp5280
g3118
as(g3874
tp5281
(lp5282
g2508
as(g479
tp5283
(lp5284
g4045
as(g1685
tp5285
(lp5286
g4176
as(g3131
tp5287
(lp5288
g2261
as(g1746
tp5289
(lp5290
g3197
as(g755
tp5291
(lp5292
g1517
as(g3466
tp5293
(lp5294
g3708
as(g1837
tp5295
(lp5296
g168
as(g2421
tp5297
(lp5298
g664
as(g2029
tp5299
(lp5300
g499
as(g1615
tp5301
(lp5302
g626
as(g3385
tp5303
(lp5304
g595
as(g3060
tp5305
(lp5306
g1925
as(g2484
tp5307
(lp5308
g2435
as(g2989
tp5309
(lp5310
g3697
as(g3003
tp5311
(lp5312
g2697
as(g3586
tp5313
(lp5314
g1736
as(g2765
tp5315
(lp5316
g2979
as(g815
tp5317
(lp5318
g3274
as(g2568
tp5319
(lp5320
g3107
as(g788
tp5321
(lp5322
g1506
as(g3156
tp5323
(lp5324
g3443
as(g62
tp5325
(lp5326
g1038
as(g3558
tp5327
(lp5328
g1206
as(g3906
tp5329
(lp5330
g3211
as(g2148
tp5331
(lp5332
g3558
as(g1325
tp5333
(lp5334
g1240
as(g40
tp5335
(lp5336
g561
as(g802
tp5337
(lp5338
g815
as(g2183
tp5339
(lp5340
g1888
as(g4045
tp5341
(lp5342
g302
ag2215
as(g3479
tp5343
(lp5344
g616
as(g1561
tp5345
(lp5346
g4087
as(g403
tp5347
(lp5348
g3598
as(g3739
tp5349
(lp5350
g2377
as(g1360
tp5351
(lp5352
g3342
as(g835
tp5353
(lp5354
g1541
as(g1171
tp5355
(lp5356
g344
as(g2305
tp5357
(lp5358
g788
as(g3516
tp5359
(lp5360
g509
as(g1945
tp5361
(lp5362
g2579
as(g426
tp5363
(lp5364
g3573
as(g2754
tp5365
(lp5366
g389
assg4683
(lp5367
(lp5368
a(lp5369
a(lp5370
g205
ag1615
ag626
ag2194
ag3671
ag1698
ag14
ag1012
ag884
ag2734
ag802
ag815
ag3274
ag768
ag1912
ag686
ag1134
ag3419
ag2059
ag2353
ag3176
ag3300
ag1530
ag2470
ag3527
ag191
ag1998
ag3808
ag3728
ag1711
ag2183
ag1888
ag333
ag3141
ag2778
ag451
ag1945
ag2579
ag3408
ag1646
ag2851
ag2522
ag977
ag1060
ag639
ag3763
ag2628
ag2720
ag2617
ag3586
ag1736
ag1411
ag2125
ag1465
ag3264
ag368
ag3885
ag1595
ag1455
ag312
ag1806
ag479
ag4045
ag302
ag2889
ag3363
ag416
ag1280
ag2710
ag3241
ag4573
ag1935
ag2049
ag2009
ag147
ag3433
ag1260
ag3156
ag3443
ag1445
ag3833
ag2653
ag1182
ag3853
ag1987
ag2094
ag2316
ag88
ag2073
ag605
ag291
ag1774
ag2686
ag2172
ag1290
ag62
ag1038
ag2327
ag1850
ag550
ag1795
ag2899
ag2568
ag3107
ag675
ag1635
ag378
ag1171
ag344
ag2204
ag3874
ag2508
ag2271
ag73
ag1301
ag3314
ag2814
ag2497
ag3328
ag1660
ag465
ag1400
ag3070
ag3646
ag1746
ag3197
ag2800
ag112
ag2593
ag1373
ag426
ag3573
ag907
ag755
ag1517
ag1312
ag1432
ag2484
ag2435
ag1250
ag1475
ag2765
ag2979
ag3479
ag616
ag1025
ag3231
ag1976
ag931
ag3660
ag1826
ag988
ag1049
ag1107
ag1725
ag650
ag920
ag2421
ag664
ag2639
ag3352
ag1571
ag2148
ag3558
ag1206
ag1760
ag2547
ag523
ag2754
ag389
ag2675
ag2955
ag3516
ag509
ag51
ag2339
ag2305
ag788
ag1506
ag3631
ag241
ag1861
ag3718
ag3684
ag3843
ag178
ag3611
ag4349
ag2367
ag3906
ag3211
ag3538
ag778
ag126
ag1074
ag1193
ag3787
ag1874
ag2789
ag277
ag2536
ag3739
ag2377
ag157
ag1485
ag3822
ag966
ag322
ag1335
ag1421
ag40
ag561
ag4517
ag2876
ag3864
ag1360
ag3342
ag228
ag3979
ag2398
ag1785
ag3929
ag1496
ag1605
ag4453
ag2019
ag4591
ag1685
ag4176
ag1837
ag168
ag1387
ag3050
ag3023
ag3621
ag1966
ag2388
ag1161
ag2029
ag499
ag1816
ag3131
ag2261
ag897
ag3166
ag3466
ag3708
ag1625
ag251
ag1217
ag489
ag3798
ag3003
ag2697
ag585
ag871
ag861
ag3118
ag2105
ag2408
ag3187
ag2825
ag2945
ag1084
ag1097
ag99
ag441
ag3453
ag2558
ag1121
ag953
ag575
ag2292
ag709
ag2838
ag2115
ag848
ag3084
ag2607
ag2910
ag2664
ag942
ag2989
ag3697
ag1346
ag3374
ag2931
ag136
ag1671
ag2448
ag3502
ag2459
ag3036
ag3895
ag2862
ag2084
ag729
ag1902
ag3395
ag1551
ag2248
ag3221
ag537
ag3548
ag3287
ag3013
ag2135
ag2921
ag2215
ag1270
ag742
ag2744
ag403
ag3598
ag719
ag1148
ag2238
ag264
ag1585
ag1230
ag1002
ag3385
ag595
ag3492
ag2282
ag835
ag1541
ag2159
ag2228
ag696
ag355
ag825
ag3094
ag3777
ag3251
ag3753
ag2969
ag1956
ag1325
ag1240
ag2039
ag3060
ag1925
ag1561
aasg4688
I1
sbsS'type'
p5371
S'invention1'
p5372
sS'pieces'
p5373
g11
((lp5374
S'./mid/invention1.mid'
p5375
atRp5376
sb.