ccopy_reg
_reconstructor
p1
(c__main__
Recommender
p2
c__builtin__
object
p3
NtRp4
(dp5
S'mm'
p6
g1
(ccmm
Markov
p7
g3
NtRp8
(dp9
S'states'
p10
c__builtin__
set
p11
((lp12
g1
(ccmm
NoteState
p13
g3
NtRp14
(dp15
S'origin'
p16
S'T(5)./mid\\invention13_5.mid'
p17
sS'chord'
p18
S'Gm'
p19
sS'bar'
p20
I4096
sS'state_duration'
p21
cdecimal
Decimal
p22
(S'0.0625'
tRp23
sS'notes'
p24
(lp25
g1
(cdata
note
p26
g3
NtRp27
(dp28
S'dur'
p29
g22
(S'0.0625'
tRp30
sS'pos'
p31
I7680
sS'chn'
p32
I1
sS'pitch'
p33
I69
sbasS'bar_pos'
p34
g22
(S'0.875'
tRp35
sS'state_position'
p36
g22
(S'1.875'
tRp37
sbag1
(g13
g3
NtRp38
(dp39
g16
S'T(0)./mid\\invention4_3.mid'
p40
sg18
S'Am'
p41
sg20
I1024
sg21
g22
(S'0.25'
tRp42
sg24
(lp43
g1
(g26
g3
NtRp44
(dp45
g29
g22
(S'0.25'
tRp46
sg31
I0
sg32
I0
sg33
I76
sbag1
(g26
g3
NtRp47
(dp48
g29
g22
(S'0.5'
tRp49
sg31
I0
sg32
I1
sg33
I48
sbasg34
g22
(S'0'
tRp50
sg36
g22
(S'0'
tRp51
sbag1
(g13
g3
NtRp52
(dp53
g16
S'T(3)./mid\\invention3_4.mid'
p54
sg18
S'Fm'
p55
sg20
I1024
sg21
g22
(S'0.25'
tRp56
sg24
(lp57
g1
(g26
g3
NtRp58
(dp59
g29
g22
(S'0.25'
tRp60
sg31
I2304
sg32
I0
sg33
I76
sbasg34
g22
(S'0.25'
tRp61
sg36
g22
(S'2.25'
tRp62
sbag1
(g13
g3
NtRp63
(dp64
g16
S'T(5)./mid\\invention1_2.mid'
p65
sg18
S'C'
sg20
I4096
sg21
g22
(S'0.0625'
tRp66
sg24
(lp67
g1
(g26
g3
NtRp68
(dp69
g29
g22
(S'0.0625'
tRp70
sg31
I2304
sg32
I1
sg33
I60
sbasg34
g22
(S'0.5625'
tRp71
sg36
g22
(S'0.5625'
tRp72
sbag1
(g13
g3
NtRp73
(dp74
g16
S'T(0)./mid\\invention13_2.mid'
p75
sg18
S'C'
sg20
I4096
sg21
g22
(S'0.0625'
tRp76
sg24
(lp77
g1
(g26
g3
NtRp78
(dp79
g29
g22
(S'0.0625'
tRp80
sg31
I7680
sg32
I1
sg33
I55
sbag1
(g26
g3
NtRp81
(dp82
g29
g22
(S'0.125'
tRp83
sg31
I7680
sg32
I0
sg33
I76
sbasg34
g22
(S'0.875'
tRp84
sg36
g22
(S'1.875'
tRp85
sbag1
(g13
g3
NtRp86
(dp87
g16
S'T(0)./mid\\invention13_2.mid'
p88
sg18
S'Em'
p89
sg20
I4096
sg21
g22
(S'0.0625'
tRp90
sg24
(lp91
g1
(g26
g3
NtRp92
(dp93
g29
g22
(S'0.0625'
tRp94
sg31
I15872
sg32
I1
sg33
I52
sbag1
(g26
g3
NtRp95
(dp96
g29
g22
(S'0.125'
tRp97
sg31
I15872
sg32
I0
sg33
I83
sbasg34
g22
(S'0.875'
tRp98
sg36
g22
(S'3.875'
tRp99
sbag1
(g13
g3
NtRp100
(dp101
g16
S'T(0)./mid\\invention4_3.mid'
p102
sg18
S'Dm'
p103
sg20
I1024
sg21
g22
(S'0.25'
tRp104
sg24
(lp105
g1
(g26
g3
NtRp106
(dp107
g29
g22
(S'0.25'
tRp108
sg31
I2304
sg32
I0
sg33
I76
sbasg34
g22
(S'0.25'
tRp109
sg36
g22
(S'2.25'
tRp110
sbag1
(g13
g3
NtRp111
(dp112
g16
S'T(0)./mid\\invention1_4.mid'
p113
sg18
S'Am'
p114
sg20
I4096
sg21
g22
(S'0.0625'
tRp115
sg24
(lp116
g1
(g26
g3
NtRp117
(dp118
g29
g22
(S'0.0625'
tRp119
sg31
I1792
sg32
I0
sg33
I74
sbasg34
g22
(S'0.4375'
tRp120
sg36
g22
(S'0.4375'
tRp121
sbag1
(g13
g3
NtRp122
(dp123
g16
S'T(0)./mid\\invention13_1.mid'
p124
sg18
S'F'
sg20
I4096
sg21
g22
(S'0.0625'
tRp125
sg24
(lp126
g1
(g26
g3
NtRp127
(dp128
g29
g22
(S'0.0625'
tRp129
sg31
I11520
sg32
I1
sg33
I53
sbasg34
g22
(S'0.8125'
tRp130
sg36
g22
(S'2.8125'
tRp131
sbag1
(g13
g3
NtRp132
(dp133
g16
S'T(0)./mid\\invention13_3.mid'
p134
sg18
S'Am'
p135
sg20
I4096
sg21
g22
(S'0.0625'
tRp136
sg24
(lp137
g1
(g26
g3
NtRp138
(dp139
g29
g22
(S'0.0625'
tRp140
sg31
I512
sg32
I0
sg33
I76
sbag1
(g26
g3
NtRp141
(dp142
g29
g22
(S'0.125'
tRp143
sg31
I512
sg32
I1
sg33
I60
sbasg34
g22
(S'0.125'
tRp144
sg36
g22
(S'0.125'
tRp145
sbag1
(g13
g3
NtRp146
(dp147
g16
S'T(0)./mid\\invention4_3.mid'
p148
sg18
S'Dm'
p149
sg20
I1024
sg21
g22
(S'0.25'
tRp150
sg24
(lp151
g1
(g26
g3
NtRp152
(dp153
g29
g22
(S'0.25'
tRp154
sg31
I2560
sg32
I0
sg33
I74
sbag1
(g26
g3
NtRp155
(dp156
g29
g22
(S'0.5'
tRp157
sg31
I2560
sg32
I1
sg33
I57
sbasg34
g22
(S'0.5'
tRp158
sg36
g22
(S'2.5'
tRp159
sbag1
(g13
g3
NtRp160
(dp161
g16
S'T(5)./mid\\invention13_5.mid'
p162
sg18
S'Gm'
p163
sg20
I4096
sg21
g22
(S'0.0625'
tRp164
sg24
(lp165
g1
(g26
g3
NtRp166
(dp167
g29
g22
(S'0.25'
tRp168
sg31
I7168
sg32
I0
sg33
I72
sbasg34
g22
(S'0.75'
tRp169
sg36
g22
(S'1.75'
tRp170
sbag1
(g13
g3
NtRp171
(dp172
g16
S'T(5)./mid\\invention13_5.mid'
p173
sg18
S'D'
sg20
I4096
sg21
g22
(S'0.0625'
tRp174
sg24
(lp175
g1
(g26
g3
NtRp176
(dp177
g29
g22
(S'0.0625'
tRp178
sg31
I3584
sg32
I1
sg33
I70
sbasg34
g22
(S'0.875'
tRp179
sg36
g22
(S'0.875'
tRp180
sbag1
(g13
g3
NtRp181
(dp182
g16
S'T(5)./mid\\invention13_5.mid'
p183
sg18
S'Gm'
p184
sg20
I4096
sg21
g22
(S'0.0625'
tRp185
sg24
(lp186
g1
(g26
g3
NtRp187
(dp188
g29
g22
(S'0.0625'
tRp189
sg31
I5632
sg32
I0
sg33
I76
sbag1
(g26
g3
NtRp190
(dp191
g29
g22
(S'0.125'
tRp192
sg31
I5632
sg32
I1
sg33
I61
sbasg34
g22
(S'0.375'
tRp193
sg36
g22
(S'1.375'
tRp194
sbag1
(g13
g3
NtRp195
(dp196
g16
S'T(0)./mid\\invention13_1.mid'
p197
sg18
S'Am'
p198
sg20
I4096
sg21
g22
(S'0.0625'
tRp199
sg24
(lp200
g1
(g26
g3
NtRp201
(dp202
g29
g22
(S'0.0625'
tRp203
sg31
I1280
sg32
I0
sg33
I64
sbasg34
g22
(S'0.3125'
tRp204
sg36
g22
(S'0.3125'
tRp205
sbag1
(g13
g3
NtRp206
(dp207
g16
S'T(0)./mid\\invention13_1.mid'
p208
sg18
S'Am'
p209
sg20
I4096
sg21
g22
(S'0.0625'
tRp210
sg24
(lp211
g1
(g26
g3
NtRp212
(dp213
g29
g22
(S'0.0625'
tRp214
sg31
I3072
sg32
I1
sg33
I59
sbag1
(g26
g3
NtRp215
(dp216
g29
g22
(S'0.125'
tRp217
sg31
I3072
sg32
I0
sg33
I68
sbasg34
g22
(S'0.75'
tRp218
sg36
g22
(S'0.75'
tRp219
sbag1
(g13
g3
NtRp220
(dp221
g16
S'T(3)./mid\\invention3_4.mid'
p222
sg18
S'F'
sg20
I1024
sg21
g22
(S'0.25'
tRp223
sg24
(lp224
g1
(g26
g3
NtRp225
(dp226
g29
g22
(S'0.25'
tRp227
sg31
I4352
sg32
I1
sg33
I55
sbasg34
g22
(S'0.25'
tRp228
sg36
g22
(S'4.25'
tRp229
sbag1
(g13
g3
NtRp230
(dp231
g16
S'T(0)./mid\\invention13_1.mid'
p232
sg18
S'Am'
p233
sg20
I4096
sg21
g22
(S'0.0625'
tRp234
sg24
(lp235
g1
(g26
g3
NtRp236
(dp237
g29
g22
(S'0.0625'
tRp238
sg31
I7168
sg32
I1
sg33
I59
sbasg34
g22
(S'0.75'
tRp239
sg36
g22
(S'1.75'
tRp240
sbag1
(g13
g3
NtRp241
(dp242
g16
S'T(0)./mid\\invention13_1.mid'
p243
sg18
S'F'
sg20
I4096
sg21
g22
(S'0.0625'
tRp244
sg24
(lp245
g1
(g26
g3
NtRp246
(dp247
g29
g22
(S'0.0625'
tRp248
sg31
I10240
sg32
I1
sg33
I62
sbag1
(g26
g3
NtRp249
(dp250
g29
g22
(S'0.125'
tRp251
sg31
I10240
sg32
I0
sg33
I65
sbasg34
g22
(S'0.5'
tRp252
sg36
g22
(S'2.5'
tRp253
sbag1
(g13
g3
NtRp254
(dp255
g16
S'T(0)./mid\\invention1_1.mid'
p256
sg18
S'C'
sg20
I4096
sg21
g22
(S'0.0625'
tRp257
sg24
(lp258
g1
(g26
g3
NtRp259
(dp260
g29
g22
(S'0.0625'
tRp261
sg31
I3840
sg32
I1
sg33
I48
sbasg34
g22
(S'0.9375'
tRp262
sg36
g22
(S'0.9375'
tRp263
sbag1
(g13
g3
NtRp264
(dp265
g16
S'T(0)./mid\\invention4_4.mid'
p266
sg18
S'F'
sg20
I1024
sg21
g22
(S'0.25'
tRp267
sg24
(lp268
g1
(g26
g3
NtRp269
(dp270
g29
g22
(S'0.25'
tRp271
sg31
I512
sg32
I1
sg33
I48
sbag1
(g26
g3
NtRp272
(dp273
g29
g22
(S'0.25'
tRp274
sg31
I512
sg32
I0
sg33
I69
sbasg34
g22
(S'0.5'
tRp275
sg36
g22
(S'0.5'
tRp276
sbag1
(g13
g3
NtRp277
(dp278
g16
S'T(0)./mid\\invention13_1.mid'
p279
sg18
S'Am'
p280
sg20
I4096
sg21
g22
(S'0.0625'
tRp281
sg24
(lp282
g1
(g26
g3
NtRp283
(dp284
g29
g22
(S'0.0625'
tRp285
sg31
I6656
sg32
I1
sg33
I57
sbag1
(g26
g3
NtRp286
(dp287
g29
g22
(S'0.125'
tRp288
sg31
I6656
sg32
I0
sg33
I69
sbasg34
g22
(S'0.625'
tRp289
sg36
g22
(S'1.625'
tRp290
sbag1
(g13
g3
NtRp291
(dp292
g16
S'T(3)./mid\\invention3_4.mid'
p293
sg18
S'F'
sg20
I1024
sg21
g22
(S'0.25'
tRp294
sg24
(lp295
g1
(g26
g3
NtRp296
(dp297
g29
g22
(S'0.25'
tRp298
sg31
I4096
sg32
I1
sg33
I53
sbasg34
g22
(S'0'
tRp299
sg36
g22
(S'4'
tRp300
sbag1
(g13
g3
NtRp301
(dp302
g16
S'T(5)./mid\\invention13_5.mid'
p303
sg18
S'D'
sg20
I4096
sg21
g22
(S'0.0625'
tRp304
sg24
(lp305
g1
(g26
g3
NtRp306
(dp307
g29
g22
(S'0.0625'
tRp308
sg31
I512
sg32
I0
sg33
I87
sbag1
(g26
g3
NtRp309
(dp310
g29
g22
(S'0.125'
tRp311
sg31
I512
sg32
I1
sg33
I57
sbasg34
g22
(S'0.125'
tRp312
sg36
g22
(S'0.125'
tRp313
sbag1
(g13
g3
NtRp314
(dp315
g16
S'T(0)./mid\\invention13_2.mid'
p316
sg18
S'C'
sg20
I4096
sg21
g22
(S'0.0625'
tRp317
sg24
(lp318
g1
(g26
g3
NtRp319
(dp320
g29
g22
(S'0.0625'
tRp321
sg31
I3328
sg32
I1
sg33
I55
sbasg34
g22
(S'0.8125'
tRp322
sg36
g22
(S'0.8125'
tRp323
sbag1
(g13
g3
NtRp324
(dp325
g16
S'T(3)./mid\\invention3_4.mid'
p326
sg18
S'F'
sg20
I1024
sg21
g22
(S'0.25'
tRp327
sg24
(lp328
g1
(g26
g3
NtRp329
(dp330
g29
g22
(S'0.25'
tRp331
sg31
I5376
sg32
I1
sg33
I57
sbasg34
g22
(S'0.25'
tRp332
sg36
g22
(S'5.25'
tRp333
sbag1
(g13
g3
NtRp334
(dp335
g16
S'T(5)./mid\\invention3_3.mid'
p336
sg18
S'Am'
p337
sg20
I1024
sg21
g22
(S'0.25'
tRp338
sg24
(lp339
g1
(g26
g3
NtRp340
(dp341
g29
g22
(S'0.25'
tRp342
sg31
I5120
sg32
I1
sg33
I62
sbasg34
g22
(S'0'
tRp343
sg36
g22
(S'5'
tRp344
sbag1
(g13
g3
NtRp345
(dp346
g16
S'T(3)./mid\\invention3_4.mid'
p347
sg18
S'F'
sg20
I1024
sg21
g22
(S'0.25'
tRp348
sg24
(lp349
g1
(g26
g3
NtRp350
(dp351
g29
g22
(S'0.25'
tRp352
sg31
I4608
sg32
I1
sg33
I57
sbasg34
g22
(S'0.5'
tRp353
sg36
g22
(S'4.5'
tRp354
sbag1
(g13
g3
NtRp355
(dp356
g16
S'T(3)./mid\\invention3_1.mid'
p357
sg18
S'Fm'
p358
sg20
I1024
sg21
g22
(S'0.25'
tRp359
sg24
(lp360
g1
(g26
g3
NtRp361
(dp362
g29
g22
(S'0.25'
tRp363
sg31
I2304
sg32
I0
sg33
I74
sbasg34
g22
(S'0.25'
tRp364
sg36
g22
(S'2.25'
tRp365
sbag1
(g13
g3
NtRp366
(dp367
g16
S'T(0)./mid\\invention13_2.mid'
p368
sg18
S'Em'
p369
sg20
I4096
sg21
g22
(S'0.0625'
tRp370
sg24
(lp371
g1
(g26
g3
NtRp372
(dp373
g29
g22
(S'0.0625'
tRp374
sg31
I14336
sg32
I1
sg33
I64
sbag1
(g26
g3
NtRp375
(dp376
g29
g22
(S'0.125'
tRp377
sg31
I14336
sg32
I0
sg33
I72
sbasg34
g22
(S'0.5'
tRp378
sg36
g22
(S'3.5'
tRp379
sbag1
(g13
g3
NtRp380
(dp381
g16
S'T(0)./mid\\invention13_3.mid'
p382
sg18
S'Am'
p383
sg20
I4096
sg21
g22
(S'0.0625'
tRp384
sg24
(lp385
g1
(g26
g3
NtRp386
(dp387
g29
g22
(S'0.0625'
tRp388
sg31
I3840
sg32
I1
sg33
I57
sbasg34
g22
(S'0.9375'
tRp389
sg36
g22
(S'0.9375'
tRp390
sbag1
(g13
g3
NtRp391
(dp392
g16
S'T(5)./mid\\invention1_2.mid'
p393
sg18
S'C'
sg20
I4096
sg21
g22
(S'0.0625'
tRp394
sg24
(lp395
g1
(g26
g3
NtRp396
(dp397
g29
g22
(S'0.0625'
tRp398
sg31
I3328
sg32
I1
sg33
I62
sbag1
(g26
g3
NtRp399
(dp400
g29
g22
(S'0.0625'
tRp401
sg31
I3328
sg32
I0
sg33
I82
sbasg34
g22
(S'0.8125'
tRp402
sg36
g22
(S'0.8125'
tRp403
sbag1
(g13
g3
NtRp404
(dp405
g16
S'T(0)./mid\\invention1_3.mid'
p406
sg18
S'C'
sg20
I4096
sg21
g22
(S'0.0625'
tRp407
sg24
(lp408
g1
(g26
g3
NtRp409
(dp410
g29
g22
(S'0.0625'
tRp411
sg31
I3584
sg32
I0
sg33
I74
sbag1
(g26
g3
NtRp412
(dp413
g29
g22
(S'0.125'
tRp414
sg31
I3584
sg32
I1
sg33
I59
sbasg34
g22
(S'0.875'
tRp415
sg36
g22
(S'0.875'
tRp416
sbag1
(g13
g3
NtRp417
(dp418
g16
S'T(0)./mid\\invention13_1.mid'
p419
sg18
S'F'
sg20
I4096
sg21
g22
(S'0.0625'
tRp420
sg24
(lp421
g1
(g26
g3
NtRp422
(dp423
g29
g22
(S'0.0625'
tRp424
sg31
I10752
sg32
I1
sg33
I53
sbag1
(g26
g3
NtRp425
(dp426
g29
g22
(S'0.125'
tRp427
sg31
I10752
sg32
I0
sg33
I69
sbasg34
g22
(S'0.625'
tRp428
sg36
g22
(S'2.625'
tRp429
sbag1
(g13
g3
NtRp430
(dp431
g16
S'T(0)./mid\\invention13_1.mid'
p432
sg18
S'F'
sg20
I4096
sg21
g22
(S'0.0625'
tRp433
sg24
(lp434
g1
(g26
g3
NtRp435
(dp436
g29
g22
(S'0.0625'
tRp437
sg31
I9984
sg32
I0
sg33
I67
sbasg34
g22
(S'0.4375'
tRp438
sg36
g22
(S'2.4375'
tRp439
sbag1
(g13
g3
NtRp440
(dp441
g16
S'T(0)./mid\\invention13_3.mid'
p442
sg18
S'Am'
p443
sg20
I4096
sg21
g22
(S'0.0625'
tRp444
sg24
(lp445
g1
(g26
g3
NtRp446
(dp447
g29
g22
(S'0.0625'
tRp448
sg31
I2048
sg32
I1
sg33
I66
sbag1
(g26
g3
NtRp449
(dp450
g29
g22
(S'0.125'
tRp451
sg31
I2048
sg32
I0
sg33
I74
sbasg34
g22
(S'0.5'
tRp452
sg36
g22
(S'0.5'
tRp453
sbag1
(g13
g3
NtRp454
(dp455
g16
S'T(0)./mid\\invention1_1.mid'
p456
sg18
S'C'
sg20
I4096
sg21
g22
(S'0.03125'
tRp457
sg24
(lp458
g1
(g26
g3
NtRp459
(dp460
g29
g22
(S'0.03125'
tRp461
sg31
I3200
sg32
I0
sg33
I69
sbasg34
g22
(S'0.78125'
tRp462
sg36
g22
(S'0.78125'
tRp463
sbag1
(g13
g3
NtRp464
(dp465
g16
S'T(-4)./mid\\invention4_6.mid'
p466
sg18
S'C'
sg20
I1024
sg21
g22
(S'0.125'
tRp467
sg24
(lp468
g1
(g26
g3
NtRp469
(dp470
g29
g22
(S'0.13671875'
tRp471
sg31
I2432
sg32
I1
sg33
I49
sbasg34
g22
(S'0.375'
tRp472
sg36
g22
(S'2.375'
tRp473
sbag1
(g13
g3
NtRp474
(dp475
g16
S'T(0)./mid\\invention1_4.mid'
p476
sg18
S'Am'
p477
sg20
I4096
sg21
g22
(S'0.0625'
tRp478
sg24
(lp479
g1
(g26
g3
NtRp480
(dp481
g29
g22
(S'0.0625'
tRp482
sg31
I3328
sg32
I0
sg33
I69
sbasg34
g22
(S'0.8125'
tRp483
sg36
g22
(S'0.8125'
tRp484
sbag1
(g13
g3
NtRp485
(dp486
g16
S'T(5)./mid\\invention13_4.mid'
p487
sg18
S'Am'
p488
sg20
I4096
sg21
g22
(S'0.0625'
tRp489
sg24
(lp490
g1
(g26
g3
NtRp491
(dp492
g29
g22
(S'0.0625'
tRp493
sg31
I2304
sg32
I1
sg33
I72
sbasg34
g22
(S'0.5625'
tRp494
sg36
g22
(S'0.5625'
tRp495
sbag1
(g13
g3
NtRp496
(dp497
g16
S'T(0)./mid\\invention13_2.mid'
p498
sg18
S'Em'
p499
sg20
I4096
sg21
g22
(S'0.0625'
tRp500
sg24
(lp501
g1
(g26
g3
NtRp502
(dp503
g29
g22
(S'0.0625'
tRp504
sg31
I13056
sg32
I0
sg33
I79
sbasg34
g22
(S'0.1875'
tRp505
sg36
g22
(S'3.1875'
tRp506
sbag1
(g13
g3
NtRp507
(dp508
g16
S'T(5)./mid\\invention13_5.mid'
p509
sg18
S'Gm'
p510
sg20
I4096
sg21
g22
(S'0.0625'
tRp511
sg24
(lp512
g1
(g26
g3
NtRp513
(dp514
g29
g22
(S'0.0625'
tRp515
sg31
I4608
sg32
I0
sg33
I86
sbag1
(g26
g3
NtRp516
(dp517
g29
g22
(S'0.125'
tRp518
sg31
I4608
sg32
I1
sg33
I55
sbasg34
g22
(S'0.125'
tRp519
sg36
g22
(S'1.125'
tRp520
sbag1
(g13
g3
NtRp521
(dp522
g16
S'T(-4)./mid\\invention13_6.mid'
p523
sg18
S'Fm'
p524
sg20
I4096
sg21
g22
(S'0.0625'
tRp525
sg24
(lp526
g1
(g26
g3
NtRp527
(dp528
g29
g22
(S'0.125'
tRp529
sg31
I0
sg32
I1
sg33
I56
sbasg34
g22
(S'0'
tRp530
sg36
g22
(S'0'
tRp531
sbag1
(g13
g3
NtRp532
(dp533
g16
S'T(5)./mid\\invention13_5.mid'
p534
sg18
S'D'
sg20
I4096
sg21
g22
(S'0.0625'
tRp535
sg24
(lp536
g1
(g26
g3
NtRp537
(dp538
g29
g22
(S'0.0625'
tRp539
sg31
I3328
sg32
I1
sg33
I72
sbasg34
g22
(S'0.8125'
tRp540
sg36
g22
(S'0.8125'
tRp541
sbag1
(g13
g3
NtRp542
(dp543
g16
S'T(5)./mid\\invention13_5.mid'
p544
sg18
S'Gm'
p545
sg20
I4096
sg21
g22
(S'0.0625'
tRp546
sg24
(lp547
g1
(g26
g3
NtRp548
(dp549
g29
g22
(S'0.0625'
tRp550
sg31
I6144
sg32
I0
sg33
I82
sbag1
(g26
g3
NtRp551
(dp552
g29
g22
(S'0.25'
tRp553
sg31
I6144
sg32
I1
sg33
I52
sbasg34
g22
(S'0.5'
tRp554
sg36
g22
(S'1.5'
tRp555
sbag1
(g13
g3
NtRp556
(dp557
g16
S'T(3)./mid\\invention3_1.mid'
p558
sg18
S'Fm'
p559
sg20
I1024
sg21
g22
(S'0.25'
tRp560
sg24
(lp561
g1
(g26
g3
NtRp562
(dp563
g29
g22
(S'0.25'
tRp564
sg31
I2560
sg32
I0
sg33
I72
sbag1
(g26
g3
NtRp565
(dp566
g29
g22
(S'0.4580078125'
tRp567
sg31
I2560
sg32
I1
sg33
I60
sbasg34
g22
(S'0.5'
tRp568
sg36
g22
(S'2.5'
tRp569
sbag1
(g13
g3
NtRp570
(dp571
g16
S'T(0)./mid\\invention1_1.mid'
p572
sg18
S'C'
sg20
I4096
sg21
g22
(S'0.0625'
tRp573
sg24
(lp574
g1
(g26
g3
NtRp575
(dp576
g29
g22
(S'0.0625'
tRp577
sg31
I3328
sg32
I1
sg33
I50
sbag1
(g26
g3
NtRp578
(dp579
g29
g22
(S'0.0625'
tRp580
sg31
I3328
sg32
I0
sg33
I71
sbasg34
g22
(S'0.8125'
tRp581
sg36
g22
(S'0.8125'
tRp582
sbag1
(g13
g3
NtRp583
(dp584
g16
S'T(0)./mid\\invention13_1.mid'
p585
sg18
S'G'
sg20
I4096
sg21
g22
(S'0.0625'
tRp586
sg24
(lp587
g1
(g26
g3
NtRp588
(dp589
g29
g22
(S'0.0625'
tRp590
sg31
I14080
sg32
I0
sg33
I65
sbasg34
g22
(S'0.4375'
tRp591
sg36
g22
(S'3.4375'
tRp592
sbag1
(g13
g3
NtRp593
(dp594
g16
S'T(3)./mid\\invention4_1.mid'
p595
sg18
S'Gm'
p596
sg20
I1024
sg21
g22
(S'0.25'
tRp597
sg24
(lp598
g1
(g26
g3
NtRp599
(dp600
g29
g22
(S'0.25'
tRp601
sg31
I2560
sg32
I0
sg33
I80
sbag1
(g26
g3
NtRp602
(dp603
g29
g22
(S'0.5'
tRp604
sg31
I2560
sg32
I1
sg33
I64
sbasg34
g22
(S'0.5'
tRp605
sg36
g22
(S'2.5'
tRp606
sbag1
(g13
g3
NtRp607
(dp608
g16
S'T(5)./mid\\invention3_3.mid'
p609
sg18
S'Am'
p610
sg20
I1024
sg21
g22
(S'0.25'
tRp611
sg24
(lp612
g1
(g26
g3
NtRp613
(dp614
g29
g22
(S'0.25'
tRp615
sg31
I5376
sg32
I1
sg33
I60
sbasg34
g22
(S'0.25'
tRp616
sg36
g22
(S'5.25'
tRp617
sbag1
(g13
g3
NtRp618
(dp619
g16
S'T(-4)./mid\\invention13_6.mid'
p620
sg18
S'C'
sg20
I4096
sg21
g22
(S'0.0625'
tRp621
sg24
(lp622
g1
(g26
g3
NtRp623
(dp624
g29
g22
(S'0.125'
tRp625
sg31
I4096
sg32
I1
sg33
I55
sbasg34
g22
(S'0'
tRp626
sg36
g22
(S'1'
tRp627
sbag1
(g13
g3
NtRp628
(dp629
g16
S'T(-4)./mid\\invention13_6.mid'
p630
sg18
S'Fm'
p631
sg20
I4096
sg21
g22
(S'0.0625'
tRp632
sg24
(lp633
g1
(g26
g3
NtRp634
(dp635
g29
g22
(S'0.0625'
tRp636
sg31
I3328
sg32
I1
sg33
I60
sbasg34
g22
(S'0.8125'
tRp637
sg36
g22
(S'0.8125'
tRp638
sbag1
(g13
g3
NtRp639
(dp640
g16
S'T(0)./mid\\invention13_1.mid'
p641
sg18
S'F'
sg20
I4096
sg21
g22
(S'0.0625'
tRp642
sg24
(lp643
g1
(g26
g3
NtRp644
(dp645
g29
g22
(S'0.0625'
tRp646
sg31
I11008
sg32
I1
sg33
I57
sbasg34
g22
(S'0.6875'
tRp647
sg36
g22
(S'2.6875'
tRp648
sbag1
(g13
g3
NtRp649
(dp650
g16
S'T(-4)./mid\\invention13_6.mid'
p651
sg18
S'C'
sg20
I4096
sg21
g22
(S'0.0625'
tRp652
sg24
(lp653
g1
(g26
g3
NtRp654
(dp655
g29
g22
(S'0.0625'
tRp656
sg31
I6912
sg32
I0
sg33
I67
sbasg34
g22
(S'0.6875'
tRp657
sg36
g22
(S'1.6875'
tRp658
sbag1
(g13
g3
NtRp659
(dp660
g16
S'T(-4)./mid\\invention13_6.mid'
p661
sg18
S'C'
sg20
I4096
sg21
g22
(S'0.0625'
tRp662
sg24
(lp663
g1
(g26
g3
NtRp664
(dp665
g29
g22
(S'0.0625'
tRp666
sg31
I4864
sg32
I0
sg33
I70
sbasg34
g22
(S'0.1875'
tRp667
sg36
g22
(S'1.1875'
tRp668
sbag1
(g13
g3
NtRp669
(dp670
g16
S'T(0)./mid\\invention13_1.mid'
p671
sg18
S'Am'
p672
sg20
I4096
sg21
g22
(S'0.0625'
tRp673
sg24
(lp674
g1
(g26
g3
NtRp675
(dp676
g29
g22
(S'0.0625'
tRp677
sg31
I3840
sg32
I1
sg33
I62
sbasg34
g22
(S'0.9375'
tRp678
sg36
g22
(S'0.9375'
tRp679
sbag1
(g13
g3
NtRp680
(dp681
g16
S'T(-4)./mid\\invention13_6.mid'
p682
sg18
S'C'
sg20
I4096
sg21
g22
(S'0.0625'
tRp683
sg24
(lp684
g1
(g26
g3
NtRp685
(dp686
g29
g22
(S'0.0625'
tRp687
sg31
I5376
sg32
I0
sg33
I70
sbasg34
g22
(S'0.3125'
tRp688
sg36
g22
(S'1.3125'
tRp689
sbag1
(g13
g3
NtRp690
(dp691
g16
S'T(-4)./mid\\invention4_6.mid'
p692
sg18
S'C'
sg20
I1024
sg21
g22
(S'0.25'
tRp693
sg24
(lp694
g1
(g26
g3
NtRp695
(dp696
g29
g22
(S'0.13671875'
tRp697
sg31
I2816
sg32
I1
sg33
I48
sbag1
(g26
g3
NtRp698
(dp699
g29
g22
(S'0.25'
tRp700
sg31
I2816
sg32
I0
sg33
I68
sbasg34
g22
(S'0.75'
tRp701
sg36
g22
(S'2.75'
tRp702
sbag1
(g13
g3
NtRp703
(dp704
g16
S'T(0)./mid\\invention1_1.mid'
p705
sg18
S'C'
sg20
I4096
sg21
g22
(S'0.0625'
tRp706
sg24
(lp707
g1
(g26
g3
NtRp708
(dp709
g29
g22
(S'0.0625'
tRp710
sg31
I1536
sg32
I0
sg33
I64
sbasg34
g22
(S'0.375'
tRp711
sg36
g22
(S'0.375'
tRp712
sbag1
(g13
g3
NtRp713
(dp714
g16
S'T(-4)./mid\\invention4_6.mid'
p715
sg18
S'A#/Bbm'
p716
sg20
I1024
sg21
g22
(S'0.125'
tRp717
sg24
(lp718
g1
(g26
g3
NtRp719
(dp720
g29
g22
(S'0.13671875'
tRp721
sg31
I0
sg32
I1
sg33
I48
sbag1
(g26
g3
NtRp722
(dp723
g29
g22
(S'0.25'
tRp724
sg31
I0
sg32
I0
sg33
I58
sbasg34
g22
(S'0'
tRp725
sg36
g22
(S'0'
tRp726
sbag1
(g13
g3
NtRp727
(dp728
g16
S'T(5)./mid\\invention3_3.mid'
p729
sg18
S'Em'
p730
sg20
I1024
sg21
g22
(S'0.25'
tRp731
sg24
(lp732
g1
(g26
g3
NtRp733
(dp734
g29
g22
(S'0.25'
tRp735
sg31
I512
sg32
I0
sg33
I73
sbag1
(g26
g3
NtRp736
(dp737
g29
g22
(S'0.5'
tRp738
sg31
I512
sg32
I1
sg33
I59
sbasg34
g22
(S'0.5'
tRp739
sg36
g22
(S'0.5'
tRp740
sbag1
(g13
g3
NtRp741
(dp742
g16
S'T(0)./mid\\invention4_3.mid'
p743
sg18
S'Em'
p744
sg20
I1024
sg21
g22
(S'0.25'
tRp745
sg24
(lp746
g1
(g26
g3
NtRp747
(dp748
g29
g22
(S'0.25'
tRp749
sg31
I1280
sg32
I0
sg33
I79
sbasg34
g22
(S'0.25'
tRp750
sg36
g22
(S'1.25'
tRp751
sbag1
(g13
g3
NtRp752
(dp753
g16
S'T(0)./mid\\invention13_2.mid'
p754
sg18
S'Em'
p755
sg20
I4096
sg21
g22
(S'0.0625'
tRp756
sg24
(lp757
g1
(g26
g3
NtRp758
(dp759
g29
g22
(S'0.0625'
tRp760
sg31
I13824
sg32
I0
sg33
I67
sbag1
(g26
g3
NtRp761
(dp762
g29
g22
(S'0.125'
tRp763
sg31
I13824
sg32
I1
sg33
I66
sbasg34
g22
(S'0.375'
tRp764
sg36
g22
(S'3.375'
tRp765
sbag1
(g13
g3
NtRp766
(dp767
g16
S'T(-4)./mid\\invention4_6.mid'
p768
sg18
S'A#/Bbm'
p769
sg20
I1024
sg21
g22
(S'0.125'
tRp770
sg24
(lp771
g1
(g26
g3
NtRp772
(dp773
g29
g22
(S'0.13671875'
tRp774
sg31
I768
sg32
I1
sg33
I48
sbag1
(g26
g3
NtRp775
(dp776
g29
g22
(S'0.25'
tRp777
sg31
I768
sg32
I0
sg33
I65
sbasg34
g22
(S'0.75'
tRp778
sg36
g22
(S'0.75'
tRp779
sbag1
(g13
g3
NtRp780
(dp781
g16
S'T(0)./mid\\invention13_1.mid'
p782
sg18
S'Am'
p783
sg20
I4096
sg21
g22
(S'0.0625'
tRp784
sg24
(lp785
g1
(g26
g3
NtRp786
(dp787
g29
g22
(S'0.0625'
tRp788
sg31
I3328
sg32
I1
sg33
I52
sbasg34
g22
(S'0.8125'
tRp789
sg36
g22
(S'0.8125'
tRp790
sbag1
(g13
g3
NtRp791
(dp792
g16
S'T(-4)./mid\\invention4_6.mid'
p793
sg18
S'A#/Bbm'
p794
sg20
I1024
sg21
g22
(S'0.125'
tRp795
sg24
(lp796
g1
(g26
g3
NtRp797
(dp798
g29
g22
(S'0.13671875'
tRp799
sg31
I128
sg32
I1
sg33
I49
sbasg34
g22
(S'0.125'
tRp800
sg36
g22
(S'0.125'
tRp801
sbag1
(g13
g3
NtRp802
(dp803
g16
S'T(0)./mid\\invention1_3.mid'
p804
sg18
S'C'
sg20
I4096
sg21
g22
(S'0.0625'
tRp805
sg24
(lp806
g1
(g26
g3
NtRp807
(dp808
g29
g22
(S'0.0625'
tRp809
sg31
I2816
sg32
I0
sg33
I74
sbasg34
g22
(S'0.6875'
tRp810
sg36
g22
(S'0.6875'
tRp811
sbag1
(g13
g3
NtRp812
(dp813
g16
S'T(3)./mid\\invention3_4.mid'
p814
sg18
S'Am'
p815
sg20
I1024
sg21
g22
(S'0.25'
tRp816
sg24
(lp817
g1
(g26
g3
NtRp818
(dp819
g29
g22
(S'0.25'
tRp820
sg31
I3584
sg32
I1
sg33
I50
sbasg34
g22
(S'0.5'
tRp821
sg36
g22
(S'3.5'
tRp822
sbag1
(g13
g3
NtRp823
(dp824
g16
S'T(0)./mid\\invention13_1.mid'
p825
sg18
S'G'
sg20
I4096
sg21
g22
(S'0.0625'
tRp826
sg24
(lp827
g1
(g26
g3
NtRp828
(dp829
g29
g22
(S'0.0625'
tRp830
sg31
I14592
sg32
I1
sg33
I55
sbasg34
g22
(S'0.5625'
tRp831
sg36
g22
(S'3.5625'
tRp832
sbag1
(g13
g3
NtRp833
(dp834
g16
S'T(5)./mid\\invention13_5.mid'
p835
sg18
S'Gm'
p836
sg20
I4096
sg21
g22
(S'0.0625'
tRp837
sg24
(lp838
g1
(g26
g3
NtRp839
(dp840
g29
g22
(S'0.0625'
tRp841
sg31
I4864
sg32
I0
sg33
I82
sbasg34
g22
(S'0.1875'
tRp842
sg36
g22
(S'1.1875'
tRp843
sbag1
(g13
g3
NtRp844
(dp845
g16
S'T(0)./mid\\invention1_4.mid'
p846
sg18
S'Am'
p847
sg20
I4096
sg21
g22
(S'0.0625'
tRp848
sg24
(lp849
g1
(g26
g3
NtRp850
(dp851
g29
g22
(S'0.0625'
tRp852
sg31
I1536
sg32
I0
sg33
I71
sbag1
(g26
g3
NtRp853
(dp854
g29
g22
(S'0.125'
tRp855
sg31
I1536
sg32
I1
sg33
I55
sbasg34
g22
(S'0.375'
tRp856
sg36
g22
(S'0.375'
tRp857
sbag1
(g13
g3
NtRp858
(dp859
g16
S'T(0)./mid\\invention4_4.mid'
p860
sg18
S'F'
sg20
I1024
sg21
g22
(S'0.25'
tRp861
sg24
(lp862
g1
(g26
g3
NtRp863
(dp864
g29
g22
(S'0.25'
tRp865
sg31
I0
sg32
I1
sg33
I45
sbag1
(g26
g3
NtRp866
(dp867
g29
g22
(S'0.25'
tRp868
sg31
I0
sg32
I0
sg33
I72
sbasg34
g22
(S'0'
tRp869
sg36
g22
(S'0'
tRp870
sbag1
(g13
g3
NtRp871
(dp872
g16
S'T(3)./mid\\invention3_4.mid'
p873
sg18
S'F'
sg20
I1024
sg21
g22
(S'0.25'
tRp874
sg24
(lp875
g1
(g26
g3
NtRp876
(dp877
g29
g22
(S'0.25'
tRp878
sg31
I5632
sg32
I1
sg33
I55
sbasg34
g22
(S'0.5'
tRp879
sg36
g22
(S'5.5'
tRp880
sbag1
(g13
g3
NtRp881
(dp882
g16
S'T(5)./mid\\invention13_5.mid'
p883
sg18
S'D'
sg20
I4096
sg21
g22
(S'0.0625'
tRp884
sg24
(lp885
g1
(g26
g3
NtRp886
(dp887
g29
g22
(S'0.125'
tRp888
sg31
I3072
sg32
I0
sg33
I74
sbasg34
g22
(S'0.75'
tRp889
sg36
g22
(S'0.75'
tRp890
sbag1
(g13
g3
NtRp891
(dp892
g16
S'T(0)./mid\\invention13_1.mid'
p893
sg18
S'F'
sg20
I4096
sg21
g22
(S'0.0625'
tRp894
sg24
(lp895
g1
(g26
g3
NtRp896
(dp897
g29
g22
(S'0.0625'
tRp898
sg31
I9216
sg32
I0
sg33
I69
sbag1
(g26
g3
NtRp899
(dp900
g29
g22
(S'0.125'
tRp901
sg31
I9216
sg32
I1
sg33
I60
sbasg34
g22
(S'0.25'
tRp902
sg36
g22
(S'2.25'
tRp903
sbag1
(g13
g3
NtRp904
(dp905
g16
S'T(0)./mid\\invention13_1.mid'
p906
sg18
S'G'
sg20
I4096
sg21
g22
(S'0.0625'
tRp907
sg24
(lp908
g1
(g26
g3
NtRp909
(dp910
g29
g22
(S'0.0625'
tRp911
sg31
I12800
sg32
I0
sg33
I71
sbag1
(g26
g3
NtRp912
(dp913
g29
g22
(S'0.125'
tRp914
sg31
I12800
sg32
I1
sg33
I50
sbasg34
g22
(S'0.125'
tRp915
sg36
g22
(S'3.125'
tRp916
sbag1
(g13
g3
NtRp917
(dp918
g16
S'T(0)./mid\\invention13_2.mid'
p919
sg18
S'Em'
p920
sg20
I4096
sg21
g22
(S'0.0625'
tRp921
sg24
(lp922
g1
(g26
g3
NtRp923
(dp924
g29
g22
(S'0.0625'
tRp925
sg31
I14848
sg32
I1
sg33
I60
sbag1
(g26
g3
NtRp926
(dp927
g29
g22
(S'0.125'
tRp928
sg31
I14848
sg32
I0
sg33
I76
sbasg34
g22
(S'0.625'
tRp929
sg36
g22
(S'3.625'
tRp930
sbag1
(g13
g3
NtRp931
(dp932
g16
S'T(5)./mid\\invention13_4.mid'
p933
sg18
S'Am'
p934
sg20
I4096
sg21
g22
(S'0.0625'
tRp935
sg24
(lp936
g1
(g26
g3
NtRp937
(dp938
g29
g22
(S'0.0625'
tRp939
sg31
I2560
sg32
I1
sg33
I65
sbag1
(g26
g3
NtRp940
(dp941
g29
g22
(S'0.125'
tRp942
sg31
I2560
sg32
I0
sg33
I81
sbasg34
g22
(S'0.625'
tRp943
sg36
g22
(S'0.625'
tRp944
sbag1
(g13
g3
NtRp945
(dp946
g16
S'T(0)./mid\\invention13_1.mid'
p947
sg18
S'F'
sg20
I4096
sg21
g22
(S'0.0625'
tRp948
sg24
(lp949
g1
(g26
g3
NtRp950
(dp951
g29
g22
(S'0.0625'
tRp952
sg31
I9472
sg32
I0
sg33
I72
sbasg34
g22
(S'0.3125'
tRp953
sg36
g22
(S'2.3125'
tRp954
sbag1
(g13
g3
NtRp955
(dp956
g16
S'T(0)./mid\\invention4_4.mid'
p957
sg18
S'Em'
p958
sg20
I1024
sg21
g22
(S'0.25'
tRp959
sg24
(lp960
g1
(g26
g3
NtRp961
(dp962
g29
g22
(S'0.25'
tRp963
sg31
I2560
sg32
I0
sg33
I67
sbasg34
g22
(S'0.5'
tRp964
sg36
g22
(S'2.5'
tRp965
sbag1
(g13
g3
NtRp966
(dp967
g16
S'T(5)./mid\\invention13_5.mid'
p968
sg18
S'D'
sg20
I4096
sg21
g22
(S'0.0625'
tRp969
sg24
(lp970
g1
(g26
g3
NtRp971
(dp972
g29
g22
(S'0.0625'
tRp973
sg31
I2304
sg32
I0
sg33
I81
sbasg34
g22
(S'0.5625'
tRp974
sg36
g22
(S'0.5625'
tRp975
sbag1
(g13
g3
NtRp976
(dp977
g16
S'T(0)./mid\\invention13_1.mid'
p978
sg18
S'G'
sg20
I4096
sg21
g22
(S'0.0625'
tRp979
sg24
(lp980
g1
(g26
g3
NtRp981
(dp982
g29
g22
(S'0.0625'
tRp983
sg31
I12544
sg32
I0
sg33
I74
sbasg34
g22
(S'0.0625'
tRp984
sg36
g22
(S'3.0625'
tRp985
sbag1
(g13
g3
NtRp986
(dp987
g16
S'T(0)./mid\\invention13_1.mid'
p988
sg18
S'G'
sg20
I4096
sg21
g22
(S'0.0625'
tRp989
sg24
(lp990
g1
(g26
g3
NtRp991
(dp992
g29
g22
(S'0.125'
tRp993
sg31
I14336
sg32
I0
sg33
I64
sbasg34
g22
(S'0.5'
tRp994
sg36
g22
(S'3.5'
tRp995
sbag1
(g13
g3
NtRp996
(dp997
g16
S'T(-5)./mid\\invention4_2.mid'
p998
sg18
S'Dm'
p999
sg20
I1024
sg21
g22
(S'0.25'
tRp1000
sg24
(lp1001
g1
(g26
g3
NtRp1002
(dp1003
g29
g22
(S'0.25'
tRp1004
sg31
I2048
sg32
I0
sg33
I74
sbag1
(g26
g3
NtRp1005
(dp1006
g29
g22
(S'0.5'
tRp1007
sg31
I2048
sg32
I1
sg33
I52
sbasg34
g22
(S'0'
tRp1008
sg36
g22
(S'2'
tRp1009
sbag1
(g13
g3
NtRp1010
(dp1011
g16
S'T(0)./mid\\invention13_2.mid'
p1012
sg18
S'Em'
p1013
sg20
I4096
sg21
g22
(S'0.0625'
tRp1014
sg24
(lp1015
g1
(g26
g3
NtRp1016
(dp1017
g29
g22
(S'0.0625'
tRp1018
sg31
I15360
sg32
I1
sg33
I55
sbag1
(g26
g3
NtRp1019
(dp1020
g29
g22
(S'0.125'
tRp1021
sg31
I15360
sg32
I0
sg33
I79
sbasg34
g22
(S'0.75'
tRp1022
sg36
g22
(S'3.75'
tRp1023
sbag1
(g13
g3
NtRp1024
(dp1025
g16
S'T(2)./mid\\invention4_5.mid'
p1026
sg18
S'Bm'
p1027
sg20
I1024
sg21
g22
(S'0.25'
tRp1028
sg24
(lp1029
g1
(g26
g3
NtRp1030
(dp1031
g29
g22
(S'0.25'
tRp1032
sg31
I1280
sg32
I1
sg33
I48
sbag1
(g26
g3
NtRp1033
(dp1034
g29
g22
(S'0.25'
tRp1035
sg31
I1280
sg32
I0
sg33
I64
sbasg34
g22
(S'0.25'
tRp1036
sg36
g22
(S'1.25'
tRp1037
sbag1
(g13
g3
NtRp1038
(dp1039
g16
S'T(-4)./mid\\invention4_6.mid'
p1040
sg18
S'C'
sg20
I1024
sg21
g22
(S'0.125'
tRp1041
sg24
(lp1042
g1
(g26
g3
NtRp1043
(dp1044
g29
g22
(S'0.13671875'
tRp1045
sg31
I2560
sg32
I1
sg33
I48
sbag1
(g26
g3
NtRp1046
(dp1047
g29
g22
(S'0.25'
tRp1048
sg31
I2560
sg32
I0
sg33
I67
sbasg34
g22
(S'0.5'
tRp1049
sg36
g22
(S'2.5'
tRp1050
sbag1
(g13
g3
NtRp1051
(dp1052
g16
S'T(5)./mid\\invention1_2.mid'
p1053
sg18
S'C'
sg20
I4096
sg21
g22
(S'0.0625'
tRp1054
sg24
(lp1055
g1
(g26
g3
NtRp1056
(dp1057
g29
g22
(S'0.0625'
tRp1058
sg31
I2560
sg32
I1
sg33
I62
sbag1
(g26
g3
NtRp1059
(dp1060
g29
g22
(S'0.125'
tRp1061
sg31
I2560
sg32
I0
sg33
I84
sbasg34
g22
(S'0.625'
tRp1062
sg36
g22
(S'0.625'
tRp1063
sbag1
(g13
g3
NtRp1064
(dp1065
g16
S'T(3)./mid\\invention3_4.mid'
p1066
sg18
S'F'
sg20
I1024
sg21
g22
(S'0.25'
tRp1067
sg24
(lp1068
g1
(g26
g3
NtRp1069
(dp1070
g29
g22
(S'0.25'
tRp1071
sg31
I4864
sg32
I1
sg33
I55
sbasg34
g22
(S'0.75'
tRp1072
sg36
g22
(S'4.75'
tRp1073
sbag1
(g13
g3
NtRp1074
(dp1075
g16
S'T(0)./mid\\invention13_3.mid'
p1076
sg18
S'Am'
p1077
sg20
I4096
sg21
g22
(S'0.0625'
tRp1078
sg24
(lp1079
g1
(g26
g3
NtRp1080
(dp1081
g29
g22
(S'0.0625'
tRp1082
sg31
I1792
sg32
I0
sg33
I72
sbasg34
g22
(S'0.4375'
tRp1083
sg36
g22
(S'0.4375'
tRp1084
sbag1
(g13
g3
NtRp1085
(dp1086
g16
S'T(5)./mid\\invention3_3.mid'
p1087
sg18
S'C'
sg20
I1024
sg21
g22
(S'0.25'
tRp1088
sg24
(lp1089
g1
(g26
g3
NtRp1090
(dp1091
g29
g22
(S'3'
tRp1092
sg31
I3072
sg32
I0
sg33
I84
sbasg34
g22
(S'0'
tRp1093
sg36
g22
(S'3'
tRp1094
sbag1
(g13
g3
NtRp1095
(dp1096
g16
S'T(5)./mid\\invention13_4.mid'
p1097
sg18
S'Am'
p1098
sg20
I4096
sg21
g22
(S'0.0625'
tRp1099
sg24
(lp1100
g1
(g26
g3
NtRp1101
(dp1102
g29
g22
(S'0.0625'
tRp1103
sg31
I512
sg32
I0
sg33
I79
sbag1
(g26
g3
NtRp1104
(dp1105
g29
g22
(S'0.125'
tRp1106
sg31
I512
sg32
I1
sg33
I64
sbasg34
g22
(S'0.125'
tRp1107
sg36
g22
(S'0.125'
tRp1108
sbag1
(g13
g3
NtRp1109
(dp1110
g16
S'T(5)./mid\\invention3_3.mid'
p1111
sg18
S'Am'
p1112
sg20
I1024
sg21
g22
(S'0.25'
tRp1113
sg24
(lp1114
g1
(g26
g3
NtRp1115
(dp1116
g29
g22
(S'0.25'
tRp1117
sg31
I5632
sg32
I1
sg33
I59
sbasg34
g22
(S'0.5'
tRp1118
sg36
g22
(S'5.5'
tRp1119
sbag1
(g13
g3
NtRp1120
(dp1121
g16
S'T(2)./mid\\invention4_5.mid'
p1122
sg18
S'D'
sg20
I1024
sg21
g22
(S'0.25'
tRp1123
sg24
(lp1124
g1
(g26
g3
NtRp1125
(dp1126
g29
g22
(S'0.25'
tRp1127
sg31
I2560
sg32
I0
sg33
I67
sbasg34
g22
(S'0.5'
tRp1128
sg36
g22
(S'2.5'
tRp1129
sbag1
(g13
g3
NtRp1130
(dp1131
g16
S'T(3)./mid\\invention4_1.mid'
p1132
sg18
S'C'
sg20
I1024
sg21
g22
(S'0.25'
tRp1133
sg24
(lp1134
g1
(g26
g3
NtRp1135
(dp1136
g29
g22
(S'0.25'
tRp1137
sg31
I1280
sg32
I0
sg33
I85
sbasg34
g22
(S'0.25'
tRp1138
sg36
g22
(S'1.25'
tRp1139
sbag1
(g13
g3
NtRp1140
(dp1141
g16
S'T(3)./mid\\invention3_1.mid'
p1142
sg18
S'C'
sg20
I1024
sg21
g22
(S'0.25'
tRp1143
sg24
(lp1144
g1
(g26
g3
NtRp1145
(dp1146
g29
g22
(S'0.25'
tRp1147
sg31
I256
sg32
I0
sg33
I76
sbasg34
g22
(S'0.25'
tRp1148
sg36
g22
(S'0.25'
tRp1149
sbag1
(g13
g3
NtRp1150
(dp1151
g16
S'T(3)./mid\\invention3_1.mid'
p1152
sg18
S'C'
sg20
I1024
sg21
g22
(S'0.25'
tRp1153
sg24
(lp1154
g1
(g26
g3
NtRp1155
(dp1156
g29
g22
(S'0.25'
tRp1157
sg31
I768
sg32
I0
sg33
I77
sbasg34
g22
(S'0.75'
tRp1158
sg36
g22
(S'0.75'
tRp1159
sbag1
(g13
g3
NtRp1160
(dp1161
g16
S'T(0)./mid\\invention13_1.mid'
p1162
sg18
S'G'
sg20
I4096
sg21
g22
(S'0.0625'
tRp1163
sg24
(lp1164
g1
(g26
g3
NtRp1165
(dp1166
g29
g22
(S'0.0625'
tRp1167
sg31
I15360
sg32
I1
sg33
I48
sbag1
(g26
g3
NtRp1168
(dp1169
g29
g22
(S'0.125'
tRp1170
sg31
I15360
sg32
I0
sg33
I72
sbasg34
g22
(S'0.75'
tRp1171
sg36
g22
(S'3.75'
tRp1172
sbag1
(g13
g3
NtRp1173
(dp1174
g16
S'T(5)./mid\\invention1_2.mid'
p1175
sg18
S'C'
sg20
I4096
sg21
g22
(S'0.0625'
tRp1176
sg24
(lp1177
g1
(g26
g3
NtRp1178
(dp1179
g29
g22
(S'0.0625'
tRp1180
sg31
I512
sg32
I0
sg33
I74
sbag1
(g26
g3
NtRp1181
(dp1182
g29
g22
(S'0.125'
tRp1183
sg31
I512
sg32
I1
sg33
I48
sbasg34
g22
(S'0.125'
tRp1184
sg36
g22
(S'0.125'
tRp1185
sbag1
(g13
g3
NtRp1186
(dp1187
g16
S'T(0)./mid\\invention13_1.mid'
p1188
sg18
S'F'
sg20
I4096
sg21
g22
(S'0.0625'
tRp1189
sg24
(lp1190
g1
(g26
g3
NtRp1191
(dp1192
g29
g22
(S'0.0625'
tRp1193
sg31
I9728
sg32
I0
sg33
I64
sbag1
(g26
g3
NtRp1194
(dp1195
g29
g22
(S'0.125'
tRp1196
sg31
I9728
sg32
I1
sg33
I57
sbasg34
g22
(S'0.375'
tRp1197
sg36
g22
(S'2.375'
tRp1198
sbag1
(g13
g3
NtRp1199
(dp1200
g16
S'T(0)./mid\\invention13_1.mid'
p1201
sg18
S'G'
sg20
I4096
sg21
g22
(S'0.0625'
tRp1202
sg24
(lp1203
g1
(g26
g3
NtRp1204
(dp1205
g29
g22
(S'0.0625'
tRp1206
sg31
I13568
sg32
I0
sg33
I71
sbasg34
g22
(S'0.3125'
tRp1207
sg36
g22
(S'3.3125'
tRp1208
sbag1
(g13
g3
NtRp1209
(dp1210
g16
S'T(0)./mid\\invention13_2.mid'
p1211
sg18
S'Em'
p1212
sg20
I4096
sg21
g22
(S'0.0625'
tRp1213
sg24
(lp1214
g1
(g26
g3
NtRp1215
(dp1216
g29
g22
(S'0.0625'
tRp1217
sg31
I13312
sg32
I0
sg33
I71
sbag1
(g26
g3
NtRp1218
(dp1219
g29
g22
(S'0.125'
tRp1220
sg31
I13312
sg32
I1
sg33
I62
sbasg34
g22
(S'0.25'
tRp1221
sg36
g22
(S'3.25'
tRp1222
sbag1
(g13
g3
NtRp1223
(dp1224
g16
S'T(0)./mid\\invention1_3.mid'
p1225
sg18
S'C'
sg20
I4096
sg21
g22
(S'0.0625'
tRp1226
sg24
(lp1227
g1
(g26
g3
NtRp1228
(dp1229
g29
g22
(S'0.0625'
tRp1230
sg31
I512
sg32
I0
sg33
I79
sbag1
(g26
g3
NtRp1231
(dp1232
g29
g22
(S'0.125'
tRp1233
sg31
I512
sg32
I1
sg33
I59
sbasg34
g22
(S'0.125'
tRp1234
sg36
g22
(S'0.125'
tRp1235
sbag1
(g13
g3
NtRp1236
(dp1237
g16
S'T(-4)./mid\\invention4_6.mid'
p1238
sg18
S'C'
sg20
I1024
sg21
g22
(S'0.125'
tRp1239
sg24
(lp1240
g1
(g26
g3
NtRp1241
(dp1242
g29
g22
(S'0.13671875'
tRp1243
sg31
I1536
sg32
I1
sg33
I48
sbag1
(g26
g3
NtRp1244
(dp1245
g29
g22
(S'0.25'
tRp1246
sg31
I1536
sg32
I0
sg33
I60
sbasg34
g22
(S'0.5'
tRp1247
sg36
g22
(S'1.5'
tRp1248
sbag1
(g13
g3
NtRp1249
(dp1250
g16
S'T(3)./mid\\invention3_4.mid'
p1251
sg18
S'F'
sg20
I1024
sg21
g22
(S'0.25'
tRp1252
sg24
(lp1253
g1
(g26
g3
NtRp1254
(dp1255
g29
g22
(S'0.25'
tRp1256
sg31
I5120
sg32
I1
sg33
I58
sbasg34
g22
(S'0'
tRp1257
sg36
g22
(S'5'
tRp1258
sbag1
(g13
g3
NtRp1259
(dp1260
g16
S'T(0)./mid\\invention13_2.mid'
p1261
sg18
S'C'
sg20
I4096
sg21
g22
(S'0.0625'
tRp1262
sg24
(lp1263
g1
(g26
g3
NtRp1264
(dp1265
g29
g22
(S'0.0625'
tRp1266
sg31
I2048
sg32
I1
sg33
I60
sbag1
(g26
g3
NtRp1267
(dp1268
g29
g22
(S'0.125'
tRp1269
sg31
I2048
sg32
I0
sg33
I76
sbasg34
g22
(S'0.5'
tRp1270
sg36
g22
(S'0.5'
tRp1271
sbag1
(g13
g3
NtRp1272
(dp1273
g16
S'T(-5)./mid\\invention4_2.mid'
p1274
sg18
S'A#/Bb'
p1275
sg20
I1024
sg21
g22
(S'0.25'
tRp1276
sg24
(lp1277
g1
(g26
g3
NtRp1278
(dp1279
g29
g22
(S'0.25'
tRp1280
sg31
I1024
sg32
I0
sg33
I74
sbag1
(g26
g3
NtRp1281
(dp1282
g29
g22
(S'0.5'
tRp1283
sg31
I1024
sg32
I1
sg33
I48
sbasg34
g22
(S'0'
tRp1284
sg36
g22
(S'1'
tRp1285
sbag1
(g13
g3
NtRp1286
(dp1287
g16
S'T(-5)./mid\\invention4_2.mid'
p1288
sg18
S'Dm'
p1289
sg20
I1024
sg21
g22
(S'0.25'
tRp1290
sg24
(lp1291
g1
(g26
g3
NtRp1292
(dp1293
g29
g22
(S'0.25'
tRp1294
sg31
I2304
sg32
I0
sg33
I72
sbasg34
g22
(S'0.25'
tRp1295
sg36
g22
(S'2.25'
tRp1296
sbag1
(g13
g3
NtRp1297
(dp1298
g16
S'T(0)./mid\\invention13_2.mid'
p1299
sg18
S'Em'
p1300
sg20
I4096
sg21
g22
(S'0.0625'
tRp1301
sg24
(lp1302
g1
(g26
g3
NtRp1303
(dp1304
g29
g22
(S'0.0625'
tRp1305
sg31
I16128
sg32
I1
sg33
I55
sbasg34
g22
(S'0.9375'
tRp1306
sg36
g22
(S'3.9375'
tRp1307
sbag1
(g13
g3
NtRp1308
(dp1309
g16
S'T(0)./mid\\invention4_4.mid'
p1310
sg18
S'C'
sg20
I1024
sg21
g22
(S'0.25'
tRp1311
sg24
(lp1312
g1
(g26
g3
NtRp1313
(dp1314
g29
g22
(S'0.25'
tRp1315
sg31
I1024
sg32
I1
sg33
I46
sbag1
(g26
g3
NtRp1316
(dp1317
g29
g22
(S'0.25'
tRp1318
sg31
I1024
sg32
I0
sg33
I65
sbasg34
g22
(S'0'
tRp1319
sg36
g22
(S'1'
tRp1320
sbag1
(g13
g3
NtRp1321
(dp1322
g16
S'T(0)./mid\\invention13_3.mid'
p1323
sg18
S'Am'
p1324
sg20
I4096
sg21
g22
(S'0.0625'
tRp1325
sg24
(lp1326
g1
(g26
g3
NtRp1327
(dp1328
g29
g22
(S'0.0625'
tRp1329
sg31
I1280
sg32
I0
sg33
I76
sbasg34
g22
(S'0.3125'
tRp1330
sg36
g22
(S'0.3125'
tRp1331
sbag1
(g13
g3
NtRp1332
(dp1333
g16
S'T(0)./mid\\invention13_2.mid'
p1334
sg18
S'C'
sg20
I4096
sg21
g22
(S'0.0625'
tRp1335
sg24
(lp1336
g1
(g26
g3
NtRp1337
(dp1338
g29
g22
(S'0.0625'
tRp1339
sg31
I4096
sg32
I0
sg33
I72
sbag1
(g26
g3
NtRp1340
(dp1341
g29
g22
(S'0.125'
tRp1342
sg31
I4096
sg32
I1
sg33
I64
sbasg34
g22
(S'0'
tRp1343
sg36
g22
(S'1'
tRp1344
sbag1
(g13
g3
NtRp1345
(dp1346
g16
S'T(5)./mid\\invention13_4.mid'
p1347
sg18
S'Am'
p1348
sg20
I4096
sg21
g22
(S'0.0625'
tRp1349
sg24
(lp1350
g1
(g26
g3
NtRp1351
(dp1352
g29
g22
(S'0.0625'
tRp1353
sg31
I0
sg32
I0
sg33
I88
sbag1
(g26
g3
NtRp1354
(dp1355
g29
g22
(S'0.125'
tRp1356
sg31
I0
sg32
I1
sg33
I60
sbasg34
g22
(S'0'
tRp1357
sg36
g22
(S'0'
tRp1358
sbag1
(g13
g3
NtRp1359
(dp1360
g16
S'T(5)./mid\\invention3_3.mid'
p1361
sg18
S'F'
sg20
I1024
sg21
g22
(S'0.25'
tRp1362
sg24
(lp1363
g1
(g26
g3
NtRp1364
(dp1365
g29
g22
(S'0.25'
tRp1366
sg31
I4352
sg32
I1
sg33
I59
sbasg34
g22
(S'0.25'
tRp1367
sg36
g22
(S'4.25'
tRp1368
sbag1
(g13
g3
NtRp1369
(dp1370
g16
S'T(5)./mid\\invention13_4.mid'
p1371
sg18
S'Am'
p1372
sg20
I4096
sg21
g22
(S'0.0625'
tRp1373
sg24
(lp1374
g1
(g26
g3
NtRp1375
(dp1376
g29
g22
(S'0.0625'
tRp1377
sg31
I3584
sg32
I1
sg33
I57
sbag1
(g26
g3
NtRp1378
(dp1379
g29
g22
(S'0.125'
tRp1380
sg31
I3584
sg32
I0
sg33
I88
sbasg34
g22
(S'0.875'
tRp1381
sg36
g22
(S'0.875'
tRp1382
sbag1
(g13
g3
NtRp1383
(dp1384
g16
S'T(3)./mid\\invention4_1.mid'
p1385
sg18
S'Fm'
p1386
sg20
I1024
sg21
g22
(S'0.25'
tRp1387
sg24
(lp1388
g1
(g26
g3
NtRp1389
(dp1390
g29
g22
(S'0.25'
tRp1391
sg31
I256
sg32
I0
sg33
I79
sbasg34
g22
(S'0.25'
tRp1392
sg36
g22
(S'0.25'
tRp1393
sbag1
(g13
g3
NtRp1394
(dp1395
g16
S'T(0)./mid\\invention13_1.mid'
p1396
sg18
S'G'
sg20
I4096
sg21
g22
(S'0.0625'
tRp1397
sg24
(lp1398
g1
(g26
g3
NtRp1399
(dp1400
g29
g22
(S'0.0625'
tRp1401
sg31
I13312
sg32
I0
sg33
I67
sbag1
(g26
g3
NtRp1402
(dp1403
g29
g22
(S'0.125'
tRp1404
sg31
I13312
sg32
I1
sg33
I55
sbasg34
g22
(S'0.25'
tRp1405
sg36
g22
(S'3.25'
tRp1406
sbag1
(g13
g3
NtRp1407
(dp1408
g16
S'T(0)./mid\\invention1_4.mid'
p1409
sg18
S'Am'
p1410
sg20
I4096
sg21
g22
(S'0.0625'
tRp1411
sg24
(lp1412
g1
(g26
g3
NtRp1413
(dp1414
g29
g22
(S'0.0625'
tRp1415
sg31
I1280
sg32
I0
sg33
I72
sbasg34
g22
(S'0.3125'
tRp1416
sg36
g22
(S'0.3125'
tRp1417
sbag1
(g13
g3
NtRp1418
(dp1419
g16
S'T(-5)./mid\\invention4_2.mid'
p1420
sg18
g1275
sg20
I1024
sg21
g22
(S'0.25'
tRp1421
sg24
(lp1422
g1
(g26
g3
NtRp1423
(dp1424
g29
g22
(S'0.25'
tRp1425
sg31
I1280
sg32
I0
sg33
I76
sbasg34
g22
(S'0.25'
tRp1426
sg36
g22
(S'1.25'
tRp1427
sbag1
(g13
g3
NtRp1428
(dp1429
g16
S'T(0)./mid\\invention1_1.mid'
p1430
sg18
S'C'
sg20
I4096
sg21
g22
(S'0.0625'
tRp1431
sg24
(lp1432
g1
(g26
g3
NtRp1433
(dp1434
g29
g22
(S'0.0625'
tRp1435
sg31
I768
sg32
I0
sg33
I64
sbasg34
g22
(S'0.1875'
tRp1436
sg36
g22
(S'0.1875'
tRp1437
sbag1
(g13
g3
NtRp1438
(dp1439
g16
S'T(0)./mid\\invention13_1.mid'
p1440
sg18
S'F'
sg20
I4096
sg21
g22
(S'0.0625'
tRp1441
sg24
(lp1442
g1
(g26
g3
NtRp1443
(dp1444
g29
g22
(S'0.0625'
tRp1445
sg31
I8960
sg32
I0
sg33
I76
sbasg34
g22
(S'0.1875'
tRp1446
sg36
g22
(S'2.1875'
tRp1447
sbag1
(g13
g3
NtRp1448
(dp1449
g16
S'T(0)./mid\\invention4_3.mid'
p1450
sg18
S'Em'
p1451
sg20
I1024
sg21
g22
(S'0.25'
tRp1452
sg24
(lp1453
g1
(g26
g3
NtRp1454
(dp1455
g29
g22
(S'0.25'
tRp1456
sg31
I1536
sg32
I0
sg33
I69
sbag1
(g26
g3
NtRp1457
(dp1458
g29
g22
(S'0.5'
tRp1459
sg31
I1536
sg32
I1
sg33
I53
sbasg34
g22
(S'0.5'
tRp1460
sg36
g22
(S'1.5'
tRp1461
sbag1
(g13
g3
NtRp1462
(dp1463
g16
S'T(3)./mid\\invention4_1.mid'
p1464
sg18
S'Fm'
p1465
sg20
I1024
sg21
g22
(S'0.25'
tRp1466
sg24
(lp1467
g1
(g26
g3
NtRp1468
(dp1469
g29
g22
(S'0.25'
tRp1470
sg31
I768
sg32
I0
sg33
I82
sbasg34
g22
(S'0.75'
tRp1471
sg36
g22
(S'0.75'
tRp1472
sbag1
(g13
g3
NtRp1473
(dp1474
g16
S'T(-4)./mid\\invention4_6.mid'
p1475
sg18
S'A#/Bbm'
p1476
sg20
I1024
sg21
g22
(S'0.125'
tRp1477
sg24
(lp1478
g1
(g26
g3
NtRp1479
(dp1480
g29
g22
(S'0.13671875'
tRp1481
sg31
I512
sg32
I1
sg33
I48
sbag1
(g26
g3
NtRp1482
(dp1483
g29
g22
(S'0.25'
tRp1484
sg31
I512
sg32
I0
sg33
I67
sbasg34
g22
(S'0.5'
tRp1485
sg36
g22
(S'0.5'
tRp1486
sbag1
(g13
g3
NtRp1487
(dp1488
g16
S'T(0)./mid\\invention13_2.mid'
p1489
sg18
S'Em'
p1490
sg20
I4096
sg21
g22
(S'0.0625'
tRp1491
sg24
(lp1492
g1
(g26
g3
NtRp1493
(dp1494
g29
g22
(S'0.0625'
tRp1495
sg31
I12544
sg32
I0
sg33
I79
sbasg34
g22
(S'0.0625'
tRp1496
sg36
g22
(S'3.0625'
tRp1497
sbag1
(g13
g3
NtRp1498
(dp1499
g16
S'T(2)./mid\\invention4_5.mid'
p1500
sg18
S'Bm'
p1501
sg20
I1024
sg21
g22
(S'0.25'
tRp1502
sg24
(lp1503
g1
(g26
g3
NtRp1504
(dp1505
g29
g22
(S'0.25'
tRp1506
sg31
I1536
sg32
I0
sg33
I72
sbag1
(g26
g3
NtRp1507
(dp1508
g29
g22
(S'0.5'
tRp1509
sg31
I1536
sg32
I1
sg33
I42
sbasg34
g22
(S'0.5'
tRp1510
sg36
g22
(S'1.5'
tRp1511
sbag1
(g13
g3
NtRp1512
(dp1513
g16
S'T(0)./mid\\invention13_3.mid'
p1514
sg18
S'Am'
p1515
sg20
I4096
sg21
g22
(S'0.0625'
tRp1516
sg24
(lp1517
g1
(g26
g3
NtRp1518
(dp1519
g29
g22
(S'0.0625'
tRp1520
sg31
I0
sg32
I0
sg33
I84
sbag1
(g26
g3
NtRp1521
(dp1522
g29
g22
(S'0.125'
tRp1523
sg31
I0
sg32
I1
sg33
I57
sbasg34
g22
(S'0'
tRp1524
sg36
g22
(S'0'
tRp1525
sbag1
(g13
g3
NtRp1526
(dp1527
g16
S'T(0)./mid\\invention1_3.mid'
p1528
sg18
S'C'
sg20
I4096
sg21
g22
(S'0.0625'
tRp1529
sg24
(lp1530
g1
(g26
g3
NtRp1531
(dp1532
g29
g22
(S'0.0625'
tRp1533
sg31
I1024
sg32
I0
sg33
I76
sbag1
(g26
g3
NtRp1534
(dp1535
g29
g22
(S'0.125'
tRp1536
sg31
I1024
sg32
I1
sg33
I60
sbasg34
g22
(S'0.25'
tRp1537
sg36
g22
(S'0.25'
tRp1538
sbag1
(g13
g3
NtRp1539
(dp1540
g16
S'T(-4)./mid\\invention13_6.mid'
p1541
sg18
S'Fm'
p1542
sg20
I4096
sg21
g22
(S'0.0625'
tRp1543
sg24
(lp1544
g1
(g26
g3
NtRp1545
(dp1546
g29
g22
(S'0.0625'
tRp1547
sg31
I768
sg32
I0
sg33
I72
sbasg34
g22
(S'0.1875'
tRp1548
sg36
g22
(S'0.1875'
tRp1549
sbag1
(g13
g3
NtRp1550
(dp1551
g16
S'T(-4)./mid\\invention13_6.mid'
p1552
sg18
S'C'
sg20
I4096
sg21
g22
(S'0.0625'
tRp1553
sg24
(lp1554
g1
(g26
g3
NtRp1555
(dp1556
g29
g22
(S'0.0625'
tRp1557
sg31
I5120
sg32
I0
sg33
I67
sbag1
(g26
g3
NtRp1558
(dp1559
g29
g22
(S'0.125'
tRp1560
sg31
I5120
sg32
I1
sg33
I46
sbasg34
g22
(S'0.25'
tRp1561
sg36
g22
(S'1.25'
tRp1562
sbag1
(g13
g3
NtRp1563
(dp1564
g16
S'T(3)./mid\\invention3_1.mid'
p1565
sg18
S'Fm'
p1566
sg20
I1024
sg21
g22
(S'0.25'
tRp1567
sg24
(lp1568
g1
(g26
g3
NtRp1569
(dp1570
g29
g22
(S'0.25'
tRp1571
sg31
I2048
sg32
I0
sg33
I77
sbag1
(g26
g3
NtRp1572
(dp1573
g29
g22
(S'0.5'
tRp1574
sg31
I2048
sg32
I1
sg33
I48
sbasg34
g22
(S'0'
tRp1575
sg36
g22
(S'2'
tRp1576
sbag1
(g13
g3
NtRp1577
(dp1578
g16
S'T(0)./mid\\invention1_4.mid'
p1579
sg18
S'Am'
p1580
sg20
I4096
sg21
g22
(S'0.0625'
tRp1581
sg24
(lp1582
g1
(g26
g3
NtRp1583
(dp1584
g29
g22
(S'0.0625'
tRp1585
sg31
I3584
sg32
I0
sg33
I67
sbasg34
g22
(S'0.875'
tRp1586
sg36
g22
(S'0.875'
tRp1587
sbag1
(g13
g3
NtRp1588
(dp1589
g16
S'T(0)./mid\\invention1_1.mid'
p1590
sg18
S'C'
sg20
I4096
sg21
g22
(S'0.03125'
tRp1591
sg24
(lp1592
g1
(g26
g3
NtRp1593
(dp1594
g29
g22
(S'0.03125'
tRp1595
sg31
I3072
sg32
I0
sg33
I71
sbag1
(g26
g3
NtRp1596
(dp1597
g29
g22
(S'0.0625'
tRp1598
sg31
I3072
sg32
I1
sg33
I53
sbasg34
g22
(S'0.75'
tRp1599
sg36
g22
(S'0.75'
tRp1600
sbag1
(g13
g3
NtRp1601
(dp1602
g16
S'T(5)./mid\\invention13_5.mid'
p1603
sg18
S'D'
sg20
I4096
sg21
g22
(S'0.0625'
tRp1604
sg24
(lp1605
g1
(g26
g3
NtRp1606
(dp1607
g29
g22
(S'0.0625'
tRp1608
sg31
I768
sg32
I0
sg33
I84
sbasg34
g22
(S'0.1875'
tRp1609
sg36
g22
(S'0.1875'
tRp1610
sbag1
(g13
g3
NtRp1611
(dp1612
g16
S'T(5)./mid\\invention1_2.mid'
p1613
sg18
S'C'
sg20
I4096
sg21
g22
(S'0.0625'
tRp1614
sg24
(lp1615
g1
(g26
g3
NtRp1616
(dp1617
g29
g22
(S'0.0625'
tRp1618
sg31
I256
sg32
I0
sg33
I72
sbasg34
g22
(S'0.0625'
tRp1619
sg36
g22
(S'0.0625'
tRp1620
sbag1
(g13
g3
NtRp1621
(dp1622
g16
S'T(3)./mid\\invention3_4.mid'
p1623
sg18
S'F'
sg20
I1024
sg21
g22
(S'0.25'
tRp1624
sg24
(lp1625
g1
(g26
g3
NtRp1626
(dp1627
g29
g22
(S'0.25'
tRp1628
sg31
I5888
sg32
I1
sg33
I53
sbasg34
g22
(S'0.75'
tRp1629
sg36
g22
(S'5.75'
tRp1630
sbag1
(g13
g3
NtRp1631
(dp1632
g16
S'T(-4)./mid\\invention13_6.mid'
p1633
sg18
S'C'
sg20
I4096
sg21
g22
(S'0.0625'
tRp1634
sg24
(lp1635
g1
(g26
g3
NtRp1636
(dp1637
g29
g22
(S'0.0625'
tRp1638
sg31
I6400
sg32
I0
sg33
I67
sbasg34
g22
(S'0.5625'
tRp1639
sg36
g22
(S'1.5625'
tRp1640
sbag1
(g13
g3
NtRp1641
(dp1642
g16
S'T(-4)./mid\\invention13_6.mid'
p1643
sg18
S'Fm'
p1644
sg20
I4096
sg21
g22
(S'0.0625'
tRp1645
sg24
(lp1646
g1
(g26
g3
NtRp1647
(dp1648
g29
g22
(S'0.25'
tRp1649
sg31
I3072
sg32
I0
sg33
I62
sbasg34
g22
(S'0.75'
tRp1650
sg36
g22
(S'0.75'
tRp1651
sbag1
(g13
g3
NtRp1652
(dp1653
g16
S'T(5)./mid\\invention13_5.mid'
p1654
sg18
S'Gm'
p1655
sg20
I4096
sg21
g22
(S'0.0625'
tRp1656
sg24
(lp1657
g1
(g26
g3
NtRp1658
(dp1659
g29
g22
(S'0.0625'
tRp1660
sg31
I7424
sg32
I1
sg33
I70
sbasg34
g22
(S'0.8125'
tRp1661
sg36
g22
(S'1.8125'
tRp1662
sbag1
(g13
g3
NtRp1663
(dp1664
g16
S'T(-5)./mid\\invention4_2.mid'
p1665
sg18
S'Dm'
p1666
sg20
I1024
sg21
g22
(S'0.25'
tRp1667
sg24
(lp1668
g1
(g26
g3
NtRp1669
(dp1670
g29
g22
(S'0.25'
tRp1671
sg31
I2560
sg32
I0
sg33
I71
sbag1
(g26
g3
NtRp1672
(dp1673
g29
g22
(S'0.5'
tRp1674
sg31
I2560
sg32
I1
sg33
I53
sbasg34
g22
(S'0.5'
tRp1675
sg36
g22
(S'2.5'
tRp1676
sbag1
(g13
g3
NtRp1677
(dp1678
g16
S'T(0)./mid\\invention1_4.mid'
p1679
sg18
S'Am'
p1680
sg20
I4096
sg21
g22
(S'0.0625'
tRp1681
sg24
(lp1682
g1
(g26
g3
NtRp1683
(dp1684
g29
g22
(S'0.0625'
tRp1685
sg31
I3840
sg32
I0
sg33
I71
sbasg34
g22
(S'0.9375'
tRp1686
sg36
g22
(S'0.9375'
tRp1687
sbag1
(g13
g3
NtRp1688
(dp1689
g16
S'T(3)./mid\\invention4_1.mid'
p1690
sg18
S'Gm'
p1691
sg20
I1024
sg21
g22
(S'0.25'
tRp1692
sg24
(lp1693
g1
(g26
g3
NtRp1694
(dp1695
g29
g22
(S'0.25'
tRp1696
sg31
I2048
sg32
I0
sg33
I84
sbag1
(g26
g3
NtRp1697
(dp1698
g29
g22
(S'0.5'
tRp1699
sg31
I2048
sg32
I1
sg33
I58
sbasg34
g22
(S'0'
tRp1700
sg36
g22
(S'2'
tRp1701
sbag1
(g13
g3
NtRp1702
(dp1703
g16
S'T(5)./mid\\invention3_3.mid'
p1704
sg18
S'F'
sg20
I1024
sg21
g22
(S'0.25'
tRp1705
sg24
(lp1706
g1
(g26
g3
NtRp1707
(dp1708
g29
g22
(S'0.25'
tRp1709
sg31
I4096
sg32
I1
sg33
I57
sbasg34
g22
(S'0'
tRp1710
sg36
g22
(S'4'
tRp1711
sbag1
(g13
g3
NtRp1712
(dp1713
g16
S'T(0)./mid\\invention13_2.mid'
p1714
sg18
S'Em'
p1715
sg20
I4096
sg21
g22
(S'0.0625'
tRp1716
sg24
(lp1717
g1
(g26
g3
NtRp1718
(dp1719
g29
g22
(S'0.0625'
tRp1720
sg31
I14592
sg32
I1
sg33
I67
sbasg34
g22
(S'0.5625'
tRp1721
sg36
g22
(S'3.5625'
tRp1722
sbag1
(g13
g3
NtRp1723
(dp1724
g16
S'T(0)./mid\\invention13_2.mid'
p1725
sg18
S'C'
sg20
I4096
sg21
g22
(S'0.0625'
tRp1726
sg24
(lp1727
g1
(g26
g3
NtRp1728
(dp1729
g29
g22
(S'0.0625'
tRp1730
sg31
I1536
sg32
I0
sg33
I74
sbag1
(g26
g3
NtRp1731
(dp1732
g29
g22
(S'0.125'
tRp1733
sg31
I1536
sg32
I1
sg33
I55
sbasg34
g22
(S'0.375'
tRp1734
sg36
g22
(S'0.375'
tRp1735
sbag1
(g13
g3
NtRp1736
(dp1737
g16
S'T(0)./mid\\invention13_2.mid'
p1738
sg18
S'Em'
p1739
sg20
I4096
sg21
g22
(S'0.0625'
tRp1740
sg24
(lp1741
g1
(g26
g3
NtRp1742
(dp1743
g29
g22
(S'0.0625'
tRp1744
sg31
I12288
sg32
I0
sg33
I83
sbag1
(g26
g3
NtRp1745
(dp1746
g29
g22
(S'0.125'
tRp1747
sg31
I12288
sg32
I1
sg33
I55
sbasg34
g22
(S'0'
tRp1748
sg36
g22
(S'3'
tRp1749
sbag1
(g13
g3
NtRp1750
(dp1751
g16
S'T(-4)./mid\\invention13_6.mid'
p1752
sg18
S'Fm'
p1753
sg20
I4096
sg21
g22
(S'0.0625'
tRp1754
sg24
(lp1755
g1
(g26
g3
NtRp1756
(dp1757
g29
g22
(S'0.0625'
tRp1758
sg31
I1792
sg32
I0
sg33
I68
sbasg34
g22
(S'0.4375'
tRp1759
sg36
g22
(S'0.4375'
tRp1760
sbag1
(g13
g3
NtRp1761
(dp1762
g16
S'T(0)./mid\\invention13_3.mid'
p1763
sg18
S'Am'
p1764
sg20
I4096
sg21
g22
(S'0.0625'
tRp1765
sg24
(lp1766
g1
(g26
g3
NtRp1767
(dp1768
g29
g22
(S'0.0625'
tRp1769
sg31
I768
sg32
I0
sg33
I81
sbasg34
g22
(S'0.1875'
tRp1770
sg36
g22
(S'0.1875'
tRp1771
sbag1
(g13
g3
NtRp1772
(dp1773
g16
S'T(0)./mid\\invention13_3.mid'
p1774
sg18
S'Am'
p1775
sg20
I4096
sg21
g22
(S'0.0625'
tRp1776
sg24
(lp1777
g1
(g26
g3
NtRp1778
(dp1779
g29
g22
(S'0.0625'
tRp1780
sg31
I2304
sg32
I1
sg33
I69
sbasg34
g22
(S'0.5625'
tRp1781
sg36
g22
(S'0.5625'
tRp1782
sbag1
(g13
g3
NtRp1783
(dp1784
g16
S'T(0)./mid\\invention13_2.mid'
p1785
sg18
S'C'
sg20
I4096
sg21
g22
(S'0.0625'
tRp1786
sg24
(lp1787
g1
(g26
g3
NtRp1788
(dp1789
g29
g22
(S'0.0625'
tRp1790
sg31
I7168
sg32
I1
sg33
I60
sbag1
(g26
g3
NtRp1791
(dp1792
g29
g22
(S'0.125'
tRp1793
sg31
I7168
sg32
I0
sg33
I79
sbasg34
g22
(S'0.75'
tRp1794
sg36
g22
(S'1.75'
tRp1795
sbag1
(g13
g3
NtRp1796
(dp1797
g16
S'T(-4)./mid\\invention13_6.mid'
p1798
sg18
S'Fm'
p1799
sg20
I4096
sg21
g22
(S'0.0625'
tRp1800
sg24
(lp1801
g1
(g26
g3
NtRp1802
(dp1803
g29
g22
(S'0.0625'
tRp1804
sg31
I2304
sg32
I0
sg33
I68
sbasg34
g22
(S'0.5625'
tRp1805
sg36
g22
(S'0.5625'
tRp1806
sbag1
(g13
g3
NtRp1807
(dp1808
g16
S'T(0)./mid\\invention13_2.mid'
p1809
sg18
S'C'
sg20
I4096
sg21
g22
(S'0.0625'
tRp1810
sg24
(lp1811
g1
(g26
g3
NtRp1812
(dp1813
g29
g22
(S'0.0625'
tRp1814
sg31
I256
sg32
I0
sg33
I67
sbasg34
g22
(S'0.0625'
tRp1815
sg36
g22
(S'0.0625'
tRp1816
sbag1
(g13
g3
NtRp1817
(dp1818
g16
S'T(0)./mid\\invention13_1.mid'
p1819
sg18
S'G'
sg20
I4096
sg21
g22
(S'0.0625'
tRp1820
sg24
(lp1821
g1
(g26
g3
NtRp1822
(dp1823
g29
g22
(S'0.0625'
tRp1824
sg31
I15104
sg32
I1
sg33
I55
sbasg34
g22
(S'0.6875'
tRp1825
sg36
g22
(S'3.6875'
tRp1826
sbag1
(g13
g3
NtRp1827
(dp1828
g16
S'T(-4)./mid\\invention13_6.mid'
p1829
sg18
S'Fm'
p1830
sg20
I4096
sg21
g22
(S'0.0625'
tRp1831
sg24
(lp1832
g1
(g26
g3
NtRp1833
(dp1834
g29
g22
(S'0.0625'
tRp1835
sg31
I1536
sg32
I0
sg33
I65
sbag1
(g26
g3
NtRp1836
(dp1837
g29
g22
(S'0.125'
tRp1838
sg31
I1536
sg32
I1
sg33
I50
sbasg34
g22
(S'0.375'
tRp1839
sg36
g22
(S'0.375'
tRp1840
sbag1
(g13
g3
NtRp1841
(dp1842
g16
S'T(0)./mid\\invention13_3.mid'
p1843
sg18
S'Am'
p1844
sg20
I4096
sg21
g22
(S'0.0625'
tRp1845
sg24
(lp1846
g1
(g26
g3
NtRp1847
(dp1848
g29
g22
(S'0.0625'
tRp1849
sg31
I3584
sg32
I1
sg33
I54
sbag1
(g26
g3
NtRp1850
(dp1851
g29
g22
(S'0.125'
tRp1852
sg31
I3584
sg32
I0
sg33
I84
sbasg34
g22
(S'0.875'
tRp1853
sg36
g22
(S'0.875'
tRp1854
sbag1
(g13
g3
NtRp1855
(dp1856
g16
S'T(0)./mid\\invention4_4.mid'
p1857
sg18
S'C'
sg20
I1024
sg21
g22
(S'0.25'
tRp1858
sg24
(lp1859
g1
(g26
g3
NtRp1860
(dp1861
g29
g22
(S'0.25'
tRp1862
sg31
I1536
sg32
I0
sg33
I72
sbag1
(g26
g3
NtRp1863
(dp1864
g29
g22
(S'0.5'
tRp1865
sg31
I1536
sg32
I1
sg33
I42
sbasg34
g22
(S'0.5'
tRp1866
sg36
g22
(S'1.5'
tRp1867
sbag1
(g13
g3
NtRp1868
(dp1869
g16
S'T(-4)./mid\\invention13_6.mid'
p1870
sg18
S'Fm'
p1871
sg20
I4096
sg21
g22
(S'0.0625'
tRp1872
sg24
(lp1873
g1
(g26
g3
NtRp1874
(dp1875
g29
g22
(S'0.0625'
tRp1876
sg31
I2048
sg32
I0
sg33
I71
sbag1
(g26
g3
NtRp1877
(dp1878
g29
g22
(S'0.25'
tRp1879
sg31
I2048
sg32
I1
sg33
I41
sbasg34
g22
(S'0.5'
tRp1880
sg36
g22
(S'0.5'
tRp1881
sbag1
(g13
g3
NtRp1882
(dp1883
g16
S'T(3)./mid\\invention3_1.mid'
p1884
sg18
S'Fm'
p1885
sg20
I1024
sg21
g22
(S'0.25'
tRp1886
sg24
(lp1887
g1
(g26
g3
NtRp1888
(dp1889
g29
g22
(S'0.25'
tRp1890
sg31
I2816
sg32
I0
sg33
I71
sbasg34
g22
(S'0.75'
tRp1891
sg36
g22
(S'2.75'
tRp1892
sbag1
(g13
g3
NtRp1893
(dp1894
g16
S'T(5)./mid\\invention3_3.mid'
p1895
sg18
S'C'
sg20
I1024
sg21
g22
(S'0.25'
tRp1896
sg24
(lp1897
g1
(g26
g3
NtRp1898
(dp1899
g29
g22
(S'0.25'
tRp1900
sg31
I3840
sg32
I1
sg33
I56
sbasg34
g22
(S'0.75'
tRp1901
sg36
g22
(S'3.75'
tRp1902
sbag1
(g13
g3
NtRp1903
(dp1904
g16
S'T(0)./mid\\invention1_3.mid'
p1905
sg18
S'C'
sg20
I4096
sg21
g22
(S'0.0625'
tRp1906
sg24
(lp1907
g1
(g26
g3
NtRp1908
(dp1909
g29
g22
(S'0.0625'
tRp1910
sg31
I2304
sg32
I0
sg33
I77
sbasg34
g22
(S'0.5625'
tRp1911
sg36
g22
(S'0.5625'
tRp1912
sbag1
(g13
g3
NtRp1913
(dp1914
g16
S'T(0)./mid\\invention1_1.mid'
p1915
sg18
S'C'
sg20
I4096
sg21
g22
(S'0.0625'
tRp1916
sg24
(lp1917
g1
(g26
g3
NtRp1918
(dp1919
g29
g22
(S'0.0625'
tRp1920
sg31
I1792
sg32
I0
sg33
I60
sbasg34
g22
(S'0.4375'
tRp1921
sg36
g22
(S'0.4375'
tRp1922
sbag1
(g13
g3
NtRp1923
(dp1924
g16
S'T(0)./mid\\invention1_4.mid'
p1925
sg18
S'Am'
p1926
sg20
I4096
sg21
g22
(S'0.0625'
tRp1927
sg24
(lp1928
g1
(g26
g3
NtRp1929
(dp1930
g29
g22
(S'0.0625'
tRp1931
sg31
I2816
sg32
I0
sg33
I67
sbasg34
g22
(S'0.6875'
tRp1932
sg36
g22
(S'0.6875'
tRp1933
sbag1
(g13
g3
NtRp1934
(dp1935
g16
S'T(-4)./mid\\invention13_6.mid'
p1936
sg18
S'Fm'
p1937
sg20
I4096
sg21
g22
(S'0.0625'
tRp1938
sg24
(lp1939
g1
(g26
g3
NtRp1940
(dp1941
g29
g22
(S'0.0625'
tRp1942
sg31
I1024
sg32
I0
sg33
I68
sbag1
(g26
g3
NtRp1943
(dp1944
g29
g22
(S'0.125'
tRp1945
sg31
I1024
sg32
I1
sg33
I48
sbasg34
g22
(S'0.25'
tRp1946
sg36
g22
(S'0.25'
tRp1947
sbag1
(g13
g3
NtRp1948
(dp1949
g16
S'T(0)./mid\\invention13_1.mid'
p1950
sg18
S'Am'
p1951
sg20
I4096
sg21
g22
(S'0.0625'
tRp1952
sg24
(lp1953
g1
(g26
g3
NtRp1954
(dp1955
g29
g22
(S'0.0625'
tRp1956
sg31
I256
sg32
I0
sg33
I64
sbasg34
g22
(S'0.0625'
tRp1957
sg36
g22
(S'0.0625'
tRp1958
sbag1
(g13
g3
NtRp1959
(dp1960
g16
S'T(-4)./mid\\invention4_6.mid'
p1961
sg18
S'A#/Bbm'
p1962
sg20
I1024
sg21
g22
(S'0.125'
tRp1963
sg24
(lp1964
g1
(g26
g3
NtRp1965
(dp1966
g29
g22
(S'0.13671875'
tRp1967
sg31
I384
sg32
I1
sg33
I49
sbasg34
g22
(S'0.375'
tRp1968
sg36
g22
(S'0.375'
tRp1969
sbag1
(g13
g3
NtRp1970
(dp1971
g16
S'T(5)./mid\\invention1_2.mid'
p1972
sg18
S'C'
sg20
I4096
sg21
g22
(S'0.03125'
tRp1973
sg24
(lp1974
g1
(g26
g3
NtRp1975
(dp1976
g29
g22
(S'0.03125'
tRp1977
sg31
I3072
sg32
I0
sg33
I82
sbag1
(g26
g3
NtRp1978
(dp1979
g29
g22
(S'0.0625'
tRp1980
sg31
I3072
sg32
I1
sg33
I65
sbasg34
g22
(S'0.75'
tRp1981
sg36
g22
(S'0.75'
tRp1982
sbag1
(g13
g3
NtRp1983
(dp1984
g16
S'T(0)./mid\\invention13_2.mid'
p1985
sg18
S'C'
sg20
I4096
sg21
g22
(S'0.0625'
tRp1986
sg24
(lp1987
g1
(g26
g3
NtRp1988
(dp1989
g29
g22
(S'0.0625'
tRp1990
sg31
I1024
sg32
I0
sg33
I74
sbag1
(g26
g3
NtRp1991
(dp1992
g29
g22
(S'0.125'
tRp1993
sg31
I1024
sg32
I1
sg33
I59
sbasg34
g22
(S'0.25'
tRp1994
sg36
g22
(S'0.25'
tRp1995
sbag1
(g13
g3
NtRp1996
(dp1997
g16
S'T(5)./mid\\invention13_4.mid'
p1998
sg18
S'Am'
p1999
sg20
I4096
sg21
g22
(S'0.0625'
tRp2000
sg24
(lp2001
g1
(g26
g3
NtRp2002
(dp2003
g29
g22
(S'0.0625'
tRp2004
sg31
I3840
sg32
I1
sg33
I60
sbasg34
g22
(S'0.9375'
tRp2005
sg36
g22
(S'0.9375'
tRp2006
sbag1
(g13
g3
NtRp2007
(dp2008
g16
S'T(-4)./mid\\invention13_6.mid'
p2009
sg18
S'C'
sg20
I4096
sg21
g22
(S'0.0625'
tRp2010
sg24
(lp2011
g1
(g26
g3
NtRp2012
(dp2013
g29
g22
(S'0.0625'
tRp2014
sg31
I5632
sg32
I0
sg33
I64
sbag1
(g26
g3
NtRp2015
(dp2016
g29
g22
(S'0.125'
tRp2017
sg31
I5632
sg32
I1
sg33
I49
sbasg34
g22
(S'0.375'
tRp2018
sg36
g22
(S'1.375'
tRp2019
sbag1
(g13
g3
NtRp2020
(dp2021
g16
S'T(0)./mid\\invention13_3.mid'
p2022
sg18
S'Am'
p2023
sg20
I4096
sg21
g22
(S'0.0625'
tRp2024
sg24
(lp2025
g1
(g26
g3
NtRp2026
(dp2027
g29
g22
(S'0.0625'
tRp2028
sg31
I256
sg32
I0
sg33
I81
sbasg34
g22
(S'0.0625'
tRp2029
sg36
g22
(S'0.0625'
tRp2030
sbag1
(g13
g3
NtRp2031
(dp2032
g16
S'T(5)./mid\\invention3_3.mid'
p2033
sg18
S'Em'
p2034
sg20
I1024
sg21
g22
(S'0.25'
tRp2035
sg24
(lp2036
g1
(g26
g3
NtRp2037
(dp2038
g29
g22
(S'0.25'
tRp2039
sg31
I2560
sg32
I0
sg33
I78
sbasg34
g22
(S'0.5'
tRp2040
sg36
g22
(S'2.5'
tRp2041
sbag1
(g13
g3
NtRp2042
(dp2043
g16
S'T(0)./mid\\invention1_4.mid'
p2044
sg18
S'Am'
p2045
sg20
I4096
sg21
g22
(S'0.0625'
tRp2046
sg24
(lp2047
g1
(g26
g3
NtRp2048
(dp2049
g29
g22
(S'0.0625'
tRp2050
sg31
I1024
sg32
I0
sg33
I69
sbag1
(g26
g3
NtRp2051
(dp2052
g29
g22
(S'0.125'
tRp2053
sg31
I1024
sg32
I1
sg33
I54
sbasg34
g22
(S'0.25'
tRp2054
sg36
g22
(S'0.25'
tRp2055
sbag1
(g13
g3
NtRp2056
(dp2057
g16
S'T(0)./mid\\invention4_4.mid'
p2058
sg18
S'C'
sg20
I1024
sg21
g22
(S'0.25'
tRp2059
sg24
(lp2060
g1
(g26
g3
NtRp2061
(dp2062
g29
g22
(S'0.25'
tRp2063
sg31
I1792
sg32
I0
sg33
I62
sbasg34
g22
(S'0.75'
tRp2064
sg36
g22
(S'1.75'
tRp2065
sbag1
(g13
g3
NtRp2066
(dp2067
g16
S'T(0)./mid\\invention13_2.mid'
p2068
sg18
S'C'
sg20
I4096
sg21
g22
(S'0.0625'
tRp2069
sg24
(lp2070
g1
(g26
g3
NtRp2071
(dp2072
g29
g22
(S'0.125'
tRp2073
sg31
I0
sg32
I1
sg33
I64
sbasg34
g22
(S'0'
tRp2074
sg36
g22
(S'0'
tRp2075
sbag1
(g13
g3
NtRp2076
(dp2077
g16
S'T(0)./mid\\invention1_3.mid'
p2078
sg18
S'C'
sg20
I4096
sg21
g22
(S'0.0625'
tRp2079
sg24
(lp2080
g1
(g26
g3
NtRp2081
(dp2082
g29
g22
(S'0.0625'
tRp2083
sg31
I1792
sg32
I0
sg33
I81
sbasg34
g22
(S'0.4375'
tRp2084
sg36
g22
(S'0.4375'
tRp2085
sbag1
(g13
g3
NtRp2086
(dp2087
g16
S'T(-4)./mid\\invention13_6.mid'
p2088
sg18
S'Fm'
p2089
sg20
I4096
sg21
g22
(S'0.0625'
tRp2090
sg24
(lp2091
g1
(g26
g3
NtRp2092
(dp2093
g29
g22
(S'0.0625'
tRp2094
sg31
I2560
sg32
I0
sg33
I65
sbasg34
g22
(S'0.625'
tRp2095
sg36
g22
(S'0.625'
tRp2096
sbag1
(g13
g3
NtRp2097
(dp2098
g16
S'T(-4)./mid\\invention13_6.mid'
p2099
sg18
S'C'
sg20
I4096
sg21
g22
(S'0.0625'
tRp2100
sg24
(lp2101
g1
(g26
g3
NtRp2102
(dp2103
g29
g22
(S'0.0625'
tRp2104
sg31
I6144
sg32
I0
sg33
I70
sbag1
(g26
g3
NtRp2105
(dp2106
g29
g22
(S'0.25'
tRp2107
sg31
I6144
sg32
I1
sg33
I40
sbasg34
g22
(S'0.5'
tRp2108
sg36
g22
(S'1.5'
tRp2109
sbag1
(g13
g3
NtRp2110
(dp2111
g16
S'T(3)./mid\\invention3_4.mid'
p2112
sg18
S'Fm'
p2113
sg20
I1024
sg21
g22
(S'0.25'
tRp2114
sg24
(lp2115
g1
(g26
g3
NtRp2116
(dp2117
g29
g22
(S'0.25'
tRp2118
sg31
I2560
sg32
I0
sg33
I74
sbasg34
g22
(S'0.5'
tRp2119
sg36
g22
(S'2.5'
tRp2120
sbag1
(g13
g3
NtRp2121
(dp2122
g16
S'T(0)./mid\\invention13_1.mid'
p2123
sg18
S'F'
sg20
I4096
sg21
g22
(S'0.0625'
tRp2124
sg24
(lp2125
g1
(g26
g3
NtRp2126
(dp2127
g29
g22
(S'0.125'
tRp2128
sg31
I8192
sg32
I1
sg33
I60
sbasg34
g22
(S'0'
tRp2129
sg36
g22
(S'2'
tRp2130
sbag1
(g13
g3
NtRp2131
(dp2132
g16
S'T(0)./mid\\invention13_1.mid'
p2133
sg18
S'G'
sg20
I4096
sg21
g22
(S'0.0625'
tRp2134
sg24
(lp2135
g1
(g26
g3
NtRp2136
(dp2137
g29
g22
(S'0.0625'
tRp2138
sg31
I14848
sg32
I1
sg33
I52
sbag1
(g26
g3
NtRp2139
(dp2140
g29
g22
(S'0.125'
tRp2141
sg31
I14848
sg32
I0
sg33
I67
sbasg34
g22
(S'0.625'
tRp2142
sg36
g22
(S'3.625'
tRp2143
sbag1
(g13
g3
NtRp2144
(dp2145
g16
S'T(0)./mid\\invention1_1.mid'
p2146
sg18
S'C'
sg20
I4096
sg21
g22
(S'0.0625'
tRp2147
sg24
(lp2148
g1
(g26
g3
NtRp2149
(dp2150
g29
g22
(S'0.0625'
tRp2151
sg31
I2560
sg32
I1
sg33
I50
sbag1
(g26
g3
NtRp2152
(dp2153
g29
g22
(S'0.125'
tRp2154
sg31
I2560
sg32
I0
sg33
I72
sbasg34
g22
(S'0.625'
tRp2155
sg36
g22
(S'0.625'
tRp2156
sbag1
(g13
g3
NtRp2157
(dp2158
g16
S'T(5)./mid\\invention13_5.mid'
p2159
sg18
S'D'
sg20
I4096
sg21
g22
(S'0.0625'
tRp2160
sg24
(lp2161
g1
(g26
g3
NtRp2162
(dp2163
g29
g22
(S'0.0625'
tRp2164
sg31
I2048
sg32
I0
sg33
I84
sbag1
(g26
g3
NtRp2165
(dp2166
g29
g22
(S'0.25'
tRp2167
sg31
I2048
sg32
I1
sg33
I54
sbasg34
g22
(S'0.5'
tRp2168
sg36
g22
(S'0.5'
tRp2169
sbag1
(g13
g3
NtRp2170
(dp2171
g16
S'T(-4)./mid\\invention4_6.mid'
p2172
sg18
S'C'
sg20
I1024
sg21
g22
(S'0.125'
tRp2173
sg24
(lp2174
g1
(g26
g3
NtRp2175
(dp2176
g29
g22
(S'0.13671875'
tRp2177
sg31
I1792
sg32
I1
sg33
I48
sbag1
(g26
g3
NtRp2178
(dp2179
g29
g22
(S'0.25'
tRp2180
sg31
I1792
sg32
I0
sg33
I62
sbasg34
g22
(S'0.75'
tRp2181
sg36
g22
(S'1.75'
tRp2182
sbag1
(g13
g3
NtRp2183
(dp2184
g16
S'T(5)./mid\\invention13_4.mid'
p2185
sg18
S'Am'
p2186
sg20
I4096
sg21
g22
(S'0.0625'
tRp2187
sg24
(lp2188
g1
(g26
g3
NtRp2189
(dp2190
g29
g22
(S'0.0625'
tRp2191
sg31
I1536
sg32
I0
sg33
I72
sbag1
(g26
g3
NtRp2192
(dp2193
g29
g22
(S'0.125'
tRp2194
sg31
I1536
sg32
I1
sg33
I71
sbasg34
g22
(S'0.375'
tRp2195
sg36
g22
(S'0.375'
tRp2196
sbag1
(g13
g3
NtRp2197
(dp2198
g16
S'T(0)./mid\\invention1_4.mid'
p2199
sg18
S'Am'
p2200
sg20
I4096
sg21
g22
(S'0.0625'
tRp2201
sg24
(lp2202
g1
(g26
g3
NtRp2203
(dp2204
g29
g22
(S'0.0625'
tRp2205
sg31
I3072
sg32
I0
sg33
I66
sbag1
(g26
g3
NtRp2206
(dp2207
g29
g22
(S'0.25'
tRp2208
sg31
I3072
sg32
I1
sg33
I60
sbasg34
g22
(S'0.75'
tRp2209
sg36
g22
(S'0.75'
tRp2210
sbag1
(g13
g3
NtRp2211
(dp2212
g16
S'T(3)./mid\\invention3_4.mid'
p2213
sg18
S'F'
sg20
I1024
sg21
g22
(S'0.25'
tRp2214
sg24
(lp2215
g1
(g26
g3
NtRp2216
(dp2217
g29
g22
(S'0.25'
tRp2218
sg31
I256
sg32
I0
sg33
I67
sbasg34
g22
(S'0.25'
tRp2219
sg36
g22
(S'0.25'
tRp2220
sbag1
(g13
g3
NtRp2221
(dp2222
g16
S'T(0)./mid\\invention1_3.mid'
p2223
sg18
S'C'
sg20
I4096
sg21
g22
(S'0.0625'
tRp2224
sg24
(lp2225
g1
(g26
g3
NtRp2226
(dp2227
g29
g22
(S'0.0625'
tRp2228
sg31
I1536
sg32
I0
sg33
I77
sbag1
(g26
g3
NtRp2229
(dp2230
g29
g22
(S'0.125'
tRp2231
sg31
I1536
sg32
I1
sg33
I62
sbasg34
g22
(S'0.375'
tRp2232
sg36
g22
(S'0.375'
tRp2233
sbag1
(g13
g3
NtRp2234
(dp2235
g16
S'T(5)./mid\\invention13_4.mid'
p2236
sg18
S'Am'
p2237
sg20
I4096
sg21
g22
(S'0.0625'
tRp2238
sg24
(lp2239
g1
(g26
g3
NtRp2240
(dp2241
g29
g22
(S'0.0625'
tRp2242
sg31
I2816
sg32
I1
sg33
I69
sbasg34
g22
(S'0.6875'
tRp2243
sg36
g22
(S'0.6875'
tRp2244
sbag1
(g13
g3
NtRp2245
(dp2246
g16
S'T(0)./mid\\invention13_2.mid'
p2247
sg18
S'C'
sg20
I4096
sg21
g22
(S'0.0625'
tRp2248
sg24
(lp2249
g1
(g26
g3
NtRp2250
(dp2251
g29
g22
(S'0.0625'
tRp2252
sg31
I5632
sg32
I0
sg33
I74
sbasg34
g22
(S'0.375'
tRp2253
sg36
g22
(S'1.375'
tRp2254
sbag1
(g13
g3
NtRp2255
(dp2256
g16
S'T(0)./mid\\invention13_2.mid'
p2257
sg18
S'C'
sg20
I4096
sg21
g22
(S'0.0625'
tRp2258
sg24
(lp2259
g1
(g26
g3
NtRp2260
(dp2261
g29
g22
(S'0.0625'
tRp2262
sg31
I6656
sg32
I1
sg33
I64
sbag1
(g26
g3
NtRp2263
(dp2264
g29
g22
(S'0.125'
tRp2265
sg31
I6656
sg32
I0
sg33
I72
sbasg34
g22
(S'0.625'
tRp2266
sg36
g22
(S'1.625'
tRp2267
sbag1
(g13
g3
NtRp2268
(dp2269
g16
S'T(-4)./mid\\invention4_6.mid'
p2270
sg18
S'C'
sg20
I1024
sg21
g22
(S'0.125'
tRp2271
sg24
(lp2272
g1
(g26
g3
NtRp2273
(dp2274
g29
g22
(S'0.13671875'
tRp2275
sg31
I1664
sg32
I1
sg33
I49
sbasg34
g22
(S'0.625'
tRp2276
sg36
g22
(S'1.625'
tRp2277
sbag1
(g13
g3
NtRp2278
(dp2279
g16
S'T(3)./mid\\invention3_1.mid'
p2280
sg18
S'C'
sg20
I1024
sg21
g22
(S'0.25'
tRp2281
sg24
(lp2282
g1
(g26
g3
NtRp2283
(dp2284
g29
g22
(S'0.25'
tRp2285
sg31
I1536
sg32
I0
sg33
I79
sbag1
(g26
g3
NtRp2286
(dp2287
g29
g22
(S'0.5'
tRp2288
sg31
I1536
sg32
I1
sg33
I60
sbasg34
g22
(S'0.5'
tRp2289
sg36
g22
(S'1.5'
tRp2290
sbag1
(g13
g3
NtRp2291
(dp2292
g16
S'T(5)./mid\\invention3_3.mid'
p2293
sg18
S'Em'
p2294
sg20
I1024
sg21
g22
(S'0.25'
tRp2295
sg24
(lp2296
g1
(g26
g3
NtRp2297
(dp2298
g29
g22
(S'0.25'
tRp2299
sg31
I256
sg32
I0
sg33
I71
sbasg34
g22
(S'0.25'
tRp2300
sg36
g22
(S'0.25'
tRp2301
sbag1
(g13
g3
NtRp2302
(dp2303
g16
S'T(0)./mid\\invention4_4.mid'
p2304
sg18
S'F'
sg20
I1024
sg21
g22
(S'0.25'
tRp2305
sg24
(lp2306
g1
(g26
g3
NtRp2307
(dp2308
g29
g22
(S'0.25'
tRp2309
sg31
I768
sg32
I1
sg33
I45
sbag1
(g26
g3
NtRp2310
(dp2311
g29
g22
(S'0.25'
tRp2312
sg31
I768
sg32
I0
sg33
I67
sbasg34
g22
(S'0.75'
tRp2313
sg36
g22
(S'0.75'
tRp2314
sbag1
(g13
g3
NtRp2315
(dp2316
g16
S'T(3)./mid\\invention4_1.mid'
p2317
sg18
S'C'
sg20
I1024
sg21
g22
(S'0.25'
tRp2318
sg24
(lp2319
g1
(g26
g3
NtRp2320
(dp2321
g29
g22
(S'0.25'
tRp2322
sg31
I1792
sg32
I0
sg33
I85
sbasg34
g22
(S'0.75'
tRp2323
sg36
g22
(S'1.75'
tRp2324
sbag1
(g13
g3
NtRp2325
(dp2326
g16
S'T(3)./mid\\invention3_1.mid'
p2327
sg18
S'C'
sg20
I1024
sg21
g22
(S'0.25'
tRp2328
sg24
(lp2329
g1
(g26
g3
NtRp2330
(dp2331
g29
g22
(S'0.25'
tRp2332
sg31
I0
sg32
I0
sg33
I79
sbag1
(g26
g3
NtRp2333
(dp2334
g29
g22
(S'0.5'
tRp2335
sg31
I0
sg32
I1
sg33
I60
sbasg34
g22
(S'0'
tRp2336
sg36
g22
(S'0'
tRp2337
sbag1
(g13
g3
NtRp2338
(dp2339
g16
S'T(3)./mid\\invention3_4.mid'
p2340
sg18
S'C'
sg20
I1024
sg21
g22
(S'0.25'
tRp2341
sg24
(lp2342
g1
(g26
g3
NtRp2343
(dp2344
g29
g22
(S'0.25'
tRp2345
sg31
I1792
sg32
I0
sg33
I74
sbasg34
g22
(S'0.75'
tRp2346
sg36
g22
(S'1.75'
tRp2347
sbag1
(g13
g3
NtRp2348
(dp2349
g16
S'T(3)./mid\\invention3_4.mid'
p2350
sg18
S'C'
sg20
I1024
sg21
g22
(S'0.25'
tRp2351
sg24
(lp2352
g1
(g26
g3
NtRp2353
(dp2354
g29
g22
(S'0.25'
tRp2355
sg31
I1536
sg32
I0
sg33
I76
sbasg34
g22
(S'0.5'
tRp2356
sg36
g22
(S'1.5'
tRp2357
sbag1
(g13
g3
NtRp2358
(dp2359
g16
S'T(0)./mid\\invention13_1.mid'
p2360
sg18
S'G'
sg20
I4096
sg21
g22
(S'0.0625'
tRp2361
sg24
(lp2362
g1
(g26
g3
NtRp2363
(dp2364
g29
g22
(S'0.125'
tRp2365
sg31
I12288
sg32
I1
sg33
I47
sbasg34
g22
(S'0'
tRp2366
sg36
g22
(S'3'
tRp2367
sbag1
(g13
g3
NtRp2368
(dp2369
g16
S'T(5)./mid\\invention3_3.mid'
p2370
sg18
S'C'
sg20
I1024
sg21
g22
(S'0.25'
tRp2371
sg24
(lp2372
g1
(g26
g3
NtRp2373
(dp2374
g29
g22
(S'0.25'
tRp2375
sg31
I3328
sg32
I1
sg33
I52
sbasg34
g22
(S'0.25'
tRp2376
sg36
g22
(S'3.25'
tRp2377
sbag1
(g13
g3
NtRp2378
(dp2379
g16
S'T(0)./mid\\invention13_2.mid'
p2380
sg18
S'C'
sg20
I4096
sg21
g22
(S'0.0625'
tRp2381
sg24
(lp2382
g1
(g26
g3
NtRp2383
(dp2384
g29
g22
(S'0.0625'
tRp2385
sg31
I7936
sg32
I1
sg33
I59
sbasg34
g22
(S'0.9375'
tRp2386
sg36
g22
(S'1.9375'
tRp2387
sbag1
(g13
g3
NtRp2388
(dp2389
g16
S'T(-5)./mid\\invention4_2.mid'
p2390
sg18
S'Dm'
p2391
sg20
I1024
sg21
g22
(S'0.25'
tRp2392
sg24
(lp2393
g1
(g26
g3
NtRp2394
(dp2395
g29
g22
(S'0.25'
tRp2396
sg31
I2816
sg32
I0
sg33
I69
sbasg34
g22
(S'0.75'
tRp2397
sg36
g22
(S'2.75'
tRp2398
sbag1
(g13
g3
NtRp2399
(dp2400
g16
S'T(5)./mid\\invention13_5.mid'
p2401
sg18
S'D'
sg20
I4096
sg21
g22
(S'0.0625'
tRp2402
sg24
(lp2403
g1
(g26
g3
NtRp2404
(dp2405
g29
g22
(S'0.0625'
tRp2406
sg31
I1280
sg32
I0
sg33
I84
sbasg34
g22
(S'0.3125'
tRp2407
sg36
g22
(S'0.3125'
tRp2408
sbag1
(g13
g3
NtRp2409
(dp2410
g16
S'T(-4)./mid\\invention4_6.mid'
p2411
sg18
S'C'
sg20
I1024
sg21
g22
(S'0.125'
tRp2412
sg24
(lp2413
g1
(g26
g3
NtRp2414
(dp2415
g29
g22
(S'0.13671875'
tRp2416
sg31
I1920
sg32
I1
sg33
I49
sbasg34
g22
(S'0.875'
tRp2417
sg36
g22
(S'1.875'
tRp2418
sbag1
(g13
g3
NtRp2419
(dp2420
g16
S'T(3)./mid\\invention3_4.mid'
p2421
sg18
S'Am'
p2422
sg20
I1024
sg21
g22
(S'0.25'
tRp2423
sg24
(lp2424
g1
(g26
g3
NtRp2425
(dp2426
g29
g22
(S'3'
tRp2427
sg31
I3072
sg32
I0
sg33
I81
sbasg34
g22
(S'0'
tRp2428
sg36
g22
(S'3'
tRp2429
sbag1
(g13
g3
NtRp2430
(dp2431
g16
S'T(5)./mid\\invention13_5.mid'
p2432
sg18
S'Gm'
p2433
sg20
I4096
sg21
g22
(S'0.0625'
tRp2434
sg24
(lp2435
g1
(g26
g3
NtRp2436
(dp2437
g29
g22
(S'0.0625'
tRp2438
sg31
I6912
sg32
I0
sg33
I79
sbasg34
g22
(S'0.6875'
tRp2439
sg36
g22
(S'1.6875'
tRp2440
sbag1
(g13
g3
NtRp2441
(dp2442
g16
S'T(5)./mid\\invention1_2.mid'
p2443
sg18
S'C'
sg20
I4096
sg21
g22
(S'0.0625'
tRp2444
sg24
(lp2445
g1
(g26
g3
NtRp2446
(dp2447
g29
g22
(S'0.125'
tRp2448
sg31
I2048
sg32
I0
sg33
I79
sbasg34
g22
(S'0.5'
tRp2449
sg36
g22
(S'0.5'
tRp2450
sbag1
(g13
g3
NtRp2451
(dp2452
g16
S'T(5)./mid\\invention13_4.mid'
p2453
sg18
S'Am'
p2454
sg20
I4096
sg21
g22
(S'0.0625'
tRp2455
sg24
(lp2456
g1
(g26
g3
NtRp2457
(dp2458
g29
g22
(S'0.0625'
tRp2459
sg31
I2048
sg32
I1
sg33
I69
sbag1
(g26
g3
NtRp2460
(dp2461
g29
g22
(S'0.125'
tRp2462
sg31
I2048
sg32
I0
sg33
I77
sbasg34
g22
(S'0.5'
tRp2463
sg36
g22
(S'0.5'
tRp2464
sbag1
(g13
g3
NtRp2465
(dp2466
g16
S'T(5)./mid\\invention3_3.mid'
p2467
sg18
S'C'
sg20
I1024
sg21
g22
(S'0.25'
tRp2468
sg24
(lp2469
g1
(g26
g3
NtRp2470
(dp2471
g29
g22
(S'0.25'
tRp2472
sg31
I1280
sg32
I0
sg33
I78
sbasg34
g22
(S'0.25'
tRp2473
sg36
g22
(S'1.25'
tRp2474
sbag1
(g13
g3
NtRp2475
(dp2476
g16
S'T(5)./mid\\invention1_2.mid'
p2477
sg18
S'C'
sg20
I4096
sg21
g22
(S'0.0625'
tRp2478
sg24
(lp2479
g1
(g26
g3
NtRp2480
(dp2481
g29
g22
(S'0.0625'
tRp2482
sg31
I1024
sg32
I0
sg33
I77
sbasg34
g22
(S'0.25'
tRp2483
sg36
g22
(S'0.25'
tRp2484
sbag1
(g13
g3
NtRp2485
(dp2486
g16
S'T(0)./mid\\invention1_3.mid'
p2487
sg18
S'C'
sg20
I4096
sg21
g22
(S'0.0625'
tRp2488
sg24
(lp2489
g1
(g26
g3
NtRp2490
(dp2491
g29
g22
(S'0.0625'
tRp2492
sg31
I2048
sg32
I0
sg33
I79
sbag1
(g26
g3
NtRp2493
(dp2494
g29
g22
(S'0.125'
tRp2495
sg31
I2048
sg32
I1
sg33
I64
sbasg34
g22
(S'0.5'
tRp2496
sg36
g22
(S'0.5'
tRp2497
sbag1
(g13
g3
NtRp2498
(dp2499
g16
S'T(5)./mid\\invention3_3.mid'
p2500
sg18
S'Em'
p2501
sg20
I1024
sg21
g22
(S'0.25'
tRp2502
sg24
(lp2503
g1
(g26
g3
NtRp2504
(dp2505
g29
g22
(S'0.25'
tRp2506
sg31
I0
sg32
I0
sg33
I76
sbag1
(g26
g3
NtRp2507
(dp2508
g29
g22
(S'0.5'
tRp2509
sg31
I0
sg32
I1
sg33
I64
sbasg34
g22
(S'0'
tRp2510
sg36
g22
(S'0'
tRp2511
sbag1
(g13
g3
NtRp2512
(dp2513
g16
S'T(5)./mid\\invention13_4.mid'
p2514
sg18
S'Am'
p2515
sg20
I4096
sg21
g22
(S'0.0625'
tRp2516
sg24
(lp2517
g1
(g26
g3
NtRp2518
(dp2519
g29
g22
(S'0.0625'
tRp2520
sg31
I1792
sg32
I0
sg33
I76
sbasg34
g22
(S'0.4375'
tRp2521
sg36
g22
(S'0.4375'
tRp2522
sbag1
(g13
g3
NtRp2523
(dp2524
g16
S'T(0)./mid\\invention13_2.mid'
p2525
sg18
S'Em'
p2526
sg20
I4096
sg21
g22
(S'0.0625'
tRp2527
sg24
(lp2528
g1
(g26
g3
NtRp2529
(dp2530
g29
g22
(S'0.0625'
tRp2531
sg31
I13568
sg32
I0
sg33
I74
sbasg34
g22
(S'0.3125'
tRp2532
sg36
g22
(S'3.3125'
tRp2533
sbag1
(g13
g3
NtRp2534
(dp2535
g16
S'T(0)./mid\\invention1_1.mid'
p2536
sg18
S'C'
sg20
I4096
sg21
g22
(S'0.0625'
tRp2537
sg24
(lp2538
g1
(g26
g3
NtRp2539
(dp2540
g29
g22
(S'0.0625'
tRp2541
sg31
I2304
sg32
I1
sg33
I48
sbasg34
g22
(S'0.5625'
tRp2542
sg36
g22
(S'0.5625'
tRp2543
sbag1
(g13
g3
NtRp2544
(dp2545
g16
S'T(0)./mid\\invention13_2.mid'
p2546
sg18
S'C'
sg20
I4096
sg21
g22
(S'0.0625'
tRp2547
sg24
(lp2548
g1
(g26
g3
NtRp2549
(dp2550
g29
g22
(S'0.125'
tRp2551
sg31
I6144
sg32
I0
sg33
I76
sbasg34
g22
(S'0.5'
tRp2552
sg36
g22
(S'1.5'
tRp2553
sbag1
(g13
g3
NtRp2554
(dp2555
g16
S'T(3)./mid\\invention3_4.mid'
p2556
sg18
S'F'
sg20
I1024
sg21
g22
(S'0.25'
tRp2557
sg24
(lp2558
g1
(g26
g3
NtRp2559
(dp2560
g29
g22
(S'0.25'
tRp2561
sg31
I512
sg32
I0
sg33
I69
sbasg34
g22
(S'0.5'
tRp2562
sg36
g22
(S'0.5'
tRp2563
sbag1
(g13
g3
NtRp2564
(dp2565
g16
S'T(-4)./mid\\invention13_6.mid'
p2566
sg18
S'C'
sg20
I4096
sg21
g22
(S'0.0625'
tRp2567
sg24
(lp2568
g1
(g26
g3
NtRp2569
(dp2570
g29
g22
(S'0.0625'
tRp2571
sg31
I4352
sg32
I0
sg33
I70
sbasg34
g22
(S'0.0625'
tRp2572
sg36
g22
(S'1.0625'
tRp2573
sbag1
(g13
g3
NtRp2574
(dp2575
g16
S'T(0)./mid\\invention1_1.mid'
p2576
sg18
S'C'
sg20
I4096
sg21
g22
(S'0.0625'
tRp2577
sg24
(lp2578
g1
(g26
g3
NtRp2579
(dp2580
g29
g22
(S'0.0625'
tRp2581
sg31
I3584
sg32
I1
sg33
I52
sbag1
(g26
g3
NtRp2582
(dp2583
g29
g22
(S'0.125'
tRp2584
sg31
I3584
sg32
I0
sg33
I72
sbasg34
g22
(S'0.875'
tRp2585
sg36
g22
(S'0.875'
tRp2586
sbag1
(g13
g3
NtRp2587
(dp2588
g16
S'T(0)./mid\\invention4_3.mid'
p2589
sg18
S'Em'
p2590
sg20
I1024
sg21
g22
(S'0.25'
tRp2591
sg24
(lp2592
g1
(g26
g3
NtRp2593
(dp2594
g29
g22
(S'0.25'
tRp2595
sg31
I1024
sg32
I0
sg33
I77
sbag1
(g26
g3
NtRp2596
(dp2597
g29
g22
(S'0.5'
tRp2598
sg31
I1024
sg32
I1
sg33
I52
sbasg34
g22
(S'0'
tRp2599
sg36
g22
(S'1'
tRp2600
sbag1
(g13
g3
NtRp2601
(dp2602
g16
S'T(5)./mid\\invention13_5.mid'
p2603
sg18
S'Gm'
p2604
sg20
I4096
sg21
g22
(S'0.0625'
tRp2605
sg24
(lp2606
g1
(g26
g3
NtRp2607
(dp2608
g29
g22
(S'0.1875'
tRp2609
sg31
I4352
sg32
I0
sg33
I82
sbasg34
g22
(S'0.0625'
tRp2610
sg36
g22
(S'1.0625'
tRp2611
sbag1
(g13
g3
NtRp2612
(dp2613
g16
S'T(3)./mid\\invention3_4.mid'
p2614
sg18
S'F'
sg20
I1024
sg21
g22
(S'0.25'
tRp2615
sg24
(lp2616
g1
(g26
g3
NtRp2617
(dp2618
g29
g22
(S'0.2080078125'
tRp2619
sg31
I0
sg32
I0
sg33
I82
sbag1
(g26
g3
NtRp2620
(dp2621
g29
g22
(S'3.2080078125'
tRp2622
sg31
I0
sg32
I1
sg33
I60
sbasg34
g22
(S'0'
tRp2623
sg36
g22
(S'0'
tRp2624
sbag1
(g13
g3
NtRp2625
(dp2626
g16
S'T(0)./mid\\invention13_3.mid'
p2627
sg18
S'Am'
p2628
sg20
I4096
sg21
g22
(S'0.0625'
tRp2629
sg24
(lp2630
g1
(g26
g3
NtRp2631
(dp2632
g29
g22
(S'0.0625'
tRp2633
sg31
I3072
sg32
I1
sg33
I57
sbag1
(g26
g3
NtRp2634
(dp2635
g29
g22
(S'0.125'
tRp2636
sg31
I3072
sg32
I0
sg33
I81
sbasg34
g22
(S'0.75'
tRp2637
sg36
g22
(S'0.75'
tRp2638
sbag1
(g13
g3
NtRp2639
(dp2640
g16
S'T(0)./mid\\invention1_3.mid'
p2641
sg18
S'C'
sg20
I4096
sg21
g22
(S'0.0625'
tRp2642
sg24
(lp2643
g1
(g26
g3
NtRp2644
(dp2645
g29
g22
(S'0.0625'
tRp2646
sg31
I0
sg32
I0
sg33
I76
sbag1
(g26
g3
NtRp2647
(dp2648
g29
g22
(S'0.125'
tRp2649
sg31
I0
sg32
I1
sg33
I60
sbasg34
g22
(S'0'
tRp2650
sg36
g22
(S'0'
tRp2651
sbag1
(g13
g3
NtRp2652
(dp2653
g16
S'T(5)./mid\\invention1_2.mid'
p2654
sg18
S'C'
sg20
I4096
sg21
g22
(S'0.0625'
tRp2655
sg24
(lp2656
g1
(g26
g3
NtRp2657
(dp2658
g29
g22
(S'0.0625'
tRp2659
sg31
I768
sg32
I0
sg33
I76
sbasg34
g22
(S'0.1875'
tRp2660
sg36
g22
(S'0.1875'
tRp2661
sbag1
(g13
g3
NtRp2662
(dp2663
g16
S'T(-4)./mid\\invention4_6.mid'
p2664
sg18
S'C'
sg20
I1024
sg21
g22
(S'0.125'
tRp2665
sg24
(lp2666
g1
(g26
g3
NtRp2667
(dp2668
g29
g22
(S'0.13671875'
tRp2669
sg31
I2304
sg32
I1
sg33
I48
sbag1
(g26
g3
NtRp2670
(dp2671
g29
g22
(S'0.25'
tRp2672
sg31
I2304
sg32
I0
sg33
I65
sbasg34
g22
(S'0.25'
tRp2673
sg36
g22
(S'2.25'
tRp2674
sbag1
(g13
g3
NtRp2675
(dp2676
g16
S'T(5)./mid\\invention13_4.mid'
p2677
sg18
S'Am'
p2678
sg20
I4096
sg21
g22
(S'0.0625'
tRp2679
sg24
(lp2680
g1
(g26
g3
NtRp2681
(dp2682
g29
g22
(S'0.0625'
tRp2683
sg31
I3328
sg32
I1
sg33
I65
sbasg34
g22
(S'0.8125'
tRp2684
sg36
g22
(S'0.8125'
tRp2685
sbag1
(g13
g3
NtRp2686
(dp2687
g16
S'T(5)./mid\\invention1_2.mid'
p2688
sg18
S'C'
sg20
I4096
sg21
g22
(S'0.0625'
tRp2689
sg24
(lp2690
g1
(g26
g3
NtRp2691
(dp2692
g29
g22
(S'0.0625'
tRp2693
sg31
I3840
sg32
I1
sg33
I60
sbasg34
g22
(S'0.9375'
tRp2694
sg36
g22
(S'0.9375'
tRp2695
sbag1
(g13
g3
NtRp2696
(dp2697
g16
S'T(0)./mid\\invention13_1.mid'
p2698
sg18
S'F'
sg20
I4096
sg21
g22
(S'0.0625'
tRp2699
sg24
(lp2700
g1
(g26
g3
NtRp2701
(dp2702
g29
g22
(S'0.0625'
tRp2703
sg31
I8704
sg32
I0
sg33
I72
sbag1
(g26
g3
NtRp2704
(dp2705
g29
g22
(S'0.125'
tRp2706
sg31
I8704
sg32
I1
sg33
I57
sbasg34
g22
(S'0.125'
tRp2707
sg36
g22
(S'2.125'
tRp2708
sbag1
(g13
g3
NtRp2709
(dp2710
g16
S'T(0)./mid\\invention4_4.mid'
p2711
sg18
S'C'
sg20
I1024
sg21
g22
(S'0.25'
tRp2712
sg24
(lp2713
g1
(g26
g3
NtRp2714
(dp2715
g29
g22
(S'0.25'
tRp2716
sg31
I1280
sg32
I1
sg33
I48
sbag1
(g26
g3
NtRp2717
(dp2718
g29
g22
(S'0.25'
tRp2719
sg31
I1280
sg32
I0
sg33
I64
sbasg34
g22
(S'0.25'
tRp2720
sg36
g22
(S'1.25'
tRp2721
sbag1
(g13
g3
NtRp2722
(dp2723
g16
S'T(5)./mid\\invention13_5.mid'
p2724
sg18
S'D'
sg20
I4096
sg21
g22
(S'0.0625'
tRp2725
sg24
(lp2726
g1
(g26
g3
NtRp2727
(dp2728
g29
g22
(S'0.0625'
tRp2729
sg31
I2816
sg32
I0
sg33
I81
sbasg34
g22
(S'0.6875'
tRp2730
sg36
g22
(S'0.6875'
tRp2731
sbag1
(g13
g3
NtRp2732
(dp2733
g16
S'T(0)./mid\\invention13_1.mid'
p2734
sg18
S'F'
sg20
I4096
sg21
g22
(S'0.0625'
tRp2735
sg24
(lp2736
g1
(g26
g3
NtRp2737
(dp2738
g29
g22
(S'0.0625'
tRp2739
sg31
I11264
sg32
I1
sg33
I50
sbag1
(g26
g3
NtRp2740
(dp2741
g29
g22
(S'0.125'
tRp2742
sg31
I11264
sg32
I0
sg33
I74
sbasg34
g22
(S'0.75'
tRp2743
sg36
g22
(S'2.75'
tRp2744
sbag1
(g13
g3
NtRp2745
(dp2746
g16
S'T(0)./mid\\invention13_1.mid'
p2747
sg18
S'F'
sg20
I4096
sg21
g22
(S'0.0625'
tRp2748
sg24
(lp2749
g1
(g26
g3
NtRp2750
(dp2751
g29
g22
(S'0.0625'
tRp2752
sg31
I12032
sg32
I1
sg33
I48
sbasg34
g22
(S'0.9375'
tRp2753
sg36
g22
(S'2.9375'
tRp2754
sbag1
(g13
g3
NtRp2755
(dp2756
g16
S'T(0)./mid\\invention13_1.mid'
p2757
sg18
S'Am'
p2758
sg20
I4096
sg21
g22
(S'0.0625'
tRp2759
sg24
(lp2760
g1
(g26
g3
NtRp2761
(dp2762
g29
g22
(S'0.0625'
tRp2763
sg31
I1536
sg32
I0
sg33
I71
sbag1
(g26
g3
NtRp2764
(dp2765
g29
g22
(S'0.125'
tRp2766
sg31
I1536
sg32
I1
sg33
I56
sbasg34
g22
(S'0.375'
tRp2767
sg36
g22
(S'0.375'
tRp2768
sbag1
(g13
g3
NtRp2769
(dp2770
g16
S'T(3)./mid\\invention4_1.mid'
p2771
sg18
S'C'
sg20
I1024
sg21
g22
(S'0.25'
tRp2772
sg24
(lp2773
g1
(g26
g3
NtRp2774
(dp2775
g29
g22
(S'0.25'
tRp2776
sg31
I1536
sg32
I0
sg33
I76
sbag1
(g26
g3
NtRp2777
(dp2778
g29
g22
(S'0.5'
tRp2779
sg31
I1536
sg32
I1
sg33
I55
sbasg34
g22
(S'0.5'
tRp2780
sg36
g22
(S'1.5'
tRp2781
sbag1
(g13
g3
NtRp2782
(dp2783
g16
S'T(2)./mid\\invention4_5.mid'
p2784
sg18
S'D'
sg20
I1024
sg21
g22
(S'0.25'
tRp2785
sg24
(lp2786
g1
(g26
g3
NtRp2787
(dp2788
g29
g22
(S'0.25'
tRp2789
sg31
I2048
sg32
I0
sg33
I64
sbasg34
g22
(S'0'
tRp2790
sg36
g22
(S'2'
tRp2791
sbag1
(g13
g3
NtRp2792
(dp2793
g16
S'T(0)./mid\\invention13_3.mid'
p2794
sg18
S'Am'
p2795
sg20
I4096
sg21
g22
(S'0.0625'
tRp2796
sg24
(lp2797
g1
(g26
g3
NtRp2798
(dp2799
g29
g22
(S'0.0625'
tRp2800
sg31
I2816
sg32
I1
sg33
I66
sbasg34
g22
(S'0.6875'
tRp2801
sg36
g22
(S'0.6875'
tRp2802
sbag1
(g13
g3
NtRp2803
(dp2804
g16
S'T(0)./mid\\invention13_1.mid'
p2805
sg18
S'G'
sg20
I4096
sg21
g22
(S'0.0625'
tRp2806
sg24
(lp2807
g1
(g26
g3
NtRp2808
(dp2809
g29
g22
(S'0.0625'
tRp2810
sg31
I15616
sg32
I1
sg33
I52
sbasg34
g22
(S'0.8125'
tRp2811
sg36
g22
(S'3.8125'
tRp2812
sbag1
(g13
g3
NtRp2813
(dp2814
g16
S'T(-4)./mid\\invention13_6.mid'
p2815
sg18
S'C'
sg20
I4096
sg21
g22
(S'0.0625'
tRp2816
sg24
(lp2817
g1
(g26
g3
NtRp2818
(dp2819
g29
g22
(S'0.0625'
tRp2820
sg31
I6656
sg32
I0
sg33
I64
sbasg34
g22
(S'0.625'
tRp2821
sg36
g22
(S'1.625'
tRp2822
sbag1
(g13
g3
NtRp2823
(dp2824
g16
S'T(0)./mid\\invention4_3.mid'
p2825
sg18
S'Dm'
p2826
sg20
I1024
sg21
g22
(S'0.25'
tRp2827
sg24
(lp2828
g1
(g26
g3
NtRp2829
(dp2830
g29
g22
(S'0.25'
tRp2831
sg31
I2816
sg32
I0
sg33
I72
sbasg34
g22
(S'0.75'
tRp2832
sg36
g22
(S'2.75'
tRp2833
sbag1
(g13
g3
NtRp2834
(dp2835
g16
S'T(-4)./mid\\invention4_6.mid'
p2836
sg18
S'A#/Bbm'
p2837
sg20
I1024
sg21
g22
(S'0.125'
tRp2838
sg24
(lp2839
g1
(g26
g3
NtRp2840
(dp2841
g29
g22
(S'0.13671875'
tRp2842
sg31
I640
sg32
I1
sg33
I49
sbasg34
g22
(S'0.625'
tRp2843
sg36
g22
(S'0.625'
tRp2844
sbag1
(g13
g3
NtRp2845
(dp2846
g16
S'T(0)./mid\\invention13_2.mid'
p2847
sg18
S'C'
sg20
I4096
sg21
g22
(S'0.0625'
tRp2848
sg24
(lp2849
g1
(g26
g3
NtRp2850
(dp2851
g29
g22
(S'0.0625'
tRp2852
sg31
I3072
sg32
I1
sg33
I62
sbag1
(g26
g3
NtRp2853
(dp2854
g29
g22
(S'0.125'
tRp2855
sg31
I3072
sg32
I0
sg33
I71
sbasg34
g22
(S'0.75'
tRp2856
sg36
g22
(S'0.75'
tRp2857
sbag1
(g13
g3
NtRp2858
(dp2859
g16
S'T(3)./mid\\invention3_4.mid'
p2860
sg18
S'Fm'
p2861
sg20
I1024
sg21
g22
(S'0.25'
tRp2862
sg24
(lp2863
g1
(g26
g3
NtRp2864
(dp2865
g29
g22
(S'0.25'
tRp2866
sg31
I2816
sg32
I0
sg33
I72
sbasg34
g22
(S'0.75'
tRp2867
sg36
g22
(S'2.75'
tRp2868
sbag1
(g13
g3
NtRp2869
(dp2870
g16
S'T(0)./mid\\invention13_1.mid'
p2871
sg18
S'F'
sg20
I4096
sg21
g22
(S'0.0625'
tRp2872
sg24
(lp2873
g1
(g26
g3
NtRp2874
(dp2875
g29
g22
(S'0.0625'
tRp2876
sg31
I10496
sg32
I1
sg33
I57
sbasg34
g22
(S'0.5625'
tRp2877
sg36
g22
(S'2.5625'
tRp2878
sbag1
(g13
g3
NtRp2879
(dp2880
g16
S'T(5)./mid\\invention3_3.mid'
p2881
sg18
S'C'
sg20
I1024
sg21
g22
(S'0.25'
tRp2882
sg24
(lp2883
g1
(g26
g3
NtRp2884
(dp2885
g29
g22
(S'0.25'
tRp2886
sg31
I1792
sg32
I0
sg33
I78
sbasg34
g22
(S'0.75'
tRp2887
sg36
g22
(S'1.75'
tRp2888
sbag1
(g13
g3
NtRp2889
(dp2890
g16
S'T(-4)./mid\\invention13_6.mid'
p2891
sg18
S'C'
sg20
I4096
sg21
g22
(S'0.0625'
tRp2892
sg24
(lp2893
g1
(g26
g3
NtRp2894
(dp2895
g29
g22
(S'0.0625'
tRp2896
sg31
I7936
sg32
I1
sg33
I55
sbasg34
g22
(S'0.9375'
tRp2897
sg36
g22
(S'1.9375'
tRp2898
sbag1
(g13
g3
NtRp2899
(dp2900
g16
S'T(5)./mid\\invention13_5.mid'
p2901
sg18
S'D'
sg20
I4096
sg21
g22
(S'0.0625'
tRp2902
sg24
(lp2903
g1
(g26
g3
NtRp2904
(dp2905
g29
g22
(S'0.125'
tRp2906
sg31
I0
sg32
I1
sg33
I45
sbasg34
g22
(S'0'
tRp2907
sg36
g22
(S'0'
tRp2908
sbag1
(g13
g3
NtRp2909
(dp2910
g16
S'T(5)./mid\\invention13_5.mid'
p2911
sg18
S'Gm'
p2912
sg20
I4096
sg21
g22
(S'0.0625'
tRp2913
sg24
(lp2914
g1
(g26
g3
NtRp2915
(dp2916
g29
g22
(S'0.0625'
tRp2917
sg31
I6400
sg32
I0
sg33
I79
sbasg34
g22
(S'0.5625'
tRp2918
sg36
g22
(S'1.5625'
tRp2919
sbag1
(g13
g3
NtRp2920
(dp2921
g16
S'T(-4)./mid\\invention4_6.mid'
p2922
sg18
S'C'
sg20
I1024
sg21
g22
(S'0.125'
tRp2923
sg24
(lp2924
g1
(g26
g3
NtRp2925
(dp2926
g29
g22
(S'0.13671875'
tRp2927
sg31
I1024
sg32
I1
sg33
I48
sbag1
(g26
g3
NtRp2928
(dp2929
g29
g22
(S'0.25'
tRp2930
sg31
I1024
sg32
I0
sg33
I64
sbasg34
g22
(S'0'
tRp2931
sg36
g22
(S'1'
tRp2932
sbag1
(g13
g3
NtRp2933
(dp2934
g16
S'T(0)./mid\\invention1_3.mid'
p2935
sg18
S'C'
sg20
I4096
sg21
g22
(S'0.0625'
tRp2936
sg24
(lp2937
g1
(g26
g3
NtRp2938
(dp2939
g29
g22
(S'0.0625'
tRp2940
sg31
I256
sg32
I0
sg33
I81
sbasg34
g22
(S'0.0625'
tRp2941
sg36
g22
(S'0.0625'
tRp2942
sbag1
(g13
g3
NtRp2943
(dp2944
g16
S'T(-5)./mid\\invention4_2.mid'
p2945
sg18
g1275
sg20
I1024
sg21
g22
(S'0.25'
tRp2946
sg24
(lp2947
g1
(g26
g3
NtRp2948
(dp2949
g29
g22
(S'0.25'
tRp2950
sg31
I1536
sg32
I0
sg33
I65
sbag1
(g26
g3
NtRp2951
(dp2952
g29
g22
(S'0.5'
tRp2953
sg31
I1536
sg32
I1
sg33
I50
sbasg34
g22
(S'0.5'
tRp2954
sg36
g22
(S'1.5'
tRp2955
sbag1
(g13
g3
NtRp2956
(dp2957
g16
S'T(0)./mid\\invention13_2.mid'
p2958
sg18
S'C'
sg20
I4096
sg21
g22
(S'0.0625'
tRp2959
sg24
(lp2960
g1
(g26
g3
NtRp2961
(dp2962
g29
g22
(S'0.0625'
tRp2963
sg31
I512
sg32
I0
sg33
I72
sbag1
(g26
g3
NtRp2964
(dp2965
g29
g22
(S'0.125'
tRp2966
sg31
I512
sg32
I1
sg33
I60
sbasg34
g22
(S'0.125'
tRp2967
sg36
g22
(S'0.125'
tRp2968
sbag1
(g13
g3
NtRp2969
(dp2970
g16
S'T(5)./mid\\invention1_2.mid'
p2971
sg18
S'C'
sg20
I4096
sg21
g22
(S'0.0625'
tRp2972
sg24
(lp2973
g1
(g26
g3
NtRp2974
(dp2975
g29
g22
(S'0.0625'
tRp2976
sg31
I3584
sg32
I1
sg33
I64
sbag1
(g26
g3
NtRp2977
(dp2978
g29
g22
(S'0.125'
tRp2979
sg31
I3584
sg32
I0
sg33
I84
sbasg34
g22
(S'0.875'
tRp2980
sg36
g22
(S'0.875'
tRp2981
sbag1
(g13
g3
NtRp2982
(dp2983
g16
S'T(3)./mid\\invention3_1.mid'
p2984
sg18
S'C'
sg20
I1024
sg21
g22
(S'0.25'
tRp2985
sg24
(lp2986
g1
(g26
g3
NtRp2987
(dp2988
g29
g22
(S'0.25'
tRp2989
sg31
I1280
sg32
I0
sg33
I74
sbasg34
g22
(S'0.25'
tRp2990
sg36
g22
(S'1.25'
tRp2991
sbag1
(g13
g3
NtRp2992
(dp2993
g16
S'T(0)./mid\\invention1_4.mid'
p2994
sg18
S'Am'
p2995
sg20
I4096
sg21
g22
(S'0.0625'
tRp2996
sg24
(lp2997
g1
(g26
g3
NtRp2998
(dp2999
g29
g22
(S'0.0625'
tRp3000
sg31
I2560
sg32
I0
sg33
I69
sbag1
(g26
g3
NtRp3001
(dp3002
g29
g22
(S'0.125'
tRp3003
sg31
I2560
sg32
I1
sg33
I59
sbasg34
g22
(S'0.625'
tRp3004
sg36
g22
(S'0.625'
tRp3005
sbag1
(g13
g3
NtRp3006
(dp3007
g16
S'T(-4)./mid\\invention4_6.mid'
p3008
sg18
S'A#/Bbm'
p3009
sg20
I1024
sg21
g22
(S'0.125'
tRp3010
sg24
(lp3011
g1
(g26
g3
NtRp3012
(dp3013
g29
g22
(S'0.13671875'
tRp3014
sg31
I896
sg32
I1
sg33
I49
sbasg34
g22
(S'0.875'
tRp3015
sg36
g22
(S'0.875'
tRp3016
sbag1
(g13
g3
NtRp3017
(dp3018
g16
S'T(0)./mid\\invention13_1.mid'
p3019
sg18
S'Am'
p3020
sg20
I4096
sg21
g22
(S'0.0625'
tRp3021
sg24
(lp3022
g1
(g26
g3
NtRp3023
(dp3024
g29
g22
(S'0.0625'
tRp3025
sg31
I3584
sg32
I1
sg33
I59
sbag1
(g26
g3
NtRp3026
(dp3027
g29
g22
(S'0.125'
tRp3028
sg31
I3584
sg32
I0
sg33
I76
sbasg34
g22
(S'0.875'
tRp3029
sg36
g22
(S'0.875'
tRp3030
sbag1
(g13
g3
NtRp3031
(dp3032
g16
S'T(-5)./mid\\invention4_2.mid'
p3033
sg18
S'F'
sg20
I1024
sg21
g22
(S'0.25'
tRp3034
sg24
(lp3035
g1
(g26
g3
NtRp3036
(dp3037
g29
g22
(S'0.25'
tRp3038
sg31
I256
sg32
I0
sg33
I69
sbasg34
g22
(S'0.25'
tRp3039
sg36
g22
(S'0.25'
tRp3040
sbag1
(g13
g3
NtRp3041
(dp3042
g16
S'T(0)./mid\\invention13_1.mid'
p3043
sg18
S'G'
sg20
I4096
sg21
g22
(S'0.0625'
tRp3044
sg24
(lp3045
g1
(g26
g3
NtRp3046
(dp3047
g29
g22
(S'0.0625'
tRp3048
sg31
I16128
sg32
I1
sg33
I47
sbasg34
g22
(S'0.9375'
tRp3049
sg36
g22
(S'3.9375'
tRp3050
sbag1
(g13
g3
NtRp3051
(dp3052
g16
S'T(0)./mid\\invention13_1.mid'
p3053
sg18
S'F'
sg20
I4096
sg21
g22
(S'0.0625'
tRp3054
sg24
(lp3055
g1
(g26
g3
NtRp3056
(dp3057
g29
g22
(S'0.0625'
tRp3058
sg31
I11776
sg32
I1
sg33
I45
sbag1
(g26
g3
NtRp3059
(dp3060
g29
g22
(S'0.125'
tRp3061
sg31
I11776
sg32
I0
sg33
I77
sbasg34
g22
(S'0.875'
tRp3062
sg36
g22
(S'2.875'
tRp3063
sbag1
(g13
g3
NtRp3064
(dp3065
g16
S'T(3)./mid\\invention4_1.mid'
p3066
sg18
S'Gm'
p3067
sg20
I1024
sg21
g22
(S'0.25'
tRp3068
sg24
(lp3069
g1
(g26
g3
NtRp3070
(dp3071
g29
g22
(S'0.25'
tRp3072
sg31
I2816
sg32
I0
sg33
I79
sbasg34
g22
(S'0.75'
tRp3073
sg36
g22
(S'2.75'
tRp3074
sbag1
(g13
g3
NtRp3075
(dp3076
g16
S'T(5)./mid\\invention13_5.mid'
p3077
sg18
S'D'
sg20
I4096
sg21
g22
(S'0.0625'
tRp3078
sg24
(lp3079
g1
(g26
g3
NtRp3080
(dp3081
g29
g22
(S'0.0625'
tRp3082
sg31
I2560
sg32
I0
sg33
I78
sbasg34
g22
(S'0.625'
tRp3083
sg36
g22
(S'0.625'
tRp3084
sbag1
(g13
g3
NtRp3085
(dp3086
g16
S'T(-4)./mid\\invention13_6.mid'
p3087
sg18
S'C'
sg20
I4096
sg21
g22
(S'0.0625'
tRp3088
sg24
(lp3089
g1
(g26
g3
NtRp3090
(dp3091
g29
g22
(S'0.0625'
tRp3092
sg31
I4608
sg32
I0
sg33
I73
sbag1
(g26
g3
NtRp3093
(dp3094
g29
g22
(S'0.125'
tRp3095
sg31
I4608
sg32
I1
sg33
I43
sbasg34
g22
(S'0.125'
tRp3096
sg36
g22
(S'1.125'
tRp3097
sbag1
(g13
g3
NtRp3098
(dp3099
g16
S'T(-5)./mid\\invention4_2.mid'
p3100
sg18
S'F'
sg20
I1024
sg21
g22
(S'0.25'
tRp3101
sg24
(lp3102
g1
(g26
g3
NtRp3103
(dp3104
g29
g22
(S'0.25'
tRp3105
sg31
I512
sg32
I0
sg33
I71
sbag1
(g26
g3
NtRp3106
(dp3107
g29
g22
(S'0.5'
tRp3108
sg31
I512
sg32
I1
sg33
I57
sbasg34
g22
(S'0.5'
tRp3109
sg36
g22
(S'0.5'
tRp3110
sbag1
(g13
g3
NtRp3111
(dp3112
g16
S'T(3)./mid\\invention3_1.mid'
p3113
sg18
S'C'
sg20
I1024
sg21
g22
(S'0.25'
tRp3114
sg24
(lp3115
g1
(g26
g3
NtRp3116
(dp3117
g29
g22
(S'0.25'
tRp3118
sg31
I1792
sg32
I0
sg33
I76
sbasg34
g22
(S'0.75'
tRp3119
sg36
g22
(S'1.75'
tRp3120
sbag1
(g13
g3
NtRp3121
(dp3122
g16
S'T(0)./mid\\invention13_1.mid'
p3123
sg18
S'Am'
p3124
sg20
I4096
sg21
g22
(S'0.0625'
tRp3125
sg24
(lp3126
g1
(g26
g3
NtRp3127
(dp3128
g29
g22
(S'0.0625'
tRp3129
sg31
I2816
sg32
I1
sg33
I60
sbasg34
g22
(S'0.6875'
tRp3130
sg36
g22
(S'0.6875'
tRp3131
sbag1
(g13
g3
NtRp3132
(dp3133
g16
S'T(0)./mid\\invention13_1.mid'
p3134
sg18
S'G'
sg20
I4096
sg21
g22
(S'0.0625'
tRp3135
sg24
(lp3136
g1
(g26
g3
NtRp3137
(dp3138
g29
g22
(S'0.0625'
tRp3139
sg31
I13824
sg32
I0
sg33
I62
sbag1
(g26
g3
NtRp3140
(dp3141
g29
g22
(S'0.125'
tRp3142
sg31
I13824
sg32
I1
sg33
I59
sbasg34
g22
(S'0.375'
tRp3143
sg36
g22
(S'3.375'
tRp3144
sbag1
(g13
g3
NtRp3145
(dp3146
g16
S'T(0)./mid\\invention4_3.mid'
p3147
sg18
S'Em'
p3148
sg20
I1024
sg21
g22
(S'0.25'
tRp3149
sg24
(lp3150
g1
(g26
g3
NtRp3151
(dp3152
g29
g22
(S'0.25'
tRp3153
sg31
I1792
sg32
I0
sg33
I79
sbasg34
g22
(S'0.75'
tRp3154
sg36
g22
(S'1.75'
tRp3155
sbag1
(g13
g3
NtRp3156
(dp3157
g16
S'T(5)./mid\\invention13_5.mid'
p3158
sg18
S'Gm'
p3159
sg20
I4096
sg21
g22
(S'0.0625'
tRp3160
sg24
(lp3161
g1
(g26
g3
NtRp3162
(dp3163
g29
g22
(S'0.0625'
tRp3164
sg31
I5888
sg32
I0
sg33
I79
sbasg34
g22
(S'0.4375'
tRp3165
sg36
g22
(S'1.4375'
tRp3166
sbag1
(g13
g3
NtRp3167
(dp3168
g16
S'T(3)./mid\\invention3_1.mid'
p3169
sg18
S'C'
sg20
I1024
sg21
g22
(S'0.25'
tRp3170
sg24
(lp3171
g1
(g26
g3
NtRp3172
(dp3173
g29
g22
(S'0.25'
tRp3174
sg31
I512
sg32
I0
sg33
I81
sbag1
(g26
g3
NtRp3175
(dp3176
g29
g22
(S'0.5'
tRp3177
sg31
I512
sg32
I1
sg33
I48
sbasg34
g22
(S'0.5'
tRp3178
sg36
g22
(S'0.5'
tRp3179
sbag1
(g13
g3
NtRp3180
(dp3181
g16
S'T(-4)./mid\\invention13_6.mid'
p3182
sg18
S'C'
sg20
I4096
sg21
g22
(S'0.0625'
tRp3183
sg24
(lp3184
g1
(g26
g3
NtRp3185
(dp3186
g29
g22
(S'0.0625'
tRp3187
sg31
I7680
sg32
I1
sg33
I56
sbasg34
g22
(S'0.875'
tRp3188
sg36
g22
(S'1.875'
tRp3189
sbag1
(g13
g3
NtRp3190
(dp3191
g16
S'T(0)./mid\\invention13_2.mid'
p3192
sg18
S'Em'
p3193
sg20
I4096
sg21
g22
(S'0.0625'
tRp3194
sg24
(lp3195
g1
(g26
g3
NtRp3196
(dp3197
g29
g22
(S'0.0625'
tRp3198
sg31
I15104
sg32
I1
sg33
I64
sbasg34
g22
(S'0.6875'
tRp3199
sg36
g22
(S'3.6875'
tRp3200
sbag1
(g13
g3
NtRp3201
(dp3202
g16
S'T(5)./mid\\invention3_3.mid'
p3203
sg18
S'F'
sg20
I1024
sg21
g22
(S'0.25'
tRp3204
sg24
(lp3205
g1
(g26
g3
NtRp3206
(dp3207
g29
g22
(S'0.25'
tRp3208
sg31
I4864
sg32
I1
sg33
I59
sbasg34
g22
(S'0.75'
tRp3209
sg36
g22
(S'4.75'
tRp3210
sbag1
(g13
g3
NtRp3211
(dp3212
g16
S'T(-4)./mid\\invention13_6.mid'
p3213
sg18
S'C'
sg20
I4096
sg21
g22
(S'0.0625'
tRp3214
sg24
(lp3215
g1
(g26
g3
NtRp3216
(dp3217
g29
g22
(S'0.0625'
tRp3218
sg31
I5888
sg32
I0
sg33
I67
sbasg34
g22
(S'0.4375'
tRp3219
sg36
g22
(S'1.4375'
tRp3220
sbag1
(g13
g3
NtRp3221
(dp3222
g16
S'T(0)./mid\\invention13_1.mid'
p3223
sg18
S'Am'
p3224
sg20
I4096
sg21
g22
(S'0.0625'
tRp3225
sg24
(lp3226
g1
(g26
g3
NtRp3227
(dp3228
g29
g22
(S'0.0625'
tRp3229
sg31
I5632
sg32
I0
sg33
I71
sbag1
(g26
g3
NtRp3230
(dp3231
g29
g22
(S'0.125'
tRp3232
sg31
I5632
sg32
I1
sg33
I52
sbasg34
g22
(S'0.375'
tRp3233
sg36
g22
(S'1.375'
tRp3234
sbag1
(g13
g3
NtRp3235
(dp3236
g16
S'T(5)./mid\\invention3_3.mid'
p3237
sg18
S'Am'
p3238
sg20
I1024
sg21
g22
(S'0.25'
tRp3239
sg24
(lp3240
g1
(g26
g3
NtRp3241
(dp3242
g29
g22
(S'0.25'
tRp3243
sg31
I5888
sg32
I1
sg33
I57
sbasg34
g22
(S'0.75'
tRp3244
sg36
g22
(S'5.75'
tRp3245
sbag1
(g13
g3
NtRp3246
(dp3247
g16
S'T(0)./mid\\invention1_3.mid'
p3248
sg18
S'C'
sg20
I4096
sg21
g22
(S'0.0625'
tRp3249
sg24
(lp3250
g1
(g26
g3
NtRp3251
(dp3252
g29
g22
(S'0.0625'
tRp3253
sg31
I3328
sg32
I0
sg33
I76
sbasg34
g22
(S'0.8125'
tRp3254
sg36
g22
(S'0.8125'
tRp3255
sbag1
(g13
g3
NtRp3256
(dp3257
g16
S'T(0)./mid\\invention1_3.mid'
p3258
sg18
S'C'
sg20
I4096
sg21
g22
(S'0.0625'
tRp3259
sg24
(lp3260
g1
(g26
g3
NtRp3261
(dp3262
g29
g22
(S'0.0625'
tRp3263
sg31
I1280
sg32
I0
sg33
I79
sbasg34
g22
(S'0.3125'
tRp3264
sg36
g22
(S'0.3125'
tRp3265
sbag1
(g13
g3
NtRp3266
(dp3267
g16
S'T(0)./mid\\invention1_1.mid'
p3268
sg18
S'C'
sg20
I4096
sg21
g22
(S'0.0625'
tRp3269
sg24
(lp3270
g1
(g26
g3
NtRp3271
(dp3272
g29
g22
(S'0.0625'
tRp3273
sg31
I512
sg32
I0
sg33
I62
sbasg34
g22
(S'0.125'
tRp3274
sg36
g22
(S'0.125'
tRp3275
sbag1
(g13
g3
NtRp3276
(dp3277
g16
S'T(5)./mid\\invention13_5.mid'
p3278
sg18
S'D'
sg20
I4096
sg21
g22
(S'0.0625'
tRp3279
sg24
(lp3280
g1
(g26
g3
NtRp3281
(dp3282
g29
g22
(S'0.0625'
tRp3283
sg31
I1792
sg32
I0
sg33
I81
sbasg34
g22
(S'0.4375'
tRp3284
sg36
g22
(S'0.4375'
tRp3285
sbag1
(g13
g3
NtRp3286
(dp3287
g16
S'T(-4)./mid\\invention13_6.mid'
p3288
sg18
S'C'
sg20
I4096
sg21
g22
(S'0.0625'
tRp3289
sg24
(lp3290
g1
(g26
g3
NtRp3291
(dp3292
g29
g22
(S'0.25'
tRp3293
sg31
I7168
sg32
I0
sg33
I60
sbasg34
g22
(S'0.75'
tRp3294
sg36
g22
(S'1.75'
tRp3295
sbag1
(g13
g3
NtRp3296
(dp3297
g16
S'T(0)./mid\\invention13_1.mid'
p3298
sg18
S'Am'
p3299
sg20
I4096
sg21
g22
(S'0.0625'
tRp3300
sg24
(lp3301
g1
(g26
g3
NtRp3302
(dp3303
g29
g22
(S'0.0625'
tRp3304
sg31
I768
sg32
I0
sg33
I72
sbasg34
g22
(S'0.1875'
tRp3305
sg36
g22
(S'0.1875'
tRp3306
sbag1
(g13
g3
NtRp3307
(dp3308
g16
S'T(0)./mid\\invention4_3.mid'
p3309
sg18
S'Am'
p3310
sg20
I1024
sg21
g22
(S'0.25'
tRp3311
sg24
(lp3312
g1
(g26
g3
NtRp3313
(dp3314
g29
g22
(S'0.25'
tRp3315
sg31
I512
sg32
I0
sg33
I74
sbag1
(g26
g3
NtRp3316
(dp3317
g29
g22
(S'0.5'
tRp3318
sg31
I512
sg32
I1
sg33
I60
sbasg34
g22
(S'0.5'
tRp3319
sg36
g22
(S'0.5'
tRp3320
sbag1
(g13
g3
NtRp3321
(dp3322
g16
S'T(5)./mid\\invention3_3.mid'
p3323
sg18
S'C'
sg20
I1024
sg21
g22
(S'0.25'
tRp3324
sg24
(lp3325
g1
(g26
g3
NtRp3326
(dp3327
g29
g22
(S'0.25'
tRp3328
sg31
I1024
sg32
I0
sg33
I76
sbag1
(g26
g3
NtRp3329
(dp3330
g29
g22
(S'0.5'
tRp3331
sg31
I1024
sg32
I1
sg33
I55
sbasg34
g22
(S'0'
tRp3332
sg36
g22
(S'1'
tRp3333
sbag1
(g13
g3
NtRp3334
(dp3335
g16
S'T(0)./mid\\invention1_1.mid'
p3336
sg18
S'C'
sg20
I4096
sg21
g22
(S'0.0625'
tRp3337
sg24
(lp3338
g1
(g26
g3
NtRp3339
(dp3340
g29
g22
(S'0.0625'
tRp3341
sg31
I1024
sg32
I0
sg33
I65
sbasg34
g22
(S'0.25'
tRp3342
sg36
g22
(S'0.25'
tRp3343
sbag1
(g13
g3
NtRp3344
(dp3345
g16
S'T(0)./mid\\invention1_3.mid'
p3346
sg18
S'C'
sg20
I4096
sg21
g22
(S'0.0625'
tRp3347
sg24
(lp3348
g1
(g26
g3
NtRp3349
(dp3350
g29
g22
(S'0.0625'
tRp3351
sg31
I3840
sg32
I0
sg33
I77
sbasg34
g22
(S'0.9375'
tRp3352
sg36
g22
(S'0.9375'
tRp3353
sbag1
(g13
g3
NtRp3354
(dp3355
g16
S'T(0)./mid\\invention13_1.mid'
p3356
sg18
S'Am'
p3357
sg20
I4096
sg21
g22
(S'0.0625'
tRp3358
sg24
(lp3359
g1
(g26
g3
NtRp3360
(dp3361
g29
g22
(S'0.125'
tRp3362
sg31
I0
sg32
I1
sg33
I45
sbasg34
g22
(S'0'
tRp3363
sg36
g22
(S'0'
tRp3364
sbag1
(g13
g3
NtRp3365
(dp3366
g16
S'T(5)./mid\\invention1_2.mid'
p3367
sg18
S'C'
sg20
I4096
sg21
g22
(S'0.03125'
tRp3368
sg24
(lp3369
g1
(g26
g3
NtRp3370
(dp3371
g29
g22
(S'0.03125'
tRp3372
sg31
I3200
sg32
I0
sg33
I81
sbasg34
g22
(S'0.78125'
tRp3373
sg36
g22
(S'0.78125'
tRp3374
sbag1
(g13
g3
NtRp3375
(dp3376
g16
S'T(5)./mid\\invention1_2.mid'
p3377
sg18
S'C'
sg20
I4096
sg21
g22
(S'0.0625'
tRp3378
sg24
(lp3379
g1
(g26
g3
NtRp3380
(dp3381
g29
g22
(S'0.0625'
tRp3382
sg31
I1792
sg32
I0
sg33
I72
sbasg34
g22
(S'0.4375'
tRp3383
sg36
g22
(S'0.4375'
tRp3384
sbag1
(g13
g3
NtRp3385
(dp3386
g16
S'T(0)./mid\\invention13_1.mid'
p3387
sg18
S'Am'
p3388
sg20
I4096
sg21
g22
(S'0.0625'
tRp3389
sg24
(lp3390
g1
(g26
g3
NtRp3391
(dp3392
g29
g22
(S'0.0625'
tRp3393
sg31
I7680
sg32
I1
sg33
I59
sbasg34
g22
(S'0.875'
tRp3394
sg36
g22
(S'1.875'
tRp3395
sbag1
(g13
g3
NtRp3396
(dp3397
g16
S'T(5)./mid\\invention1_2.mid'
p3398
sg18
S'C'
sg20
I4096
sg21
g22
(S'0.0625'
tRp3399
sg24
(lp3400
g1
(g26
g3
NtRp3401
(dp3402
g29
g22
(S'0.0625'
tRp3403
sg31
I2816
sg32
I1
sg33
I64
sbasg34
g22
(S'0.6875'
tRp3404
sg36
g22
(S'0.6875'
tRp3405
sbag1
(g13
g3
NtRp3406
(dp3407
g16
S'T(5)./mid\\invention1_2.mid'
p3408
sg18
S'C'
sg20
I4096
sg21
g22
(S'0.0625'
tRp3409
sg24
(lp3410
g1
(g26
g3
NtRp3411
(dp3412
g29
g22
(S'0.0625'
tRp3413
sg31
I0
sg32
I0
sg33
I79
sbag1
(g26
g3
NtRp3414
(dp3415
g29
g22
(S'0.125'
tRp3416
sg31
I0
sg32
I1
sg33
I60
sbasg34
g22
(S'0'
tRp3417
sg36
g22
(S'0'
tRp3418
sbag1
(g13
g3
NtRp3419
(dp3420
g16
S'T(2)./mid\\invention4_5.mid'
p3421
sg18
S'Bm'
p3422
sg20
I1024
sg21
g22
(S'0.25'
tRp3423
sg24
(lp3424
g1
(g26
g3
NtRp3425
(dp3426
g29
g22
(S'0.25'
tRp3427
sg31
I1792
sg32
I0
sg33
I62
sbasg34
g22
(S'0.75'
tRp3428
sg36
g22
(S'1.75'
tRp3429
sbag1
(g13
g3
NtRp3430
(dp3431
g16
S'T(0)./mid\\invention13_2.mid'
p3432
sg18
S'C'
sg20
I4096
sg21
g22
(S'0.0625'
tRp3433
sg24
(lp3434
g1
(g26
g3
NtRp3435
(dp3436
g29
g22
(S'0.0625'
tRp3437
sg31
I1792
sg32
I0
sg33
I77
sbasg34
g22
(S'0.4375'
tRp3438
sg36
g22
(S'0.4375'
tRp3439
sbag1
(g13
g3
NtRp3440
(dp3441
g16
S'T(3)./mid\\invention3_4.mid'
p3442
sg18
S'F'
sg20
I1024
sg21
g22
(S'0.25'
tRp3443
sg24
(lp3444
g1
(g26
g3
NtRp3445
(dp3446
g29
g22
(S'0.25'
tRp3447
sg31
I768
sg32
I0
sg33
I71
sbasg34
g22
(S'0.75'
tRp3448
sg36
g22
(S'0.75'
tRp3449
sbag1
(g13
g3
NtRp3450
(dp3451
g16
S'T(-4)./mid\\invention13_6.mid'
p3452
sg18
S'Fm'
p3453
sg20
I4096
sg21
g22
(S'0.0625'
tRp3454
sg24
(lp3455
g1
(g26
g3
NtRp3456
(dp3457
g29
g22
(S'0.0625'
tRp3458
sg31
I3840
sg32
I1
sg33
I57
sbasg34
g22
(S'0.9375'
tRp3459
sg36
g22
(S'0.9375'
tRp3460
sbag1
(g13
g3
NtRp3461
(dp3462
g16
S'T(5)./mid\\invention3_3.mid'
p3463
sg18
S'F'
sg20
I1024
sg21
g22
(S'0.25'
tRp3464
sg24
(lp3465
g1
(g26
g3
NtRp3466
(dp3467
g29
g22
(S'0.25'
tRp3468
sg31
I4608
sg32
I1
sg33
I60
sbasg34
g22
(S'0.5'
tRp3469
sg36
g22
(S'4.5'
tRp3470
sbag1
(g13
g3
NtRp3471
(dp3472
g16
S'T(0)./mid\\invention13_1.mid'
p3473
sg18
S'Am'
p3474
sg20
I4096
sg21
g22
(S'0.0625'
tRp3475
sg24
(lp3476
g1
(g26
g3
NtRp3477
(dp3478
g29
g22
(S'0.0625'
tRp3479
sg31
I1024
sg32
I0
sg33
I71
sbasg34
g22
(S'0.25'
tRp3480
sg36
g22
(S'0.25'
tRp3481
sbag1
(g13
g3
NtRp3482
(dp3483
g16
S'T(0)./mid\\invention1_3.mid'
p3484
sg18
S'C'
sg20
I4096
sg21
g22
(S'0.0625'
tRp3485
sg24
(lp3486
g1
(g26
g3
NtRp3487
(dp3488
g29
g22
(S'0.0625'
tRp3489
sg31
I2560
sg32
I0
sg33
I76
sbag1
(g26
g3
NtRp3490
(dp3491
g29
g22
(S'0.125'
tRp3492
sg31
I2560
sg32
I1
sg33
I55
sbasg34
g22
(S'0.625'
tRp3493
sg36
g22
(S'0.625'
tRp3494
sbag1
(g13
g3
NtRp3495
(dp3496
g16
S'T(3)./mid\\invention4_1.mid'
p3497
sg18
S'Fm'
p3498
sg20
I1024
sg21
g22
(S'0.25'
tRp3499
sg24
(lp3500
g1
(g26
g3
NtRp3501
(dp3502
g29
g22
(S'0.25'
tRp3503
sg31
I0
sg32
I0
sg33
I77
sbag1
(g26
g3
NtRp3504
(dp3505
g29
g22
(S'0.5'
tRp3506
sg31
I0
sg32
I1
sg33
I56
sbasg34
g22
(S'0'
tRp3507
sg36
g22
(S'0'
tRp3508
sbag1
(g13
g3
NtRp3509
(dp3510
g16
S'T(3)./mid\\invention4_1.mid'
p3511
sg18
S'Gm'
p3512
sg20
I1024
sg21
g22
(S'0.25'
tRp3513
sg24
(lp3514
g1
(g26
g3
NtRp3515
(dp3516
g29
g22
(S'0.25'
tRp3517
sg31
I2304
sg32
I0
sg33
I82
sbasg34
g22
(S'0.25'
tRp3518
sg36
g22
(S'2.25'
tRp3519
sbag1
(g13
g3
NtRp3520
(dp3521
g16
S'T(0)./mid\\invention13_3.mid'
p3522
sg18
S'Am'
p3523
sg20
I4096
sg21
g22
(S'0.0625'
tRp3524
sg24
(lp3525
g1
(g26
g3
NtRp3526
(dp3527
g29
g22
(S'0.0625'
tRp3528
sg31
I1536
sg32
I0
sg33
I69
sbag1
(g26
g3
NtRp3529
(dp3530
g29
g22
(S'0.125'
tRp3531
sg31
I1536
sg32
I1
sg33
I67
sbasg34
g22
(S'0.375'
tRp3532
sg36
g22
(S'0.375'
tRp3533
sbag1
(g13
g3
NtRp3534
(dp3535
g16
S'T(0)./mid\\invention13_1.mid'
p3536
sg18
S'Am'
p3537
sg20
I4096
sg21
g22
(S'0.0625'
tRp3538
sg24
(lp3539
g1
(g26
g3
NtRp3540
(dp3541
g29
g22
(S'0.0625'
tRp3542
sg31
I2304
sg32
I1
sg33
I52
sbasg34
g22
(S'0.5625'
tRp3543
sg36
g22
(S'0.5625'
tRp3544
sbag1
(g13
g3
NtRp3545
(dp3546
g16
S'T(5)./mid\\invention3_3.mid'
p3547
sg18
S'C'
sg20
I1024
sg21
g22
(S'0.25'
tRp3548
sg24
(lp3549
g1
(g26
g3
NtRp3550
(dp3551
g29
g22
(S'0.25'
tRp3552
sg31
I3584
sg32
I1
sg33
I54
sbasg34
g22
(S'0.5'
tRp3553
sg36
g22
(S'3.5'
tRp3554
sbag1
(g13
g3
NtRp3555
(dp3556
g16
S'T(-4)./mid\\invention4_6.mid'
p3557
sg18
S'C'
sg20
I1024
sg21
g22
(S'0.25'
tRp3558
sg24
(lp3559
g1
(g26
g3
NtRp3560
(dp3561
g29
g22
(S'0.13671875'
tRp3562
sg31
I1280
sg32
I1
sg33
I48
sbag1
(g26
g3
NtRp3563
(dp3564
g29
g22
(S'0.25'
tRp3565
sg31
I1280
sg32
I0
sg33
I62
sbasg34
g22
(S'0.25'
tRp3566
sg36
g22
(S'1.25'
tRp3567
sbag1
(g13
g3
NtRp3568
(dp3569
g16
S'T(0)./mid\\invention4_4.mid'
p3570
sg18
S'Em'
p3571
sg20
I1024
sg21
g22
(S'0.25'
tRp3572
sg24
(lp3573
g1
(g26
g3
NtRp3574
(dp3575
g29
g22
(S'0.25'
tRp3576
sg31
I2816
sg32
I0
sg33
I69
sbasg34
g22
(S'0.75'
tRp3577
sg36
g22
(S'2.75'
tRp3578
sbag1
(g13
g3
NtRp3579
(dp3580
g16
S'T(0)./mid\\invention1_1.mid'
p3581
sg18
S'C'
sg20
I4096
sg21
g22
(S'0.0625'
tRp3582
sg24
(lp3583
g1
(g26
g3
NtRp3584
(dp3585
g29
g22
(S'0.125'
tRp3586
sg31
I2048
sg32
I0
sg33
I67
sbasg34
g22
(S'0.5'
tRp3587
sg36
g22
(S'0.5'
tRp3588
sbag1
(g13
g3
NtRp3589
(dp3590
g16
S'T(0)./mid\\invention1_4.mid'
p3591
sg18
S'Am'
p3592
sg20
I4096
sg21
g22
(S'0.0625'
tRp3593
sg24
(lp3594
g1
(g26
g3
NtRp3595
(dp3596
g29
g22
(S'0.0625'
tRp3597
sg31
I768
sg32
I0
sg33
I71
sbasg34
g22
(S'0.1875'
tRp3598
sg36
g22
(S'0.1875'
tRp3599
sbag1
(g13
g3
NtRp3600
(dp3601
g16
S'T(-4)./mid\\invention13_6.mid'
p3602
sg18
S'Fm'
p3603
sg20
I4096
sg21
g22
(S'0.0625'
tRp3604
sg24
(lp3605
g1
(g26
g3
NtRp3606
(dp3607
g29
g22
(S'0.0625'
tRp3608
sg31
I2816
sg32
I0
sg33
I68
sbasg34
g22
(S'0.6875'
tRp3609
sg36
g22
(S'0.6875'
tRp3610
sbag1
(g13
g3
NtRp3611
(dp3612
g16
S'T(3)./mid\\invention4_1.mid'
p3613
sg18
S'Fm'
p3614
sg20
I1024
sg21
g22
(S'0.25'
tRp3615
sg24
(lp3616
g1
(g26
g3
NtRp3617
(dp3618
g29
g22
(S'0.25'
tRp3619
sg31
I512
sg32
I0
sg33
I80
sbag1
(g26
g3
NtRp3620
(dp3621
g29
g22
(S'0.5'
tRp3622
sg31
I512
sg32
I1
sg33
I60
sbasg34
g22
(S'0.5'
tRp3623
sg36
g22
(S'0.5'
tRp3624
sbag1
(g13
g3
NtRp3625
(dp3626
g16
S'T(5)./mid\\invention13_5.mid'
p3627
sg18
S'D'
sg20
I4096
sg21
g22
(S'0.0625'
tRp3628
sg24
(lp3629
g1
(g26
g3
NtRp3630
(dp3631
g29
g22
(S'0.0625'
tRp3632
sg31
I1024
sg32
I0
sg33
I81
sbag1
(g26
g3
NtRp3633
(dp3634
g29
g22
(S'0.125'
tRp3635
sg31
I1024
sg32
I1
sg33
I60
sbasg34
g22
(S'0.25'
tRp3636
sg36
g22
(S'0.25'
tRp3637
sbag1
(g13
g3
NtRp3638
(dp3639
g16
S'T(5)./mid\\invention1_2.mid'
p3640
sg18
S'C'
sg20
I4096
sg21
g22
(S'0.0625'
tRp3641
sg24
(lp3642
g1
(g26
g3
NtRp3643
(dp3644
g29
g22
(S'0.0625'
tRp3645
sg31
I1536
sg32
I0
sg33
I76
sbasg34
g22
(S'0.375'
tRp3646
sg36
g22
(S'0.375'
tRp3647
sbag1
(g13
g3
NtRp3648
(dp3649
g16
S'T(5)./mid\\invention13_4.mid'
p3650
sg18
S'Am'
p3651
sg20
I4096
sg21
g22
(S'0.0625'
tRp3652
sg24
(lp3653
g1
(g26
g3
NtRp3654
(dp3655
g29
g22
(S'0.0625'
tRp3656
sg31
I3072
sg32
I1
sg33
I60
sbag1
(g26
g3
NtRp3657
(dp3658
g29
g22
(S'0.125'
tRp3659
sg31
I3072
sg32
I0
sg33
I84
sbasg34
g22
(S'0.75'
tRp3660
sg36
g22
(S'0.75'
tRp3661
sbag1
(g13
g3
NtRp3662
(dp3663
g16
S'T(5)./mid\\invention13_5.mid'
p3664
sg18
S'Gm'
p3665
sg20
I4096
sg21
g22
(S'0.0625'
tRp3666
sg24
(lp3667
g1
(g26
g3
NtRp3668
(dp3669
g29
g22
(S'0.0625'
tRp3670
sg31
I7936
sg32
I1
sg33
I67
sbasg34
g22
(S'0.9375'
tRp3671
sg36
g22
(S'1.9375'
tRp3672
sbag1
(g13
g3
NtRp3673
(dp3674
g16
S'T(0)./mid\\invention4_4.mid'
p3675
sg18
S'F'
sg20
I1024
sg21
g22
(S'0.25'
tRp3676
sg24
(lp3677
g1
(g26
g3
NtRp3678
(dp3679
g29
g22
(S'0.25'
tRp3680
sg31
I256
sg32
I1
sg33
I46
sbag1
(g26
g3
NtRp3681
(dp3682
g29
g22
(S'0.25'
tRp3683
sg31
I256
sg32
I0
sg33
I70
sbasg34
g22
(S'0.25'
tRp3684
sg36
g22
(S'0.25'
tRp3685
sbag1
(g13
g3
NtRp3686
(dp3687
g16
S'T(-4)./mid\\invention13_6.mid'
p3688
sg18
S'C'
sg20
I4096
sg21
g22
(S'0.0625'
tRp3689
sg24
(lp3690
g1
(g26
g3
NtRp3691
(dp3692
g29
g22
(S'0.0625'
tRp3693
sg31
I7424
sg32
I1
sg33
I58
sbasg34
g22
(S'0.8125'
tRp3694
sg36
g22
(S'1.8125'
tRp3695
sbag1
(g13
g3
NtRp3696
(dp3697
g16
S'T(5)./mid\\invention13_5.mid'
p3698
sg18
S'Gm'
p3699
sg20
I4096
sg21
g22
(S'0.0625'
tRp3700
sg24
(lp3701
g1
(g26
g3
NtRp3702
(dp3703
g29
g22
(S'0.0625'
tRp3704
sg31
I6656
sg32
I0
sg33
I76
sbasg34
g22
(S'0.625'
tRp3705
sg36
g22
(S'1.625'
tRp3706
sbag1
(g13
g3
NtRp3707
(dp3708
g16
S'T(2)./mid\\invention4_5.mid'
p3709
sg18
S'D'
sg20
I1024
sg21
g22
(S'0.25'
tRp3710
sg24
(lp3711
g1
(g26
g3
NtRp3712
(dp3713
g29
g22
(S'0.25'
tRp3714
sg31
I2816
sg32
I0
sg33
I69
sbasg34
g22
(S'0.75'
tRp3715
sg36
g22
(S'2.75'
tRp3716
sbag1
(g13
g3
NtRp3717
(dp3718
g16
S'T(0)./mid\\invention13_1.mid'
p3719
sg18
S'Am'
p3720
sg20
I4096
sg21
g22
(S'0.0625'
tRp3721
sg24
(lp3722
g1
(g26
g3
NtRp3723
(dp3724
g29
g22
(S'0.0625'
tRp3725
sg31
I5120
sg32
I0
sg33
I71
sbag1
(g26
g3
NtRp3726
(dp3727
g29
g22
(S'0.125'
tRp3728
sg31
I5120
sg32
I1
sg33
I56
sbasg34
g22
(S'0.25'
tRp3729
sg36
g22
(S'1.25'
tRp3730
sbag1
(g13
g3
NtRp3731
(dp3732
g16
S'T(5)./mid\\invention13_4.mid'
p3733
sg18
S'Am'
p3734
sg20
I4096
sg21
g22
(S'0.0625'
tRp3735
sg24
(lp3736
g1
(g26
g3
NtRp3737
(dp3738
g29
g22
(S'0.0625'
tRp3739
sg31
I768
sg32
I0
sg33
I84
sbasg34
g22
(S'0.1875'
tRp3740
sg36
g22
(S'0.1875'
tRp3741
sbag1
(g13
g3
NtRp3742
(dp3743
g16
S'T(3)./mid\\invention3_4.mid'
p3744
sg18
S'Fm'
p3745
sg20
I1024
sg21
g22
(S'0.25'
tRp3746
sg24
(lp3747
g1
(g26
g3
NtRp3748
(dp3749
g29
g22
(S'0.25'
tRp3750
sg31
I2048
sg32
I0
sg33
I77
sbasg34
g22
(S'0'
tRp3751
sg36
g22
(S'2'
tRp3752
sbag1
(g13
g3
NtRp3753
(dp3754
g16
S'T(0)./mid\\invention13_2.mid'
p3755
sg18
S'C'
sg20
I4096
sg21
g22
(S'0.0625'
tRp3756
sg24
(lp3757
g1
(g26
g3
NtRp3758
(dp3759
g29
g22
(S'0.0625'
tRp3760
sg31
I3584
sg32
I1
sg33
I62
sbag1
(g26
g3
NtRp3761
(dp3762
g29
g22
(S'0.125'
tRp3763
sg31
I3584
sg32
I0
sg33
I79
sbasg34
g22
(S'0.875'
tRp3764
sg36
g22
(S'0.875'
tRp3765
sbag1
(g13
g3
NtRp3766
(dp3767
g16
S'T(-5)./mid\\invention4_2.mid'
p3768
sg18
g1275
sg20
I1024
sg21
g22
(S'0.25'
tRp3769
sg24
(lp3770
g1
(g26
g3
NtRp3771
(dp3772
g29
g22
(S'0.25'
tRp3773
sg31
I1792
sg32
I0
sg33
I76
sbasg34
g22
(S'0.75'
tRp3774
sg36
g22
(S'1.75'
tRp3775
sbag1
(g13
g3
NtRp3776
(dp3777
g16
S'T(5)./mid\\invention13_5.mid'
p3778
sg18
S'Gm'
p3779
sg20
I4096
sg21
g22
(S'0.0625'
tRp3780
sg24
(lp3781
g1
(g26
g3
NtRp3782
(dp3783
g29
g22
(S'0.0625'
tRp3784
sg31
I5376
sg32
I0
sg33
I82
sbasg34
g22
(S'0.3125'
tRp3785
sg36
g22
(S'1.3125'
tRp3786
sbag1
(g13
g3
NtRp3787
(dp3788
g16
S'T(3)./mid\\invention3_4.mid'
p3789
sg18
S'Am'
p3790
sg20
I1024
sg21
g22
(S'0.25'
tRp3791
sg24
(lp3792
g1
(g26
g3
NtRp3793
(dp3794
g29
g22
(S'0.25'
tRp3795
sg31
I3328
sg32
I1
sg33
I48
sbasg34
g22
(S'0.25'
tRp3796
sg36
g22
(S'3.25'
tRp3797
sbag1
(g13
g3
NtRp3798
(dp3799
g16
S'T(-4)./mid\\invention4_6.mid'
p3800
sg18
S'C'
sg20
I1024
sg21
g22
(S'0.125'
tRp3801
sg24
(lp3802
g1
(g26
g3
NtRp3803
(dp3804
g29
g22
(S'0.13671875'
tRp3805
sg31
I1152
sg32
I1
sg33
I49
sbasg34
g22
(S'0.125'
tRp3806
sg36
g22
(S'1.125'
tRp3807
sbag1
(g13
g3
NtRp3808
(dp3809
g16
S'T(0)./mid\\invention1_4.mid'
p3810
sg18
S'Am'
p3811
sg20
I4096
sg21
g22
(S'0.0625'
tRp3812
sg24
(lp3813
g1
(g26
g3
NtRp3814
(dp3815
g29
g22
(S'0.0625'
tRp3816
sg31
I0
sg32
I0
sg33
I76
sbag1
(g26
g3
NtRp3817
(dp3818
g29
g22
(S'0.125'
tRp3819
sg31
I0
sg32
I1
sg33
I60
sbasg34
g22
(S'0'
tRp3820
sg36
g22
(S'0'
tRp3821
sbag1
(g13
g3
NtRp3822
(dp3823
g16
S'T(5)./mid\\invention3_3.mid'
p3824
sg18
S'C'
sg20
I1024
sg21
g22
(S'0.25'
tRp3825
sg24
(lp3826
g1
(g26
g3
NtRp3827
(dp3828
g29
g22
(S'0.25'
tRp3829
sg31
I1536
sg32
I0
sg33
I79
sbag1
(g26
g3
NtRp3830
(dp3831
g29
g22
(S'1'
tRp3832
sg31
I1536
sg32
I1
sg33
I52
sbasg34
g22
(S'0.5'
tRp3833
sg36
g22
(S'1.5'
tRp3834
sbag1
(g13
g3
NtRp3835
(dp3836
g16
S'T(5)./mid\\invention1_2.mid'
p3837
sg18
S'C'
sg20
I4096
sg21
g22
(S'0.0625'
tRp3838
sg24
(lp3839
g1
(g26
g3
NtRp3840
(dp3841
g29
g22
(S'0.0625'
tRp3842
sg31
I1280
sg32
I0
sg33
I74
sbasg34
g22
(S'0.3125'
tRp3843
sg36
g22
(S'0.3125'
tRp3844
sbag1
(g13
g3
NtRp3845
(dp3846
g16
S'T(0)./mid\\invention1_3.mid'
p3847
sg18
S'C'
sg20
I4096
sg21
g22
(S'0.0625'
tRp3848
sg24
(lp3849
g1
(g26
g3
NtRp3850
(dp3851
g29
g22
(S'0.0625'
tRp3852
sg31
I768
sg32
I0
sg33
I77
sbasg34
g22
(S'0.1875'
tRp3853
sg36
g22
(S'0.1875'
tRp3854
sbag1
(g13
g3
NtRp3855
(dp3856
g16
S'T(0)./mid\\invention1_4.mid'
p3857
sg18
S'Am'
p3858
sg20
I4096
sg21
g22
(S'0.0625'
tRp3859
sg24
(lp3860
g1
(g26
g3
NtRp3861
(dp3862
g29
g22
(S'0.0625'
tRp3863
sg31
I2048
sg32
I0
sg33
I72
sbag1
(g26
g3
NtRp3864
(dp3865
g29
g22
(S'0.125'
tRp3866
sg31
I2048
sg32
I1
sg33
I57
sbasg34
g22
(S'0.5'
tRp3867
sg36
g22
(S'0.5'
tRp3868
sbag1
(g13
g3
NtRp3869
(dp3870
g16
S'T(5)./mid\\invention13_5.mid'
p3871
sg18
S'D'
sg20
I4096
sg21
g22
(S'0.0625'
tRp3872
sg24
(lp3873
g1
(g26
g3
NtRp3874
(dp3875
g29
g22
(S'0.0625'
tRp3876
sg31
I3840
sg32
I1
sg33
I69
sbasg34
g22
(S'0.9375'
tRp3877
sg36
g22
(S'0.9375'
tRp3878
sbag1
(g13
g3
NtRp3879
(dp3880
g16
S'T(0)./mid\\invention13_1.mid'
p3881
sg18
S'F'
sg20
I4096
sg21
g22
(S'0.0625'
tRp3882
sg24
(lp3883
g1
(g26
g3
NtRp3884
(dp3885
g29
g22
(S'0.0625'
tRp3886
sg31
I8448
sg32
I0
sg33
I76
sbasg34
g22
(S'0.0625'
tRp3887
sg36
g22
(S'2.0625'
tRp3888
sbag1
(g13
g3
NtRp3889
(dp3890
g16
S'T(0)./mid\\invention4_3.mid'
p3891
sg18
S'Am'
p3892
sg20
I1024
sg21
g22
(S'0.25'
tRp3893
sg24
(lp3894
g1
(g26
g3
NtRp3895
(dp3896
g29
g22
(S'0.25'
tRp3897
sg31
I768
sg32
I0
sg33
I76
sbasg34
g22
(S'0.75'
tRp3898
sg36
g22
(S'0.75'
tRp3899
sbag1
(g13
g3
NtRp3900
(dp3901
g16
S'T(0)./mid\\invention13_1.mid'
p3902
sg18
S'Am'
p3903
sg20
I4096
sg21
g22
(S'0.0625'
tRp3904
sg24
(lp3905
g1
(g26
g3
NtRp3906
(dp3907
g29
g22
(S'0.0625'
tRp3908
sg31
I4096
sg32
I0
sg33
I69
sbag1
(g26
g3
NtRp3909
(dp3910
g29
g22
(S'0.125'
tRp3911
sg31
I4096
sg32
I1
sg33
I60
sbasg34
g22
(S'0'
tRp3912
sg36
g22
(S'1'
tRp3913
sbag1
(g13
g3
NtRp3914
(dp3915
g16
S'T(0)./mid\\invention13_1.mid'
p3916
sg18
S'G'
sg20
I4096
sg21
g22
(S'0.0625'
tRp3917
sg24
(lp3918
g1
(g26
g3
NtRp3919
(dp3920
g29
g22
(S'0.0625'
tRp3921
sg31
I15872
sg32
I1
sg33
I43
sbag1
(g26
g3
NtRp3922
(dp3923
g29
g22
(S'0.125'
tRp3924
sg31
I15872
sg32
I0
sg33
I76
sbasg34
g22
(S'0.875'
tRp3925
sg36
g22
(S'3.875'
tRp3926
sbag1
(g13
g3
NtRp3927
(dp3928
g16
S'T(0)./mid\\invention13_2.mid'
p3929
sg18
S'C'
sg20
I4096
sg21
g22
(S'0.0625'
tRp3930
sg24
(lp3931
g1
(g26
g3
NtRp3932
(dp3933
g29
g22
(S'0.0625'
tRp3934
sg31
I3840
sg32
I1
sg33
I65
sbasg34
g22
(S'0.9375'
tRp3935
sg36
g22
(S'0.9375'
tRp3936
sbag1
(g13
g3
NtRp3937
(dp3938
g16
S'T(0)./mid\\invention1_4.mid'
p3939
sg18
S'Am'
p3940
sg20
I4096
sg21
g22
(S'0.0625'
tRp3941
sg24
(lp3942
g1
(g26
g3
NtRp3943
(dp3944
g29
g22
(S'0.0625'
tRp3945
sg31
I512
sg32
I0
sg33
I72
sbag1
(g26
g3
NtRp3946
(dp3947
g29
g22
(S'0.125'
tRp3948
sg31
I512
sg32
I1
sg33
I52
sbasg34
g22
(S'0.125'
tRp3949
sg36
g22
(S'0.125'
tRp3950
sbag1
(g13
g3
NtRp3951
(dp3952
g16
S'T(0)./mid\\invention13_3.mid'
p3953
sg18
S'Am'
p3954
sg20
I4096
sg21
g22
(S'0.0625'
tRp3955
sg24
(lp3956
g1
(g26
g3
NtRp3957
(dp3958
g29
g22
(S'0.0625'
tRp3959
sg31
I1024
sg32
I0
sg33
I72
sbag1
(g26
g3
NtRp3960
(dp3961
g29
g22
(S'0.125'
tRp3962
sg31
I1024
sg32
I1
sg33
I64
sbasg34
g22
(S'0.25'
tRp3963
sg36
g22
(S'0.25'
tRp3964
sbag1
(g13
g3
NtRp3965
(dp3966
g16
S'T(3)./mid\\invention3_4.mid'
p3967
sg18
S'C'
sg20
I1024
sg21
g22
(S'0.25'
tRp3968
sg24
(lp3969
g1
(g26
g3
NtRp3970
(dp3971
g29
g22
(S'0.25'
tRp3972
sg31
I1024
sg32
I0
sg33
I72
sbasg34
g22
(S'0'
tRp3973
sg36
g22
(S'1'
tRp3974
sbag1
(g13
g3
NtRp3975
(dp3976
g16
S'T(0)./mid\\invention1_1.mid'
p3977
sg18
S'C'
sg20
I4096
sg21
g22
(S'0.0625'
tRp3978
sg24
(lp3979
g1
(g26
g3
NtRp3980
(dp3981
g29
g22
(S'0.0625'
tRp3982
sg31
I256
sg32
I0
sg33
I60
sbasg34
g22
(S'0.0625'
tRp3983
sg36
g22
(S'0.0625'
tRp3984
sbag1
(g13
g3
NtRp3985
(dp3986
g16
S'T(5)./mid\\invention13_4.mid'
p3987
sg18
S'Am'
p3988
sg20
I4096
sg21
g22
(S'0.0625'
tRp3989
sg24
(lp3990
g1
(g26
g3
NtRp3991
(dp3992
g29
g22
(S'0.0625'
tRp3993
sg31
I1024
sg32
I0
sg33
I76
sbag1
(g26
g3
NtRp3994
(dp3995
g29
g22
(S'0.125'
tRp3996
sg31
I1024
sg32
I1
sg33
I67
sbasg34
g22
(S'0.25'
tRp3997
sg36
g22
(S'0.25'
tRp3998
sbag1
(g13
g3
NtRp3999
(dp4000
g16
S'T(0)./mid\\invention13_2.mid'
p4001
sg18
S'C'
sg20
I4096
sg21
g22
(S'0.0625'
tRp4002
sg24
(lp4003
g1
(g26
g3
NtRp4004
(dp4005
g29
g22
(S'0.0625'
tRp4006
sg31
I2560
sg32
I1
sg33
I60
sbag1
(g26
g3
NtRp4007
(dp4008
g29
g22
(S'0.125'
tRp4009
sg31
I2560
sg32
I0
sg33
I79
sbasg34
g22
(S'0.625'
tRp4010
sg36
g22
(S'0.625'
tRp4011
sbag1
(g13
g3
NtRp4012
(dp4013
g16
S'T(5)./mid\\invention13_5.mid'
p4014
sg18
S'D'
sg20
I4096
sg21
g22
(S'0.0625'
tRp4015
sg24
(lp4016
g1
(g26
g3
NtRp4017
(dp4018
g29
g22
(S'0.0625'
tRp4019
sg31
I256
sg32
I0
sg33
I84
sbasg34
g22
(S'0.0625'
tRp4020
sg36
g22
(S'0.0625'
tRp4021
sbag1
(g13
g3
NtRp4022
(dp4023
g16
S'T(0)./mid\\invention13_2.mid'
p4024
sg18
S'Em'
p4025
sg20
I4096
sg21
g22
(S'0.0625'
tRp4026
sg24
(lp4027
g1
(g26
g3
NtRp4028
(dp4029
g29
g22
(S'0.0625'
tRp4030
sg31
I14080
sg32
I0
sg33
I71
sbasg34
g22
(S'0.4375'
tRp4031
sg36
g22
(S'3.4375'
tRp4032
sbag1
(g13
g3
NtRp4033
(dp4034
g16
S'T(0)./mid\\invention1_1.mid'
p4035
sg18
S'C'
sg20
I4096
sg21
g22
(S'0.0625'
tRp4036
sg24
(lp4037
g1
(g26
g3
NtRp4038
(dp4039
g29
g22
(S'0.0625'
tRp4040
sg31
I1280
sg32
I0
sg33
I62
sbasg34
g22
(S'0.3125'
tRp4041
sg36
g22
(S'0.3125'
tRp4042
sbag1
(g13
g3
NtRp4043
(dp4044
g16
S'T(2)./mid\\invention4_5.mid'
p4045
sg18
S'F'
sg20
I1024
sg21
g22
(S'0.25'
tRp4046
sg24
(lp4047
g1
(g26
g3
NtRp4048
(dp4049
g29
g22
(S'0.25'
tRp4050
sg31
I256
sg32
I1
sg33
I47
sbag1
(g26
g3
NtRp4051
(dp4052
g29
g22
(S'0.25'
tRp4053
sg31
I256
sg32
I0
sg33
I71
sbasg34
g22
(S'0.25'
tRp4054
sg36
g22
(S'0.25'
tRp4055
sbag1
(g13
g3
NtRp4056
(dp4057
g16
S'T(0)./mid\\invention13_2.mid'
p4058
sg18
S'C'
sg20
I4096
sg21
g22
(S'0.0625'
tRp4059
sg24
(lp4060
g1
(g26
g3
NtRp4061
(dp4062
g29
g22
(S'0.0625'
tRp4063
sg31
I1280
sg32
I0
sg33
I67
sbasg34
g22
(S'0.3125'
tRp4064
sg36
g22
(S'0.3125'
tRp4065
sbag1
(g13
g3
NtRp4066
(dp4067
g16
S'T(5)./mid\\invention13_4.mid'
p4068
sg18
S'Am'
p4069
sg20
I4096
sg21
g22
(S'0.0625'
tRp4070
sg24
(lp4071
g1
(g26
g3
NtRp4072
(dp4073
g29
g22
(S'0.0625'
tRp4074
sg31
I256
sg32
I0
sg33
I84
sbasg34
g22
(S'0.0625'
tRp4075
sg36
g22
(S'0.0625'
tRp4076
sbag1
(g13
g3
NtRp4077
(dp4078
g16
S'T(0)./mid\\invention13_1.mid'
p4079
sg18
S'Am'
p4080
sg20
I4096
sg21
g22
(S'0.0625'
tRp4081
sg24
(lp4082
g1
(g26
g3
NtRp4083
(dp4084
g29
g22
(S'0.0625'
tRp4085
sg31
I2560
sg32
I1
sg33
I57
sbag1
(g26
g3
NtRp4086
(dp4087
g29
g22
(S'0.125'
tRp4088
sg31
I2560
sg32
I0
sg33
I76
sbasg34
g22
(S'0.625'
tRp4089
sg36
g22
(S'0.625'
tRp4090
sbag1
(g13
g3
NtRp4091
(dp4092
g16
S'T(0)./mid\\invention13_2.mid'
p4093
sg18
S'Em'
p4094
sg20
I4096
sg21
g22
(S'0.0625'
tRp4095
sg24
(lp4096
g1
(g26
g3
NtRp4097
(dp4098
g29
g22
(S'0.0625'
tRp4099
sg31
I12800
sg32
I0
sg33
I74
sbag1
(g26
g3
NtRp4100
(dp4101
g29
g22
(S'0.125'
tRp4102
sg31
I12800
sg32
I1
sg33
I59
sbasg34
g22
(S'0.125'
tRp4103
sg36
g22
(S'3.125'
tRp4104
sbag1
(g13
g3
NtRp4105
(dp4106
g16
S'T(0)./mid\\invention13_2.mid'
p4107
sg18
S'C'
sg20
I4096
sg21
g22
(S'0.0625'
tRp4108
sg24
(lp4109
g1
(g26
g3
NtRp4110
(dp4111
g29
g22
(S'0.0625'
tRp4112
sg31
I7424
sg32
I1
sg33
I64
sbasg34
g22
(S'0.8125'
tRp4113
sg36
g22
(S'1.8125'
tRp4114
sbag1
(g13
g3
NtRp4115
(dp4116
g16
S'T(2)./mid\\invention4_5.mid'
p4117
sg18
S'D'
sg20
I1024
sg21
g22
(S'0.25'
tRp4118
sg24
(lp4119
g1
(g26
g3
NtRp4120
(dp4121
g29
g22
(S'0.25'
tRp4122
sg31
I2304
sg32
I0
sg33
I66
sbasg34
g22
(S'0.25'
tRp4123
sg36
g22
(S'2.25'
tRp4124
sbag1
(g13
g3
NtRp4125
(dp4126
g16
S'T(0)./mid\\invention1_4.mid'
p4127
sg18
S'Am'
p4128
sg20
I4096
sg21
g22
(S'0.0625'
tRp4129
sg24
(lp4130
g1
(g26
g3
NtRp4131
(dp4132
g29
g22
(S'0.0625'
tRp4133
sg31
I2304
sg32
I0
sg33
I71
sbasg34
g22
(S'0.5625'
tRp4134
sg36
g22
(S'0.5625'
tRp4135
sbag1
(g13
g3
NtRp4136
(dp4137
g16
S'T(0)./mid\\invention1_3.mid'
p4138
sg18
S'C'
sg20
I4096
sg21
g22
(S'0.0625'
tRp4139
sg24
(lp4140
g1
(g26
g3
NtRp4141
(dp4142
g29
g22
(S'0.0625'
tRp4143
sg31
I3072
sg32
I0
sg33
I72
sbag1
(g26
g3
NtRp4144
(dp4145
g29
g22
(S'0.125'
tRp4146
sg31
I3072
sg32
I1
sg33
I57
sbasg34
g22
(S'0.75'
tRp4147
sg36
g22
(S'0.75'
tRp4148
sbag1
(g13
g3
NtRp4149
(dp4150
g16
S'T(0)./mid\\invention13_1.mid'
p4151
sg18
S'Am'
p4152
sg20
I4096
sg21
g22
(S'0.0625'
tRp4153
sg24
(lp4154
g1
(g26
g3
NtRp4155
(dp4156
g29
g22
(S'0.0625'
tRp4157
sg31
I512
sg32
I0
sg33
I69
sbag1
(g26
g3
NtRp4158
(dp4159
g29
g22
(S'0.25'
tRp4160
sg31
I512
sg32
I1
sg33
I57
sbasg34
g22
(S'0.125'
tRp4161
sg36
g22
(S'0.125'
tRp4162
sbag1
(g13
g3
NtRp4163
(dp4164
g16
S'T(5)./mid\\invention13_5.mid'
p4165
sg18
S'D'
sg20
I4096
sg21
g22
(S'0.0625'
tRp4166
sg24
(lp4167
g1
(g26
g3
NtRp4168
(dp4169
g29
g22
(S'0.0625'
tRp4170
sg31
I1536
sg32
I0
sg33
I78
sbag1
(g26
g3
NtRp4171
(dp4172
g29
g22
(S'0.125'
tRp4173
sg31
I1536
sg32
I1
sg33
I63
sbasg34
g22
(S'0.375'
tRp4174
sg36
g22
(S'0.375'
tRp4175
sbag1
(g13
g3
NtRp4176
(dp4177
g16
S'T(3)./mid\\invention4_1.mid'
p4178
sg18
S'C'
sg20
I1024
sg21
g22
(S'0.25'
tRp4179
sg24
(lp4180
g1
(g26
g3
NtRp4181
(dp4182
g29
g22
(S'0.25'
tRp4183
sg31
I1024
sg32
I0
sg33
I84
sbag1
(g26
g3
NtRp4184
(dp4185
g29
g22
(S'0.5'
tRp4186
sg31
I1024
sg32
I1
sg33
I65
sbasg34
g22
(S'0'
tRp4187
sg36
g22
(S'1'
tRp4188
sbag1
(g13
g3
NtRp4189
(dp4190
g16
S'T(0)./mid\\invention4_4.mid'
p4191
sg18
S'Em'
p4192
sg20
I1024
sg21
g22
(S'0.25'
tRp4193
sg24
(lp4194
g1
(g26
g3
NtRp4195
(dp4196
g29
g22
(S'0.25'
tRp4197
sg31
I2048
sg32
I0
sg33
I64
sbasg34
g22
(S'0'
tRp4198
sg36
g22
(S'2'
tRp4199
sbag1
(g13
g3
NtRp4200
(dp4201
g16
S'T(5)./mid\\invention13_5.mid'
p4202
sg18
S'Gm'
p4203
sg20
I4096
sg21
g22
(S'0.0625'
tRp4204
sg24
(lp4205
g1
(g26
g3
NtRp4206
(dp4207
g29
g22
(S'0.0625'
tRp4208
sg31
I5120
sg32
I0
sg33
I79
sbag1
(g26
g3
NtRp4209
(dp4210
g29
g22
(S'0.125'
tRp4211
sg31
I5120
sg32
I1
sg33
I58
sbasg34
g22
(S'0.25'
tRp4212
sg36
g22
(S'1.25'
tRp4213
sbag1
(g13
g3
NtRp4214
(dp4215
g16
S'T(2)./mid\\invention4_5.mid'
p4216
sg18
S'Bm'
p4217
sg20
I1024
sg21
g22
(S'0.25'
tRp4218
sg24
(lp4219
g1
(g26
g3
NtRp4220
(dp4221
g29
g22
(S'0.25'
tRp4222
sg31
I1024
sg32
I1
sg33
I47
sbag1
(g26
g3
NtRp4223
(dp4224
g29
g22
(S'0.25'
tRp4225
sg31
I1024
sg32
I0
sg33
I66
sbasg34
g22
(S'0'
tRp4226
sg36
g22
(S'1'
tRp4227
sbag1
(g13
g3
NtRp4228
(dp4229
g16
S'T(0)./mid\\invention13_3.mid'
p4230
sg18
S'Am'
p4231
sg20
I4096
sg21
g22
(S'0.0625'
tRp4232
sg24
(lp4233
g1
(g26
g3
NtRp4234
(dp4235
g29
g22
(S'0.0625'
tRp4236
sg31
I2560
sg32
I1
sg33
I62
sbag1
(g26
g3
NtRp4237
(dp4238
g29
g22
(S'0.125'
tRp4239
sg31
I2560
sg32
I0
sg33
I78
sbasg34
g22
(S'0.625'
tRp4240
sg36
g22
(S'0.625'
tRp4241
sbag1
(g13
g3
NtRp4242
(dp4243
g16
S'T(-4)./mid\\invention13_6.mid'
p4244
sg18
S'Fm'
p4245
sg20
I4096
sg21
g22
(S'0.0625'
tRp4246
sg24
(lp4247
g1
(g26
g3
NtRp4248
(dp4249
g29
g22
(S'0.0625'
tRp4250
sg31
I256
sg32
I0
sg33
I72
sbasg34
g22
(S'0.0625'
tRp4251
sg36
g22
(S'0.0625'
tRp4252
sbag1
(g13
g3
NtRp4253
(dp4254
g16
S'T(0)./mid\\invention4_4.mid'
p4255
sg18
S'Em'
p4256
sg20
I1024
sg21
g22
(S'0.25'
tRp4257
sg24
(lp4258
g1
(g26
g3
NtRp4259
(dp4260
g29
g22
(S'0.25'
tRp4261
sg31
I2304
sg32
I0
sg33
I66
sbasg34
g22
(S'0.25'
tRp4262
sg36
g22
(S'2.25'
tRp4263
sbag1
(g13
g3
NtRp4264
(dp4265
g16
S'T(-4)./mid\\invention13_6.mid'
p4266
sg18
S'Fm'
p4267
sg20
I4096
sg21
g22
(S'0.0625'
tRp4268
sg24
(lp4269
g1
(g26
g3
NtRp4270
(dp4271
g29
g22
(S'0.0625'
tRp4272
sg31
I1280
sg32
I0
sg33
I72
sbasg34
g22
(S'0.3125'
tRp4273
sg36
g22
(S'0.3125'
tRp4274
sbag1
(g13
g3
NtRp4275
(dp4276
g16
S'T(0)./mid\\invention13_3.mid'
p4277
sg18
S'Am'
p4278
sg20
I4096
sg21
g22
(S'0.0625'
tRp4279
sg24
(lp4280
g1
(g26
g3
NtRp4281
(dp4282
g29
g22
(S'0.0625'
tRp4283
sg31
I3328
sg32
I1
sg33
I62
sbasg34
g22
(S'0.8125'
tRp4284
sg36
g22
(S'0.8125'
tRp4285
sbag1
(g13
g3
NtRp4286
(dp4287
g16
S'T(-4)./mid\\invention4_6.mid'
p4288
sg18
S'A#/Bbm'
p4289
sg20
I1024
sg21
g22
(S'0.125'
tRp4290
sg24
(lp4291
g1
(g26
g3
NtRp4292
(dp4293
g29
g22
(S'0.13671875'
tRp4294
sg31
I256
sg32
I1
sg33
I48
sbag1
(g26
g3
NtRp4295
(dp4296
g29
g22
(S'0.25'
tRp4297
sg31
I256
sg32
I0
sg33
I68
sbasg34
g22
(S'0.25'
tRp4298
sg36
g22
(S'0.25'
tRp4299
sbag1
(g13
g3
NtRp4300
(dp4301
g16
S'T(5)./mid\\invention3_3.mid'
p4302
sg18
S'Em'
p4303
sg20
I1024
sg21
g22
(S'0.25'
tRp4304
sg24
(lp4305
g1
(g26
g3
NtRp4306
(dp4307
g29
g22
(S'0.25'
tRp4308
sg31
I2048
sg32
I0
sg33
I81
sbasg34
g22
(S'0'
tRp4309
sg36
g22
(S'2'
tRp4310
sbag1
(g13
g3
NtRp4311
(dp4312
g16
S'T(5)./mid\\invention3_3.mid'
p4313
sg18
S'Em'
p4314
sg20
I1024
sg21
g22
(S'0.25'
tRp4315
sg24
(lp4316
g1
(g26
g3
NtRp4317
(dp4318
g29
g22
(S'0.25'
tRp4319
sg31
I768
sg32
I0
sg33
I75
sbasg34
g22
(S'0.75'
tRp4320
sg36
g22
(S'0.75'
tRp4321
sbag1
(g13
g3
NtRp4322
(dp4323
g16
S'T(5)./mid\\invention3_3.mid'
p4324
sg18
S'Em'
p4325
sg20
I1024
sg21
g22
(S'0.25'
tRp4326
sg24
(lp4327
g1
(g26
g3
NtRp4328
(dp4329
g29
g22
(S'0.25'
tRp4330
sg31
I2816
sg32
I0
sg33
I76
sbasg34
g22
(S'0.75'
tRp4331
sg36
g22
(S'2.75'
tRp4332
sbag1
(g13
g3
NtRp4333
(dp4334
g16
S'T(0)./mid\\invention13_1.mid'
p4335
sg18
S'G'
sg20
I4096
sg21
g22
(S'0.0625'
tRp4336
sg24
(lp4337
g1
(g26
g3
NtRp4338
(dp4339
g29
g22
(S'0.0625'
tRp4340
sg31
I13056
sg32
I0
sg33
I74
sbasg34
g22
(S'0.1875'
tRp4341
sg36
g22
(S'3.1875'
tRp4342
sbag1
(g13
g3
NtRp4343
(dp4344
g16
S'T(3)./mid\\invention3_1.mid'
p4345
sg18
S'C'
sg20
I1024
sg21
g22
(S'0.25'
tRp4346
sg24
(lp4347
g1
(g26
g3
NtRp4348
(dp4349
g29
g22
(S'0.25'
tRp4350
sg31
I1024
sg32
I0
sg33
I76
sbag1
(g26
g3
NtRp4351
(dp4352
g29
g22
(S'0.4580078125'
tRp4353
sg31
I1024
sg32
I1
sg33
I60
sbasg34
g22
(S'0'
tRp4354
sg36
g22
(S'1'
tRp4355
sbag1
(g13
g3
NtRp4356
(dp4357
g16
S'T(0)./mid\\invention13_2.mid'
p4358
sg18
S'C'
sg20
I4096
sg21
g22
(S'0.0625'
tRp4359
sg24
(lp4360
g1
(g26
g3
NtRp4361
(dp4362
g29
g22
(S'0.0625'
tRp4363
sg31
I5120
sg32
I0
sg33
I74
sbasg34
g22
(S'0.25'
tRp4364
sg36
g22
(S'1.25'
tRp4365
sbag1
(g13
g3
NtRp4366
(dp4367
g16
S'T(0)./mid\\invention13_2.mid'
p4368
sg18
S'Em'
p4369
sg20
I4096
sg21
g22
(S'0.0625'
tRp4370
sg24
(lp4371
g1
(g26
g3
NtRp4372
(dp4373
g29
g22
(S'0.0625'
tRp4374
sg31
I15616
sg32
I1
sg33
I60
sbasg34
g22
(S'0.8125'
tRp4375
sg36
g22
(S'3.8125'
tRp4376
sbag1
(g13
g3
NtRp4377
(dp4378
g16
S'T(-4)./mid\\invention13_6.mid'
p4379
sg18
S'Fm'
p4380
sg20
I4096
sg21
g22
(S'0.0625'
tRp4381
sg24
(lp4382
g1
(g26
g3
NtRp4383
(dp4384
g29
g22
(S'0.0625'
tRp4385
sg31
I3584
sg32
I1
sg33
I59
sbasg34
g22
(S'0.875'
tRp4386
sg36
g22
(S'0.875'
tRp4387
sbag1
(g13
g3
NtRp4388
(dp4389
g16
S'T(-4)./mid\\invention13_6.mid'
p4390
sg18
S'Fm'
p4391
sg20
I4096
sg21
g22
(S'0.0625'
tRp4392
sg24
(lp4393
g1
(g26
g3
NtRp4394
(dp4395
g29
g22
(S'0.0625'
tRp4396
sg31
I512
sg32
I0
sg33
I75
sbag1
(g26
g3
NtRp4397
(dp4398
g29
g22
(S'0.125'
tRp4399
sg31
I512
sg32
I1
sg33
I44
sbasg34
g22
(S'0.125'
tRp4400
sg36
g22
(S'0.125'
tRp4401
sbag1
(g13
g3
NtRp4402
(dp4403
g16
S'T(5)./mid\\invention13_4.mid'
p4404
sg18
S'Am'
p4405
sg20
I4096
sg21
g22
(S'0.0625'
tRp4406
sg24
(lp4407
g1
(g26
g3
NtRp4408
(dp4409
g29
g22
(S'0.0625'
tRp4410
sg31
I1280
sg32
I0
sg33
I79
sbasg34
g22
(S'0.3125'
tRp4411
sg36
g22
(S'0.3125'
tRp4412
sbag1
(g13
g3
NtRp4413
(dp4414
g16
S'T(0)./mid\\invention1_1.mid'
p4415
sg18
S'C'
sg20
I4096
sg21
g22
(S'0.0625'
tRp4416
sg24
(lp4417
g1
(g26
g3
NtRp4418
(dp4419
g29
g22
(S'0.0625'
tRp4420
sg31
I2816
sg32
I1
sg33
I52
sbasg34
g22
(S'0.6875'
tRp4421
sg36
g22
(S'0.6875'
tRp4422
sbag1
(g13
g3
NtRp4423
(dp4424
g16
S'T(0)./mid\\invention4_3.mid'
p4425
sg18
S'Am'
p4426
sg20
I1024
sg21
g22
(S'0.25'
tRp4427
sg24
(lp4428
g1
(g26
g3
NtRp4429
(dp4430
g29
g22
(S'0.25'
tRp4431
sg31
I256
sg32
I0
sg33
I72
sbasg34
g22
(S'0.25'
tRp4432
sg36
g22
(S'0.25'
tRp4433
sbag1
(g13
g3
NtRp4434
(dp4435
g16
S'T(5)./mid\\invention13_5.mid'
p4436
sg18
S'Gm'
p4437
sg20
I4096
sg21
g22
(S'0.0625'
tRp4438
sg24
(lp4439
g1
(g26
g3
NtRp4440
(dp4441
g29
g22
(S'0.125'
tRp4442
sg31
I4096
sg32
I1
sg33
I67
sbasg34
g22
(S'0'
tRp4443
sg36
g22
(S'1'
tRp4444
sbag1
(g13
g3
NtRp4445
(dp4446
g16
S'T(3)./mid\\invention3_4.mid'
p4447
sg18
S'Am'
p4448
sg20
I1024
sg21
g22
(S'0.25'
tRp4449
sg24
(lp4450
g1
(g26
g3
NtRp4451
(dp4452
g29
g22
(S'0.25'
tRp4453
sg31
I3840
sg32
I1
sg33
I52
sbasg34
g22
(S'0.75'
tRp4454
sg36
g22
(S'3.75'
tRp4455
sbag1
(g13
g3
NtRp4456
(dp4457
g16
S'T(-5)./mid\\invention4_2.mid'
p4458
sg18
S'F'
sg20
I1024
sg21
g22
(S'0.25'
tRp4459
sg24
(lp4460
g1
(g26
g3
NtRp4461
(dp4462
g29
g22
(S'0.25'
tRp4463
sg31
I768
sg32
I0
sg33
I72
sbasg34
g22
(S'0.75'
tRp4464
sg36
g22
(S'0.75'
tRp4465
sbag1
(g13
g3
NtRp4466
(dp4467
g16
S'T(0)./mid\\invention13_2.mid'
p4468
sg18
S'C'
sg20
I4096
sg21
g22
(S'0.0625'
tRp4469
sg24
(lp4470
g1
(g26
g3
NtRp4471
(dp4472
g29
g22
(S'0.0625'
tRp4473
sg31
I2304
sg32
I1
sg33
I55
sbasg34
g22
(S'0.5625'
tRp4474
sg36
g22
(S'0.5625'
tRp4475
sbag1
(g13
g3
NtRp4476
(dp4477
g16
S'T(0)./mid\\invention1_4.mid'
p4478
sg18
S'Am'
p4479
sg20
I4096
sg21
g22
(S'0.0625'
tRp4480
sg24
(lp4481
g1
(g26
g3
NtRp4482
(dp4483
g29
g22
(S'0.0625'
tRp4484
sg31
I256
sg32
I0
sg33
I74
sbasg34
g22
(S'0.0625'
tRp4485
sg36
g22
(S'0.0625'
tRp4486
sbag1
(g13
g3
NtRp4487
(dp4488
g16
S'T(0)./mid\\invention4_3.mid'
p4489
sg18
S'Dm'
p4490
sg20
I1024
sg21
g22
(S'0.25'
tRp4491
sg24
(lp4492
g1
(g26
g3
NtRp4493
(dp4494
g29
g22
(S'0.25'
tRp4495
sg31
I2048
sg32
I0
sg33
I77
sbag1
(g26
g3
NtRp4496
(dp4497
g29
g22
(S'0.5'
tRp4498
sg31
I2048
sg32
I1
sg33
I55
sbasg34
g22
(S'0'
tRp4499
sg36
g22
(S'2'
tRp4500
sbatRp4501
sS'markov'
p4502
(dp4503
(g4343
tp4504
(lp4505
g2982
ag1
(g13
g3
NtRp4506
(dp4507
g16
S'T(3)./mid\\invention3_2.mid'
p4508
sg18
S'C'
sg20
I1024
sg21
g22
(S'0.25'
tRp4509
sg24
(lp4510
g1
(g26
g3
NtRp4511
(dp4512
g29
g22
(S'0.25'
tRp4513
sg31
I1280
sg32
I0
sg33
I74
sbasg34
g22
(S'0.25'
tRp4514
sg36
g22
(S'1.25'
tRp4515
sbas(g3334
tp4516
(lp4517
g4033
as(g1923
tp4518
(lp4519
g2197
as(g2534
tp4520
(lp4521
g2144
as(g4322
tp4522
(lp4523
g1085
as(g2909
tp4524
(lp4525
g3696
as(g2399
tp4526
(lp4527
g4163
as(g1249
tp4528
(lp4529
g324
as(g4149
tp4530
(lp4531
g3296
ag1
(g13
g3
NtRp4532
(dp4533
g16
S'T(0)./mid\\invention13_1.mid'
p4534
sg18
S'Am'
p4535
sg20
I4096
sg21
g22
(S'0.0625'
tRp4536
sg24
(lp4537
g1
(g26
g3
NtRp4538
(dp4539
g29
g22
(S'0.0625'
tRp4540
sg31
I4864
sg32
I0
sg33
I72
sbasg34
g22
(S'0.1875'
tRp4541
sg36
g22
(S'1.1875'
tRp4542
sbas(g2465
tp4543
(lp4544
g3822
as(g3276
tp4545
(lp4546
g2157
as(g1688
tp4547
(lp4548
g3509
as(g1868
tp4549
(lp4550
g1796
as(g52
tp4551
(lp4552
g2110
as(g713
tp4553
(lp4554
g791
ag1
(g13
g3
NtRp4555
(dp4556
g16
S'T(-4)./mid\\invention4_7.mid'
p4557
sg18
S'A#/Bbm'
p4558
sg20
I1024
sg21
g22
(S'0.125'
tRp4559
sg24
(lp4560
g1
(g26
g3
NtRp4561
(dp4562
g29
g22
(S'0.13671875'
tRp4563
sg31
I128
sg32
I1
sg33
I49
sbasg34
g22
(S'0.125'
tRp4564
sg36
g22
(S'0.125'
tRp4565
sbas(g2183
tp4566
(lp4567
g2512
as(g3686
tp4568
(lp4569
g3180
as(g3307
tp4570
(lp4571
g3889
as(g3354
tp4572
(lp4573
g1948
as(g230
tp4574
(lp4575
g1
(g13
g3
NtRp4576
(dp4577
g16
S'T(0)./mid\\invention13_1.mid'
p4578
sg18
S'Am'
p4579
sg20
I4096
sg21
g22
(S'0.0625'
tRp4580
sg24
(lp4581
g1
(g26
g3
NtRp4582
(dp4583
g29
g22
(S'0.0625'
tRp4584
sg31
I7424
sg32
I1
sg33
I52
sbasg34
g22
(S'0.8125'
tRp4585
sg36
g22
(S'1.8125'
tRp4586
sbas(g1321
tp4587
(lp4588
g3520
ag1
(g13
g3
NtRp4589
(dp4590
g16
S'T(0)./mid\\invention13_2.mid'
p4591
sg18
S'Am'
p4592
sg20
I4096
sg21
g22
(S'0.0625'
tRp4593
sg24
(lp4594
g1
(g26
g3
NtRp4595
(dp4596
g29
g22
(S'0.0625'
tRp4597
sg31
I9728
sg32
I0
sg33
I69
sbag1
(g26
g3
NtRp4598
(dp4599
g29
g22
(S'0.125'
tRp4600
sg31
I9728
sg32
I1
sg33
I67
sbasg34
g22
(S'0.375'
tRp4601
sg36
g22
(S'2.375'
tRp4602
sbas(g122
tp4603
(lp4604
g3051
as(g2858
tp4605
(lp4606
g2419
as(g2587
tp4607
(lp4608
g741
as(g881
tp4609
(lp4610
g532
as(g3742
tp4611
(lp4612
g52
as(g3999
tp4613
(lp4614
g1
(g13
g3
NtRp4615
(dp4616
g16
S'T(0)./mid\\invention13_2.mid'
p4617
sg18
S'C'
sg20
I4096
sg21
g22
(S'0.0625'
tRp4618
sg24
(lp4619
g1
(g26
g3
NtRp4620
(dp4621
g29
g22
(S'0.0625'
tRp4622
sg31
I2816
sg32
I1
sg33
I64
sbasg34
g22
(S'0.6875'
tRp4623
sg36
g22
(S'0.6875'
tRp4624
sbas(g2325
tp4625
(lp4626
g1140
ag1
(g13
g3
NtRp4627
(dp4628
g16
S'T(3)./mid\\invention3_2.mid'
p4629
sg18
S'C'
sg20
I1024
sg21
g22
(S'0.25'
tRp4630
sg24
(lp4631
g1
(g26
g3
NtRp4632
(dp4633
g29
g22
(S'0.25'
tRp4634
sg31
I256
sg32
I0
sg33
I76
sbasg34
g22
(S'0.25'
tRp4635
sg36
g22
(S'0.25'
tRp4636
sbas(g1641
tp4637
(lp4638
g628
as(g1563
tp4639
(lp4640
g355
ag1
(g13
g3
NtRp4641
(dp4642
g16
S'T(3)./mid\\invention3_2.mid'
p4643
sg18
S'Fm'
p4644
sg20
I1024
sg21
g22
(S'0.25'
tRp4645
sg24
(lp4646
g1
(g26
g3
NtRp4647
(dp4648
g29
g22
(S'0.25'
tRp4649
sg31
I2304
sg32
I0
sg33
I74
sbasg34
g22
(S'0.25'
tRp4650
sg36
g22
(S'2.25'
tRp4651
sbas(g4434
tp4652
(lp4653
g2601
as(g4228
tp4654
(lp4655
g2792
ag1
(g13
g3
NtRp4656
(dp4657
g16
S'T(0)./mid\\invention13_2.mid'
p4658
sg18
S'Am'
p4659
sg20
I4096
sg21
g22
(S'0.0625'
tRp4660
sg24
(lp4661
g1
(g26
g3
NtRp4662
(dp4663
g29
g22
(S'0.0625'
tRp4664
sg31
I11008
sg32
I1
sg33
I66
sbasg34
g22
(S'0.6875'
tRp4665
sg36
g22
(S'2.6875'
tRp4666
sbas(g3707
tp4667
(lp4668
S'stop_token'
p4669
as(g1332
tp4670
(lp4671
g1
(g13
g3
NtRp4672
(dp4673
g16
S'T(0)./mid\\invention13_2.mid'
p4674
sg18
S'C'
sg20
I4096
sg21
g22
(S'0.0625'
tRp4675
sg24
(lp4676
g1
(g26
g3
NtRp4677
(dp4678
g29
g22
(S'0.0625'
tRp4679
sg31
I4352
sg32
I0
sg33
I67
sbasg34
g22
(S'0.0625'
tRp4680
sg36
g22
(S'1.0625'
tRp4681
sbas(g3568
tp4682
(lp4683
g4669
as(g3534
tp4684
(lp4685
g4077
ag277
as(g324
tp4686
(lp4687
g871
as(g301
tp4688
(lp4689
g1601
as(g3180
tp4690
(lp4691
g2889
as(g3051
tp4692
(lp4693
g2745
as(g4356
tp4694
(lp4695
g1
(g13
g3
NtRp4696
(dp4697
g16
S'T(0)./mid\\invention13_2.mid'
p4698
sg18
S'C'
sg20
I4096
sg21
g22
(S'0.0625'
tRp4699
sg24
(lp4700
g1
(g26
g3
NtRp4701
(dp4702
g29
g22
(S'0.0625'
tRp4703
sg31
I5376
sg32
I0
sg33
I67
sbasg34
g22
(S'0.3125'
tRp4704
sg36
g22
(S'1.3125'
tRp4705
sbas(g3900
tp4706
(lp4707
g1
(g13
g3
NtRp4708
(dp4709
g16
S'T(0)./mid\\invention13_1.mid'
p4710
sg18
S'Am'
p4711
sg20
I4096
sg21
g22
(S'0.0625'
tRp4712
sg24
(lp4713
g1
(g26
g3
NtRp4714
(dp4715
g29
g22
(S'0.0625'
tRp4716
sg31
I4352
sg32
I0
sg33
I64
sbasg34
g22
(S'0.0625'
tRp4717
sg36
g22
(S'1.0625'
tRp4718
sbas(g521
tp4719
(lp4720
g4242
as(g4402
tp4721
(lp4722
g2183
as(g3321
tp4723
(lp4724
g2465
as(g1074
tp4725
(lp4726
g440
ag1
(g13
g3
NtRp4727
(dp4728
g16
S'T(0)./mid\\invention13_2.mid'
p4729
sg18
S'Am'
p4730
sg20
I4096
sg21
g22
(S'0.0625'
tRp4731
sg24
(lp4732
g1
(g26
g3
NtRp4733
(dp4734
g29
g22
(S'0.0625'
tRp4735
sg31
I10240
sg32
I1
sg33
I66
sbag1
(g26
g3
NtRp4736
(dp4737
g29
g22
(S'0.125'
tRp4738
sg31
I10240
sg32
I0
sg33
I74
sbasg34
g22
(S'0.5'
tRp4739
sg36
g22
(S'2.5'
tRp4740
sbas(g3111
tp4741
(lp4742
g1563
ag1
(g13
g3
NtRp4743
(dp4744
g16
S'T(3)./mid\\invention3_2.mid'
p4745
sg18
S'Fm'
p4746
sg20
I1024
sg21
g22
(S'0.25'
tRp4747
sg24
(lp4748
g1
(g26
g3
NtRp4749
(dp4750
g29
g22
(S'0.25'
tRp4751
sg31
I2048
sg32
I0
sg33
I77
sbag1
(g26
g3
NtRp4752
(dp4753
g29
g22
(S'0.5'
tRp4754
sg31
I2048
sg32
I1
sg33
I48
sbasg34
g22
(S'0'
tRp4755
sg36
g22
(S'2'
tRp4756
sbas(g833
tp4757
(lp4758
g4200
as(g3545
tp4759
(lp4760
g1893
as(g3766
tp4761
(lp4762
g996
as(g607
tp4763
(lp4764
g1109
as(g2110
tp4765
(lp4766
g2858
as(g3190
tp4767
(lp4768
g1010
as(g1663
tp4769
(lp4770
g2388
as(g3064
tp4771
(lp4772
g4669
as(g4456
tp4773
(lp4774
g1272
as(g1736
tp4775
(lp4776
g1487
as(g2933
tp4777
(lp4778
g1223
as(g4242
tp4779
(lp4780
g4388
as(g2512
tp4781
(lp4782
g2451
as(g4189
tp4783
(lp4784
g4253
as(g3495
tp4785
(lp4786
g1383
as(g171
tp4787
(lp4788
g3869
as(g752
tp4789
(lp4790
g4022
as(g1796
tp4791
(lp4792
g2086
as(g2722
tp4793
(lp4794
g881
as(g73
tp4795
(lp4796
g2378
as(g2612
tp4797
(lp4798
g2211
as(g1223
tp4799
(lp4800
g3845
as(g802
tp4801
(lp4802
g4136
as(g440
tp4803
(lp4804
g1772
ag1
(g13
g3
NtRp4805
(dp4806
g16
S'T(0)./mid\\invention13_2.mid'
p4807
sg18
S'Am'
p4808
sg20
I4096
sg21
g22
(S'0.0625'
tRp4809
sg24
(lp4810
g1
(g26
g3
NtRp4811
(dp4812
g29
g22
(S'0.0625'
tRp4813
sg31
I10496
sg32
I1
sg33
I69
sbasg34
g22
(S'0.5625'
tRp4814
sg36
g22
(S'2.5625'
tRp4815
sbas(g917
tp4816
(lp4817
g3190
as(g669
tp4818
(lp4819
g3900
ag2121
as(g3520
tp4820
(lp4821
g1074
ag1
(g13
g3
NtRp4822
(dp4823
g16
S'T(0)./mid\\invention13_2.mid'
p4824
sg18
S'Am'
p4825
sg20
I4096
sg21
g22
(S'0.0625'
tRp4826
sg24
(lp4827
g1
(g26
g3
NtRp4828
(dp4829
g29
g22
(S'0.0625'
tRp4830
sg31
I9984
sg32
I0
sg33
I72
sbasg34
g22
(S'0.4375'
tRp4831
sg36
g22
(S'2.4375'
tRp4832
sbas(g3256
tp4833
(lp4834
g2221
as(g86
tp4835
(lp4836
g1297
as(g1841
tp4837
(lp4838
g380
ag1
(g13
g3
NtRp4839
(dp4840
g16
S'T(0)./mid\\invention13_2.mid'
p4841
sg18
S'Am'
p4842
sg20
I4096
sg21
g22
(S'0.0625'
tRp4843
sg24
(lp4844
g1
(g26
g3
NtRp4845
(dp4846
g29
g22
(S'0.0625'
tRp4847
sg31
I12032
sg32
I1
sg33
I57
sbasg34
g22
(S'0.9375'
tRp4848
sg36
g22
(S'2.9375'
tRp4849
sbas(g4413
tp4850
(lp4851
g1588
as(g146
tp4852
(lp4853
g2823
as(g1297
tp4854
(lp4855
g4669
as(g2803
tp4856
(lp4857
g3914
as(g3662
tp4858
(lp4859
g4669
as(g2086
tp4860
(lp4861
g3600
as(g1677
tp4862
(lp4863
g4669
as(g1601
tp4864
(lp4865
g3625
as(g1750
tp4866
(lp4867
g1868
as(g38
tp4868
(lp4869
g4423
as(g3121
tp4870
(lp4871
g206
ag230
as(g3555
tp4872
(lp4873
g1236
ag1
(g13
g3
NtRp4874
(dp4875
g16
S'T(-4)./mid\\invention4_7.mid'
p4876
sg18
S'C'
sg20
I1024
sg21
g22
(S'0.125'
tRp4877
sg24
(lp4878
g1
(g26
g3
NtRp4879
(dp4880
g29
g22
(S'0.13671875'
tRp4881
sg31
I1536
sg32
I1
sg33
I48
sbag1
(g26
g3
NtRp4882
(dp4883
g29
g22
(S'0.25'
tRp4884
sg31
I1536
sg32
I0
sg33
I60
sbasg34
g22
(S'0.5'
tRp4885
sg36
g22
(S'1.5'
tRp4886
sbas(g2278
tp4887
(lp4888
g3111
ag1
(g13
g3
NtRp4889
(dp4890
g16
S'T(3)./mid\\invention3_2.mid'
p4891
sg18
S'C'
sg20
I1024
sg21
g22
(S'0.25'
tRp4892
sg24
(lp4893
g1
(g26
g3
NtRp4894
(dp4895
g29
g22
(S'0.25'
tRp4896
sg31
I1792
sg32
I0
sg33
I76
sbasg34
g22
(S'0.75'
tRp4897
sg36
g22
(S'1.75'
tRp4898
sbas(g2792
tp4899
(lp4900
g2625
ag1
(g13
g3
NtRp4901
(dp4902
g16
S'T(0)./mid\\invention13_2.mid'
p4903
sg18
S'Am'
p4904
sg20
I4096
sg21
g22
(S'0.0625'
tRp4905
sg24
(lp4906
g1
(g26
g3
NtRp4907
(dp4908
g29
g22
(S'0.0625'
tRp4909
sg31
I11264
sg32
I1
sg33
I57
sbag1
(g26
g3
NtRp4910
(dp4911
g29
g22
(S'0.125'
tRp4912
sg31
I11264
sg32
I0
sg33
I81
sbasg34
g22
(S'0.75'
tRp4913
sg36
g22
(S'2.75'
tRp4914
sbas(g4105
tp4915
(lp4916
g73
as(g858
tp4917
(lp4918
g3673
ag3031
ag4043
as(g556
tp4919
(lp4920
g1882
ag1
(g13
g3
NtRp4921
(dp4922
g16
S'T(3)./mid\\invention3_2.mid'
p4923
sg18
S'Fm'
p4924
sg20
I1024
sg21
g22
(S'0.25'
tRp4925
sg24
(lp4926
g1
(g26
g3
NtRp4927
(dp4928
g29
g22
(S'0.25'
tRp4929
sg31
I2816
sg32
I0
sg33
I71
sbasg34
g22
(S'0.75'
tRp4930
sg36
g22
(S'2.75'
tRp4931
sbas(g2197
tp4932
(lp4933
g474
as(g3132
tp4934
(lp4935
g583
as(g4286
tp4936
(lp4937
g1959
ag1
(g13
g3
NtRp4938
(dp4939
g16
S'T(-4)./mid\\invention4_7.mid'
p4940
sg18
S'A#/Bbm'
p4941
sg20
I1024
sg21
g22
(S'0.125'
tRp4942
sg24
(lp4943
g1
(g26
g3
NtRp4944
(dp4945
g29
g22
(S'0.13671875'
tRp4946
sg31
I384
sg32
I1
sg33
I49
sbasg34
g22
(S'0.375'
tRp4947
sg36
g22
(S'0.375'
tRp4948
sbas(g2475
tp4949
(lp4950
g3835
as(g2969
tp4951
(lp4952
g2686
as(g4136
tp4953
(lp4954
g3246
as(g3845
tp4955
(lp4956
g1526
as(g2315
tp4957
(lp4958
g1688
as(g812
tp4959
(lp4960
g4445
as(g2388
tp4961
(lp4962
g4669
as(g3396
tp4963
(lp4964
g1970
ag2845
as(g1631
tp4965
(lp4966
g2813
ag2255
as(g1855
tp4967
(lp4968
g2056
as(g2409
tp4969
(lp4970
g1
(g13
g3
NtRp4971
(dp4972
g16
S'T(-4)./mid\\invention4_6.mid'
p4973
sg18
S'C'
sg20
I1024
sg21
g22
(S'0.125'
tRp4974
sg24
(lp4975
g1
(g26
g3
NtRp4976
(dp4977
g29
g22
(S'0.13671875'
tRp4978
sg31
I2048
sg32
I1
sg33
I48
sbag1
(g26
g3
NtRp4979
(dp4980
g29
g22
(S'0.25'
tRp4981
sg31
I2048
sg32
I0
sg33
I64
sbasg34
g22
(S'0'
tRp4982
sg36
g22
(S'2'
tRp4983
sbag1
(g13
g3
NtRp4984
(dp4985
g16
S'T(-4)./mid\\invention4_7.mid'
p4986
sg18
S'C'
sg20
I1024
sg21
g22
(S'0.125'
tRp4987
sg24
(lp4988
g1
(g26
g3
NtRp4989
(dp4990
g29
g22
(S'0.13671875'
tRp4991
sg31
I2048
sg32
I1
sg33
I48
sbag1
(g26
g3
NtRp4992
(dp4993
g29
g22
(S'0.25'
tRp4994
sg31
I2048
sg32
I0
sg33
I64
sbasg34
g22
(S'0'
tRp4995
sg36
g22
(S'2'
tRp4996
sbas(g160
tp4997
(lp4998
g1652
as(g1308
tp4999
(lp5000
g2709
as(g945
tp5001
(lp5002
g1186
as(g1160
tp5003
(lp5004
g2803
as(g3673
tp5005
(lp5006
g264
as(g2020
tp5007
(lp5008
g132
ag1
(g13
g3
NtRp5009
(dp5010
g16
S'T(0)./mid\\invention13_2.mid'
p5011
sg18
S'Am'
p5012
sg20
I4096
sg21
g22
(S'0.0625'
tRp5013
sg24
(lp5014
g1
(g26
g3
NtRp5015
(dp5016
g29
g22
(S'0.0625'
tRp5017
sg31
I8704
sg32
I0
sg33
I76
sbag1
(g26
g3
NtRp5018
(dp5019
g29
g22
(S'0.125'
tRp5020
sg31
I8704
sg32
I1
sg33
I60
sbasg34
g22
(S'0.125'
tRp5021
sg36
g22
(S'2.125'
tRp5022
sbas(g2007
tp5023
(lp5024
g3211
as(g3579
tp5025
(lp5026
g2534
as(g3450
tp5027
(lp5028
g618
as(g1611
tp5029
(lp5030
g1173
as(g111
tp5031
(lp5032
g3855
ag1
(g13
g3
NtRp5033
(dp5034
g16
S'T(0)./mid\\invention13_1.mid'
p5035
sg18
S'Am'
p5036
sg20
I4096
sg21
g22
(S'0.0625'
tRp5037
sg24
(lp5038
g1
(g26
g3
NtRp5039
(dp5040
g29
g22
(S'0.0625'
tRp5041
sg31
I2048
sg32
I1
sg33
I57
sbag1
(g26
g3
NtRp5042
(dp5043
g29
g22
(S'0.125'
tRp5044
sg31
I2048
sg32
I0
sg33
I72
sbasg34
g22
(S'0.5'
tRp5045
sg36
g22
(S'0.5'
tRp5046
sbag1
(g13
g3
NtRp5047
(dp5048
g16
S'T(0)./mid\\invention13_1.mid'
p5049
sg18
S'Am'
p5050
sg20
I4096
sg21
g22
(S'0.0625'
tRp5051
sg24
(lp5052
g1
(g26
g3
NtRp5053
(dp5054
g29
g22
(S'0.0625'
tRp5055
sg31
I6144
sg32
I1
sg33
I57
sbag1
(g26
g3
NtRp5056
(dp5057
g29
g22
(S'0.125'
tRp5058
sg31
I6144
sg32
I0
sg33
I72
sbasg34
g22
(S'0.5'
tRp5059
sg36
g22
(S'1.5'
tRp5060
sbas(g1462
tp5061
(lp5062
g4176
as(g4163
tp5063
(lp5064
g3276
as(g3731
tp5065
(lp5066
g3985
as(g3985
tp5067
(lp5068
g4402
as(g3461
tp5069
(lp5070
g3201
as(g996
tp5071
(lp5072
g1286
as(g690
tp5073
(lp5074
g4669
ag4669
as(g2056
tp5075
(lp5076
g4189
as(g2544
tp5077
(lp5078
g1
(g13
g3
NtRp5079
(dp5080
g16
S'T(0)./mid\\invention13_2.mid'
p5081
sg18
S'C'
sg20
I4096
sg21
g22
(S'0.0625'
tRp5082
sg24
(lp5083
g1
(g26
g3
NtRp5084
(dp5085
g29
g22
(S'0.0625'
tRp5086
sg31
I6400
sg32
I1
sg33
I67
sbasg34
g22
(S'0.5625'
tRp5087
sg36
g22
(S'1.5625'
tRp5088
sbas(g3509
tp5089
(lp5090
g593
as(g4214
tp5091
(lp5092
g1024
as(g3696
tp5093
(lp5094
g2430
as(g3167
tp5095
(lp5096
g1150
ag1
(g13
g3
NtRp5097
(dp5098
g16
S'T(3)./mid\\invention3_2.mid'
p5099
sg18
S'C'
sg20
I1024
sg21
g22
(S'0.25'
tRp5100
sg24
(lp5101
g1
(g26
g3
NtRp5102
(dp5103
g29
g22
(S'0.25'
tRp5104
sg31
I768
sg32
I0
sg33
I77
sbasg34
g22
(S'0.75'
tRp5105
sg36
g22
(S'0.75'
tRp5106
sbas(g4487
tp5107
(lp5108
g100
as(g195
tp5109
(lp5110
g2755
ag3221
as(g4366
tp5111
(lp5112
g86
as(g1024
tp5113
(lp5114
g1498
as(g3221
tp5115
(lp5116
g1
(g13
g3
NtRp5117
(dp5118
g16
S'T(0)./mid\\invention13_1.mid'
p5119
sg18
S'Am'
p5120
sg20
I4096
sg21
g22
(S'0.0625'
tRp5121
sg24
(lp5122
g1
(g26
g3
NtRp5123
(dp5124
g29
g22
(S'0.0625'
tRp5125
sg31
I5888
sg32
I0
sg33
I74
sbasg34
g22
(S'0.4375'
tRp5126
sg36
g22
(S'1.4375'
tRp5127
sbas(g4012
tp5128
(lp5129
g301
as(g3965
tp5130
(lp5131
g1
(g13
g3
NtRp5132
(dp5133
g16
S'T(3)./mid\\invention3_4.mid'
p5134
sg18
S'C'
sg20
I1024
sg21
g22
(S'0.25'
tRp5135
sg24
(lp5136
g1
(g26
g3
NtRp5137
(dp5138
g29
g22
(S'0.25'
tRp5139
sg31
I1280
sg32
I0
sg33
I74
sbasg34
g22
(S'0.25'
tRp5140
sg36
g22
(S'1.25'
tRp5141
sbas(g3611
tp5142
(lp5143
g1462
as(g1109
tp5144
(lp5145
g3235
as(g3235
tp5146
(lp5147
g4669
as(g3471
tp5148
(lp5149
g195
as(g1948
tp5150
(lp5151
g4149
ag1
(g13
g3
NtRp5152
(dp5153
g16
S'T(0)./mid\\invention13_1.mid'
p5154
sg18
S'Am'
p5155
sg20
I4096
sg21
g22
(S'0.0625'
tRp5156
sg24
(lp5157
g1
(g26
g3
NtRp5158
(dp5159
g29
g22
(S'0.0625'
tRp5160
sg31
I4608
sg32
I0
sg33
I69
sbag1
(g26
g3
NtRp5161
(dp5162
g29
g22
(S'0.125'
tRp5163
sg31
I4608
sg32
I1
sg33
I57
sbasg34
g22
(S'0.125'
tRp5164
sg36
g22
(S'1.125'
tRp5165
sbas(g3211
tp5166
(lp5167
g2097
as(g1772
tp5168
(lp5169
g4228
ag1
(g13
g3
NtRp5170
(dp5171
g16
S'T(0)./mid\\invention13_2.mid'
p5172
sg18
S'Am'
p5173
sg20
I4096
sg21
g22
(S'0.0625'
tRp5174
sg24
(lp5175
g1
(g26
g3
NtRp5176
(dp5177
g29
g22
(S'0.0625'
tRp5178
sg31
I10752
sg32
I1
sg33
I62
sbag1
(g26
g3
NtRp5179
(dp5180
g29
g22
(S'0.125'
tRp5181
sg31
I10752
sg32
I0
sg33
I78
sbasg34
g22
(S'0.625'
tRp5182
sg36
g22
(S'2.625'
tRp5183
sbas(g1173
tp5184
(lp5185
g2652
as(g2268
tp5186
(lp5187
g2170
ag690
ag1
(g13
g3
NtRp5188
(dp5189
g16
S'T(-4)./mid\\invention4_7.mid'
p5190
sg18
S'C'
sg20
I1024
sg21
g22
(S'0.125'
tRp5191
sg24
(lp5192
g1
(g26
g3
NtRp5193
(dp5194
g29
g22
(S'0.13671875'
tRp5195
sg31
I1792
sg32
I1
sg33
I48
sbag1
(g26
g3
NtRp5196
(dp5197
g29
g22
(S'0.25'
tRp5198
sg31
I1792
sg32
I0
sg33
I62
sbasg34
g22
(S'0.75'
tRp5199
sg36
g22
(S'1.75'
tRp5200
sbag1
(g13
g3
NtRp5201
(dp5202
g16
S'T(-4)./mid\\invention4_7.mid'
p5203
sg18
S'C'
sg20
I1024
sg21
g22
(S'0.25'
tRp5204
sg24
(lp5205
g1
(g26
g3
NtRp5206
(dp5207
g29
g22
(S'0.13671875'
tRp5208
sg31
I2816
sg32
I1
sg33
I48
sbag1
(g26
g3
NtRp5209
(dp5210
g29
g22
(S'0.25'
tRp5211
sg31
I2816
sg32
I0
sg33
I68
sbasg34
g22
(S'0.75'
tRp5212
sg36
g22
(S'2.75'
tRp5213
sbas(g1186
tp5214
(lp5215
g430
as(g314
tp5216
(lp5217
g3753
as(g1652
tp5218
(lp5219
g14
as(g1893
tp5220
(lp5221
g1702
as(g4445
tp5222
(lp5223
g291
as(g2755
tp5224
(lp5225
g1
(g13
g3
NtRp5226
(dp5227
g16
S'T(0)./mid\\invention13_1.mid'
p5228
sg18
S'Am'
p5229
sg20
I4096
sg21
g22
(S'0.0625'
tRp5230
sg24
(lp5231
g1
(g26
g3
NtRp5232
(dp5233
g29
g22
(S'0.0625'
tRp5234
sg31
I1792
sg32
I0
sg33
I74
sbasg34
g22
(S'0.4375'
tRp5235
sg36
g22
(S'0.4375'
tRp5236
sbas(g14
tp5237
(lp5238
g3662
as(g2652
tp5239
(lp5240
g2475
ag1983
ag4356
as(g976
tp5241
(lp5242
g904
as(g2782
tp5243
(lp5244
g4115
as(g4091
tp5245
(lp5246
g496
as(g464
tp5247
(lp5248
g1038
ag1
(g13
g3
NtRp5249
(dp5250
g16
S'T(-4)./mid\\invention4_7.mid'
p5251
sg18
S'C'
sg20
I1024
sg21
g22
(S'0.125'
tRp5252
sg24
(lp5253
g1
(g26
g3
NtRp5254
(dp5255
g29
g22
(S'0.13671875'
tRp5256
sg31
I2560
sg32
I1
sg33
I48
sbag1
(g26
g3
NtRp5257
(dp5258
g29
g22
(S'0.25'
tRp5259
sg31
I2560
sg32
I0
sg33
I67
sbasg34
g22
(S'0.5'
tRp5260
sg36
g22
(S'2.5'
tRp5261
sbas(g2338
tp5262
(lp5263
g3742
as(g791
tp5264
(lp5265
g4286
ag1
(g13
g3
NtRp5266
(dp5267
g16
S'T(-4)./mid\\invention4_7.mid'
p5268
sg18
S'A#/Bbm'
p5269
sg20
I1024
sg21
g22
(S'0.125'
tRp5270
sg24
(lp5271
g1
(g26
g3
NtRp5272
(dp5273
g29
g22
(S'0.13671875'
tRp5274
sg31
I256
sg32
I1
sg33
I48
sbag1
(g26
g3
NtRp5275
(dp5276
g29
g22
(S'0.25'
tRp5277
sg31
I256
sg32
I0
sg33
I68
sbasg34
g22
(S'0.25'
tRp5278
sg36
g22
(S'0.25'
tRp5279
sbas(g1827
tp5280
(lp5281
g1750
as(g2221
tp5282
(lp5283
g2076
as(g1407
tp5284
(lp5285
g844
as(g1085
tp5286
(lp5287
g2368
as(g3406
tp5288
(lp5289
g1611
as(g2157
tp5290
(lp5291
g966
as(g2302
tp5292
(lp5293
g1308
ag4214
as(g1882
tp5294
(lp5295
g4669
ag4669
as(g3075
tp5296
(lp5297
g2722
as(g986
tp5298
(lp5299
g823
as(g1130
tp5300
(lp5301
g2769
as(g3589
tp5302
(lp5303
g2042
as(g345
tp5304
(lp5305
g1064
as(g3145
tp5306
(lp5307
g4487
as(g2823
tp5308
(lp5309
g4669
as(g2889
tp5310
(lp5311
g4669
as(g1383
tp5312
(lp5313
g3611
as(g2485
tp5314
(lp5315
g1903
as(g3835
tp5316
(lp5317
g3638
as(g2131
tp5318
(lp5319
g1817
as(g3385
tp5320
(lp5321
g1
(g13
g3
NtRp5322
(dp5323
g16
S'T(0)./mid\\invention13_1.mid'
p5324
sg18
S'Am'
p5325
sg20
I4096
sg21
g22
(S'0.0625'
tRp5326
sg24
(lp5327
g1
(g26
g3
NtRp5328
(dp5329
g29
g22
(S'0.0625'
tRp5330
sg31
I7936
sg32
I1
sg33
I62
sbasg34
g22
(S'0.9375'
tRp5331
sg36
g22
(S'1.9375'
tRp5332
sbas(g1526
tp5333
(lp5334
g3256
as(g2956
tp5335
(lp5336
g1
(g13
g3
NtRp5337
(dp5338
g16
S'T(0)./mid\\invention13_2.mid'
p5339
sg18
S'C'
sg20
I4096
sg21
g22
(S'0.0625'
tRp5340
sg24
(lp5341
g1
(g26
g3
NtRp5342
(dp5343
g29
g22
(S'0.0625'
tRp5344
sg31
I768
sg32
I0
sg33
I76
sbasg34
g22
(S'0.1875'
tRp5345
sg36
g22
(S'0.1875'
tRp5346
sbag1
(g13
g3
NtRp5347
(dp5348
g16
S'T(0)./mid\\invention13_2.mid'
p5349
sg18
S'C'
sg20
I4096
sg21
g22
(S'0.0625'
tRp5350
sg24
(lp5351
g1
(g26
g3
NtRp5352
(dp5353
g29
g22
(S'0.0625'
tRp5354
sg31
I4864
sg32
I0
sg33
I76
sbasg34
g22
(S'0.1875'
tRp5355
sg36
g22
(S'1.1875'
tRp5356
sbas(g2732
tp5357
(lp5358
g122
as(g1150
tp5359
(lp5360
g4343
ag1
(g13
g3
NtRp5361
(dp5362
g16
S'T(3)./mid\\invention3_2.mid'
p5363
sg18
S'C'
sg20
I1024
sg21
g22
(S'0.25'
tRp5364
sg24
(lp5365
g1
(g26
g3
NtRp5366
(dp5367
g29
g22
(S'0.25'
tRp5368
sg31
I1024
sg32
I0
sg33
I76
sbag1
(g26
g3
NtRp5369
(dp5370
g29
g22
(S'0.4580078125'
tRp5371
sg31
I1024
sg32
I1
sg33
I60
sbasg34
g22
(S'0'
tRp5372
sg36
g22
(S'1'
tRp5373
sbas(g4066
tp5374
(lp5375
g1095
as(g2419
tp5376
(lp5377
g3787
as(g430
tp5378
(lp5379
g241
as(g3085
tp5380
(lp5381
g659
as(g2686
tp5382
(lp5383
g4669
as(g1286
tp5384
(lp5385
g1663
as(g4253
tp5386
(lp5387
g955
as(g1010
tp5388
(lp5389
g4366
as(g844
tp5390
(lp5391
g111
as(g4115
tp5392
(lp5393
g1120
as(g680
tp5394
(lp5395
g2007
as(g2144
tp5396
(lp5397
g4413
as(g3430
tp5398
(lp5399
g1259
ag2544
as(g4033
tp5400
(lp5401
g703
as(g1051
tp5402
(lp5403
g3396
as(g2348
tp5404
(lp5405
g2338
as(g4043
tp5406
(lp5407
g1
(g13
g3
NtRp5408
(dp5409
g16
S'T(2)./mid\\invention4_5.mid'
p5410
sg18
S'F'
sg20
I1024
sg21
g22
(S'0.25'
tRp5411
sg24
(lp5412
g1
(g26
g3
NtRp5413
(dp5414
g29
g22
(S'0.25'
tRp5415
sg31
I512
sg32
I1
sg33
I48
sbag1
(g26
g3
NtRp5416
(dp5417
g29
g22
(S'0.25'
tRp5418
sg31
I512
sg32
I0
sg33
I69
sbasg34
g22
(S'0.5'
tRp5419
sg36
g22
(S'0.5'
tRp5420
sbas(g727
tp5421
(lp5422
g4311
as(g2097
tp5423
(lp5424
g1631
as(g628
tp5425
(lp5426
g4377
as(g4476
tp5427
(lp5428
g3937
as(g3041
tp5429
(lp5430
g4669
as(g1120
tp5431
(lp5432
g3707
as(g3937
tp5433
(lp5434
g3589
as(g955
tp5435
(lp5436
g3568
as(g2121
tp5437
(lp5438
g3879
as(g542
tp5439
(lp5440
g2909
as(g2066
tp5441
(lp5442
g1807
as(g1934
tp5443
(lp5444
g4264
as(g2358
tp5445
(lp5446
g976
as(g2696
tp5447
(lp5448
g1438
as(g2245
tp5449
(lp5450
g1
(g13
g3
NtRp5451
(dp5452
g16
S'T(0)./mid\\invention13_2.mid'
p5453
sg18
S'C'
sg20
I4096
sg21
g22
(S'0.0625'
tRp5454
sg24
(lp5455
g1
(g26
g3
NtRp5456
(dp5457
g29
g22
(S'0.0625'
tRp5458
sg31
I5888
sg32
I0
sg33
I77
sbasg34
g22
(S'0.4375'
tRp5459
sg36
g22
(S'1.4375'
tRp5460
sbas(g3879
tp5461
(lp5462
g2696
as(g2255
tp5463
(lp5464
g1
(g13
g3
NtRp5465
(dp5466
g16
S'T(0)./mid\\invention13_2.mid'
p5467
sg18
S'C'
sg20
I4096
sg21
g22
(S'0.0625'
tRp5468
sg24
(lp5469
g1
(g26
g3
NtRp5470
(dp5471
g29
g22
(S'0.0625'
tRp5472
sg31
I6912
sg32
I1
sg33
I67
sbasg34
g22
(S'0.6875'
tRp5473
sg36
g22
(S'1.6875'
tRp5474
sbas(g741
tp5475
(lp5476
g1448
ag2031
as(g264
tp5477
(lp5478
g2302
ag1
(g13
g3
NtRp5479
(dp5480
g16
S'T(2)./mid\\invention4_5.mid'
p5481
sg18
S'F'
sg20
I1024
sg21
g22
(S'0.25'
tRp5482
sg24
(lp5483
g1
(g26
g3
NtRp5484
(dp5485
g29
g22
(S'0.25'
tRp5486
sg31
I768
sg32
I1
sg33
I45
sbag1
(g26
g3
NtRp5487
(dp5488
g29
g22
(S'0.25'
tRp5489
sg31
I768
sg32
I0
sg33
I67
sbasg34
g22
(S'0.75'
tRp5490
sg36
g22
(S'0.75'
tRp5491
sbas(g2745
tp5492
(lp5493
g2358
as(g1394
tp5494
(lp5495
g1199
as(g823
tp5496
(lp5497
g2131
as(g4077
tp5498
(lp5499
g3121
as(g3031
tp5500
(lp5501
g3098
as(g3419
tp5502
(lp5503
g2782
as(g1369
tp5504
(lp5505
g1996
as(g2662
tp5506
(lp5507
g464
ag1
(g13
g3
NtRp5508
(dp5509
g16
S'T(-4)./mid\\invention4_7.mid'
p5510
sg18
S'C'
sg20
I1024
sg21
g22
(S'0.125'
tRp5511
sg24
(lp5512
g1
(g26
g3
NtRp5513
(dp5514
g29
g22
(S'0.13671875'
tRp5515
sg31
I2432
sg32
I1
sg33
I49
sbasg34
g22
(S'0.375'
tRp5516
sg36
g22
(S'2.375'
tRp5517
sbas(g2813
tp5518
(lp5519
g649
as(g904
tp5520
(lp5521
g4333
as(g4022
tp5522
(lp5523
g366
as(g2430
tp5524
(lp5525
g160
as(g2211
tp5526
(lp5527
g2554
as(g2368
tp5528
(lp5529
g3545
as(S'start_token'
p5530
tp5531
(lp5532
g4669
ag2899
ag4669
ag1345
ag4669
ag3495
ag4669
ag2325
ag4669
ag38
ag4669
ag858
ag4669
ag2612
ag4669
ag2639
ag4669
ag3406
ag4669
ag1512
ag4669
ag1
(g13
g3
NtRp5533
(dp5534
g16
S'T(3)./mid\\invention3_2.mid'
p5535
sg18
S'C'
sg20
I1024
sg21
g22
(S'0.25'
tRp5536
sg24
(lp5537
g1
(g26
g3
NtRp5538
(dp5539
g29
g22
(S'0.25'
tRp5540
sg31
I0
sg32
I0
sg33
I79
sbag1
(g26
g3
NtRp5541
(dp5542
g29
g22
(S'0.5'
tRp5543
sg31
I0
sg32
I1
sg33
I60
sbasg34
g22
(S'0'
tRp5544
sg36
g22
(S'0'
tRp5545
sbag4669
ag713
ag4669
ag1
(g13
g3
NtRp5546
(dp5547
g16
S'T(-4)./mid\\invention4_7.mid'
p5548
sg18
S'A#/Bbm'
p5549
sg20
I1024
sg21
g22
(S'0.125'
tRp5550
sg24
(lp5551
g1
(g26
g3
NtRp5552
(dp5553
g29
g22
(S'0.13671875'
tRp5554
sg31
I0
sg32
I1
sg33
I48
sbag1
(g26
g3
NtRp5555
(dp5556
g29
g22
(S'0.25'
tRp5557
sg31
I0
sg32
I0
sg33
I58
sbasg34
g22
(S'0'
tRp5558
sg36
g22
(S'0'
tRp5559
sbag4669
ag3808
ag4669
ag3354
ag4669
ag521
ag4669
ag1
(g13
g3
NtRp5560
(dp5561
g16
S'T(-5)./mid\\invention4_2.mid'
p5562
sg18
S'F'
sg20
I1024
sg21
g22
(S'0.25'
tRp5563
sg24
(lp5564
g1
(g26
g3
NtRp5565
(dp5566
g29
g22
(S'0.25'
tRp5567
sg31
I0
sg32
I0
sg33
I72
sbag1
(g26
g3
NtRp5568
(dp5569
g29
g22
(S'0.5'
tRp5570
sg31
I0
sg32
I1
sg33
I45
sbasg34
g22
(S'0'
tRp5571
sg36
g22
(S'0'
tRp5572
sbag4669
ag2498
ag4669
ag2066
ag4669
ag1
(g13
g3
NtRp5573
(dp5574
g16
S'T(2)./mid\\invention4_5.mid'
p5575
sg18
S'F'
sg20
I1024
sg21
g22
(S'0.25'
tRp5576
sg24
(lp5577
g1
(g26
g3
NtRp5578
(dp5579
g29
g22
(S'0.25'
tRp5580
sg31
I0
sg32
I1
sg33
I45
sbag1
(g26
g3
NtRp5581
(dp5582
g29
g22
(S'0.25'
tRp5583
sg31
I0
sg32
I0
sg33
I72
sbasg34
g22
(S'0'
tRp5584
sg36
g22
(S'0'
tRp5585
sbag4669
ag3975
as(g2031
tp5586
(lp5587
g4322
as(g2982
tp5588
(lp5589
g2278
ag2348
ag1
(g13
g3
NtRp5590
(dp5591
g16
S'T(3)./mid\\invention3_2.mid'
p5592
sg18
S'C'
sg20
I1024
sg21
g22
(S'0.25'
tRp5593
sg24
(lp5594
g1
(g26
g3
NtRp5595
(dp5596
g29
g22
(S'0.25'
tRp5597
sg31
I1536
sg32
I0
sg33
I79
sbag1
(g26
g3
NtRp5598
(dp5599
g29
g22
(S'0.5'
tRp5600
sg31
I1536
sg32
I1
sg33
I60
sbasg34
g22
(S'0.5'
tRp5601
sg36
g22
(S'1.5'
tRp5602
sbas(g3246
tp5603
(lp5604
g404
as(g3822
tp5605
(lp5606
g2879
as(g3482
tp5607
(lp5608
g802
as(g3365
tp5609
(lp5610
g391
as(g132
tp5611
(lp5612
g1761
ag1
(g13
g3
NtRp5613
(dp5614
g16
S'T(0)./mid\\invention13_2.mid'
p5615
sg18
S'Am'
p5616
sg20
I4096
sg21
g22
(S'0.0625'
tRp5617
sg24
(lp5618
g1
(g26
g3
NtRp5619
(dp5620
g29
g22
(S'0.0625'
tRp5621
sg31
I8960
sg32
I0
sg33
I81
sbasg34
g22
(S'0.1875'
tRp5622
sg36
g22
(S'2.1875'
tRp5623
sbas(g3201
tp5624
(lp5625
g334
as(g4300
tp5626
(lp5627
g1
(g13
g3
NtRp5628
(dp5629
g16
S'T(5)./mid\\invention3_3.mid'
p5630
sg18
S'Em'
p5631
sg20
I1024
sg21
g22
(S'0.25'
tRp5632
sg24
(lp5633
g1
(g26
g3
NtRp5634
(dp5635
g29
g22
(S'0.25'
tRp5636
sg31
I2304
sg32
I0
sg33
I79
sbasg34
g22
(S'0.25'
tRp5637
sg36
g22
(S'2.25'
tRp5638
sbas(g2920
tp5639
(lp5640
g3798
ag1
(g13
g3
NtRp5641
(dp5642
g16
S'T(-4)./mid\\invention4_6.mid'
p5643
sg18
S'C'
sg20
I1024
sg21
g22
(S'0.125'
tRp5644
sg24
(lp5645
g1
(g26
g3
NtRp5646
(dp5647
g29
g22
(S'0.13671875'
tRp5648
sg31
I2176
sg32
I1
sg33
I49
sbasg34
g22
(S'0.125'
tRp5649
sg36
g22
(S'2.125'
tRp5650
sbag1
(g13
g3
NtRp5651
(dp5652
g16
S'T(-4)./mid\\invention4_7.mid'
p5653
sg18
S'C'
sg20
I1024
sg21
g22
(S'0.125'
tRp5654
sg24
(lp5655
g1
(g26
g3
NtRp5656
(dp5657
g29
g22
(S'0.13671875'
tRp5658
sg31
I1152
sg32
I1
sg33
I49
sbasg34
g22
(S'0.125'
tRp5659
sg36
g22
(S'1.125'
tRp5660
sbag1
(g13
g3
NtRp5661
(dp5662
g16
S'T(-4)./mid\\invention4_7.mid'
p5663
sg18
S'C'
sg20
I1024
sg21
g22
(S'0.125'
tRp5664
sg24
(lp5665
g1
(g26
g3
NtRp5666
(dp5667
g29
g22
(S'0.13671875'
tRp5668
sg31
I2176
sg32
I1
sg33
I49
sbasg34
g22
(S'0.125'
tRp5669
sg36
g22
(S'2.125'
tRp5670
sbas(g2869
tp5671
(lp5672
g417
as(g1199
tp5673
(lp5674
g3132
as(g3951
tp5675
(lp5676
g1321
ag1
(g13
g3
NtRp5677
(dp5678
g16
S'T(0)./mid\\invention13_2.mid'
p5679
sg18
S'Am'
p5680
sg20
I4096
sg21
g22
(S'0.0625'
tRp5681
sg24
(lp5682
g1
(g26
g3
NtRp5683
(dp5684
g29
g22
(S'0.0625'
tRp5685
sg31
I9472
sg32
I0
sg33
I76
sbasg34
g22
(S'0.3125'
tRp5686
sg36
g22
(S'2.3125'
tRp5687
sbas(g220
tp5688
(lp5689
g345
as(g1064
tp5690
(lp5691
g1249
as(g583
tp5692
(lp5693
g986
as(g507
tp5694
(lp5695
g833
as(g2170
tp5696
(lp5697
g2409
ag1
(g13
g3
NtRp5698
(dp5699
g16
S'T(-4)./mid\\invention4_7.mid'
p5700
sg18
S'C'
sg20
I1024
sg21
g22
(S'0.125'
tRp5701
sg24
(lp5702
g1
(g26
g3
NtRp5703
(dp5704
g29
g22
(S'0.13671875'
tRp5705
sg31
I1920
sg32
I1
sg33
I49
sbasg34
g22
(S'0.875'
tRp5706
sg36
g22
(S'1.875'
tRp5707
sbas(g1272
tp5708
(lp5709
g1418
as(g3798
tp5710
(lp5711
g3555
ag2662
ag1
(g13
g3
NtRp5712
(dp5713
g16
S'T(-4)./mid\\invention4_7.mid'
p5714
sg18
S'C'
sg20
I1024
sg21
g22
(S'0.25'
tRp5715
sg24
(lp5716
g1
(g26
g3
NtRp5717
(dp5718
g29
g22
(S'0.13671875'
tRp5719
sg31
I1280
sg32
I1
sg33
I48
sbag1
(g26
g3
NtRp5720
(dp5721
g29
g22
(S'0.25'
tRp5722
sg31
I1280
sg32
I0
sg33
I62
sbasg34
g22
(S'0.25'
tRp5723
sg36
g22
(S'1.25'
tRp5724
sbag1
(g13
g3
NtRp5725
(dp5726
g16
S'T(-4)./mid\\invention4_7.mid'
p5727
sg18
S'C'
sg20
I1024
sg21
g22
(S'0.125'
tRp5728
sg24
(lp5729
g1
(g26
g3
NtRp5730
(dp5731
g29
g22
(S'0.13671875'
tRp5732
sg31
I2304
sg32
I1
sg33
I48
sbag1
(g26
g3
NtRp5733
(dp5734
g29
g22
(S'0.25'
tRp5735
sg31
I2304
sg32
I0
sg33
I65
sbasg34
g22
(S'0.25'
tRp5736
sg36
g22
(S'2.25'
tRp5737
sbas(g4275
tp5738
(lp5739
g1841
ag1
(g13
g3
NtRp5740
(dp5741
g16
S'T(0)./mid\\invention13_2.mid'
p5742
sg18
S'Am'
p5743
sg20
I4096
sg21
g22
(S'0.0625'
tRp5744
sg24
(lp5745
g1
(g26
g3
NtRp5746
(dp5747
g29
g22
(S'0.0625'
tRp5748
sg31
I11776
sg32
I1
sg33
I54
sbag1
(g26
g3
NtRp5749
(dp5750
g29
g22
(S'0.125'
tRp5751
sg31
I11776
sg32
I0
sg33
I84
sbasg34
g22
(S'0.875'
tRp5752
sg36
g22
(S'2.875'
tRp5753
sbas(g2879
tp5754
(lp5755
g4300
as(g4125
tp5756
(lp5757
g2992
as(g1702
tp5758
(lp5759
g1359
as(g3625
tp5760
(lp5761
g2399
as(g4264
tp5762
(lp5763
g1827
as(g380
tp5764
(lp5765
g4669
ag1736
as(g3266
tp5766
(lp5767
g1428
as(g532
tp5768
(lp5769
g171
as(g334
tp5770
(lp5771
g607
as(g2943
tp5772
(lp5773
g3766
as(g1418
tp5774
(lp5775
g2943
as(g1095
tp5776
(lp5777
g3731
as(g366
tp5778
(lp5779
g1712
as(g649
tp5780
(lp5781
g3286
ag1783
as(g3296
tp5782
(lp5783
g3471
ag3717
as(g1996
tp5784
(lp5785
g4669
as(g2709
tp5786
(lp5787
g1855
as(g2675
tp5788
(lp5789
g1369
as(g2564
tp5790
(lp5791
g3085
as(g2441
tp5792
(lp5793
g63
as(g766
tp5794
(lp5795
g3006
ag1
(g13
g3
NtRp5796
(dp5797
g16
S'T(-4)./mid\\invention4_7.mid'
p5798
sg18
S'A#/Bbm'
p5799
sg20
I1024
sg21
g22
(S'0.125'
tRp5800
sg24
(lp5801
g1
(g26
g3
NtRp5802
(dp5803
g29
g22
(S'0.13671875'
tRp5804
sg31
I896
sg32
I1
sg33
I49
sbasg34
g22
(S'0.875'
tRp5805
sg36
g22
(S'0.875'
tRp5806
sbas(g485
tp5807
(lp5808
g931
as(g3600
tp5809
(lp5810
g1641
as(g1723
tp5811
(lp5812
g3430
as(g4423
tp5813
(lp5814
g3307
as(g1807
tp5815
(lp5816
g2956
ag1
(g13
g3
NtRp5817
(dp5818
g16
S'T(0)./mid\\invention13_2.mid'
p5819
sg18
S'C'
sg20
I4096
sg21
g22
(S'0.0625'
tRp5820
sg24
(lp5821
g1
(g26
g3
NtRp5822
(dp5823
g29
g22
(S'0.0625'
tRp5824
sg31
I4608
sg32
I0
sg33
I72
sbag1
(g26
g3
NtRp5825
(dp5826
g29
g22
(S'0.125'
tRp5827
sg31
I4608
sg32
I1
sg33
I60
sbasg34
g22
(S'0.125'
tRp5828
sg36
g22
(S'1.125'
tRp5829
sbas(g100
tp5830
(lp5831
g146
as(g2899
tp5832
(lp5833
g4012
as(g1236
tp5834
(lp5835
g2268
ag1
(g13
g3
NtRp5836
(dp5837
g16
S'T(-4)./mid\\invention4_7.mid'
p5838
sg18
S'C'
sg20
I1024
sg21
g22
(S'0.125'
tRp5839
sg24
(lp5840
g1
(g26
g3
NtRp5841
(dp5842
g29
g22
(S'0.13671875'
tRp5843
sg31
I1664
sg32
I1
sg33
I49
sbasg34
g22
(S'0.625'
tRp5844
sg36
g22
(S'1.625'
tRp5845
sbas(g2498
tp5846
(lp5847
g2291
as(g1487
tp5848
(lp5849
g4091
as(g639
tp5850
(lp5851
g2732
as(g3717
tp5852
(lp5853
g1
(g13
g3
NtRp5854
(dp5855
g16
S'T(0)./mid\\invention13_1.mid'
p5856
sg18
S'Am'
p5857
sg20
I4096
sg21
g22
(S'0.0625'
tRp5858
sg24
(lp5859
g1
(g26
g3
NtRp5860
(dp5861
g29
g22
(S'0.0625'
tRp5862
sg31
I5376
sg32
I0
sg33
I64
sbasg34
g22
(S'0.3125'
tRp5863
sg36
g22
(S'1.3125'
tRp5864
sbas(g3914
tp5865
(lp5866
g3041
as(g2769
tp5867
(lp5868
g2315
as(g1970
tp5869
(lp5870
g3365
as(g4466
tp5871
(lp5872
g3999
as(g1550
tp5873
(lp5874
g680
as(g593
tp5875
(lp5876
g3064
as(g2523
tp5877
(lp5878
g752
as(g4311
tp5879
(lp5880
g3321
as(g1359
tp5881
(lp5882
g3461
as(g871
tp5883
(lp5884
g1621
as(g3098
tp5885
(lp5886
g4456
as(g1761
tp5887
(lp5888
g3951
ag1
(g13
g3
NtRp5889
(dp5890
g16
S'T(0)./mid\\invention13_2.mid'
p5891
sg18
S'Am'
p5892
sg20
I4096
sg21
g22
(S'0.0625'
tRp5893
sg24
(lp5894
g1
(g26
g3
NtRp5895
(dp5896
g29
g22
(S'0.0625'
tRp5897
sg31
I9216
sg32
I0
sg33
I72
sbag1
(g26
g3
NtRp5898
(dp5899
g29
g22
(S'0.125'
tRp5900
sg31
I9216
sg32
I1
sg33
I64
sbasg34
g22
(S'0.25'
tRp5901
sg36
g22
(S'2.25'
tRp5902
sbas(g2845
tp5903
(lp5904
g314
as(g1345
tp5905
(lp5906
g4066
as(g2574
tp5907
(lp5908
g254
as(g3869
tp5909
(lp5910
g4434
as(g1140
tp5911
(lp5912
g3167
ag1
(g13
g3
NtRp5913
(dp5914
g16
S'T(3)./mid\\invention3_2.mid'
p5915
sg18
S'C'
sg20
I1024
sg21
g22
(S'0.25'
tRp5916
sg24
(lp5917
g1
(g26
g3
NtRp5918
(dp5919
g29
g22
(S'0.25'
tRp5920
sg31
I512
sg32
I0
sg33
I81
sbag1
(g26
g3
NtRp5921
(dp5922
g29
g22
(S'0.5'
tRp5923
sg31
I512
sg32
I1
sg33
I48
sbasg34
g22
(S'0.5'
tRp5924
sg36
g22
(S'0.5'
tRp5925
sbas(g3375
tp5926
(lp5927
g2441
as(g3787
tp5928
(lp5929
g812
as(g4056
tp5930
(lp5931
g1723
ag2245
as(g3927
tp5932
(lp5933
g1332
as(g703
tp5934
(lp5935
g1913
as(g1903
tp5936
(lp5937
g3482
as(g291
tp5938
(lp5939
g220
as(g1473
tp5940
(lp5941
g2834
ag1
(g13
g3
NtRp5942
(dp5943
g16
S'T(-4)./mid\\invention4_7.mid'
p5944
sg18
S'A#/Bbm'
p5945
sg20
I1024
sg21
g22
(S'0.125'
tRp5946
sg24
(lp5947
g1
(g26
g3
NtRp5948
(dp5949
g29
g22
(S'0.13671875'
tRp5950
sg31
I640
sg32
I1
sg33
I49
sbasg34
g22
(S'0.625'
tRp5951
sg36
g22
(S'0.625'
tRp5952
sbas(g63
tp5953
(lp5954
g1051
as(g1438
tp5955
(lp5956
g891
as(g966
tp5957
(lp5958
g3075
as(g1817
tp5959
(lp5960
g1160
as(g1588
tp5961
(lp5962
g454
as(g474
tp5963
(lp5964
g1577
as(g417
tp5965
(lp5966
g639
as(g355
tp5967
(lp5968
g556
ag1
(g13
g3
NtRp5969
(dp5970
g16
S'T(3)./mid\\invention3_2.mid'
p5971
sg18
S'Fm'
p5972
sg20
I1024
sg21
g22
(S'0.25'
tRp5973
sg24
(lp5974
g1
(g26
g3
NtRp5975
(dp5976
g29
g22
(S'0.25'
tRp5977
sg31
I2560
sg32
I0
sg33
I72
sbag1
(g26
g3
NtRp5978
(dp5979
g29
g22
(S'0.4580078125'
tRp5980
sg31
I2560
sg32
I1
sg33
I60
sbasg34
g22
(S'0.5'
tRp5981
sg36
g22
(S'2.5'
tRp5982
sbas(g1539
tp5983
(lp5984
g1934
as(g4176
tp5985
(lp5986
g1130
as(g2601
tp5987
(lp5988
g507
as(g891
tp5989
(lp5990
g945
as(g3753
tp5991
(lp5992
g3927
as(g3648
tp5993
(lp5994
g2675
as(g4200
tp5995
(lp5996
g3776
as(g496
tp5997
(lp5998
g1209
as(g2291
tp5999
(lp6000
g727
as(g1783
tp6001
(lp6002
g4105
as(g1983
tp6003
(lp6004
g4056
as(g1577
tp6005
(lp6006
g1677
as(g3017
tp6007
(lp6008
g669
as(g4333
tp6009
(lp6010
g1394
as(g1712
tp6011
(lp6012
g917
as(g1498
tp6013
(lp6014
g3419
as(g1621
tp6015
(lp6016
g4669
as(g1209
tp6017
(lp6018
g2523
as(g3808
tp6019
(lp6020
g4476
as(g1259
tp6021
(lp6022
g4466
as(g2378
tp6023
(lp6024
g1
(g13
g3
NtRp6025
(dp6026
g16
S'T(0)./mid\\invention13_2.mid'
p6027
sg18
S'Am'
p6028
sg20
I4096
sg21
g22
(S'0.0625'
tRp6029
sg24
(lp6030
g1
(g26
g3
NtRp6031
(dp6032
g29
g22
(S'0.0625'
tRp6033
sg31
I8192
sg32
I0
sg33
I84
sbag1
(g26
g3
NtRp6034
(dp6035
g29
g22
(S'0.125'
tRp6036
sg31
I8192
sg32
I1
sg33
I57
sbasg34
g22
(S'0'
tRp6037
sg36
g22
(S'2'
tRp6038
sbas(g3638
tp6039
(lp6040
g3375
as(g1959
tp6041
(lp6042
g1473
ag1
(g13
g3
NtRp6043
(dp6044
g16
S'T(-4)./mid\\invention4_7.mid'
p6045
sg18
S'A#/Bbm'
p6046
sg20
I1024
sg21
g22
(S'0.125'
tRp6047
sg24
(lp6048
g1
(g26
g3
NtRp6049
(dp6050
g29
g22
(S'0.13671875'
tRp6051
sg31
I512
sg32
I1
sg33
I48
sbag1
(g26
g3
NtRp6052
(dp6053
g29
g22
(S'0.25'
tRp6054
sg31
I512
sg32
I0
sg33
I67
sbasg34
g22
(S'0.5'
tRp6055
sg36
g22
(S'0.5'
tRp6056
sbas(g241
tp6057
(lp6058
g2869
as(g931
tp6059
(lp6060
g2234
as(g3889
tp6061
(lp6062
g2587
as(g570
tp6063
(lp6064
g2574
as(g2076
tp6065
(lp6066
g2485
as(g3286
tp6067
(lp6068
g3686
as(g3440
tp6069
(lp6070
g3965
as(g277
tp6071
(lp6072
g1
(g13
g3
NtRp6073
(dp6074
g16
S'T(0)./mid\\invention13_1.mid'
p6075
sg18
S'Am'
p6076
sg20
I4096
sg21
g22
(S'0.0625'
tRp6077
sg24
(lp6078
g1
(g26
g3
NtRp6079
(dp6080
g29
g22
(S'0.0625'
tRp6081
sg31
I6912
sg32
I1
sg33
I60
sbasg34
g22
(S'0.6875'
tRp6082
sg36
g22
(S'1.6875'
tRp6083
sbas(g2992
tp6084
(lp6085
g1923
as(g1913
tp6086
(lp6087
g3579
as(g2554
tp6088
(lp6089
g3440
as(g2234
tp6090
(lp6091
g3648
as(g206
tp6092
(lp6093
g780
as(g1512
tp6094
(lp6095
g2020
ag1
(g13
g3
NtRp6096
(dp6097
g16
S'T(0)./mid\\invention13_2.mid'
p6098
sg18
S'Am'
p6099
sg20
I4096
sg21
g22
(S'0.0625'
tRp6100
sg24
(lp6101
g1
(g26
g3
NtRp6102
(dp6103
g29
g22
(S'0.0625'
tRp6104
sg31
I8448
sg32
I0
sg33
I81
sbasg34
g22
(S'0.0625'
tRp6105
sg36
g22
(S'2.0625'
tRp6106
sbas(g4377
tp6107
(lp6108
g3450
as(g2625
tp6109
(lp6110
g4275
ag1
(g13
g3
NtRp6111
(dp6112
g16
S'T(0)./mid\\invention13_2.mid'
p6113
sg18
S'Am'
p6114
sg20
I4096
sg21
g22
(S'0.0625'
tRp6115
sg24
(lp6116
g1
(g26
g3
NtRp6117
(dp6118
g29
g22
(S'0.0625'
tRp6119
sg31
I11520
sg32
I1
sg33
I62
sbasg34
g22
(S'0.8125'
tRp6120
sg36
g22
(S'2.8125'
tRp6121
sbas(g1038
tp6122
(lp6123
g1
(g13
g3
NtRp6124
(dp6125
g16
S'T(-4)./mid\\invention4_6.mid'
p6126
sg18
S'C'
sg20
I1024
sg21
g22
(S'0.125'
tRp6127
sg24
(lp6128
g1
(g26
g3
NtRp6129
(dp6130
g29
g22
(S'0.13671875'
tRp6131
sg31
I2688
sg32
I1
sg33
I49
sbasg34
g22
(S'0.625'
tRp6132
sg36
g22
(S'2.625'
tRp6133
sbag1
(g13
g3
NtRp6134
(dp6135
g16
S'T(-4)./mid\\invention4_7.mid'
p6136
sg18
S'C'
sg20
I1024
sg21
g22
(S'0.125'
tRp6137
sg24
(lp6138
g1
(g26
g3
NtRp6139
(dp6140
g29
g22
(S'0.13671875'
tRp6141
sg31
I2688
sg32
I1
sg33
I49
sbasg34
g22
(S'0.625'
tRp6142
sg36
g22
(S'2.625'
tRp6143
sbas(g181
tp6144
(lp6145
g3156
as(g454
tp6146
(lp6147
g570
as(g618
tp6148
(lp6149
g2564
as(g2042
tp6150
(lp6151
g1407
as(g391
tp6152
(lp6153
g2969
as(g3156
tp6154
(lp6155
g542
as(g2639
tp6156
(lp6157
g2933
as(g254
tp6158
(lp6159
g4669
as(g3776
tp6160
(lp6161
g181
as(g404
tp6162
(lp6163
g3344
as(g3855
tp6164
(lp6165
g4125
ag3534
ag1
(g13
g3
NtRp6166
(dp6167
g16
S'T(0)./mid\\invention13_1.mid'
p6168
sg18
S'Am'
p6169
sg20
I4096
sg21
g22
(S'0.0625'
tRp6170
sg24
(lp6171
g1
(g26
g3
NtRp6172
(dp6173
g29
g22
(S'0.0625'
tRp6174
sg31
I6400
sg32
I1
sg33
I52
sbasg34
g22
(S'0.5625'
tRp6175
sg36
g22
(S'1.5625'
tRp6176
sbas(g1428
tp6177
(lp6178
g3334
as(g3344
tp6179
(lp6180
g4669
as(g659
tp6181
(lp6182
g1550
as(g3975
tp6183
(lp6184
g3266
as(g4388
tp6185
(lp6186
g1539
as(g780
tp6187
(lp6188
g3017
ag3385
as(g3006
tp6189
(lp6190
g2920
ag1
(g13
g3
NtRp6191
(dp6192
g16
S'T(-4)./mid\\invention4_7.mid'
p6193
sg18
S'C'
sg20
I1024
sg21
g22
(S'0.125'
tRp6194
sg24
(lp6195
g1
(g26
g3
NtRp6196
(dp6197
g29
g22
(S'0.13671875'
tRp6198
sg31
I1024
sg32
I1
sg33
I48
sbag1
(g26
g3
NtRp6199
(dp6200
g29
g22
(S'0.25'
tRp6201
sg31
I1024
sg32
I0
sg33
I64
sbasg34
g22
(S'0'
tRp6202
sg36
g22
(S'1'
tRp6203
sbas(g1448
tp6204
(lp6205
g3145
as(g2834
tp6206
(lp6207
g766
ag1
(g13
g3
NtRp6208
(dp6209
g16
S'T(-4)./mid\\invention4_7.mid'
p6210
sg18
S'A#/Bbm'
p6211
sg20
I1024
sg21
g22
(S'0.125'
tRp6212
sg24
(lp6213
g1
(g26
g3
NtRp6214
(dp6215
g29
g22
(S'0.13671875'
tRp6216
sg31
I768
sg32
I1
sg33
I48
sbag1
(g26
g3
NtRp6217
(dp6218
g29
g22
(S'0.25'
tRp6219
sg31
I768
sg32
I0
sg33
I65
sbasg34
g22
(S'0.75'
tRp6220
sg36
g22
(S'0.75'
tRp6221
sbas(g2451
tp6222
(lp6223
g485
assS'state_chains'
p6224
(lp6225
(lp6226
a(lp6227
a(lp6228
g2899
ag4012
ag301
ag1601
ag3625
ag2399
ag4163
ag3276
ag2157
ag966
ag3075
ag2722
ag881
ag532
ag171
ag3869
ag4434
ag2601
ag507
ag833
ag4200
ag3776
ag181
ag3156
ag542
ag2909
ag3696
ag2430
ag160
ag1652
ag14
ag3662
aa(lp6229
a(lp6230
g1345
ag4066
ag1095
ag3731
ag3985
ag4402
ag2183
ag2512
ag2451
ag485
ag931
ag2234
ag3648
ag2675
ag1369
ag1996
aa(lp6231
a(lp6232
g3495
ag1383
ag3611
ag1462
ag4176
ag1130
ag2769
ag2315
ag1688
ag3509
ag593
ag3064
aa(lp6233
a(lp6234
g2325
ag1140
ag3167
ag1150
ag4343
ag2982
ag2278
ag3111
ag1563
ag355
ag556
ag1882
aa(lp6235
a(lp6236
g38
ag4423
ag3307
ag3889
ag2587
ag741
ag1448
ag3145
ag4487
ag100
ag146
ag2823
aa(lp6237
a(lp6238
g858
ag3673
ag264
ag2302
ag1308
ag2709
ag1855
ag2056
ag4189
ag4253
ag955
ag3568
aa(lp6239
a(lp6240
g2612
ag2211
ag2554
ag3440
ag3965
ag5132
ag2348
ag2338
ag3742
ag52
ag2110
ag2858
ag2419
ag3787
ag812
ag4445
ag291
ag220
ag345
ag1064
ag1249
ag324
ag871
ag1621
aa(lp6241
a(lp6242
g2639
ag2933
ag1223
ag3845
ag1526
ag3256
ag2221
ag2076
ag2485
ag1903
ag3482
ag802
ag4136
ag3246
ag404
ag3344
aa(lp6243
a(lp6244
g3406
ag1611
ag1173
ag2652
ag2475
ag3835
ag3638
ag3375
ag2441
ag63
ag1051
ag3396
ag1970
ag3365
ag391
ag2969
ag2686
aa(lp6245
a(lp6246
g1512
ag2020
ag132
ag1761
ag3951
ag1321
ag3520
ag1074
ag440
ag1772
ag4228
ag2792
ag2625
ag4275
ag1841
ag380
aa(lp6247
a(lp6248
g5533
ag4627
ag5913
ag5097
ag5361
ag4506
ag5590
ag4889
ag4743
ag4641
ag5969
ag4921
aa(lp6249
a(lp6250
g713
ag791
ag4286
ag1959
ag1473
ag2834
ag766
ag3006
ag2920
ag3798
ag3555
ag1236
ag2268
ag2170
ag2409
ag4971
ag5641
ag2662
ag464
ag1038
ag6124
ag690
aa(lp6251
a(lp6252
g5546
ag4555
ag5266
ag4938
ag6043
ag5942
ag6208
ag5796
ag6191
ag5651
ag5712
ag4874
ag5836
ag5188
ag5698
ag4984
ag5661
ag5725
ag5508
ag5249
ag6134
ag5201
aa(lp6253
a(lp6254
g3808
ag4476
ag3937
ag3589
ag2042
ag1407
ag844
ag111
ag3855
ag4125
ag2992
ag1923
ag2197
ag474
ag1577
ag1677
aa(lp6255
a(lp6256
g3354
ag1948
ag4149
ag3296
ag3471
ag195
ag2755
ag5226
ag5033
ag3534
ag4077
ag3121
ag206
ag780
ag3017
ag669
ag3900
ag4708
ag5152
ag4532
ag3717
ag5854
ag3221
ag5117
ag5047
ag6166
ag277
ag6073
ag230
ag4576
ag3385
ag5322
ag2121
ag3879
ag2696
ag1438
ag891
ag945
ag1186
ag430
ag241
ag2869
ag417
ag639
ag2732
ag122
ag3051
ag2745
ag2358
ag976
ag904
ag4333
ag1394
ag1199
ag3132
ag583
ag986
ag823
ag2131
ag1817
ag1160
ag2803
ag3914
ag3041
aa(lp6257
a(lp6258
g521
ag4242
ag4388
ag1539
ag1934
ag4264
ag1827
ag1750
ag1868
ag1796
ag2086
ag3600
ag1641
ag628
ag4377
ag3450
ag618
ag2564
ag3085
ag659
ag1550
ag680
ag2007
ag3211
ag2097
ag1631
ag2813
ag649
ag3286
ag3686
ag3180
ag2889
aa(lp6259
a(lp6260
g5560
ag3031
ag3098
ag4456
ag1272
ag1418
ag2943
ag3766
ag996
ag1286
ag1663
ag2388
aa(lp6261
a(lp6262
g2498
ag2291
ag727
ag4311
ag3321
ag2465
ag3822
ag2879
ag4300
ag5628
ag2031
ag4322
ag1085
ag2368
ag3545
ag1893
ag1702
ag1359
ag3461
ag3201
ag334
ag607
ag1109
ag3235
aa(lp6263
a(lp6264
g2066
ag1807
ag2956
ag5337
ag1983
ag4056
ag1723
ag3430
ag1259
ag4466
ag3999
ag4615
ag2845
ag314
ag3753
ag3927
ag1332
ag4672
ag5817
ag5347
ag4356
ag4696
ag2245
ag5451
ag2544
ag5079
ag2255
ag5465
ag1783
ag4105
ag73
ag2378
ag6025
ag6096
ag5009
ag5613
ag5889
ag5677
ag4589
ag4822
ag4727
ag4805
ag5170
ag4656
ag4901
ag6111
ag5740
ag4839
ag1736
ag1487
ag4091
ag496
ag1209
ag2523
ag752
ag4022
ag366
ag1712
ag917
ag3190
ag1010
ag4366
ag86
ag1297
aa(lp6265
a(lp6266
g5573
ag4043
ag5408
ag5479
ag4214
ag1024
ag1498
ag3419
ag2782
ag4115
ag1120
ag3707
aa(lp6267
a(lp6268
g3975
ag3266
ag1428
ag3334
ag4033
ag703
ag1913
ag3579
ag2534
ag2144
ag4413
ag1588
ag454
ag570
ag2574
ag254
aasS'chain_length'
p6269
I1
sbsS'rev_mm'
p6270
g1
(g7
g3
NtRp6271
(dp6272
g10
g11
((lp6273
g14
ag38
ag52
ag63
ag73
ag86
ag100
ag111
ag122
ag132
ag146
ag160
ag171
ag181
ag5854
ag206
ag871
ag230
ag241
ag254
ag264
ag277
ag1621
ag301
ag314
ag324
ag334
ag345
ag355
ag366
ag380
ag391
ag404
ag417
ag430
ag440
ag454
ag464
ag474
ag485
ag496
ag507
ag521
ag532
ag3075
ag556
ag570
ag593
ag607
ag618
ag628
ag639
ag649
ag659
ag5322
ag680
ag690
ag703
ag713
ag727
ag3145
ag752
ag766
ag4576
ag791
ag802
ag812
ag823
ag833
ag3855
ag858
ag220
ag881
ag891
ag904
ag917
ag931
ag945
ag955
ag966
ag976
ag986
ag996
ag1010
ag1024
ag1038
ag1051
ag1064
ag1074
ag1723
ag1095
ag1109
ag1120
ag1130
ag1140
ag1150
ag1160
ag1173
ag1186
ag1199
ag1209
ag1223
ag2969
ag1249
ag1259
ag1272
ag1286
ag1297
ag1308
ag1321
ag1332
ag1345
ag3201
ag1369
ag1383
ag1394
ag1407
ag3766
ag1428
ag1438
ag1448
ag1462
ag1473
ag1487
ag1498
ag1512
ag1526
ag1539
ag1550
ag1563
ag1577
ag1588
ag1601
ag1611
ag291
ag1631
ag3190
ag1641
ag1652
ag1663
ag1677
ag1688
ag1702
ag1712
ag2197
ag1736
ag1750
ag1761
ag1772
ag1783
ag1796
ag4672
ag1817
ag1827
ag1841
ag1855
ag1868
ag1882
ag1893
ag1903
ag1913
ag1923
ag1934
ag4708
ag1959
ag1970
ag1983
ag1996
ag2007
ag2020
ag2031
ag2042
ag2056
ag2066
ag2076
ag2086
ag2097
ag2110
ag2121
ag2131
ag1085
ag2144
ag2157
ag3555
ag2183
ag2211
ag2221
ag2234
ag2245
ag2255
ag6124
ag2325
ag2291
ag2302
ag2315
ag2278
ag2338
ag3111
ag3354
ag2368
ag2378
ag2388
ag2399
ag2409
ag2419
ag2430
ag2441
ag2451
ag2879
ag2475
ag2485
ag2498
ag2512
ag2523
ag2534
ag2544
ag2554
ag2564
ag2574
ag2587
ag2601
ag2612
ag2625
ag2639
ag2652
ag2662
ag2675
ag2686
ag2696
ag2709
ag2722
ag2732
ag2745
ag2755
ag2769
ag2782
ag2792
ag2803
ag2813
ag2823
ag2834
ag2845
ag2858
ag2869
ag2465
ag2889
ag2899
ag2909
ag4971
ag2933
ag2943
ag5817
ag1236
ag2982
ag2992
ag3006
ag3017
ag3031
ag3041
ag3051
ag3064
ag542
ag3085
ag3098
ag2348
ag6073
ag3132
ag741
ag3156
ag3167
ag3180
ag583
ag1359
ag3211
ag3221
ag3235
ag3246
ag3256
ag3266
ag3276
ag3286
ag4532
ag3307
ag4300
ag3334
ag3344
ag2358
ag3365
ag3375
ag3385
ag3396
ag3406
ag3419
ag5451
ag3440
ag3450
ag3461
ag3471
ag3482
ag3495
ag3509
ag3520
ag6166
ag3545
ag2170
ag3568
ag3579
ag3589
ag3600
ag3611
ag3625
ag3638
ag3648
ag3662
ag3673
ag3686
ag3696
ag3707
ag3717
ag3731
ag3742
ag3753
ag1418
ag3776
ag3787
ag5641
ag3808
ag3822
ag3835
ag3845
ag844
ag3869
ag3879
ag3889
ag3900
ag3914
ag3927
ag3937
ag3951
ag3965
ag3975
ag3985
ag3999
ag4012
ag4022
ag4033
ag4043
ag4696
ag4066
ag4077
ag4091
ag4105
ag4115
ag4125
ag4136
ag5152
ag4163
ag4176
ag4189
ag4200
ag4214
ag4228
ag4242
ag4253
ag4264
ag4275
ag4286
ag3321
ag4311
ag4322
ag4333
ag4343
ag4356
ag4366
ag4377
ag4388
ag4402
ag4413
ag4423
ag4434
ag4445
ag4456
ag4466
ag4476
ag4487
atRp6274
sg4502
(dp6275
(g3334
tp6276
(lp6277
g1428
as(g1923
tp6278
(lp6279
g2992
as(g2534
tp6280
(lp6281
g3579
as(g4322
tp6282
(lp6283
g2031
as(g2909
tp6284
(lp6285
g542
as(g2399
tp6286
(lp6287
g3625
as(g1249
tp6288
(lp6289
g1064
as(g5152
tp6290
(lp6291
g4708
ag1948
as(g2879
tp6292
(lp6293
g3822
as(g3276
tp6294
(lp6295
g4163
as(g1688
tp6296
(lp6297
g2315
as(g1868
tp6298
(lp6299
g1750
as(g52
tp6300
(lp6301
g3742
as(g713
tp6302
(lp6303
g4669
ag4669
as(g2183
tp6304
(lp6305
g4402
as(g3686
tp6306
(lp6307
g3286
as(g3307
tp6308
(lp6309
g4423
as(g3354
tp6310
(lp6311
g4669
as(g230
tp6312
(lp6313
g6073
as(g1321
tp6314
(lp6315
g3951
ag5889
as(g122
tp6316
(lp6317
g2732
as(g2278
tp6318
(lp6319
g2982
ag4506
as(g2858
tp6320
(lp6321
g2110
as(g2587
tp6322
(lp6323
g3889
as(g881
tp6324
(lp6325
g2722
as(g3742
tp6326
(lp6327
g2338
as(g3999
tp6328
(lp6329
g4466
as(g2325
tp6330
(lp6331
g4669
ag4669
as(g1641
tp6332
(lp6333
g3600
as(g1563
tp6334
(lp6335
g3111
ag4889
as(g4434
tp6336
(lp6337
g3869
as(g4228
tp6338
(lp6339
g1772
ag4805
as(g3707
tp6340
(lp6341
g1120
as(g3937
tp6342
(lp6343
g4476
as(g3568
tp6344
(lp6345
g955
as(g6166
tp6346
(lp6347
g5047
ag5033
as(g301
tp6348
(lp6349
g4012
as(g3180
tp6350
(lp6351
g3686
as(g3051
tp6352
(lp6353
g122
as(g4356
tp6354
(lp6355
g5347
as(g3900
tp6356
(lp6357
g669
as(g521
tp6358
(lp6359
g4669
as(g4402
tp6360
(lp6361
g3985
as(g3321
tp6362
(lp6363
g4311
as(g1074
tp6364
(lp6365
g3520
ag4589
as(g3111
tp6366
(lp6367
g2278
ag5590
as(g833
tp6368
(lp6369
g507
as(g3545
tp6370
(lp6371
g2368
as(g3766
tp6372
(lp6373
g2943
as(g607
tp6374
(lp6375
g334
as(g2110
tp6376
(lp6377
g52
as(g3190
tp6378
(lp6379
g917
as(g1663
tp6380
(lp6381
g1286
as(g3064
tp6382
(lp6383
g593
as(g4456
tp6384
(lp6385
g3098
as(g1736
tp6386
(lp6387
g4839
as(g2933
tp6388
(lp6389
g2639
as(g4242
tp6390
(lp6391
g521
as(g2512
tp6392
(lp6393
g2183
as(g4189
tp6394
(lp6395
g2056
as(g1173
tp6396
(lp6397
g1611
as(g3495
tp6398
(lp6399
g4669
as(g171
tp6400
(lp6401
g532
as(g752
tp6402
(lp6403
g2523
as(g1796
tp6404
(lp6405
g1868
as(g2722
tp6406
(lp6407
g3075
as(g73
tp6408
(lp6409
g4105
as(g2612
tp6410
(lp6411
g4669
as(g1223
tp6412
(lp6413
g2933
as(g802
tp6414
(lp6415
g3482
as(g440
tp6416
(lp6417
g1074
ag4822
as(g917
tp6418
(lp6419
g1712
as(g5322
tp6420
(lp6421
g3385
ag3017
as(g3520
tp6422
(lp6423
g1321
ag5677
as(g3256
tp6424
(lp6425
g1526
as(g14
tp6426
(lp6427
g1652
as(g1841
tp6428
(lp6429
g4275
ag6111
as(g4413
tp6430
(lp6431
g2144
as(g146
tp6432
(lp6433
g100
as(g1297
tp6434
(lp6435
g86
as(g2803
tp6436
(lp6437
g1160
as(g3662
tp6438
(lp6439
g14
as(g2086
tp6440
(lp6441
g1796
as(g1677
tp6442
(lp6443
g1577
as(g1601
tp6444
(lp6445
g301
as(g1750
tp6446
(lp6447
g1827
as(g38
tp6448
(lp6449
g4669
as(g2170
tp6450
(lp6451
g2268
ag5836
as(g3406
tp6452
(lp6453
g4669
as(g2792
tp6454
(lp6455
g4228
ag5170
as(g4105
tp6456
(lp6457
g1783
as(g858
tp6458
(lp6459
g4669
ag4669
ag4669
as(g556
tp6460
(lp6461
g355
ag4641
as(g2197
tp6462
(lp6463
g1923
as(g3132
tp6464
(lp6465
g1199
as(g4286
tp6466
(lp6467
g791
ag4555
as(g2475
tp6468
(lp6469
g2652
as(g2969
tp6470
(lp6471
g391
as(g4136
tp6472
(lp6473
g802
as(g3845
tp6474
(lp6475
g1223
as(g1130
tp6476
(lp6477
g4176
as(g812
tp6478
(lp6479
g3787
as(g2388
tp6480
(lp6481
g1663
as(g3396
tp6482
(lp6483
g1051
ag3999
as(g1631
tp6484
(lp6485
g2097
ag2544
as(g1855
tp6486
(lp6487
g2709
as(g2409
tp6488
(lp6489
g2170
ag5188
as(g160
tp6490
(lp6491
g2430
as(g1308
tp6492
(lp6493
g2302
as(g945
tp6494
(lp6495
g891
as(g1160
tp6496
(lp6497
g1817
as(g3673
tp6498
(lp6499
g858
as(g2020
tp6500
(lp6501
g1512
ag6025
as(g2007
tp6502
(lp6503
g680
as(g3579
tp6504
(lp6505
g1913
as(g3450
tp6506
(lp6507
g4377
as(g1611
tp6508
(lp6509
g3406
as(g111
tp6510
(lp6511
g844
ag3221
ag2755
as(g1462
tp6512
(lp6513
g3611
as(g4163
tp6514
(lp6515
g2399
as(g3731
tp6516
(lp6517
g1095
as(g3985
tp6518
(lp6519
g3731
as(g3461
tp6520
(lp6521
g1359
as(g996
tp6522
(lp6523
g3766
as(g690
tp6524
(lp6525
g6124
ag6134
as(g2056
tp6526
(lp6527
g1855
as(g2544
tp6528
(lp6529
g5451
as(g3509
tp6530
(lp6531
g1688
as(g4214
tp6532
(lp6533
g5479
as(g3696
tp6534
(lp6535
g2909
as(g3167
tp6536
(lp6537
g1140
ag4627
as(g4487
tp6538
(lp6539
g3145
as(g5854
tp6540
(lp6541
g3717
ag3471
as(g4366
tp6542
(lp6543
g1010
as(g1024
tp6544
(lp6545
g4214
as(g485
tp6546
(lp6547
g2451
as(g4012
tp6548
(lp6549
g2899
as(g3965
tp6550
(lp6551
g3440
as(g3611
tp6552
(lp6553
g1383
as(g1109
tp6554
(lp6555
g607
as(g3235
tp6556
(lp6557
g1109
as(g3471
tp6558
(lp6559
g3296
as(g4708
tp6560
(lp6561
g3900
ag3354
as(g3211
tp6562
(lp6563
g2007
as(g1772
tp6564
(lp6565
g440
ag4727
as(g1259
tp6566
(lp6567
g3430
as(g6124
tp6568
(lp6569
g1038
ag1236
ag5249
ag4874
as(g1186
tp6570
(lp6571
g945
as(g314
tp6572
(lp6573
g2845
as(g1652
tp6574
(lp6575
g160
as(g1893
tp6576
(lp6577
g3545
as(g4445
tp6578
(lp6579
g812
as(g2755
tp6580
(lp6581
g195
as(g86
tp6582
(lp6583
g4366
as(g2652
tp6584
(lp6585
g1173
ag5817
ag2956
as(g976
tp6586
(lp6587
g2358
as(g2782
tp6588
(lp6589
g3419
as(g4091
tp6590
(lp6591
g1487
as(g464
tp6592
(lp6593
g2662
ag5725
as(g2338
tp6594
(lp6595
g2348
as(g791
tp6596
(lp6597
g713
ag5546
as(g1827
tp6598
(lp6599
g4264
as(g2221
tp6600
(lp6601
g3256
as(g1407
tp6602
(lp6603
g2042
as(g1085
tp6604
(lp6605
g4322
as(g1783
tp6606
(lp6607
g5465
as(g2157
tp6608
(lp6609
g3276
as(g2302
tp6610
(lp6611
g264
ag5408
as(g1882
tp6612
(lp6613
g556
ag5969
as(g3075
tp6614
(lp6615
g966
as(g986
tp6616
(lp6617
g583
as(g2315
tp6618
(lp6619
g2769
as(g3589
tp6620
(lp6621
g3937
as(g1702
tp6622
(lp6623
g1893
as(g741
tp6624
(lp6625
g2587
ag4300
as(g2823
tp6626
(lp6627
g146
as(g2889
tp6628
(lp6629
g3180
as(g1383
tp6630
(lp6631
g3495
as(g2485
tp6632
(lp6633
g2076
as(g3835
tp6634
(lp6635
g2475
as(g2131
tp6636
(lp6637
g823
as(g3385
tp6638
(lp6639
g4576
as(g1526
tp6640
(lp6641
g3845
as(g5817
tp6642
(lp6643
g4672
ag1807
as(g2732
tp6644
(lp6645
g639
as(g1150
tp6646
(lp6647
g3167
ag5913
as(g4066
tp6648
(lp6649
g1345
as(g2419
tp6650
(lp6651
g2858
as(g430
tp6652
(lp6653
g1186
as(g3085
tp6654
(lp6655
g2564
as(g2686
tp6656
(lp6657
g2969
as(g1286
tp6658
(lp6659
g996
as(g4253
tp6660
(lp6661
g4189
as(g1010
tp6662
(lp6663
g3190
as(g3855
tp6664
(lp6665
g111
ag5117
ag5226
as(g4115
tp6666
(lp6667
g2782
as(g680
tp6668
(lp6669
g1550
as(g2144
tp6670
(lp6671
g2534
as(g5451
tp6672
(lp6673
g2245
ag1723
as(g4033
tp6674
(lp6675
g3334
as(g1051
tp6676
(lp6677
g63
as(g2348
tp6678
(lp6679
g5132
as(g4043
tp6680
(lp6681
g5573
as(g727
tp6682
(lp6683
g2291
as(g2097
tp6684
(lp6685
g3211
as(g628
tp6686
(lp6687
g1641
as(g4476
tp6688
(lp6689
g3808
as(g3041
tp6690
(lp6691
g3914
as(g1120
tp6692
(lp6693
g4115
as(g1332
tp6694
(lp6695
g3927
as(g955
tp6696
(lp6697
g4253
as(g2121
tp6698
(lp6699
g5322
as(g542
tp6700
(lp6701
g3156
as(g2066
tp6702
(lp6703
g4669
as(g1934
tp6704
(lp6705
g1539
as(g2358
tp6706
(lp6707
g2745
as(g2696
tp6708
(lp6709
g3879
as(g2245
tp6710
(lp6711
g4696
as(g3879
tp6712
(lp6713
g2121
as(g2255
tp6714
(lp6715
g5079
as(g3145
tp6716
(lp6717
g1448
as(g264
tp6718
(lp6719
g3673
ag4043
as(g2745
tp6720
(lp6721
g3051
as(g1394
tp6722
(lp6723
g4333
as(g823
tp6724
(lp6725
g986
as(g4077
tp6726
(lp6727
g3534
as(g3031
tp6728
(lp6729
g5560
as(g345
tp6730
(lp6731
g220
as(g3419
tp6732
(lp6733
g1498
as(g1369
tp6734
(lp6735
g2675
as(g2662
tp6736
(lp6737
g5641
ag5661
as(g2813
tp6738
(lp6739
g1631
as(g904
tp6740
(lp6741
g976
as(g4022
tp6742
(lp6743
g752
as(g2430
tp6744
(lp6745
g3696
as(g2211
tp6746
(lp6747
g2612
as(g2368
tp6748
(lp6749
g1085
as(g5530
tp6750
(lp6751
g4669
ag3662
ag4669
ag1996
ag4669
ag3064
ag4669
ag1882
ag4669
ag2823
ag4669
ag3568
ag4669
ag1621
ag4669
ag3344
ag4669
ag2686
ag4669
ag380
ag4669
ag4921
ag4669
ag690
ag4669
ag5201
ag4669
ag1677
ag4669
ag3041
ag4669
ag2889
ag4669
ag2388
ag4669
ag3235
ag4669
ag1297
ag4669
ag3707
ag4669
ag254
as(g2031
tp6752
(lp6753
g5628
as(g2982
tp6754
(lp6755
g4343
ag3965
ag5361
as(g3246
tp6756
(lp6757
g4136
as(g3822
tp6758
(lp6759
g2465
as(g3482
tp6760
(lp6761
g1903
as(g3365
tp6762
(lp6763
g1970
as(g132
tp6764
(lp6765
g2020
ag6096
as(g1359
tp6766
(lp6767
g1702
as(g4300
tp6768
(lp6769
g2879
as(g4971
tp6770
(lp6771
g2409
ag3006
ag5698
ag5796
as(g2869
tp6772
(lp6773
g241
as(g1199
tp6774
(lp6775
g1394
as(g3951
tp6776
(lp6777
g1761
ag5613
as(g220
tp6778
(lp6779
g291
as(g871
tp6780
(lp6781
g324
as(g583
tp6782
(lp6783
g3132
as(g507
tp6784
(lp6785
g2601
as(g3555
tp6786
(lp6787
g3798
ag5651
as(g1272
tp6788
(lp6789
g4456
as(g5641
tp6790
(lp6791
g4971
ag2920
ag4984
ag6191
as(g4275
tp6792
(lp6793
g2625
ag4901
as(g2465
tp6794
(lp6795
g3321
as(g4125
tp6796
(lp6797
g3855
as(g324
tp6798
(lp6799
g1249
as(g3625
tp6800
(lp6801
g1601
as(g4264
tp6802
(lp6803
g1934
as(g380
tp6804
(lp6805
g1841
ag5740
as(g3266
tp6806
(lp6807
g3975
as(g532
tp6808
(lp6809
g881
as(g334
tp6810
(lp6811
g3201
as(g2943
tp6812
(lp6813
g1418
as(g1418
tp6814
(lp6815
g1272
as(g1095
tp6816
(lp6817
g4066
as(g366
tp6818
(lp6819
g4022
as(g649
tp6820
(lp6821
g2813
ag2255
as(g4532
tp6822
(lp6823
g5152
ag4149
as(g1996
tp6824
(lp6825
g1369
as(g2709
tp6826
(lp6827
g1308
as(g2675
tp6828
(lp6829
g3648
as(g2564
tp6830
(lp6831
g618
as(g2441
tp6832
(lp6833
g3375
as(g766
tp6834
(lp6835
g2834
ag5942
as(g3221
tp6836
(lp6837
g5854
as(g3600
tp6838
(lp6839
g2086
as(g1723
tp6840
(lp6841
g4056
as(g4423
tp6842
(lp6843
g38
as(g4672
tp6844
(lp6845
g1332
ag2066
as(g100
tp6846
(lp6847
g4487
as(g2899
tp6848
(lp6849
g4669
as(g1236
tp6850
(lp6851
g3555
ag5712
as(g2498
tp6852
(lp6853
g4669
as(g1487
tp6854
(lp6855
g1736
as(g639
tp6856
(lp6857
g417
as(g3717
tp6858
(lp6859
g4532
as(g3914
tp6860
(lp6861
g2803
as(g2769
tp6862
(lp6863
g1130
as(g1970
tp6864
(lp6865
g3396
as(g4466
tp6866
(lp6867
g1259
as(g1550
tp6868
(lp6869
g659
as(g593
tp6870
(lp6871
g3509
as(g3375
tp6872
(lp6873
g3638
as(g4311
tp6874
(lp6875
g727
as(g3201
tp6876
(lp6877
g3461
as(g1064
tp6878
(lp6879
g345
as(g3098
tp6880
(lp6881
g3031
as(g1761
tp6882
(lp6883
g132
ag5009
as(g2845
tp6884
(lp6885
g4615
as(g1345
tp6886
(lp6887
g4669
as(g2574
tp6888
(lp6889
g570
as(g3869
tp6890
(lp6891
g171
as(g1140
tp6892
(lp6893
g2325
ag5533
as(g2523
tp6894
(lp6895
g1209
as(g3787
tp6896
(lp6897
g2419
as(g4696
tp6898
(lp6899
g4356
ag1983
as(g3927
tp6900
(lp6901
g3753
as(g703
tp6902
(lp6903
g4033
as(g1903
tp6904
(lp6905
g2485
as(g1621
tp6906
(lp6907
g871
as(g1473
tp6908
(lp6909
g1959
ag4938
as(g63
tp6910
(lp6911
g2441
as(g1438
tp6912
(lp6913
g2696
as(g966
tp6914
(lp6915
g2157
as(g1817
tp6916
(lp6917
g2131
as(g1588
tp6918
(lp6919
g4413
as(g474
tp6920
(lp6921
g2197
as(g417
tp6922
(lp6923
g2869
as(g355
tp6924
(lp6925
g1563
ag4743
as(g1539
tp6926
(lp6927
g4388
as(g4176
tp6928
(lp6929
g1462
as(g2601
tp6930
(lp6931
g4434
as(g891
tp6932
(lp6933
g1438
as(g3753
tp6934
(lp6935
g314
as(g3648
tp6936
(lp6937
g2234
as(g4200
tp6938
(lp6939
g833
as(g496
tp6940
(lp6941
g4091
as(g2291
tp6942
(lp6943
g2498
as(g1983
tp6944
(lp6945
g5337
as(g1577
tp6946
(lp6947
g474
as(g3017
tp6948
(lp6949
g780
as(g4333
tp6950
(lp6951
g904
as(g3776
tp6952
(lp6953
g4200
as(g1712
tp6954
(lp6955
g366
as(g1498
tp6956
(lp6957
g1024
as(g291
tp6958
(lp6959
g4445
as(g1209
tp6960
(lp6961
g496
as(g3808
tp6962
(lp6963
g4669
as(g2639
tp6964
(lp6965
g4669
as(g2378
tp6966
(lp6967
g73
as(g3638
tp6968
(lp6969
g3835
as(g1959
tp6970
(lp6971
g4286
ag5266
as(g241
tp6972
(lp6973
g430
as(g931
tp6974
(lp6975
g485
as(g3889
tp6976
(lp6977
g3307
as(g570
tp6978
(lp6979
g454
as(g2076
tp6980
(lp6981
g2221
as(g3286
tp6982
(lp6983
g649
as(g3440
tp6984
(lp6985
g2554
as(g277
tp6986
(lp6987
g6166
as(g2992
tp6988
(lp6989
g4125
as(g1913
tp6990
(lp6991
g703
as(g2554
tp6992
(lp6993
g2211
as(g2234
tp6994
(lp6995
g931
as(g206
tp6996
(lp6997
g3121
as(g1512
tp6998
(lp6999
g4669
ag2378
as(g4377
tp7000
(lp7001
g628
as(g2625
tp7002
(lp7003
g2792
ag4656
as(g1038
tp7004
(lp7005
g464
ag5508
as(g181
tp7006
(lp7007
g3776
as(g454
tp7008
(lp7009
g1588
as(g618
tp7010
(lp7011
g3450
as(g2042
tp7012
(lp7013
g3589
as(g391
tp7014
(lp7015
g3365
as(g3156
tp7016
(lp7017
g181
as(g4343
tp7018
(lp7019
g1150
ag5097
as(g254
tp7020
(lp7021
g2574
as(g6073
tp7022
(lp7023
g277
ag4077
as(g404
tp7024
(lp7025
g3246
as(g844
tp7026
(lp7027
g1407
as(g1428
tp7028
(lp7029
g3266
as(g3344
tp7030
(lp7031
g404
as(g659
tp7032
(lp7033
g3085
as(g3975
tp7034
(lp7035
g4669
as(g4388
tp7036
(lp7037
g4242
as(g4576
tp7038
(lp7039
g230
ag206
as(g3006
tp7040
(lp7041
g766
ag6208
as(g1448
tp7042
(lp7043
g741
as(g2834
tp7044
(lp7045
g1473
ag6043
as(g2451
tp7046
(lp7047
g2512
assg6224
(lp7048
(lp7049
a(lp7050
a(lp7051
g3662
ag14
ag1652
ag160
ag2430
ag3696
ag2909
ag542
ag3156
ag181
ag3776
ag4200
ag833
ag507
ag2601
ag4434
ag3869
ag171
ag532
ag881
ag2722
ag3075
ag966
ag2157
ag3276
ag4163
ag2399
ag3625
ag1601
ag301
ag4012
ag2899
aa(lp7052
a(lp7053
g1996
ag1369
ag2675
ag3648
ag2234
ag931
ag485
ag2451
ag2512
ag2183
ag4402
ag3985
ag3731
ag1095
ag4066
ag1345
aa(lp7054
a(lp7055
g3064
ag593
ag3509
ag1688
ag2315
ag2769
ag1130
ag4176
ag1462
ag3611
ag1383
ag3495
aa(lp7056
a(lp7057
g1882
ag556
ag355
ag1563
ag3111
ag2278
ag2982
ag4343
ag1150
ag3167
ag1140
ag2325
aa(lp7058
a(lp7059
g2823
ag146
ag100
ag4487
ag3145
ag1448
ag741
ag2587
ag3889
ag3307
ag4423
ag38
aa(lp7060
a(lp7061
g3568
ag955
ag4253
ag4189
ag2056
ag1855
ag2709
ag1308
ag2302
ag264
ag3673
ag858
aa(lp7062
a(lp7063
g1621
ag871
ag324
ag1249
ag1064
ag345
ag220
ag291
ag4445
ag812
ag3787
ag2419
ag2858
ag2110
ag52
ag3742
ag2338
ag2348
ag5132
ag3965
ag3440
ag2554
ag2211
ag2612
aa(lp7064
a(lp7065
g3344
ag404
ag3246
ag4136
ag802
ag3482
ag1903
ag2485
ag2076
ag2221
ag3256
ag1526
ag3845
ag1223
ag2933
ag2639
aa(lp7066
a(lp7067
g2686
ag2969
ag391
ag3365
ag1970
ag3396
ag1051
ag63
ag2441
ag3375
ag3638
ag3835
ag2475
ag2652
ag1173
ag1611
ag3406
aa(lp7068
a(lp7069
g380
ag1841
ag4275
ag2625
ag2792
ag4228
ag1772
ag440
ag1074
ag3520
ag1321
ag3951
ag1761
ag132
ag2020
ag1512
aa(lp7070
a(lp7071
g4921
ag5969
ag4641
ag4743
ag4889
ag5590
ag4506
ag5361
ag5097
ag5913
ag4627
ag5533
aa(lp7072
a(lp7073
g690
ag6124
ag1038
ag464
ag2662
ag5641
ag4971
ag2409
ag2170
ag2268
ag1236
ag3555
ag3798
ag2920
ag3006
ag766
ag2834
ag1473
ag1959
ag4286
ag791
ag713
aa(lp7074
a(lp7075
g5201
ag6134
ag5249
ag5508
ag5725
ag5661
ag4984
ag5698
ag5188
ag5836
ag4874
ag5712
ag5651
ag6191
ag5796
ag6208
ag5942
ag6043
ag4938
ag5266
ag4555
ag5546
aa(lp7076
a(lp7077
g1677
ag1577
ag474
ag2197
ag1923
ag2992
ag4125
ag3855
ag111
ag844
ag1407
ag2042
ag3589
ag3937
ag4476
ag3808
aa(lp7078
a(lp7079
g3041
ag3914
ag2803
ag1160
ag1817
ag2131
ag823
ag986
ag583
ag3132
ag1199
ag1394
ag4333
ag904
ag976
ag2358
ag2745
ag3051
ag122
ag2732
ag639
ag417
ag2869
ag241
ag430
ag1186
ag945
ag891
ag1438
ag2696
ag3879
ag2121
ag5322
ag3385
ag4576
ag230
ag6073
ag277
ag6166
ag5047
ag5117
ag3221
ag5854
ag3717
ag4532
ag5152
ag4708
ag3900
ag669
ag3017
ag780
ag206
ag3121
ag4077
ag3534
ag5033
ag5226
ag2755
ag195
ag3471
ag3296
ag4149
ag1948
ag3354
aa(lp7080
a(lp7081
g2889
ag3180
ag3686
ag3286
ag649
ag2813
ag1631
ag2097
ag3211
ag2007
ag680
ag1550
ag659
ag3085
ag2564
ag618
ag3450
ag4377
ag628
ag1641
ag3600
ag2086
ag1796
ag1868
ag1750
ag1827
ag4264
ag1934
ag1539
ag4388
ag4242
ag521
aa(lp7082
a(lp7083
g2388
ag1663
ag1286
ag996
ag3766
ag2943
ag1418
ag1272
ag4456
ag3098
ag3031
ag5560
aa(lp7084
a(lp7085
g3235
ag1109
ag607
ag334
ag3201
ag3461
ag1359
ag1702
ag1893
ag3545
ag2368
ag1085
ag4322
ag2031
ag5628
ag4300
ag2879
ag3822
ag2465
ag3321
ag4311
ag727
ag2291
ag2498
aa(lp7086
a(lp7087
g1297
ag86
ag4366
ag1010
ag3190
ag917
ag1712
ag366
ag4022
ag752
ag2523
ag1209
ag496
ag4091
ag1487
ag1736
ag4839
ag5740
ag6111
ag4901
ag4656
ag5170
ag4805
ag4727
ag4822
ag4589
ag5677
ag5889
ag5613
ag5009
ag6096
ag6025
ag2378
ag73
ag4105
ag1783
ag5465
ag2255
ag5079
ag2544
ag5451
ag2245
ag4696
ag4356
ag5347
ag5817
ag4672
ag1332
ag3927
ag3753
ag314
ag2845
ag4615
ag3999
ag4466
ag1259
ag3430
ag1723
ag4056
ag1983
ag5337
ag2956
ag1807
ag2066
aa(lp7088
a(lp7089
g3707
ag1120
ag4115
ag2782
ag3419
ag1498
ag1024
ag4214
ag5479
ag5408
ag4043
ag5573
aa(lp7090
a(lp7091
g254
ag2574
ag570
ag454
ag1588
ag4413
ag2144
ag2534
ag3579
ag1913
ag703
ag4033
ag3334
ag1428
ag3266
ag3975
aasg6269
I1
sbsS'type'
p7092
S'all invention'
p7093
sS'pieces'
p7094
g11
((lp7095
S'./mid\\invention13_5.mid'
p7096
aS'./mid\\invention13_4.mid'
p7097
aS'./mid\\invention4_1.mid'
p7098
aS'./mid\\invention3_1.mid'
p7099
aS'./mid\\invention4_3.mid'
p7100
aS'./mid\\invention4_4.mid'
p7101
aS'./mid\\invention3_4.mid'
p7102
aS'./mid\\invention1_3.mid'
p7103
aS'./mid\\invention1_2.mid'
p7104
aS'./mid\\invention13_3.mid'
p7105
aS'./mid\\invention3_2.mid'
p7106
aS'./mid\\invention4_6.mid'
p7107
aS'./mid\\invention4_7.mid'
p7108
aS'./mid\\invention1_4.mid'
p7109
aS'./mid\\invention13_1.mid'
p7110
aS'./mid\\invention13_6.mid'
p7111
aS'./mid\\invention4_2.mid'
p7112
aS'./mid\\invention3_3.mid'
p7113
aS'./mid\\invention13_2.mid'
p7114
aS'./mid\\invention4_5.mid'
p7115
aS'./mid\\invention1_1.mid'
p7116
atRp7117
sb.