ccopy_reg
_reconstructor
p1
(c__main__
Recommender
p2
c__builtin__
object
p3
NtRp4
(dp5
S'mm'
p6
g1
(ccmm
Markov
p7
g3
NtRp8
(dp9
S'states'
p10
c__builtin__
set
p11
((lp12
g1
(ccmm
NoteState
p13
g3
NtRp14
(dp15
S'origin'
p16
S'T(5)./mid\\invention13_5.mid'
p17
sS'chord'
p18
S'Gm'
p19
sS'bar'
p20
I4096
sS'state_duration'
p21
cdecimal
Decimal
p22
(S'0.0625'
tRp23
sS'notes'
p24
(lp25
g1
(cdata
note
p26
g3
NtRp27
(dp28
S'dur'
p29
g22
(S'0.0625'
tRp30
sS'pos'
p31
I7680
sS'chn'
p32
I1
sS'pitch'
p33
I69
sbasS'bar_pos'
p34
g22
(S'0.875'
tRp35
sS'state_position'
p36
g22
(S'1.875'
tRp37
sbag1
(g13
g3
NtRp38
(dp39
g16
S'T(-4)./mid\\invention13_6.mid'
p40
sg18
S'Fm'
p41
sg20
I4096
sg21
g22
(S'0.0625'
tRp42
sg24
(lp43
g1
(g26
g3
NtRp44
(dp45
g29
g22
(S'0.0625'
tRp46
sg31
I3840
sg32
I1
sg33
I57
sbasg34
g22
(S'0.9375'
tRp47
sg36
g22
(S'0.9375'
tRp48
sbag1
(g13
g3
NtRp49
(dp50
g16
S'T(5)./mid\\invention1_2.mid'
p51
sg18
S'C'
sg20
I4096
sg21
g22
(S'0.0625'
tRp52
sg24
(lp53
g1
(g26
g3
NtRp54
(dp55
g29
g22
(S'0.0625'
tRp56
sg31
I2304
sg32
I1
sg33
I60
sbasg34
g22
(S'0.5625'
tRp57
sg36
g22
(S'0.5625'
tRp58
sbag1
(g13
g3
NtRp59
(dp60
g16
S'T(0)./mid\\invention13_2.mid'
p61
sg18
S'C'
sg20
I4096
sg21
g22
(S'0.0625'
tRp62
sg24
(lp63
g1
(g26
g3
NtRp64
(dp65
g29
g22
(S'0.0625'
tRp66
sg31
I3328
sg32
I1
sg33
I55
sbasg34
g22
(S'0.8125'
tRp67
sg36
g22
(S'0.8125'
tRp68
sbag1
(g13
g3
NtRp69
(dp70
g16
S'T(0)./mid\\invention13_2.mid'
p71
sg18
S'C'
sg20
I4096
sg21
g22
(S'0.0625'
tRp72
sg24
(lp73
g1
(g26
g3
NtRp74
(dp75
g29
g22
(S'0.0625'
tRp76
sg31
I7680
sg32
I1
sg33
I55
sbag1
(g26
g3
NtRp77
(dp78
g29
g22
(S'0.125'
tRp79
sg31
I7680
sg32
I0
sg33
I76
sbasg34
g22
(S'0.875'
tRp80
sg36
g22
(S'1.875'
tRp81
sbag1
(g13
g3
NtRp82
(dp83
g16
S'T(0)./mid\\invention13_2.mid'
p84
sg18
S'Em'
p85
sg20
I4096
sg21
g22
(S'0.0625'
tRp86
sg24
(lp87
g1
(g26
g3
NtRp88
(dp89
g29
g22
(S'0.0625'
tRp90
sg31
I14336
sg32
I1
sg33
I64
sbag1
(g26
g3
NtRp91
(dp92
g29
g22
(S'0.125'
tRp93
sg31
I14336
sg32
I0
sg33
I72
sbasg34
g22
(S'0.5'
tRp94
sg36
g22
(S'3.5'
tRp95
sbag1
(g13
g3
NtRp96
(dp97
g16
S'T(0)./mid\\invention1_4.mid'
p98
sg18
S'Am'
p99
sg20
I4096
sg21
g22
(S'0.0625'
tRp100
sg24
(lp101
g1
(g26
g3
NtRp102
(dp103
g29
g22
(S'0.0625'
tRp104
sg31
I1792
sg32
I0
sg33
I74
sbasg34
g22
(S'0.4375'
tRp105
sg36
g22
(S'0.4375'
tRp106
sbag1
(g13
g3
NtRp107
(dp108
g16
S'T(0)./mid\\invention13_1.mid'
p109
sg18
S'F'
sg20
I4096
sg21
g22
(S'0.0625'
tRp110
sg24
(lp111
g1
(g26
g3
NtRp112
(dp113
g29
g22
(S'0.0625'
tRp114
sg31
I11520
sg32
I1
sg33
I53
sbasg34
g22
(S'0.8125'
tRp115
sg36
g22
(S'2.8125'
tRp116
sbag1
(g13
g3
NtRp117
(dp118
g16
S'T(5)./mid\\invention13_5.mid'
p119
sg18
S'D'
sg20
I4096
sg21
g22
(S'0.0625'
tRp120
sg24
(lp121
g1
(g26
g3
NtRp122
(dp123
g29
g22
(S'0.0625'
tRp124
sg31
I256
sg32
I0
sg33
I84
sbasg34
g22
(S'0.0625'
tRp125
sg36
g22
(S'0.0625'
tRp126
sbag1
(g13
g3
NtRp127
(dp128
g16
S'T(0)./mid\\invention13_3.mid'
p129
sg18
S'Am'
p130
sg20
I4096
sg21
g22
(S'0.0625'
tRp131
sg24
(lp132
g1
(g26
g3
NtRp133
(dp134
g29
g22
(S'0.0625'
tRp135
sg31
I512
sg32
I0
sg33
I76
sbag1
(g26
g3
NtRp136
(dp137
g29
g22
(S'0.125'
tRp138
sg31
I512
sg32
I1
sg33
I60
sbasg34
g22
(S'0.125'
tRp139
sg36
g22
(S'0.125'
tRp140
sbag1
(g13
g3
NtRp141
(dp142
g16
S'T(5)./mid\\invention13_5.mid'
p143
sg18
S'Gm'
p144
sg20
I4096
sg21
g22
(S'0.0625'
tRp145
sg24
(lp146
g1
(g26
g3
NtRp147
(dp148
g29
g22
(S'0.25'
tRp149
sg31
I7168
sg32
I0
sg33
I72
sbasg34
g22
(S'0.75'
tRp150
sg36
g22
(S'1.75'
tRp151
sbag1
(g13
g3
NtRp152
(dp153
g16
S'T(0)./mid\\invention13_1.mid'
p154
sg18
S'G'
sg20
I4096
sg21
g22
(S'0.0625'
tRp155
sg24
(lp156
g1
(g26
g3
NtRp157
(dp158
g29
g22
(S'0.125'
tRp159
sg31
I12288
sg32
I1
sg33
I47
sbasg34
g22
(S'0'
tRp160
sg36
g22
(S'3'
tRp161
sbag1
(g13
g3
NtRp162
(dp163
g16
S'T(0)./mid\\invention1_3.mid'
p164
sg18
S'C'
sg20
I4096
sg21
g22
(S'0.0625'
tRp165
sg24
(lp166
g1
(g26
g3
NtRp167
(dp168
g29
g22
(S'0.0625'
tRp169
sg31
I3840
sg32
I0
sg33
I77
sbasg34
g22
(S'0.9375'
tRp170
sg36
g22
(S'0.9375'
tRp171
sbag1
(g13
g3
NtRp172
(dp173
g16
S'T(0)./mid\\invention13_2.mid'
p174
sg18
S'C'
sg20
I4096
sg21
g22
(S'0.0625'
tRp175
sg24
(lp176
g1
(g26
g3
NtRp177
(dp178
g29
g22
(S'0.0625'
tRp179
sg31
I7936
sg32
I1
sg33
I59
sbasg34
g22
(S'0.9375'
tRp180
sg36
g22
(S'1.9375'
tRp181
sbag1
(g13
g3
NtRp182
(dp183
g16
S'T(0)./mid\\invention1_4.mid'
p184
sg18
S'Am'
p185
sg20
I4096
sg21
g22
(S'0.0625'
tRp186
sg24
(lp187
g1
(g26
g3
NtRp188
(dp189
g29
g22
(S'0.0625'
tRp190
sg31
I3584
sg32
I0
sg33
I67
sbasg34
g22
(S'0.875'
tRp191
sg36
g22
(S'0.875'
tRp192
sbag1
(g13
g3
NtRp193
(dp194
g16
S'T(0)./mid\\invention13_1.mid'
p195
sg18
S'F'
sg20
I4096
sg21
g22
(S'0.0625'
tRp196
sg24
(lp197
g1
(g26
g3
NtRp198
(dp199
g29
g22
(S'0.0625'
tRp200
sg31
I9216
sg32
I0
sg33
I69
sbag1
(g26
g3
NtRp201
(dp202
g29
g22
(S'0.125'
tRp203
sg31
I9216
sg32
I1
sg33
I60
sbasg34
g22
(S'0.25'
tRp204
sg36
g22
(S'2.25'
tRp205
sbag1
(g13
g3
NtRp206
(dp207
g16
S'T(5)./mid\\invention13_5.mid'
p208
sg18
S'Gm'
p209
sg20
I4096
sg21
g22
(S'0.0625'
tRp210
sg24
(lp211
g1
(g26
g3
NtRp212
(dp213
g29
g22
(S'0.0625'
tRp214
sg31
I5632
sg32
I0
sg33
I76
sbag1
(g26
g3
NtRp215
(dp216
g29
g22
(S'0.125'
tRp217
sg31
I5632
sg32
I1
sg33
I61
sbasg34
g22
(S'0.375'
tRp218
sg36
g22
(S'1.375'
tRp219
sbag1
(g13
g3
NtRp220
(dp221
g16
S'T(0)./mid\\invention13_1.mid'
p222
sg18
S'Am'
p223
sg20
I4096
sg21
g22
(S'0.0625'
tRp224
sg24
(lp225
g1
(g26
g3
NtRp226
(dp227
g29
g22
(S'0.0625'
tRp228
sg31
I1280
sg32
I0
sg33
I64
sbasg34
g22
(S'0.3125'
tRp229
sg36
g22
(S'0.3125'
tRp230
sbag1
(g13
g3
NtRp231
(dp232
g16
S'T(0)./mid\\invention13_1.mid'
p233
sg18
S'Am'
p234
sg20
I4096
sg21
g22
(S'0.0625'
tRp235
sg24
(lp236
g1
(g26
g3
NtRp237
(dp238
g29
g22
(S'0.0625'
tRp239
sg31
I3072
sg32
I1
sg33
I59
sbag1
(g26
g3
NtRp240
(dp241
g29
g22
(S'0.125'
tRp242
sg31
I3072
sg32
I0
sg33
I68
sbasg34
g22
(S'0.75'
tRp243
sg36
g22
(S'0.75'
tRp244
sbag1
(g13
g3
NtRp245
(dp246
g16
S'T(0)./mid\\invention13_1.mid'
p247
sg18
S'Am'
p248
sg20
I4096
sg21
g22
(S'0.0625'
tRp249
sg24
(lp250
g1
(g26
g3
NtRp251
(dp252
g29
g22
(S'0.0625'
tRp253
sg31
I7168
sg32
I1
sg33
I59
sbasg34
g22
(S'0.75'
tRp254
sg36
g22
(S'1.75'
tRp255
sbag1
(g13
g3
NtRp256
(dp257
g16
S'T(0)./mid\\invention13_1.mid'
p258
sg18
S'F'
sg20
I4096
sg21
g22
(S'0.0625'
tRp259
sg24
(lp260
g1
(g26
g3
NtRp261
(dp262
g29
g22
(S'0.0625'
tRp263
sg31
I10240
sg32
I1
sg33
I62
sbag1
(g26
g3
NtRp264
(dp265
g29
g22
(S'0.125'
tRp266
sg31
I10240
sg32
I0
sg33
I65
sbasg34
g22
(S'0.5'
tRp267
sg36
g22
(S'2.5'
tRp268
sbag1
(g13
g3
NtRp269
(dp270
g16
S'T(0)./mid\\invention1_1.mid'
p271
sg18
S'C'
sg20
I4096
sg21
g22
(S'0.0625'
tRp272
sg24
(lp273
g1
(g26
g3
NtRp274
(dp275
g29
g22
(S'0.0625'
tRp276
sg31
I3840
sg32
I1
sg33
I48
sbasg34
g22
(S'0.9375'
tRp277
sg36
g22
(S'0.9375'
tRp278
sbag1
(g13
g3
NtRp279
(dp280
g16
S'T(5)./mid\\invention13_5.mid'
p281
sg18
S'Gm'
p282
sg20
I4096
sg21
g22
(S'0.0625'
tRp283
sg24
(lp284
g1
(g26
g3
NtRp285
(dp286
g29
g22
(S'0.0625'
tRp287
sg31
I6912
sg32
I0
sg33
I79
sbasg34
g22
(S'0.6875'
tRp288
sg36
g22
(S'1.6875'
tRp289
sbag1
(g13
g3
NtRp290
(dp291
g16
S'T(0)./mid\\invention13_1.mid'
p292
sg18
S'Am'
p293
sg20
I4096
sg21
g22
(S'0.0625'
tRp294
sg24
(lp295
g1
(g26
g3
NtRp296
(dp297
g29
g22
(S'0.0625'
tRp298
sg31
I6656
sg32
I1
sg33
I57
sbag1
(g26
g3
NtRp299
(dp300
g29
g22
(S'0.125'
tRp301
sg31
I6656
sg32
I0
sg33
I69
sbasg34
g22
(S'0.625'
tRp302
sg36
g22
(S'1.625'
tRp303
sbag1
(g13
g3
NtRp304
(dp305
g16
S'T(5)./mid\\invention1_2.mid'
p306
sg18
S'C'
sg20
I4096
sg21
g22
(S'0.0625'
tRp307
sg24
(lp308
g1
(g26
g3
NtRp309
(dp310
g29
g22
(S'0.125'
tRp311
sg31
I2048
sg32
I0
sg33
I79
sbasg34
g22
(S'0.5'
tRp312
sg36
g22
(S'0.5'
tRp313
sbag1
(g13
g3
NtRp314
(dp315
g16
S'T(5)./mid\\invention13_4.mid'
p316
sg18
S'Am'
p317
sg20
I4096
sg21
g22
(S'0.0625'
tRp318
sg24
(lp319
g1
(g26
g3
NtRp320
(dp321
g29
g22
(S'0.0625'
tRp322
sg31
I2048
sg32
I1
sg33
I69
sbag1
(g26
g3
NtRp323
(dp324
g29
g22
(S'0.125'
tRp325
sg31
I2048
sg32
I0
sg33
I77
sbasg34
g22
(S'0.5'
tRp326
sg36
g22
(S'0.5'
tRp327
sbag1
(g13
g3
NtRp328
(dp329
g16
S'T(5)./mid\\invention13_5.mid'
p330
sg18
S'D'
sg20
I4096
sg21
g22
(S'0.0625'
tRp331
sg24
(lp332
g1
(g26
g3
NtRp333
(dp334
g29
g22
(S'0.0625'
tRp335
sg31
I512
sg32
I0
sg33
I87
sbag1
(g26
g3
NtRp336
(dp337
g29
g22
(S'0.125'
tRp338
sg31
I512
sg32
I1
sg33
I57
sbasg34
g22
(S'0.125'
tRp339
sg36
g22
(S'0.125'
tRp340
sbag1
(g13
g3
NtRp341
(dp342
g16
S'T(0)./mid\\invention1_3.mid'
p343
sg18
S'C'
sg20
I4096
sg21
g22
(S'0.0625'
tRp344
sg24
(lp345
g1
(g26
g3
NtRp346
(dp347
g29
g22
(S'0.0625'
tRp348
sg31
I2048
sg32
I0
sg33
I79
sbag1
(g26
g3
NtRp349
(dp350
g29
g22
(S'0.125'
tRp351
sg31
I2048
sg32
I1
sg33
I64
sbasg34
g22
(S'0.5'
tRp352
sg36
g22
(S'0.5'
tRp353
sbag1
(g13
g3
NtRp354
(dp355
g16
S'T(5)./mid\\invention13_4.mid'
p356
sg18
S'Am'
p357
sg20
I4096
sg21
g22
(S'0.0625'
tRp358
sg24
(lp359
g1
(g26
g3
NtRp360
(dp361
g29
g22
(S'0.0625'
tRp362
sg31
I1792
sg32
I0
sg33
I76
sbasg34
g22
(S'0.4375'
tRp363
sg36
g22
(S'0.4375'
tRp364
sbag1
(g13
g3
NtRp365
(dp366
g16
S'T(0)./mid\\invention1_4.mid'
p367
sg18
S'Am'
p368
sg20
I4096
sg21
g22
(S'0.0625'
tRp369
sg24
(lp370
g1
(g26
g3
NtRp371
(dp372
g29
g22
(S'0.0625'
tRp373
sg31
I1024
sg32
I0
sg33
I69
sbag1
(g26
g3
NtRp374
(dp375
g29
g22
(S'0.125'
tRp376
sg31
I1024
sg32
I1
sg33
I54
sbasg34
g22
(S'0.25'
tRp377
sg36
g22
(S'0.25'
tRp378
sbag1
(g13
g3
NtRp379
(dp380
g16
S'T(5)./mid\\invention1_2.mid'
p381
sg18
S'C'
sg20
I4096
sg21
g22
(S'0.0625'
tRp382
sg24
(lp383
g1
(g26
g3
NtRp384
(dp385
g29
g22
(S'0.0625'
tRp386
sg31
I1792
sg32
I0
sg33
I72
sbasg34
g22
(S'0.4375'
tRp387
sg36
g22
(S'0.4375'
tRp388
sbag1
(g13
g3
NtRp389
(dp390
g16
S'T(-4)./mid\\invention13_6.mid'
p391
sg18
S'C'
sg20
I4096
sg21
g22
(S'0.0625'
tRp392
sg24
(lp393
g1
(g26
g3
NtRp394
(dp395
g29
g22
(S'0.0625'
tRp396
sg31
I5632
sg32
I0
sg33
I64
sbag1
(g26
g3
NtRp397
(dp398
g29
g22
(S'0.125'
tRp399
sg31
I5632
sg32
I1
sg33
I49
sbasg34
g22
(S'0.375'
tRp400
sg36
g22
(S'1.375'
tRp401
sbag1
(g13
g3
NtRp402
(dp403
g16
S'T(0)./mid\\invention13_3.mid'
p404
sg18
S'Am'
p405
sg20
I4096
sg21
g22
(S'0.0625'
tRp406
sg24
(lp407
g1
(g26
g3
NtRp408
(dp409
g29
g22
(S'0.0625'
tRp410
sg31
I3840
sg32
I1
sg33
I57
sbasg34
g22
(S'0.9375'
tRp411
sg36
g22
(S'0.9375'
tRp412
sbag1
(g13
g3
NtRp413
(dp414
g16
S'T(5)./mid\\invention1_2.mid'
p415
sg18
S'C'
sg20
I4096
sg21
g22
(S'0.0625'
tRp416
sg24
(lp417
g1
(g26
g3
NtRp418
(dp419
g29
g22
(S'0.0625'
tRp420
sg31
I3328
sg32
I1
sg33
I62
sbag1
(g26
g3
NtRp421
(dp422
g29
g22
(S'0.0625'
tRp423
sg31
I3328
sg32
I0
sg33
I82
sbasg34
g22
(S'0.8125'
tRp424
sg36
g22
(S'0.8125'
tRp425
sbag1
(g13
g3
NtRp426
(dp427
g16
S'T(0)./mid\\invention1_1.mid'
p428
sg18
S'C'
sg20
I4096
sg21
g22
(S'0.0625'
tRp429
sg24
(lp430
g1
(g26
g3
NtRp431
(dp432
g29
g22
(S'0.0625'
tRp433
sg31
I3584
sg32
I1
sg33
I52
sbag1
(g26
g3
NtRp434
(dp435
g29
g22
(S'0.125'
tRp436
sg31
I3584
sg32
I0
sg33
I72
sbasg34
g22
(S'0.875'
tRp437
sg36
g22
(S'0.875'
tRp438
sbag1
(g13
g3
NtRp439
(dp440
g16
S'T(0)./mid\\invention13_2.mid'
p441
sg18
S'C'
sg20
I4096
sg21
g22
(S'0.0625'
tRp442
sg24
(lp443
g1
(g26
g3
NtRp444
(dp445
g29
g22
(S'0.0625'
tRp446
sg31
I5632
sg32
I0
sg33
I74
sbasg34
g22
(S'0.375'
tRp447
sg36
g22
(S'1.375'
tRp448
sbag1
(g13
g3
NtRp449
(dp450
g16
S'T(5)./mid\\invention13_5.mid'
p451
sg18
S'Gm'
p452
sg20
I4096
sg21
g22
(S'0.0625'
tRp453
sg24
(lp454
g1
(g26
g3
NtRp455
(dp456
g29
g22
(S'0.1875'
tRp457
sg31
I4352
sg32
I0
sg33
I82
sbasg34
g22
(S'0.0625'
tRp458
sg36
g22
(S'1.0625'
tRp459
sbag1
(g13
g3
NtRp460
(dp461
g16
S'T(0)./mid\\invention13_3.mid'
p462
sg18
S'Am'
p463
sg20
I4096
sg21
g22
(S'0.0625'
tRp464
sg24
(lp465
g1
(g26
g3
NtRp466
(dp467
g29
g22
(S'0.0625'
tRp468
sg31
I3072
sg32
I1
sg33
I57
sbag1
(g26
g3
NtRp469
(dp470
g29
g22
(S'0.125'
tRp471
sg31
I3072
sg32
I0
sg33
I81
sbasg34
g22
(S'0.75'
tRp472
sg36
g22
(S'0.75'
tRp473
sbag1
(g13
g3
NtRp474
(dp475
g16
S'T(0)./mid\\invention1_3.mid'
p476
sg18
S'C'
sg20
I4096
sg21
g22
(S'0.0625'
tRp477
sg24
(lp478
g1
(g26
g3
NtRp479
(dp480
g29
g22
(S'0.0625'
tRp481
sg31
I3584
sg32
I0
sg33
I74
sbag1
(g26
g3
NtRp482
(dp483
g29
g22
(S'0.125'
tRp484
sg31
I3584
sg32
I1
sg33
I59
sbasg34
g22
(S'0.875'
tRp485
sg36
g22
(S'0.875'
tRp486
sbag1
(g13
g3
NtRp487
(dp488
g16
S'T(5)./mid\\invention13_5.mid'
p489
sg18
S'D'
sg20
I4096
sg21
g22
(S'0.0625'
tRp490
sg24
(lp491
g1
(g26
g3
NtRp492
(dp493
g29
g22
(S'0.0625'
tRp494
sg31
I1280
sg32
I0
sg33
I84
sbasg34
g22
(S'0.3125'
tRp495
sg36
g22
(S'0.3125'
tRp496
sbag1
(g13
g3
NtRp497
(dp498
g16
S'T(0)./mid\\invention13_1.mid'
p499
sg18
S'F'
sg20
I4096
sg21
g22
(S'0.0625'
tRp500
sg24
(lp501
g1
(g26
g3
NtRp502
(dp503
g29
g22
(S'0.0625'
tRp504
sg31
I10752
sg32
I1
sg33
I53
sbag1
(g26
g3
NtRp505
(dp506
g29
g22
(S'0.125'
tRp507
sg31
I10752
sg32
I0
sg33
I69
sbasg34
g22
(S'0.625'
tRp508
sg36
g22
(S'2.625'
tRp509
sbag1
(g13
g3
NtRp510
(dp511
g16
S'T(5)./mid\\invention1_2.mid'
p512
sg18
S'C'
sg20
I4096
sg21
g22
(S'0.0625'
tRp513
sg24
(lp514
g1
(g26
g3
NtRp515
(dp516
g29
g22
(S'0.0625'
tRp517
sg31
I768
sg32
I0
sg33
I76
sbasg34
g22
(S'0.1875'
tRp518
sg36
g22
(S'0.1875'
tRp519
sbag1
(g13
g3
NtRp520
(dp521
g16
S'T(5)./mid\\invention13_5.mid'
p522
sg18
S'Gm'
p523
sg20
I4096
sg21
g22
(S'0.0625'
tRp524
sg24
(lp525
g1
(g26
g3
NtRp526
(dp527
g29
g22
(S'0.0625'
tRp528
sg31
I5376
sg32
I0
sg33
I82
sbasg34
g22
(S'0.3125'
tRp529
sg36
g22
(S'1.3125'
tRp530
sbag1
(g13
g3
NtRp531
(dp532
g16
S'T(0)./mid\\invention13_3.mid'
p533
sg18
S'Am'
p534
sg20
I4096
sg21
g22
(S'0.0625'
tRp535
sg24
(lp536
g1
(g26
g3
NtRp537
(dp538
g29
g22
(S'0.0625'
tRp539
sg31
I2048
sg32
I1
sg33
I66
sbag1
(g26
g3
NtRp540
(dp541
g29
g22
(S'0.125'
tRp542
sg31
I2048
sg32
I0
sg33
I74
sbasg34
g22
(S'0.5'
tRp543
sg36
g22
(S'0.5'
tRp544
sbag1
(g13
g3
NtRp545
(dp546
g16
S'T(5)./mid\\invention13_4.mid'
p547
sg18
S'Am'
p548
sg20
I4096
sg21
g22
(S'0.0625'
tRp549
sg24
(lp550
g1
(g26
g3
NtRp551
(dp552
g29
g22
(S'0.0625'
tRp553
sg31
I3328
sg32
I1
sg33
I65
sbasg34
g22
(S'0.8125'
tRp554
sg36
g22
(S'0.8125'
tRp555
sbag1
(g13
g3
NtRp556
(dp557
g16
S'T(5)./mid\\invention1_2.mid'
p558
sg18
S'C'
sg20
I4096
sg21
g22
(S'0.0625'
tRp559
sg24
(lp560
g1
(g26
g3
NtRp561
(dp562
g29
g22
(S'0.0625'
tRp563
sg31
I3840
sg32
I1
sg33
I60
sbasg34
g22
(S'0.9375'
tRp564
sg36
g22
(S'0.9375'
tRp565
sbag1
(g13
g3
NtRp566
(dp567
g16
S'T(0)./mid\\invention13_1.mid'
p568
sg18
S'F'
sg20
I4096
sg21
g22
(S'0.0625'
tRp569
sg24
(lp570
g1
(g26
g3
NtRp571
(dp572
g29
g22
(S'0.0625'
tRp573
sg31
I8704
sg32
I0
sg33
I72
sbag1
(g26
g3
NtRp574
(dp575
g29
g22
(S'0.125'
tRp576
sg31
I8704
sg32
I1
sg33
I57
sbasg34
g22
(S'0.125'
tRp577
sg36
g22
(S'2.125'
tRp578
sbag1
(g13
g3
NtRp579
(dp580
g16
S'T(5)./mid\\invention13_5.mid'
p581
sg18
S'D'
sg20
I4096
sg21
g22
(S'0.0625'
tRp582
sg24
(lp583
g1
(g26
g3
NtRp584
(dp585
g29
g22
(S'0.0625'
tRp586
sg31
I2816
sg32
I0
sg33
I81
sbasg34
g22
(S'0.6875'
tRp587
sg36
g22
(S'0.6875'
tRp588
sbag1
(g13
g3
NtRp589
(dp590
g16
S'T(5)./mid\\invention13_5.mid'
p591
sg18
S'Gm'
p592
sg20
I4096
sg21
g22
(S'0.0625'
tRp593
sg24
(lp594
g1
(g26
g3
NtRp595
(dp596
g29
g22
(S'0.0625'
tRp597
sg31
I5120
sg32
I0
sg33
I79
sbag1
(g26
g3
NtRp598
(dp599
g29
g22
(S'0.125'
tRp600
sg31
I5120
sg32
I1
sg33
I58
sbasg34
g22
(S'0.25'
tRp601
sg36
g22
(S'1.25'
tRp602
sbag1
(g13
g3
NtRp603
(dp604
g16
S'T(0)./mid\\invention13_1.mid'
p605
sg18
S'F'
sg20
I4096
sg21
g22
(S'0.0625'
tRp606
sg24
(lp607
g1
(g26
g3
NtRp608
(dp609
g29
g22
(S'0.0625'
tRp610
sg31
I12032
sg32
I1
sg33
I48
sbasg34
g22
(S'0.9375'
tRp611
sg36
g22
(S'2.9375'
tRp612
sbag1
(g13
g3
NtRp613
(dp614
g16
S'T(0)./mid\\invention13_1.mid'
p615
sg18
S'Am'
p616
sg20
I4096
sg21
g22
(S'0.0625'
tRp617
sg24
(lp618
g1
(g26
g3
NtRp619
(dp620
g29
g22
(S'0.0625'
tRp621
sg31
I1536
sg32
I0
sg33
I71
sbag1
(g26
g3
NtRp622
(dp623
g29
g22
(S'0.125'
tRp624
sg31
I1536
sg32
I1
sg33
I56
sbasg34
g22
(S'0.375'
tRp625
sg36
g22
(S'0.375'
tRp626
sbag1
(g13
g3
NtRp627
(dp628
g16
S'T(5)./mid\\invention13_4.mid'
p629
sg18
S'Am'
p630
sg20
I4096
sg21
g22
(S'0.0625'
tRp631
sg24
(lp632
g1
(g26
g3
NtRp633
(dp634
g29
g22
(S'0.0625'
tRp635
sg31
I2304
sg32
I1
sg33
I72
sbasg34
g22
(S'0.5625'
tRp636
sg36
g22
(S'0.5625'
tRp637
sbag1
(g13
g3
NtRp638
(dp639
g16
S'T(0)./mid\\invention1_1.mid'
p640
sg18
S'C'
sg20
I4096
sg21
g22
(S'0.03125'
tRp641
sg24
(lp642
g1
(g26
g3
NtRp643
(dp644
g29
g22
(S'0.03125'
tRp645
sg31
I3200
sg32
I0
sg33
I69
sbasg34
g22
(S'0.78125'
tRp646
sg36
g22
(S'0.78125'
tRp647
sbag1
(g13
g3
NtRp648
(dp649
g16
S'T(0)./mid\\invention13_2.mid'
p650
sg18
S'Em'
p651
sg20
I4096
sg21
g22
(S'0.0625'
tRp652
sg24
(lp653
g1
(g26
g3
NtRp654
(dp655
g29
g22
(S'0.0625'
tRp656
sg31
I13056
sg32
I0
sg33
I79
sbasg34
g22
(S'0.1875'
tRp657
sg36
g22
(S'3.1875'
tRp658
sbag1
(g13
g3
NtRp659
(dp660
g16
S'T(-4)./mid\\invention13_6.mid'
p661
sg18
S'Fm'
p662
sg20
I4096
sg21
g22
(S'0.0625'
tRp663
sg24
(lp664
g1
(g26
g3
NtRp665
(dp666
g29
g22
(S'0.125'
tRp667
sg31
I0
sg32
I1
sg33
I56
sbasg34
g22
(S'0'
tRp668
sg36
g22
(S'0'
tRp669
sbag1
(g13
g3
NtRp670
(dp671
g16
S'T(5)./mid\\invention13_5.mid'
p672
sg18
S'D'
sg20
I4096
sg21
g22
(S'0.0625'
tRp673
sg24
(lp674
g1
(g26
g3
NtRp675
(dp676
g29
g22
(S'0.0625'
tRp677
sg31
I3328
sg32
I1
sg33
I72
sbasg34
g22
(S'0.8125'
tRp678
sg36
g22
(S'0.8125'
tRp679
sbag1
(g13
g3
NtRp680
(dp681
g16
S'T(0)./mid\\invention13_3.mid'
p682
sg18
S'Am'
p683
sg20
I4096
sg21
g22
(S'0.0625'
tRp684
sg24
(lp685
g1
(g26
g3
NtRp686
(dp687
g29
g22
(S'0.0625'
tRp688
sg31
I2816
sg32
I1
sg33
I66
sbasg34
g22
(S'0.6875'
tRp689
sg36
g22
(S'0.6875'
tRp690
sbag1
(g13
g3
NtRp691
(dp692
g16
S'T(-4)./mid\\invention13_6.mid'
p693
sg18
S'C'
sg20
I4096
sg21
g22
(S'0.0625'
tRp694
sg24
(lp695
g1
(g26
g3
NtRp696
(dp697
g29
g22
(S'0.0625'
tRp698
sg31
I6656
sg32
I0
sg33
I64
sbasg34
g22
(S'0.625'
tRp699
sg36
g22
(S'1.625'
tRp700
sbag1
(g13
g3
NtRp701
(dp702
g16
S'T(-4)./mid\\invention13_6.mid'
p703
sg18
S'C'
sg20
I4096
sg21
g22
(S'0.0625'
tRp704
sg24
(lp705
g1
(g26
g3
NtRp706
(dp707
g29
g22
(S'0.125'
tRp708
sg31
I4096
sg32
I1
sg33
I55
sbasg34
g22
(S'0'
tRp709
sg36
g22
(S'1'
tRp710
sbag1
(g13
g3
NtRp711
(dp712
g16
S'T(-4)./mid\\invention13_6.mid'
p713
sg18
S'Fm'
p714
sg20
I4096
sg21
g22
(S'0.0625'
tRp715
sg24
(lp716
g1
(g26
g3
NtRp717
(dp718
g29
g22
(S'0.0625'
tRp719
sg31
I3328
sg32
I1
sg33
I60
sbasg34
g22
(S'0.8125'
tRp720
sg36
g22
(S'0.8125'
tRp721
sbag1
(g13
g3
NtRp722
(dp723
g16
S'T(-4)./mid\\invention13_6.mid'
p724
sg18
S'C'
sg20
I4096
sg21
g22
(S'0.0625'
tRp725
sg24
(lp726
g1
(g26
g3
NtRp727
(dp728
g29
g22
(S'0.0625'
tRp729
sg31
I4608
sg32
I0
sg33
I73
sbag1
(g26
g3
NtRp730
(dp731
g29
g22
(S'0.125'
tRp732
sg31
I4608
sg32
I1
sg33
I43
sbasg34
g22
(S'0.125'
tRp733
sg36
g22
(S'1.125'
tRp734
sbag1
(g13
g3
NtRp735
(dp736
g16
S'T(0)./mid\\invention13_1.mid'
p737
sg18
S'F'
sg20
I4096
sg21
g22
(S'0.0625'
tRp738
sg24
(lp739
g1
(g26
g3
NtRp740
(dp741
g29
g22
(S'0.0625'
tRp742
sg31
I10496
sg32
I1
sg33
I57
sbasg34
g22
(S'0.5625'
tRp743
sg36
g22
(S'2.5625'
tRp744
sbag1
(g13
g3
NtRp745
(dp746
g16
S'T(-4)./mid\\invention13_6.mid'
p747
sg18
S'C'
sg20
I4096
sg21
g22
(S'0.0625'
tRp748
sg24
(lp749
g1
(g26
g3
NtRp750
(dp751
g29
g22
(S'0.0625'
tRp752
sg31
I4352
sg32
I0
sg33
I70
sbasg34
g22
(S'0.0625'
tRp753
sg36
g22
(S'1.0625'
tRp754
sbag1
(g13
g3
NtRp755
(dp756
g16
S'T(-4)./mid\\invention13_6.mid'
p757
sg18
S'C'
sg20
I4096
sg21
g22
(S'0.0625'
tRp758
sg24
(lp759
g1
(g26
g3
NtRp760
(dp761
g29
g22
(S'0.0625'
tRp762
sg31
I6912
sg32
I0
sg33
I67
sbasg34
g22
(S'0.6875'
tRp763
sg36
g22
(S'1.6875'
tRp764
sbag1
(g13
g3
NtRp765
(dp766
g16
S'T(5)./mid\\invention13_5.mid'
p767
sg18
S'D'
sg20
I4096
sg21
g22
(S'0.0625'
tRp768
sg24
(lp769
g1
(g26
g3
NtRp770
(dp771
g29
g22
(S'0.125'
tRp772
sg31
I0
sg32
I1
sg33
I45
sbasg34
g22
(S'0'
tRp773
sg36
g22
(S'0'
tRp774
sbag1
(g13
g3
NtRp775
(dp776
g16
S'T(5)./mid\\invention13_5.mid'
p777
sg18
S'Gm'
p778
sg20
I4096
sg21
g22
(S'0.0625'
tRp779
sg24
(lp780
g1
(g26
g3
NtRp781
(dp782
g29
g22
(S'0.0625'
tRp783
sg31
I6400
sg32
I0
sg33
I79
sbasg34
g22
(S'0.5625'
tRp784
sg36
g22
(S'1.5625'
tRp785
sbag1
(g13
g3
NtRp786
(dp787
g16
S'T(-4)./mid\\invention13_6.mid'
p788
sg18
S'C'
sg20
I4096
sg21
g22
(S'0.0625'
tRp789
sg24
(lp790
g1
(g26
g3
NtRp791
(dp792
g29
g22
(S'0.0625'
tRp793
sg31
I4864
sg32
I0
sg33
I70
sbasg34
g22
(S'0.1875'
tRp794
sg36
g22
(S'1.1875'
tRp795
sbag1
(g13
g3
NtRp796
(dp797
g16
S'T(0)./mid\\invention1_3.mid'
p798
sg18
S'C'
sg20
I4096
sg21
g22
(S'0.0625'
tRp799
sg24
(lp800
g1
(g26
g3
NtRp801
(dp802
g29
g22
(S'0.0625'
tRp803
sg31
I256
sg32
I0
sg33
I81
sbasg34
g22
(S'0.0625'
tRp804
sg36
g22
(S'0.0625'
tRp805
sbag1
(g13
g3
NtRp806
(dp807
g16
S'T(0)./mid\\invention13_1.mid'
p808
sg18
S'Am'
p809
sg20
I4096
sg21
g22
(S'0.0625'
tRp810
sg24
(lp811
g1
(g26
g3
NtRp812
(dp813
g29
g22
(S'0.0625'
tRp814
sg31
I3840
sg32
I1
sg33
I62
sbasg34
g22
(S'0.9375'
tRp815
sg36
g22
(S'0.9375'
tRp816
sbag1
(g13
g3
NtRp817
(dp818
g16
S'T(0)./mid\\invention13_2.mid'
p819
sg18
S'C'
sg20
I4096
sg21
g22
(S'0.0625'
tRp820
sg24
(lp821
g1
(g26
g3
NtRp822
(dp823
g29
g22
(S'0.0625'
tRp824
sg31
I512
sg32
I0
sg33
I72
sbag1
(g26
g3
NtRp825
(dp826
g29
g22
(S'0.125'
tRp827
sg31
I512
sg32
I1
sg33
I60
sbasg34
g22
(S'0.125'
tRp828
sg36
g22
(S'0.125'
tRp829
sbag1
(g13
g3
NtRp830
(dp831
g16
S'T(-4)./mid\\invention13_6.mid'
p832
sg18
S'C'
sg20
I4096
sg21
g22
(S'0.0625'
tRp833
sg24
(lp834
g1
(g26
g3
NtRp835
(dp836
g29
g22
(S'0.0625'
tRp837
sg31
I5376
sg32
I0
sg33
I70
sbasg34
g22
(S'0.3125'
tRp838
sg36
g22
(S'1.3125'
tRp839
sbag1
(g13
g3
NtRp840
(dp841
g16
S'T(0)./mid\\invention13_2.mid'
p842
sg18
S'C'
sg20
I4096
sg21
g22
(S'0.0625'
tRp843
sg24
(lp844
g1
(g26
g3
NtRp845
(dp846
g29
g22
(S'0.0625'
tRp847
sg31
I5120
sg32
I0
sg33
I74
sbasg34
g22
(S'0.25'
tRp848
sg36
g22
(S'1.25'
tRp849
sbag1
(g13
g3
NtRp850
(dp851
g16
S'T(0)./mid\\invention1_1.mid'
p852
sg18
S'C'
sg20
I4096
sg21
g22
(S'0.0625'
tRp853
sg24
(lp854
g1
(g26
g3
NtRp855
(dp856
g29
g22
(S'0.0625'
tRp857
sg31
I1536
sg32
I0
sg33
I64
sbasg34
g22
(S'0.375'
tRp858
sg36
g22
(S'0.375'
tRp859
sbag1
(g13
g3
NtRp860
(dp861
g16
S'T(0)./mid\\invention1_1.mid'
p862
sg18
S'C'
sg20
I4096
sg21
g22
(S'0.0625'
tRp863
sg24
(lp864
g1
(g26
g3
NtRp865
(dp866
g29
g22
(S'0.0625'
tRp867
sg31
I512
sg32
I0
sg33
I62
sbasg34
g22
(S'0.125'
tRp868
sg36
g22
(S'0.125'
tRp869
sbag1
(g13
g3
NtRp870
(dp871
g16
S'T(0)./mid\\invention1_4.mid'
p872
sg18
S'Am'
p873
sg20
I4096
sg21
g22
(S'0.0625'
tRp874
sg24
(lp875
g1
(g26
g3
NtRp876
(dp877
g29
g22
(S'0.0625'
tRp878
sg31
I2560
sg32
I0
sg33
I69
sbag1
(g26
g3
NtRp879
(dp880
g29
g22
(S'0.125'
tRp881
sg31
I2560
sg32
I1
sg33
I59
sbasg34
g22
(S'0.625'
tRp882
sg36
g22
(S'0.625'
tRp883
sbag1
(g13
g3
NtRp884
(dp885
g16
S'T(0)./mid\\invention13_3.mid'
p886
sg18
S'Am'
p887
sg20
I4096
sg21
g22
(S'0.0625'
tRp888
sg24
(lp889
g1
(g26
g3
NtRp890
(dp891
g29
g22
(S'0.0625'
tRp892
sg31
I1024
sg32
I0
sg33
I72
sbag1
(g26
g3
NtRp893
(dp894
g29
g22
(S'0.125'
tRp895
sg31
I1024
sg32
I1
sg33
I64
sbasg34
g22
(S'0.25'
tRp896
sg36
g22
(S'0.25'
tRp897
sbag1
(g13
g3
NtRp898
(dp899
g16
S'T(0)./mid\\invention1_4.mid'
p900
sg18
S'Am'
p901
sg20
I4096
sg21
g22
(S'0.0625'
tRp902
sg24
(lp903
g1
(g26
g3
NtRp904
(dp905
g29
g22
(S'0.0625'
tRp906
sg31
I3840
sg32
I0
sg33
I71
sbasg34
g22
(S'0.9375'
tRp907
sg36
g22
(S'0.9375'
tRp908
sbag1
(g13
g3
NtRp909
(dp910
g16
S'T(0)./mid\\invention13_1.mid'
p911
sg18
S'Am'
p912
sg20
I4096
sg21
g22
(S'0.0625'
tRp913
sg24
(lp914
g1
(g26
g3
NtRp915
(dp916
g29
g22
(S'0.0625'
tRp917
sg31
I3584
sg32
I1
sg33
I59
sbag1
(g26
g3
NtRp918
(dp919
g29
g22
(S'0.125'
tRp920
sg31
I3584
sg32
I0
sg33
I76
sbasg34
g22
(S'0.875'
tRp921
sg36
g22
(S'0.875'
tRp922
sbag1
(g13
g3
NtRp923
(dp924
g16
S'T(0)./mid\\invention13_1.mid'
p925
sg18
S'Am'
p926
sg20
I4096
sg21
g22
(S'0.0625'
tRp927
sg24
(lp928
g1
(g26
g3
NtRp929
(dp930
g29
g22
(S'0.0625'
tRp931
sg31
I2816
sg32
I1
sg33
I60
sbasg34
g22
(S'0.6875'
tRp932
sg36
g22
(S'0.6875'
tRp933
sbag1
(g13
g3
NtRp934
(dp935
g16
S'T(0)./mid\\invention13_1.mid'
p936
sg18
S'Am'
p937
sg20
I4096
sg21
g22
(S'0.0625'
tRp938
sg24
(lp939
g1
(g26
g3
NtRp940
(dp941
g29
g22
(S'0.0625'
tRp942
sg31
I3328
sg32
I1
sg33
I52
sbasg34
g22
(S'0.8125'
tRp943
sg36
g22
(S'0.8125'
tRp944
sbag1
(g13
g3
NtRp945
(dp946
g16
S'T(0)./mid\\invention13_1.mid'
p947
sg18
S'G'
sg20
I4096
sg21
g22
(S'0.0625'
tRp948
sg24
(lp949
g1
(g26
g3
NtRp950
(dp951
g29
g22
(S'0.0625'
tRp952
sg31
I16128
sg32
I1
sg33
I47
sbasg34
g22
(S'0.9375'
tRp953
sg36
g22
(S'3.9375'
tRp954
sbag1
(g13
g3
NtRp955
(dp956
g16
S'T(0)./mid\\invention13_1.mid'
p957
sg18
S'F'
sg20
I4096
sg21
g22
(S'0.0625'
tRp958
sg24
(lp959
g1
(g26
g3
NtRp960
(dp961
g29
g22
(S'0.0625'
tRp962
sg31
I11776
sg32
I1
sg33
I45
sbag1
(g26
g3
NtRp963
(dp964
g29
g22
(S'0.125'
tRp965
sg31
I11776
sg32
I0
sg33
I77
sbasg34
g22
(S'0.875'
tRp966
sg36
g22
(S'2.875'
tRp967
sbag1
(g13
g3
NtRp968
(dp969
g16
S'T(5)./mid\\invention13_5.mid'
p970
sg18
S'Gm'
p971
sg20
I4096
sg21
g22
(S'0.0625'
tRp972
sg24
(lp973
g1
(g26
g3
NtRp974
(dp975
g29
g22
(S'0.0625'
tRp976
sg31
I4608
sg32
I0
sg33
I86
sbag1
(g26
g3
NtRp977
(dp978
g29
g22
(S'0.125'
tRp979
sg31
I4608
sg32
I1
sg33
I55
sbasg34
g22
(S'0.125'
tRp980
sg36
g22
(S'1.125'
tRp981
sbag1
(g13
g3
NtRp982
(dp983
g16
S'T(5)./mid\\invention13_5.mid'
p984
sg18
S'Gm'
p985
sg20
I4096
sg21
g22
(S'0.0625'
tRp986
sg24
(lp987
g1
(g26
g3
NtRp988
(dp989
g29
g22
(S'0.0625'
tRp990
sg31
I6144
sg32
I0
sg33
I82
sbag1
(g26
g3
NtRp991
(dp992
g29
g22
(S'0.25'
tRp993
sg31
I6144
sg32
I1
sg33
I52
sbasg34
g22
(S'0.5'
tRp994
sg36
g22
(S'1.5'
tRp995
sbag1
(g13
g3
NtRp996
(dp997
g16
S'T(0)./mid\\invention13_1.mid'
p998
sg18
S'F'
sg20
I4096
sg21
g22
(S'0.0625'
tRp999
sg24
(lp1000
g1
(g26
g3
NtRp1001
(dp1002
g29
g22
(S'0.0625'
tRp1003
sg31
I11008
sg32
I1
sg33
I57
sbasg34
g22
(S'0.6875'
tRp1004
sg36
g22
(S'2.6875'
tRp1005
sbag1
(g13
g3
NtRp1006
(dp1007
g16
S'T(0)./mid\\invention1_4.mid'
p1008
sg18
S'Am'
p1009
sg20
I4096
sg21
g22
(S'0.0625'
tRp1010
sg24
(lp1011
g1
(g26
g3
NtRp1012
(dp1013
g29
g22
(S'0.0625'
tRp1014
sg31
I3328
sg32
I0
sg33
I69
sbasg34
g22
(S'0.8125'
tRp1015
sg36
g22
(S'0.8125'
tRp1016
sbag1
(g13
g3
NtRp1017
(dp1018
g16
S'T(0)./mid\\invention13_1.mid'
p1019
sg18
S'G'
sg20
I4096
sg21
g22
(S'0.0625'
tRp1020
sg24
(lp1021
g1
(g26
g3
NtRp1022
(dp1023
g29
g22
(S'0.0625'
tRp1024
sg31
I14592
sg32
I1
sg33
I55
sbasg34
g22
(S'0.5625'
tRp1025
sg36
g22
(S'3.5625'
tRp1026
sbag1
(g13
g3
NtRp1027
(dp1028
g16
S'T(5)./mid\\invention13_5.mid'
p1029
sg18
S'Gm'
p1030
sg20
I4096
sg21
g22
(S'0.0625'
tRp1031
sg24
(lp1032
g1
(g26
g3
NtRp1033
(dp1034
g29
g22
(S'0.0625'
tRp1035
sg31
I4864
sg32
I0
sg33
I82
sbasg34
g22
(S'0.1875'
tRp1036
sg36
g22
(S'1.1875'
tRp1037
sbag1
(g13
g3
NtRp1038
(dp1039
g16
S'T(0)./mid\\invention13_2.mid'
p1040
sg18
S'Em'
p1041
sg20
I4096
sg21
g22
(S'0.0625'
tRp1042
sg24
(lp1043
g1
(g26
g3
NtRp1044
(dp1045
g29
g22
(S'0.0625'
tRp1046
sg31
I13824
sg32
I0
sg33
I67
sbag1
(g26
g3
NtRp1047
(dp1048
g29
g22
(S'0.125'
tRp1049
sg31
I13824
sg32
I1
sg33
I66
sbasg34
g22
(S'0.375'
tRp1050
sg36
g22
(S'3.375'
tRp1051
sbag1
(g13
g3
NtRp1052
(dp1053
g16
S'T(0)./mid\\invention13_1.mid'
p1054
sg18
S'G'
sg20
I4096
sg21
g22
(S'0.0625'
tRp1055
sg24
(lp1056
g1
(g26
g3
NtRp1057
(dp1058
g29
g22
(S'0.0625'
tRp1059
sg31
I13824
sg32
I0
sg33
I62
sbag1
(g26
g3
NtRp1060
(dp1061
g29
g22
(S'0.125'
tRp1062
sg31
I13824
sg32
I1
sg33
I59
sbasg34
g22
(S'0.375'
tRp1063
sg36
g22
(S'3.375'
tRp1064
sbag1
(g13
g3
NtRp1065
(dp1066
g16
S'T(0)./mid\\invention13_3.mid'
p1067
sg18
S'Am'
p1068
sg20
I4096
sg21
g22
(S'0.0625'
tRp1069
sg24
(lp1070
g1
(g26
g3
NtRp1071
(dp1072
g29
g22
(S'0.0625'
tRp1073
sg31
I3328
sg32
I1
sg33
I62
sbasg34
g22
(S'0.8125'
tRp1074
sg36
g22
(S'0.8125'
tRp1075
sbag1
(g13
g3
NtRp1076
(dp1077
g16
S'T(0)./mid\\invention1_4.mid'
p1078
sg18
S'Am'
p1079
sg20
I4096
sg21
g22
(S'0.0625'
tRp1080
sg24
(lp1081
g1
(g26
g3
NtRp1082
(dp1083
g29
g22
(S'0.0625'
tRp1084
sg31
I2048
sg32
I0
sg33
I72
sbag1
(g26
g3
NtRp1085
(dp1086
g29
g22
(S'0.125'
tRp1087
sg31
I2048
sg32
I1
sg33
I57
sbasg34
g22
(S'0.5'
tRp1088
sg36
g22
(S'0.5'
tRp1089
sbag1
(g13
g3
NtRp1090
(dp1091
g16
S'T(5)./mid\\invention13_5.mid'
p1092
sg18
S'Gm'
p1093
sg20
I4096
sg21
g22
(S'0.0625'
tRp1094
sg24
(lp1095
g1
(g26
g3
NtRp1096
(dp1097
g29
g22
(S'0.0625'
tRp1098
sg31
I5888
sg32
I0
sg33
I79
sbasg34
g22
(S'0.4375'
tRp1099
sg36
g22
(S'1.4375'
tRp1100
sbag1
(g13
g3
NtRp1101
(dp1102
g16
S'T(5)./mid\\invention13_5.mid'
p1103
sg18
S'D'
sg20
I4096
sg21
g22
(S'0.0625'
tRp1104
sg24
(lp1105
g1
(g26
g3
NtRp1106
(dp1107
g29
g22
(S'0.125'
tRp1108
sg31
I3072
sg32
I0
sg33
I74
sbasg34
g22
(S'0.75'
tRp1109
sg36
g22
(S'0.75'
tRp1110
sbag1
(g13
g3
NtRp1111
(dp1112
g16
S'T(-4)./mid\\invention13_6.mid'
p1113
sg18
S'C'
sg20
I4096
sg21
g22
(S'0.0625'
tRp1114
sg24
(lp1115
g1
(g26
g3
NtRp1116
(dp1117
g29
g22
(S'0.0625'
tRp1118
sg31
I7680
sg32
I1
sg33
I56
sbasg34
g22
(S'0.875'
tRp1119
sg36
g22
(S'1.875'
tRp1120
sbag1
(g13
g3
NtRp1121
(dp1122
g16
S'T(0)./mid\\invention13_1.mid'
p1123
sg18
S'G'
sg20
I4096
sg21
g22
(S'0.0625'
tRp1124
sg24
(lp1125
g1
(g26
g3
NtRp1126
(dp1127
g29
g22
(S'0.0625'
tRp1128
sg31
I12800
sg32
I0
sg33
I71
sbag1
(g26
g3
NtRp1129
(dp1130
g29
g22
(S'0.125'
tRp1131
sg31
I12800
sg32
I1
sg33
I50
sbasg34
g22
(S'0.125'
tRp1132
sg36
g22
(S'3.125'
tRp1133
sbag1
(g13
g3
NtRp1134
(dp1135
g16
S'T(0)./mid\\invention13_1.mid'
p1136
sg18
S'G'
sg20
I4096
sg21
g22
(S'0.0625'
tRp1137
sg24
(lp1138
g1
(g26
g3
NtRp1139
(dp1140
g29
g22
(S'0.0625'
tRp1141
sg31
I14080
sg32
I0
sg33
I65
sbasg34
g22
(S'0.4375'
tRp1142
sg36
g22
(S'3.4375'
tRp1143
sbag1
(g13
g3
NtRp1144
(dp1145
g16
S'T(5)./mid\\invention13_5.mid'
p1146
sg18
S'D'
sg20
I4096
sg21
g22
(S'0.0625'
tRp1147
sg24
(lp1148
g1
(g26
g3
NtRp1149
(dp1150
g29
g22
(S'0.0625'
tRp1151
sg31
I2560
sg32
I0
sg33
I78
sbasg34
g22
(S'0.625'
tRp1152
sg36
g22
(S'0.625'
tRp1153
sbag1
(g13
g3
NtRp1154
(dp1155
g16
S'T(-4)./mid\\invention13_6.mid'
p1156
sg18
S'C'
sg20
I4096
sg21
g22
(S'0.0625'
tRp1157
sg24
(lp1158
g1
(g26
g3
NtRp1159
(dp1160
g29
g22
(S'0.0625'
tRp1161
sg31
I5888
sg32
I0
sg33
I67
sbasg34
g22
(S'0.4375'
tRp1162
sg36
g22
(S'1.4375'
tRp1163
sbag1
(g13
g3
NtRp1164
(dp1165
g16
S'T(5)./mid\\invention13_4.mid'
p1166
sg18
S'Am'
p1167
sg20
I4096
sg21
g22
(S'0.0625'
tRp1168
sg24
(lp1169
g1
(g26
g3
NtRp1170
(dp1171
g29
g22
(S'0.0625'
tRp1172
sg31
I2560
sg32
I1
sg33
I65
sbag1
(g26
g3
NtRp1173
(dp1174
g29
g22
(S'0.125'
tRp1175
sg31
I2560
sg32
I0
sg33
I81
sbasg34
g22
(S'0.625'
tRp1176
sg36
g22
(S'0.625'
tRp1177
sbag1
(g13
g3
NtRp1178
(dp1179
g16
S'T(0)./mid\\invention13_1.mid'
p1180
sg18
S'Am'
p1181
sg20
I4096
sg21
g22
(S'0.0625'
tRp1182
sg24
(lp1183
g1
(g26
g3
NtRp1184
(dp1185
g29
g22
(S'0.0625'
tRp1186
sg31
I5632
sg32
I0
sg33
I71
sbag1
(g26
g3
NtRp1187
(dp1188
g29
g22
(S'0.125'
tRp1189
sg31
I5632
sg32
I1
sg33
I52
sbasg34
g22
(S'0.375'
tRp1190
sg36
g22
(S'1.375'
tRp1191
sbag1
(g13
g3
NtRp1192
(dp1193
g16
S'T(0)./mid\\invention13_1.mid'
p1194
sg18
S'F'
sg20
I4096
sg21
g22
(S'0.0625'
tRp1195
sg24
(lp1196
g1
(g26
g3
NtRp1197
(dp1198
g29
g22
(S'0.0625'
tRp1199
sg31
I9472
sg32
I0
sg33
I72
sbasg34
g22
(S'0.3125'
tRp1200
sg36
g22
(S'2.3125'
tRp1201
sbag1
(g13
g3
NtRp1202
(dp1203
g16
S'T(-4)./mid\\invention13_6.mid'
p1204
sg18
S'C'
sg20
I4096
sg21
g22
(S'0.0625'
tRp1205
sg24
(lp1206
g1
(g26
g3
NtRp1207
(dp1208
g29
g22
(S'0.0625'
tRp1209
sg31
I6400
sg32
I0
sg33
I67
sbasg34
g22
(S'0.5625'
tRp1210
sg36
g22
(S'1.5625'
tRp1211
sbag1
(g13
g3
NtRp1212
(dp1213
g16
S'T(5)./mid\\invention13_5.mid'
p1214
sg18
S'D'
sg20
I4096
sg21
g22
(S'0.0625'
tRp1215
sg24
(lp1216
g1
(g26
g3
NtRp1217
(dp1218
g29
g22
(S'0.0625'
tRp1219
sg31
I2304
sg32
I0
sg33
I81
sbasg34
g22
(S'0.5625'
tRp1220
sg36
g22
(S'0.5625'
tRp1221
sbag1
(g13
g3
NtRp1222
(dp1223
g16
S'T(0)./mid\\invention13_1.mid'
p1224
sg18
S'G'
sg20
I4096
sg21
g22
(S'0.0625'
tRp1225
sg24
(lp1226
g1
(g26
g3
NtRp1227
(dp1228
g29
g22
(S'0.0625'
tRp1229
sg31
I12544
sg32
I0
sg33
I74
sbasg34
g22
(S'0.0625'
tRp1230
sg36
g22
(S'3.0625'
tRp1231
sbag1
(g13
g3
NtRp1232
(dp1233
g16
S'T(0)./mid\\invention13_1.mid'
p1234
sg18
S'G'
sg20
I4096
sg21
g22
(S'0.0625'
tRp1235
sg24
(lp1236
g1
(g26
g3
NtRp1237
(dp1238
g29
g22
(S'0.125'
tRp1239
sg31
I14336
sg32
I0
sg33
I64
sbasg34
g22
(S'0.5'
tRp1240
sg36
g22
(S'3.5'
tRp1241
sbag1
(g13
g3
NtRp1242
(dp1243
g16
S'T(5)./mid\\invention1_2.mid'
p1244
sg18
S'C'
sg20
I4096
sg21
g22
(S'0.0625'
tRp1245
sg24
(lp1246
g1
(g26
g3
NtRp1247
(dp1248
g29
g22
(S'0.0625'
tRp1249
sg31
I0
sg32
I0
sg33
I79
sbag1
(g26
g3
NtRp1250
(dp1251
g29
g22
(S'0.125'
tRp1252
sg31
I0
sg32
I1
sg33
I60
sbasg34
g22
(S'0'
tRp1253
sg36
g22
(S'0'
tRp1254
sbag1
(g13
g3
NtRp1255
(dp1256
g16
S'T(0)./mid\\invention13_2.mid'
p1257
sg18
S'Em'
p1258
sg20
I4096
sg21
g22
(S'0.0625'
tRp1259
sg24
(lp1260
g1
(g26
g3
NtRp1261
(dp1262
g29
g22
(S'0.0625'
tRp1263
sg31
I15360
sg32
I1
sg33
I55
sbag1
(g26
g3
NtRp1264
(dp1265
g29
g22
(S'0.125'
tRp1266
sg31
I15360
sg32
I0
sg33
I79
sbasg34
g22
(S'0.75'
tRp1267
sg36
g22
(S'3.75'
tRp1268
sbag1
(g13
g3
NtRp1269
(dp1270
g16
S'T(5)./mid\\invention13_5.mid'
p1271
sg18
S'D'
sg20
I4096
sg21
g22
(S'0.0625'
tRp1272
sg24
(lp1273
g1
(g26
g3
NtRp1274
(dp1275
g29
g22
(S'0.0625'
tRp1276
sg31
I1792
sg32
I0
sg33
I81
sbasg34
g22
(S'0.4375'
tRp1277
sg36
g22
(S'0.4375'
tRp1278
sbag1
(g13
g3
NtRp1279
(dp1280
g16
S'T(0)./mid\\invention1_1.mid'
p1281
sg18
S'C'
sg20
I4096
sg21
g22
(S'0.0625'
tRp1282
sg24
(lp1283
g1
(g26
g3
NtRp1284
(dp1285
g29
g22
(S'0.0625'
tRp1286
sg31
I1792
sg32
I0
sg33
I60
sbasg34
g22
(S'0.4375'
tRp1287
sg36
g22
(S'0.4375'
tRp1288
sbag1
(g13
g3
NtRp1289
(dp1290
g16
S'T(-4)./mid\\invention13_6.mid'
p1291
sg18
S'C'
sg20
I4096
sg21
g22
(S'0.0625'
tRp1292
sg24
(lp1293
g1
(g26
g3
NtRp1294
(dp1295
g29
g22
(S'0.25'
tRp1296
sg31
I7168
sg32
I0
sg33
I60
sbasg34
g22
(S'0.75'
tRp1297
sg36
g22
(S'1.75'
tRp1298
sbag1
(g13
g3
NtRp1299
(dp1300
g16
S'T(0)./mid\\invention13_1.mid'
p1301
sg18
S'Am'
p1302
sg20
I4096
sg21
g22
(S'0.0625'
tRp1303
sg24
(lp1304
g1
(g26
g3
NtRp1305
(dp1306
g29
g22
(S'0.0625'
tRp1307
sg31
I768
sg32
I0
sg33
I72
sbasg34
g22
(S'0.1875'
tRp1308
sg36
g22
(S'0.1875'
tRp1309
sbag1
(g13
g3
NtRp1310
(dp1311
g16
S'T(5)./mid\\invention1_2.mid'
p1312
sg18
S'C'
sg20
I4096
sg21
g22
(S'0.0625'
tRp1313
sg24
(lp1314
g1
(g26
g3
NtRp1315
(dp1316
g29
g22
(S'0.0625'
tRp1317
sg31
I2560
sg32
I1
sg33
I62
sbag1
(g26
g3
NtRp1318
(dp1319
g29
g22
(S'0.125'
tRp1320
sg31
I2560
sg32
I0
sg33
I84
sbasg34
g22
(S'0.625'
tRp1321
sg36
g22
(S'0.625'
tRp1322
sbag1
(g13
g3
NtRp1323
(dp1324
g16
S'T(0)./mid\\invention13_2.mid'
p1325
sg18
S'C'
sg20
I4096
sg21
g22
(S'0.0625'
tRp1326
sg24
(lp1327
g1
(g26
g3
NtRp1328
(dp1329
g29
g22
(S'0.125'
tRp1330
sg31
I0
sg32
I1
sg33
I64
sbasg34
g22
(S'0'
tRp1331
sg36
g22
(S'0'
tRp1332
sbag1
(g13
g3
NtRp1333
(dp1334
g16
S'T(0)./mid\\invention13_3.mid'
p1335
sg18
S'Am'
p1336
sg20
I4096
sg21
g22
(S'0.0625'
tRp1337
sg24
(lp1338
g1
(g26
g3
NtRp1339
(dp1340
g29
g22
(S'0.0625'
tRp1341
sg31
I1792
sg32
I0
sg33
I72
sbasg34
g22
(S'0.4375'
tRp1342
sg36
g22
(S'0.4375'
tRp1343
sbag1
(g13
g3
NtRp1344
(dp1345
g16
S'T(0)./mid\\invention1_4.mid'
p1346
sg18
S'Am'
p1347
sg20
I4096
sg21
g22
(S'0.0625'
tRp1348
sg24
(lp1349
g1
(g26
g3
NtRp1350
(dp1351
g29
g22
(S'0.0625'
tRp1352
sg31
I3072
sg32
I0
sg33
I66
sbag1
(g26
g3
NtRp1353
(dp1354
g29
g22
(S'0.25'
tRp1355
sg31
I3072
sg32
I1
sg33
I60
sbasg34
g22
(S'0.75'
tRp1356
sg36
g22
(S'0.75'
tRp1357
sbag1
(g13
g3
NtRp1358
(dp1359
g16
S'T(5)./mid\\invention13_4.mid'
p1360
sg18
S'Am'
p1361
sg20
I4096
sg21
g22
(S'0.0625'
tRp1362
sg24
(lp1363
g1
(g26
g3
NtRp1364
(dp1365
g29
g22
(S'0.0625'
tRp1366
sg31
I512
sg32
I0
sg33
I79
sbag1
(g26
g3
NtRp1367
(dp1368
g29
g22
(S'0.125'
tRp1369
sg31
I512
sg32
I1
sg33
I64
sbasg34
g22
(S'0.125'
tRp1370
sg36
g22
(S'0.125'
tRp1371
sbag1
(g13
g3
NtRp1372
(dp1373
g16
S'T(0)./mid\\invention1_1.mid'
p1374
sg18
S'C'
sg20
I4096
sg21
g22
(S'0.0625'
tRp1375
sg24
(lp1376
g1
(g26
g3
NtRp1377
(dp1378
g29
g22
(S'0.0625'
tRp1379
sg31
I1024
sg32
I0
sg33
I65
sbasg34
g22
(S'0.25'
tRp1380
sg36
g22
(S'0.25'
tRp1381
sbag1
(g13
g3
NtRp1382
(dp1383
g16
S'T(0)./mid\\invention13_2.mid'
p1384
sg18
S'Em'
p1385
sg20
I4096
sg21
g22
(S'0.0625'
tRp1386
sg24
(lp1387
g1
(g26
g3
NtRp1388
(dp1389
g29
g22
(S'0.0625'
tRp1390
sg31
I12544
sg32
I0
sg33
I79
sbasg34
g22
(S'0.0625'
tRp1391
sg36
g22
(S'3.0625'
tRp1392
sbag1
(g13
g3
NtRp1393
(dp1394
g16
S'T(0)./mid\\invention13_2.mid'
p1395
sg18
S'C'
sg20
I4096
sg21
g22
(S'0.0625'
tRp1396
sg24
(lp1397
g1
(g26
g3
NtRp1398
(dp1399
g29
g22
(S'0.125'
tRp1400
sg31
I6144
sg32
I0
sg33
I76
sbasg34
g22
(S'0.5'
tRp1401
sg36
g22
(S'1.5'
tRp1402
sbag1
(g13
g3
NtRp1403
(dp1404
g16
S'T(0)./mid\\invention13_1.mid'
p1405
sg18
S'Am'
p1406
sg20
I4096
sg21
g22
(S'0.0625'
tRp1407
sg24
(lp1408
g1
(g26
g3
NtRp1409
(dp1410
g29
g22
(S'0.125'
tRp1411
sg31
I0
sg32
I1
sg33
I45
sbasg34
g22
(S'0'
tRp1412
sg36
g22
(S'0'
tRp1413
sbag1
(g13
g3
NtRp1414
(dp1415
g16
S'T(5)./mid\\invention1_2.mid'
p1416
sg18
S'C'
sg20
I4096
sg21
g22
(S'0.03125'
tRp1417
sg24
(lp1418
g1
(g26
g3
NtRp1419
(dp1420
g29
g22
(S'0.03125'
tRp1421
sg31
I3200
sg32
I0
sg33
I81
sbasg34
g22
(S'0.78125'
tRp1422
sg36
g22
(S'0.78125'
tRp1423
sbag1
(g13
g3
NtRp1424
(dp1425
g16
S'T(5)./mid\\invention1_2.mid'
p1426
sg18
S'C'
sg20
I4096
sg21
g22
(S'0.0625'
tRp1427
sg24
(lp1428
g1
(g26
g3
NtRp1429
(dp1430
g29
g22
(S'0.0625'
tRp1431
sg31
I1024
sg32
I0
sg33
I77
sbasg34
g22
(S'0.25'
tRp1432
sg36
g22
(S'0.25'
tRp1433
sbag1
(g13
g3
NtRp1434
(dp1435
g16
S'T(0)./mid\\invention13_1.mid'
p1436
sg18
S'G'
sg20
I4096
sg21
g22
(S'0.0625'
tRp1437
sg24
(lp1438
g1
(g26
g3
NtRp1439
(dp1440
g29
g22
(S'0.0625'
tRp1441
sg31
I15360
sg32
I1
sg33
I48
sbag1
(g26
g3
NtRp1442
(dp1443
g29
g22
(S'0.125'
tRp1444
sg31
I15360
sg32
I0
sg33
I72
sbasg34
g22
(S'0.75'
tRp1445
sg36
g22
(S'3.75'
tRp1446
sbag1
(g13
g3
NtRp1447
(dp1448
g16
S'T(0)./mid\\invention13_2.mid'
p1449
sg18
S'Em'
p1450
sg20
I4096
sg21
g22
(S'0.0625'
tRp1451
sg24
(lp1452
g1
(g26
g3
NtRp1453
(dp1454
g29
g22
(S'0.0625'
tRp1455
sg31
I13568
sg32
I0
sg33
I74
sbasg34
g22
(S'0.3125'
tRp1456
sg36
g22
(S'3.3125'
tRp1457
sbag1
(g13
g3
NtRp1458
(dp1459
g16
S'T(5)./mid\\invention1_2.mid'
p1460
sg18
S'C'
sg20
I4096
sg21
g22
(S'0.0625'
tRp1461
sg24
(lp1462
g1
(g26
g3
NtRp1463
(dp1464
g29
g22
(S'0.0625'
tRp1465
sg31
I512
sg32
I0
sg33
I74
sbag1
(g26
g3
NtRp1466
(dp1467
g29
g22
(S'0.125'
tRp1468
sg31
I512
sg32
I1
sg33
I48
sbasg34
g22
(S'0.125'
tRp1469
sg36
g22
(S'0.125'
tRp1470
sbag1
(g13
g3
NtRp1471
(dp1472
g16
S'T(0)./mid\\invention13_1.mid'
p1473
sg18
S'Am'
p1474
sg20
I4096
sg21
g22
(S'0.0625'
tRp1475
sg24
(lp1476
g1
(g26
g3
NtRp1477
(dp1478
g29
g22
(S'0.0625'
tRp1479
sg31
I7680
sg32
I1
sg33
I59
sbasg34
g22
(S'0.875'
tRp1480
sg36
g22
(S'1.875'
tRp1481
sbag1
(g13
g3
NtRp1482
(dp1483
g16
S'T(5)./mid\\invention1_2.mid'
p1484
sg18
S'C'
sg20
I4096
sg21
g22
(S'0.0625'
tRp1485
sg24
(lp1486
g1
(g26
g3
NtRp1487
(dp1488
g29
g22
(S'0.0625'
tRp1489
sg31
I2816
sg32
I1
sg33
I64
sbasg34
g22
(S'0.6875'
tRp1490
sg36
g22
(S'0.6875'
tRp1491
sbag1
(g13
g3
NtRp1492
(dp1493
g16
S'T(0)./mid\\invention1_4.mid'
p1494
sg18
S'Am'
p1495
sg20
I4096
sg21
g22
(S'0.0625'
tRp1496
sg24
(lp1497
g1
(g26
g3
NtRp1498
(dp1499
g29
g22
(S'0.0625'
tRp1500
sg31
I512
sg32
I0
sg33
I72
sbag1
(g26
g3
NtRp1501
(dp1502
g29
g22
(S'0.125'
tRp1503
sg31
I512
sg32
I1
sg33
I52
sbasg34
g22
(S'0.125'
tRp1504
sg36
g22
(S'0.125'
tRp1505
sbag1
(g13
g3
NtRp1506
(dp1507
g16
S'T(0)./mid\\invention13_1.mid'
p1508
sg18
S'F'
sg20
I4096
sg21
g22
(S'0.0625'
tRp1509
sg24
(lp1510
g1
(g26
g3
NtRp1511
(dp1512
g29
g22
(S'0.0625'
tRp1513
sg31
I9728
sg32
I0
sg33
I64
sbag1
(g26
g3
NtRp1514
(dp1515
g29
g22
(S'0.125'
tRp1516
sg31
I9728
sg32
I1
sg33
I57
sbasg34
g22
(S'0.375'
tRp1517
sg36
g22
(S'2.375'
tRp1518
sbag1
(g13
g3
NtRp1519
(dp1520
g16
S'T(0)./mid\\invention13_1.mid'
p1521
sg18
S'G'
sg20
I4096
sg21
g22
(S'0.0625'
tRp1522
sg24
(lp1523
g1
(g26
g3
NtRp1524
(dp1525
g29
g22
(S'0.0625'
tRp1526
sg31
I13568
sg32
I0
sg33
I71
sbasg34
g22
(S'0.3125'
tRp1527
sg36
g22
(S'3.3125'
tRp1528
sbag1
(g13
g3
NtRp1529
(dp1530
g16
S'T(0)./mid\\invention13_2.mid'
p1531
sg18
S'Em'
p1532
sg20
I4096
sg21
g22
(S'0.0625'
tRp1533
sg24
(lp1534
g1
(g26
g3
NtRp1535
(dp1536
g29
g22
(S'0.0625'
tRp1537
sg31
I13312
sg32
I0
sg33
I71
sbag1
(g26
g3
NtRp1538
(dp1539
g29
g22
(S'0.125'
tRp1540
sg31
I13312
sg32
I1
sg33
I62
sbasg34
g22
(S'0.25'
tRp1541
sg36
g22
(S'3.25'
tRp1542
sbag1
(g13
g3
NtRp1543
(dp1544
g16
S'T(0)./mid\\invention1_3.mid'
p1545
sg18
S'C'
sg20
I4096
sg21
g22
(S'0.0625'
tRp1546
sg24
(lp1547
g1
(g26
g3
NtRp1548
(dp1549
g29
g22
(S'0.0625'
tRp1550
sg31
I512
sg32
I0
sg33
I79
sbag1
(g26
g3
NtRp1551
(dp1552
g29
g22
(S'0.125'
tRp1553
sg31
I512
sg32
I1
sg33
I59
sbasg34
g22
(S'0.125'
tRp1554
sg36
g22
(S'0.125'
tRp1555
sbag1
(g13
g3
NtRp1556
(dp1557
g16
S'T(5)./mid\\invention1_2.mid'
p1558
sg18
S'C'
sg20
I4096
sg21
g22
(S'0.0625'
tRp1559
sg24
(lp1560
g1
(g26
g3
NtRp1561
(dp1562
g29
g22
(S'0.0625'
tRp1563
sg31
I3584
sg32
I1
sg33
I64
sbag1
(g26
g3
NtRp1564
(dp1565
g29
g22
(S'0.125'
tRp1566
sg31
I3584
sg32
I0
sg33
I84
sbasg34
g22
(S'0.875'
tRp1567
sg36
g22
(S'0.875'
tRp1568
sbag1
(g13
g3
NtRp1569
(dp1570
g16
S'T(0)./mid\\invention13_2.mid'
p1571
sg18
S'C'
sg20
I4096
sg21
g22
(S'0.0625'
tRp1572
sg24
(lp1573
g1
(g26
g3
NtRp1574
(dp1575
g29
g22
(S'0.0625'
tRp1576
sg31
I2048
sg32
I1
sg33
I60
sbag1
(g26
g3
NtRp1577
(dp1578
g29
g22
(S'0.125'
tRp1579
sg31
I2048
sg32
I0
sg33
I76
sbasg34
g22
(S'0.5'
tRp1580
sg36
g22
(S'0.5'
tRp1581
sbag1
(g13
g3
NtRp1582
(dp1583
g16
S'T(0)./mid\\invention13_1.mid'
p1584
sg18
S'Am'
p1585
sg20
I4096
sg21
g22
(S'0.0625'
tRp1586
sg24
(lp1587
g1
(g26
g3
NtRp1588
(dp1589
g29
g22
(S'0.0625'
tRp1590
sg31
I1024
sg32
I0
sg33
I71
sbasg34
g22
(S'0.25'
tRp1591
sg36
g22
(S'0.25'
tRp1592
sbag1
(g13
g3
NtRp1593
(dp1594
g16
S'T(0)./mid\\invention1_3.mid'
p1595
sg18
S'C'
sg20
I4096
sg21
g22
(S'0.0625'
tRp1596
sg24
(lp1597
g1
(g26
g3
NtRp1598
(dp1599
g29
g22
(S'0.0625'
tRp1600
sg31
I2560
sg32
I0
sg33
I76
sbag1
(g26
g3
NtRp1601
(dp1602
g29
g22
(S'0.125'
tRp1603
sg31
I2560
sg32
I1
sg33
I55
sbasg34
g22
(S'0.625'
tRp1604
sg36
g22
(S'0.625'
tRp1605
sbag1
(g13
g3
NtRp1606
(dp1607
g16
S'T(0)./mid\\invention13_2.mid'
p1608
sg18
S'Em'
p1609
sg20
I4096
sg21
g22
(S'0.0625'
tRp1610
sg24
(lp1611
g1
(g26
g3
NtRp1612
(dp1613
g29
g22
(S'0.0625'
tRp1614
sg31
I16128
sg32
I1
sg33
I55
sbasg34
g22
(S'0.9375'
tRp1615
sg36
g22
(S'3.9375'
tRp1616
sbag1
(g13
g3
NtRp1617
(dp1618
g16
S'T(0)./mid\\invention13_3.mid'
p1619
sg18
S'Am'
p1620
sg20
I4096
sg21
g22
(S'0.0625'
tRp1621
sg24
(lp1622
g1
(g26
g3
NtRp1623
(dp1624
g29
g22
(S'0.0625'
tRp1625
sg31
I1280
sg32
I0
sg33
I76
sbasg34
g22
(S'0.3125'
tRp1626
sg36
g22
(S'0.3125'
tRp1627
sbag1
(g13
g3
NtRp1628
(dp1629
g16
S'T(0)./mid\\invention13_3.mid'
p1630
sg18
S'Am'
p1631
sg20
I4096
sg21
g22
(S'0.0625'
tRp1632
sg24
(lp1633
g1
(g26
g3
NtRp1634
(dp1635
g29
g22
(S'0.0625'
tRp1636
sg31
I1536
sg32
I0
sg33
I69
sbag1
(g26
g3
NtRp1637
(dp1638
g29
g22
(S'0.125'
tRp1639
sg31
I1536
sg32
I1
sg33
I67
sbasg34
g22
(S'0.375'
tRp1640
sg36
g22
(S'0.375'
tRp1641
sbag1
(g13
g3
NtRp1642
(dp1643
g16
S'T(0)./mid\\invention13_1.mid'
p1644
sg18
S'Am'
p1645
sg20
I4096
sg21
g22
(S'0.0625'
tRp1646
sg24
(lp1647
g1
(g26
g3
NtRp1648
(dp1649
g29
g22
(S'0.0625'
tRp1650
sg31
I2560
sg32
I1
sg33
I57
sbag1
(g26
g3
NtRp1651
(dp1652
g29
g22
(S'0.125'
tRp1653
sg31
I2560
sg32
I0
sg33
I76
sbasg34
g22
(S'0.625'
tRp1654
sg36
g22
(S'0.625'
tRp1655
sbag1
(g13
g3
NtRp1656
(dp1657
g16
S'T(5)./mid\\invention13_4.mid'
p1658
sg18
S'Am'
p1659
sg20
I4096
sg21
g22
(S'0.0625'
tRp1660
sg24
(lp1661
g1
(g26
g3
NtRp1662
(dp1663
g29
g22
(S'0.0625'
tRp1664
sg31
I0
sg32
I0
sg33
I88
sbag1
(g26
g3
NtRp1665
(dp1666
g29
g22
(S'0.125'
tRp1667
sg31
I0
sg32
I1
sg33
I60
sbasg34
g22
(S'0'
tRp1668
sg36
g22
(S'0'
tRp1669
sbag1
(g13
g3
NtRp1670
(dp1671
g16
S'T(0)./mid\\invention13_1.mid'
p1672
sg18
S'Am'
p1673
sg20
I4096
sg21
g22
(S'0.0625'
tRp1674
sg24
(lp1675
g1
(g26
g3
NtRp1676
(dp1677
g29
g22
(S'0.0625'
tRp1678
sg31
I2304
sg32
I1
sg33
I52
sbasg34
g22
(S'0.5625'
tRp1679
sg36
g22
(S'0.5625'
tRp1680
sbag1
(g13
g3
NtRp1681
(dp1682
g16
S'T(5)./mid\\invention13_4.mid'
p1683
sg18
S'Am'
p1684
sg20
I4096
sg21
g22
(S'0.0625'
tRp1685
sg24
(lp1686
g1
(g26
g3
NtRp1687
(dp1688
g29
g22
(S'0.0625'
tRp1689
sg31
I3584
sg32
I1
sg33
I57
sbag1
(g26
g3
NtRp1690
(dp1691
g29
g22
(S'0.125'
tRp1692
sg31
I3584
sg32
I0
sg33
I88
sbasg34
g22
(S'0.875'
tRp1693
sg36
g22
(S'0.875'
tRp1694
sbag1
(g13
g3
NtRp1695
(dp1696
g16
S'T(0)./mid\\invention13_1.mid'
p1697
sg18
S'G'
sg20
I4096
sg21
g22
(S'0.0625'
tRp1698
sg24
(lp1699
g1
(g26
g3
NtRp1700
(dp1701
g29
g22
(S'0.0625'
tRp1702
sg31
I13312
sg32
I0
sg33
I67
sbag1
(g26
g3
NtRp1703
(dp1704
g29
g22
(S'0.125'
tRp1705
sg31
I13312
sg32
I1
sg33
I55
sbasg34
g22
(S'0.25'
tRp1706
sg36
g22
(S'3.25'
tRp1707
sbag1
(g13
g3
NtRp1708
(dp1709
g16
S'T(0)./mid\\invention13_2.mid'
p1710
sg18
S'Em'
p1711
sg20
I4096
sg21
g22
(S'0.0625'
tRp1712
sg24
(lp1713
g1
(g26
g3
NtRp1714
(dp1715
g29
g22
(S'0.0625'
tRp1716
sg31
I15872
sg32
I1
sg33
I52
sbag1
(g26
g3
NtRp1717
(dp1718
g29
g22
(S'0.125'
tRp1719
sg31
I15872
sg32
I0
sg33
I83
sbasg34
g22
(S'0.875'
tRp1720
sg36
g22
(S'3.875'
tRp1721
sbag1
(g13
g3
NtRp1722
(dp1723
g16
S'T(0)./mid\\invention1_4.mid'
p1724
sg18
S'Am'
p1725
sg20
I4096
sg21
g22
(S'0.0625'
tRp1726
sg24
(lp1727
g1
(g26
g3
NtRp1728
(dp1729
g29
g22
(S'0.0625'
tRp1730
sg31
I1280
sg32
I0
sg33
I72
sbasg34
g22
(S'0.3125'
tRp1731
sg36
g22
(S'0.3125'
tRp1732
sbag1
(g13
g3
NtRp1733
(dp1734
g16
S'T(0)./mid\\invention1_4.mid'
p1735
sg18
S'Am'
p1736
sg20
I4096
sg21
g22
(S'0.0625'
tRp1737
sg24
(lp1738
g1
(g26
g3
NtRp1739
(dp1740
g29
g22
(S'0.0625'
tRp1741
sg31
I768
sg32
I0
sg33
I71
sbasg34
g22
(S'0.1875'
tRp1742
sg36
g22
(S'0.1875'
tRp1743
sbag1
(g13
g3
NtRp1744
(dp1745
g16
S'T(-4)./mid\\invention13_6.mid'
p1746
sg18
S'Fm'
p1747
sg20
I4096
sg21
g22
(S'0.0625'
tRp1748
sg24
(lp1749
g1
(g26
g3
NtRp1750
(dp1751
g29
g22
(S'0.0625'
tRp1752
sg31
I2816
sg32
I0
sg33
I68
sbasg34
g22
(S'0.6875'
tRp1753
sg36
g22
(S'0.6875'
tRp1754
sbag1
(g13
g3
NtRp1755
(dp1756
g16
S'T(0)./mid\\invention1_1.mid'
p1757
sg18
S'C'
sg20
I4096
sg21
g22
(S'0.0625'
tRp1758
sg24
(lp1759
g1
(g26
g3
NtRp1760
(dp1761
g29
g22
(S'0.0625'
tRp1762
sg31
I768
sg32
I0
sg33
I64
sbasg34
g22
(S'0.1875'
tRp1763
sg36
g22
(S'0.1875'
tRp1764
sbag1
(g13
g3
NtRp1765
(dp1766
g16
S'T(0)./mid\\invention13_1.mid'
p1767
sg18
S'F'
sg20
I4096
sg21
g22
(S'0.0625'
tRp1768
sg24
(lp1769
g1
(g26
g3
NtRp1770
(dp1771
g29
g22
(S'0.0625'
tRp1772
sg31
I8960
sg32
I0
sg33
I76
sbasg34
g22
(S'0.1875'
tRp1773
sg36
g22
(S'2.1875'
tRp1774
sbag1
(g13
g3
NtRp1775
(dp1776
g16
S'T(5)./mid\\invention13_5.mid'
p1777
sg18
S'D'
sg20
I4096
sg21
g22
(S'0.0625'
tRp1778
sg24
(lp1779
g1
(g26
g3
NtRp1780
(dp1781
g29
g22
(S'0.0625'
tRp1782
sg31
I1024
sg32
I0
sg33
I81
sbag1
(g26
g3
NtRp1783
(dp1784
g29
g22
(S'0.125'
tRp1785
sg31
I1024
sg32
I1
sg33
I60
sbasg34
g22
(S'0.25'
tRp1786
sg36
g22
(S'0.25'
tRp1787
sbag1
(g13
g3
NtRp1788
(dp1789
g16
S'T(5)./mid\\invention1_2.mid'
p1790
sg18
S'C'
sg20
I4096
sg21
g22
(S'0.0625'
tRp1791
sg24
(lp1792
g1
(g26
g3
NtRp1793
(dp1794
g29
g22
(S'0.0625'
tRp1795
sg31
I1536
sg32
I0
sg33
I76
sbasg34
g22
(S'0.375'
tRp1796
sg36
g22
(S'0.375'
tRp1797
sbag1
(g13
g3
NtRp1798
(dp1799
g16
S'T(5)./mid\\invention13_4.mid'
p1800
sg18
S'Am'
p1801
sg20
I4096
sg21
g22
(S'0.0625'
tRp1802
sg24
(lp1803
g1
(g26
g3
NtRp1804
(dp1805
g29
g22
(S'0.0625'
tRp1806
sg31
I3072
sg32
I1
sg33
I60
sbag1
(g26
g3
NtRp1807
(dp1808
g29
g22
(S'0.125'
tRp1809
sg31
I3072
sg32
I0
sg33
I84
sbasg34
g22
(S'0.75'
tRp1810
sg36
g22
(S'0.75'
tRp1811
sbag1
(g13
g3
NtRp1812
(dp1813
g16
S'T(5)./mid\\invention13_5.mid'
p1814
sg18
S'Gm'
p1815
sg20
I4096
sg21
g22
(S'0.0625'
tRp1816
sg24
(lp1817
g1
(g26
g3
NtRp1818
(dp1819
g29
g22
(S'0.0625'
tRp1820
sg31
I7936
sg32
I1
sg33
I67
sbasg34
g22
(S'0.9375'
tRp1821
sg36
g22
(S'1.9375'
tRp1822
sbag1
(g13
g3
NtRp1823
(dp1824
g16
S'T(-4)./mid\\invention13_6.mid'
p1825
sg18
S'C'
sg20
I4096
sg21
g22
(S'0.0625'
tRp1826
sg24
(lp1827
g1
(g26
g3
NtRp1828
(dp1829
g29
g22
(S'0.0625'
tRp1830
sg31
I7424
sg32
I1
sg33
I58
sbasg34
g22
(S'0.8125'
tRp1831
sg36
g22
(S'1.8125'
tRp1832
sbag1
(g13
g3
NtRp1833
(dp1834
g16
S'T(0)./mid\\invention1_3.mid'
p1835
sg18
S'C'
sg20
I4096
sg21
g22
(S'0.0625'
tRp1836
sg24
(lp1837
g1
(g26
g3
NtRp1838
(dp1839
g29
g22
(S'0.0625'
tRp1840
sg31
I1024
sg32
I0
sg33
I76
sbag1
(g26
g3
NtRp1841
(dp1842
g29
g22
(S'0.125'
tRp1843
sg31
I1024
sg32
I1
sg33
I60
sbasg34
g22
(S'0.25'
tRp1844
sg36
g22
(S'0.25'
tRp1845
sbag1
(g13
g3
NtRp1846
(dp1847
g16
S'T(-4)./mid\\invention13_6.mid'
p1848
sg18
S'Fm'
p1849
sg20
I4096
sg21
g22
(S'0.0625'
tRp1850
sg24
(lp1851
g1
(g26
g3
NtRp1852
(dp1853
g29
g22
(S'0.0625'
tRp1854
sg31
I768
sg32
I0
sg33
I72
sbasg34
g22
(S'0.1875'
tRp1855
sg36
g22
(S'0.1875'
tRp1856
sbag1
(g13
g3
NtRp1857
(dp1858
g16
S'T(0)./mid\\invention1_1.mid'
p1859
sg18
S'C'
sg20
I4096
sg21
g22
(S'0.0625'
tRp1860
sg24
(lp1861
g1
(g26
g3
NtRp1862
(dp1863
g29
g22
(S'0.125'
tRp1864
sg31
I2048
sg32
I0
sg33
I67
sbasg34
g22
(S'0.5'
tRp1865
sg36
g22
(S'0.5'
tRp1866
sbag1
(g13
g3
NtRp1867
(dp1868
g16
S'T(-4)./mid\\invention13_6.mid'
p1869
sg18
S'C'
sg20
I4096
sg21
g22
(S'0.0625'
tRp1870
sg24
(lp1871
g1
(g26
g3
NtRp1872
(dp1873
g29
g22
(S'0.0625'
tRp1874
sg31
I5120
sg32
I0
sg33
I67
sbag1
(g26
g3
NtRp1875
(dp1876
g29
g22
(S'0.125'
tRp1877
sg31
I5120
sg32
I1
sg33
I46
sbasg34
g22
(S'0.25'
tRp1878
sg36
g22
(S'1.25'
tRp1879
sbag1
(g13
g3
NtRp1880
(dp1881
g16
S'T(5)./mid\\invention13_5.mid'
p1882
sg18
S'D'
sg20
I4096
sg21
g22
(S'0.0625'
tRp1883
sg24
(lp1884
g1
(g26
g3
NtRp1885
(dp1886
g29
g22
(S'0.0625'
tRp1887
sg31
I3584
sg32
I1
sg33
I70
sbasg34
g22
(S'0.875'
tRp1888
sg36
g22
(S'0.875'
tRp1889
sbag1
(g13
g3
NtRp1890
(dp1891
g16
S'T(0)./mid\\invention1_1.mid'
p1892
sg18
S'C'
sg20
I4096
sg21
g22
(S'0.03125'
tRp1893
sg24
(lp1894
g1
(g26
g3
NtRp1895
(dp1896
g29
g22
(S'0.03125'
tRp1897
sg31
I3072
sg32
I0
sg33
I71
sbag1
(g26
g3
NtRp1898
(dp1899
g29
g22
(S'0.0625'
tRp1900
sg31
I3072
sg32
I1
sg33
I53
sbasg34
g22
(S'0.75'
tRp1901
sg36
g22
(S'0.75'
tRp1902
sbag1
(g13
g3
NtRp1903
(dp1904
g16
S'T(5)./mid\\invention13_5.mid'
p1905
sg18
S'D'
sg20
I4096
sg21
g22
(S'0.0625'
tRp1906
sg24
(lp1907
g1
(g26
g3
NtRp1908
(dp1909
g29
g22
(S'0.0625'
tRp1910
sg31
I768
sg32
I0
sg33
I84
sbasg34
g22
(S'0.1875'
tRp1911
sg36
g22
(S'0.1875'
tRp1912
sbag1
(g13
g3
NtRp1913
(dp1914
g16
S'T(0)./mid\\invention13_1.mid'
p1915
sg18
S'Am'
p1916
sg20
I4096
sg21
g22
(S'0.0625'
tRp1917
sg24
(lp1918
g1
(g26
g3
NtRp1919
(dp1920
g29
g22
(S'0.0625'
tRp1921
sg31
I5120
sg32
I0
sg33
I71
sbag1
(g26
g3
NtRp1922
(dp1923
g29
g22
(S'0.125'
tRp1924
sg31
I5120
sg32
I1
sg33
I56
sbasg34
g22
(S'0.25'
tRp1925
sg36
g22
(S'1.25'
tRp1926
sbag1
(g13
g3
NtRp1927
(dp1928
g16
S'T(5)./mid\\invention1_2.mid'
p1929
sg18
S'C'
sg20
I4096
sg21
g22
(S'0.0625'
tRp1930
sg24
(lp1931
g1
(g26
g3
NtRp1932
(dp1933
g29
g22
(S'0.0625'
tRp1934
sg31
I256
sg32
I0
sg33
I72
sbasg34
g22
(S'0.0625'
tRp1935
sg36
g22
(S'0.0625'
tRp1936
sbag1
(g13
g3
NtRp1937
(dp1938
g16
S'T(5)./mid\\invention13_4.mid'
p1939
sg18
S'Am'
p1940
sg20
I4096
sg21
g22
(S'0.0625'
tRp1941
sg24
(lp1942
g1
(g26
g3
NtRp1943
(dp1944
g29
g22
(S'0.0625'
tRp1945
sg31
I768
sg32
I0
sg33
I84
sbasg34
g22
(S'0.1875'
tRp1946
sg36
g22
(S'0.1875'
tRp1947
sbag1
(g13
g3
NtRp1948
(dp1949
g16
S'T(0)./mid\\invention13_2.mid'
p1950
sg18
S'C'
sg20
I4096
sg21
g22
(S'0.0625'
tRp1951
sg24
(lp1952
g1
(g26
g3
NtRp1953
(dp1954
g29
g22
(S'0.0625'
tRp1955
sg31
I3584
sg32
I1
sg33
I62
sbag1
(g26
g3
NtRp1956
(dp1957
g29
g22
(S'0.125'
tRp1958
sg31
I3584
sg32
I0
sg33
I79
sbasg34
g22
(S'0.875'
tRp1959
sg36
g22
(S'0.875'
tRp1960
sbag1
(g13
g3
NtRp1961
(dp1962
g16
S'T(0)./mid\\invention13_1.mid'
p1963
sg18
S'F'
sg20
I4096
sg21
g22
(S'0.0625'
tRp1964
sg24
(lp1965
g1
(g26
g3
NtRp1966
(dp1967
g29
g22
(S'0.0625'
tRp1968
sg31
I9984
sg32
I0
sg33
I67
sbasg34
g22
(S'0.4375'
tRp1969
sg36
g22
(S'2.4375'
tRp1970
sbag1
(g13
g3
NtRp1971
(dp1972
g16
S'T(0)./mid\\invention13_2.mid'
p1973
sg18
S'Em'
p1974
sg20
I4096
sg21
g22
(S'0.0625'
tRp1975
sg24
(lp1976
g1
(g26
g3
NtRp1977
(dp1978
g29
g22
(S'0.0625'
tRp1979
sg31
I15104
sg32
I1
sg33
I64
sbasg34
g22
(S'0.6875'
tRp1980
sg36
g22
(S'3.6875'
tRp1981
sbag1
(g13
g3
NtRp1982
(dp1983
g16
S'T(0)./mid\\invention1_1.mid'
p1984
sg18
S'C'
sg20
I4096
sg21
g22
(S'0.0625'
tRp1985
sg24
(lp1986
g1
(g26
g3
NtRp1987
(dp1988
g29
g22
(S'0.0625'
tRp1989
sg31
I3328
sg32
I1
sg33
I50
sbag1
(g26
g3
NtRp1990
(dp1991
g29
g22
(S'0.0625'
tRp1992
sg31
I3328
sg32
I0
sg33
I71
sbasg34
g22
(S'0.8125'
tRp1993
sg36
g22
(S'0.8125'
tRp1994
sbag1
(g13
g3
NtRp1995
(dp1996
g16
S'T(0)./mid\\invention13_2.mid'
p1997
sg18
S'C'
sg20
I4096
sg21
g22
(S'0.0625'
tRp1998
sg24
(lp1999
g1
(g26
g3
NtRp2000
(dp2001
g29
g22
(S'0.0625'
tRp2002
sg31
I3072
sg32
I1
sg33
I62
sbag1
(g26
g3
NtRp2003
(dp2004
g29
g22
(S'0.125'
tRp2005
sg31
I3072
sg32
I0
sg33
I71
sbasg34
g22
(S'0.75'
tRp2006
sg36
g22
(S'0.75'
tRp2007
sbag1
(g13
g3
NtRp2008
(dp2009
g16
S'T(0)./mid\\invention1_4.mid'
p2010
sg18
S'Am'
p2011
sg20
I4096
sg21
g22
(S'0.0625'
tRp2012
sg24
(lp2013
g1
(g26
g3
NtRp2014
(dp2015
g29
g22
(S'0.0625'
tRp2016
sg31
I0
sg32
I0
sg33
I76
sbag1
(g26
g3
NtRp2017
(dp2018
g29
g22
(S'0.125'
tRp2019
sg31
I0
sg32
I1
sg33
I60
sbasg34
g22
(S'0'
tRp2020
sg36
g22
(S'0'
tRp2021
sbag1
(g13
g3
NtRp2022
(dp2023
g16
S'T(-4)./mid\\invention13_6.mid'
p2024
sg18
S'Fm'
p2025
sg20
I4096
sg21
g22
(S'0.0625'
tRp2026
sg24
(lp2027
g1
(g26
g3
NtRp2028
(dp2029
g29
g22
(S'0.25'
tRp2030
sg31
I3072
sg32
I0
sg33
I62
sbasg34
g22
(S'0.75'
tRp2031
sg36
g22
(S'0.75'
tRp2032
sbag1
(g13
g3
NtRp2033
(dp2034
g16
S'T(5)./mid\\invention13_5.mid'
p2035
sg18
S'Gm'
p2036
sg20
I4096
sg21
g22
(S'0.0625'
tRp2037
sg24
(lp2038
g1
(g26
g3
NtRp2039
(dp2040
g29
g22
(S'0.0625'
tRp2041
sg31
I7424
sg32
I1
sg33
I70
sbasg34
g22
(S'0.8125'
tRp2042
sg36
g22
(S'1.8125'
tRp2043
sbag1
(g13
g3
NtRp2044
(dp2045
g16
S'T(5)./mid\\invention1_2.mid'
p2046
sg18
S'C'
sg20
I4096
sg21
g22
(S'0.0625'
tRp2047
sg24
(lp2048
g1
(g26
g3
NtRp2049
(dp2050
g29
g22
(S'0.0625'
tRp2051
sg31
I1280
sg32
I0
sg33
I74
sbasg34
g22
(S'0.3125'
tRp2052
sg36
g22
(S'0.3125'
tRp2053
sbag1
(g13
g3
NtRp2054
(dp2055
g16
S'T(0)./mid\\invention1_3.mid'
p2056
sg18
S'C'
sg20
I4096
sg21
g22
(S'0.0625'
tRp2057
sg24
(lp2058
g1
(g26
g3
NtRp2059
(dp2060
g29
g22
(S'0.0625'
tRp2061
sg31
I768
sg32
I0
sg33
I77
sbasg34
g22
(S'0.1875'
tRp2062
sg36
g22
(S'0.1875'
tRp2063
sbag1
(g13
g3
NtRp2064
(dp2065
g16
S'T(0)./mid\\invention1_4.mid'
p2066
sg18
S'Am'
p2067
sg20
I4096
sg21
g22
(S'0.0625'
tRp2068
sg24
(lp2069
g1
(g26
g3
NtRp2070
(dp2071
g29
g22
(S'0.0625'
tRp2072
sg31
I1536
sg32
I0
sg33
I71
sbag1
(g26
g3
NtRp2073
(dp2074
g29
g22
(S'0.125'
tRp2075
sg31
I1536
sg32
I1
sg33
I55
sbasg34
g22
(S'0.375'
tRp2076
sg36
g22
(S'0.375'
tRp2077
sbag1
(g13
g3
NtRp2078
(dp2079
g16
S'T(5)./mid\\invention13_5.mid'
p2080
sg18
S'D'
sg20
I4096
sg21
g22
(S'0.0625'
tRp2081
sg24
(lp2082
g1
(g26
g3
NtRp2083
(dp2084
g29
g22
(S'0.0625'
tRp2085
sg31
I3840
sg32
I1
sg33
I69
sbasg34
g22
(S'0.9375'
tRp2086
sg36
g22
(S'0.9375'
tRp2087
sbag1
(g13
g3
NtRp2088
(dp2089
g16
S'T(0)./mid\\invention13_1.mid'
p2090
sg18
S'F'
sg20
I4096
sg21
g22
(S'0.0625'
tRp2091
sg24
(lp2092
g1
(g26
g3
NtRp2093
(dp2094
g29
g22
(S'0.0625'
tRp2095
sg31
I8448
sg32
I0
sg33
I76
sbasg34
g22
(S'0.0625'
tRp2096
sg36
g22
(S'2.0625'
tRp2097
sbag1
(g13
g3
NtRp2098
(dp2099
g16
S'T(0)./mid\\invention13_2.mid'
p2100
sg18
S'Em'
p2101
sg20
I4096
sg21
g22
(S'0.0625'
tRp2102
sg24
(lp2103
g1
(g26
g3
NtRp2104
(dp2105
g29
g22
(S'0.0625'
tRp2106
sg31
I14592
sg32
I1
sg33
I67
sbasg34
g22
(S'0.5625'
tRp2107
sg36
g22
(S'3.5625'
tRp2108
sbag1
(g13
g3
NtRp2109
(dp2110
g16
S'T(0)./mid\\invention13_2.mid'
p2111
sg18
S'C'
sg20
I4096
sg21
g22
(S'0.0625'
tRp2112
sg24
(lp2113
g1
(g26
g3
NtRp2114
(dp2115
g29
g22
(S'0.0625'
tRp2116
sg31
I1536
sg32
I0
sg33
I74
sbag1
(g26
g3
NtRp2117
(dp2118
g29
g22
(S'0.125'
tRp2119
sg31
I1536
sg32
I1
sg33
I55
sbasg34
g22
(S'0.375'
tRp2120
sg36
g22
(S'0.375'
tRp2121
sbag1
(g13
g3
NtRp2122
(dp2123
g16
S'T(0)./mid\\invention13_1.mid'
p2124
sg18
S'Am'
p2125
sg20
I4096
sg21
g22
(S'0.0625'
tRp2126
sg24
(lp2127
g1
(g26
g3
NtRp2128
(dp2129
g29
g22
(S'0.0625'
tRp2130
sg31
I4096
sg32
I0
sg33
I69
sbag1
(g26
g3
NtRp2131
(dp2132
g29
g22
(S'0.125'
tRp2133
sg31
I4096
sg32
I1
sg33
I60
sbasg34
g22
(S'0'
tRp2134
sg36
g22
(S'1'
tRp2135
sbag1
(g13
g3
NtRp2136
(dp2137
g16
S'T(0)./mid\\invention13_2.mid'
p2138
sg18
S'Em'
p2139
sg20
I4096
sg21
g22
(S'0.0625'
tRp2140
sg24
(lp2141
g1
(g26
g3
NtRp2142
(dp2143
g29
g22
(S'0.0625'
tRp2144
sg31
I12288
sg32
I0
sg33
I83
sbag1
(g26
g3
NtRp2145
(dp2146
g29
g22
(S'0.125'
tRp2147
sg31
I12288
sg32
I1
sg33
I55
sbasg34
g22
(S'0'
tRp2148
sg36
g22
(S'3'
tRp2149
sbag1
(g13
g3
NtRp2150
(dp2151
g16
S'T(0)./mid\\invention1_3.mid'
p2152
sg18
S'C'
sg20
I4096
sg21
g22
(S'0.0625'
tRp2153
sg24
(lp2154
g1
(g26
g3
NtRp2155
(dp2156
g29
g22
(S'0.0625'
tRp2157
sg31
I1280
sg32
I0
sg33
I79
sbasg34
g22
(S'0.3125'
tRp2158
sg36
g22
(S'0.3125'
tRp2159
sbag1
(g13
g3
NtRp2160
(dp2161
g16
S'T(0)./mid\\invention13_1.mid'
p2162
sg18
S'G'
sg20
I4096
sg21
g22
(S'0.0625'
tRp2163
sg24
(lp2164
g1
(g26
g3
NtRp2165
(dp2166
g29
g22
(S'0.0625'
tRp2167
sg31
I15872
sg32
I1
sg33
I43
sbag1
(g26
g3
NtRp2168
(dp2169
g29
g22
(S'0.125'
tRp2170
sg31
I15872
sg32
I0
sg33
I76
sbasg34
g22
(S'0.875'
tRp2171
sg36
g22
(S'3.875'
tRp2172
sbag1
(g13
g3
NtRp2173
(dp2174
g16
S'T(0)./mid\\invention13_3.mid'
p2175
sg18
S'Am'
p2176
sg20
I4096
sg21
g22
(S'0.0625'
tRp2177
sg24
(lp2178
g1
(g26
g3
NtRp2179
(dp2180
g29
g22
(S'0.0625'
tRp2181
sg31
I768
sg32
I0
sg33
I81
sbasg34
g22
(S'0.1875'
tRp2182
sg36
g22
(S'0.1875'
tRp2183
sbag1
(g13
g3
NtRp2184
(dp2185
g16
S'T(0)./mid\\invention13_2.mid'
p2186
sg18
S'C'
sg20
I4096
sg21
g22
(S'0.0625'
tRp2187
sg24
(lp2188
g1
(g26
g3
NtRp2189
(dp2190
g29
g22
(S'0.0625'
tRp2191
sg31
I3840
sg32
I1
sg33
I65
sbasg34
g22
(S'0.9375'
tRp2192
sg36
g22
(S'0.9375'
tRp2193
sbag1
(g13
g3
NtRp2194
(dp2195
g16
S'T(0)./mid\\invention13_2.mid'
p2196
sg18
S'C'
sg20
I4096
sg21
g22
(S'0.0625'
tRp2197
sg24
(lp2198
g1
(g26
g3
NtRp2199
(dp2200
g29
g22
(S'0.0625'
tRp2201
sg31
I4096
sg32
I0
sg33
I72
sbag1
(g26
g3
NtRp2202
(dp2203
g29
g22
(S'0.125'
tRp2204
sg31
I4096
sg32
I1
sg33
I64
sbasg34
g22
(S'0'
tRp2205
sg36
g22
(S'1'
tRp2206
sbag1
(g13
g3
NtRp2207
(dp2208
g16
S'T(0)./mid\\invention13_2.mid'
p2209
sg18
S'C'
sg20
I4096
sg21
g22
(S'0.0625'
tRp2210
sg24
(lp2211
g1
(g26
g3
NtRp2212
(dp2213
g29
g22
(S'0.0625'
tRp2214
sg31
I7168
sg32
I1
sg33
I60
sbag1
(g26
g3
NtRp2215
(dp2216
g29
g22
(S'0.125'
tRp2217
sg31
I7168
sg32
I0
sg33
I79
sbasg34
g22
(S'0.75'
tRp2218
sg36
g22
(S'1.75'
tRp2219
sbag1
(g13
g3
NtRp2220
(dp2221
g16
S'T(-4)./mid\\invention13_6.mid'
p2222
sg18
S'Fm'
p2223
sg20
I4096
sg21
g22
(S'0.0625'
tRp2224
sg24
(lp2225
g1
(g26
g3
NtRp2226
(dp2227
g29
g22
(S'0.0625'
tRp2228
sg31
I2304
sg32
I0
sg33
I68
sbasg34
g22
(S'0.5625'
tRp2229
sg36
g22
(S'0.5625'
tRp2230
sbag1
(g13
g3
NtRp2231
(dp2232
g16
S'T(0)./mid\\invention1_3.mid'
p2233
sg18
S'C'
sg20
I4096
sg21
g22
(S'0.0625'
tRp2234
sg24
(lp2235
g1
(g26
g3
NtRp2236
(dp2237
g29
g22
(S'0.0625'
tRp2238
sg31
I3328
sg32
I0
sg33
I76
sbasg34
g22
(S'0.8125'
tRp2239
sg36
g22
(S'0.8125'
tRp2240
sbag1
(g13
g3
NtRp2241
(dp2242
g16
S'T(0)./mid\\invention13_2.mid'
p2243
sg18
S'C'
sg20
I4096
sg21
g22
(S'0.0625'
tRp2244
sg24
(lp2245
g1
(g26
g3
NtRp2246
(dp2247
g29
g22
(S'0.0625'
tRp2248
sg31
I256
sg32
I0
sg33
I67
sbasg34
g22
(S'0.0625'
tRp2249
sg36
g22
(S'0.0625'
tRp2250
sbag1
(g13
g3
NtRp2251
(dp2252
g16
S'T(0)./mid\\invention1_1.mid'
p2253
sg18
S'C'
sg20
I4096
sg21
g22
(S'0.0625'
tRp2254
sg24
(lp2255
g1
(g26
g3
NtRp2256
(dp2257
g29
g22
(S'0.0625'
tRp2258
sg31
I2304
sg32
I1
sg33
I48
sbasg34
g22
(S'0.5625'
tRp2259
sg36
g22
(S'0.5625'
tRp2260
sbag1
(g13
g3
NtRp2261
(dp2262
g16
S'T(-4)./mid\\invention13_6.mid'
p2263
sg18
S'C'
sg20
I4096
sg21
g22
(S'0.0625'
tRp2264
sg24
(lp2265
g1
(g26
g3
NtRp2266
(dp2267
g29
g22
(S'0.0625'
tRp2268
sg31
I7936
sg32
I1
sg33
I55
sbasg34
g22
(S'0.9375'
tRp2269
sg36
g22
(S'1.9375'
tRp2270
sbag1
(g13
g3
NtRp2271
(dp2272
g16
S'T(-4)./mid\\invention13_6.mid'
p2273
sg18
S'Fm'
p2274
sg20
I4096
sg21
g22
(S'0.0625'
tRp2275
sg24
(lp2276
g1
(g26
g3
NtRp2277
(dp2278
g29
g22
(S'0.0625'
tRp2279
sg31
I1536
sg32
I0
sg33
I65
sbag1
(g26
g3
NtRp2280
(dp2281
g29
g22
(S'0.125'
tRp2282
sg31
I1536
sg32
I1
sg33
I50
sbasg34
g22
(S'0.375'
tRp2283
sg36
g22
(S'0.375'
tRp2284
sbag1
(g13
g3
NtRp2285
(dp2286
g16
S'T(0)./mid\\invention13_3.mid'
p2287
sg18
S'Am'
p2288
sg20
I4096
sg21
g22
(S'0.0625'
tRp2289
sg24
(lp2290
g1
(g26
g3
NtRp2291
(dp2292
g29
g22
(S'0.0625'
tRp2293
sg31
I3584
sg32
I1
sg33
I54
sbag1
(g26
g3
NtRp2294
(dp2295
g29
g22
(S'0.125'
tRp2296
sg31
I3584
sg32
I0
sg33
I84
sbasg34
g22
(S'0.875'
tRp2297
sg36
g22
(S'0.875'
tRp2298
sbag1
(g13
g3
NtRp2299
(dp2300
g16
S'T(0)./mid\\invention13_2.mid'
p2301
sg18
S'Em'
p2302
sg20
I4096
sg21
g22
(S'0.0625'
tRp2303
sg24
(lp2304
g1
(g26
g3
NtRp2305
(dp2306
g29
g22
(S'0.0625'
tRp2307
sg31
I14848
sg32
I1
sg33
I60
sbag1
(g26
g3
NtRp2308
(dp2309
g29
g22
(S'0.125'
tRp2310
sg31
I14848
sg32
I0
sg33
I76
sbasg34
g22
(S'0.625'
tRp2311
sg36
g22
(S'3.625'
tRp2312
sbag1
(g13
g3
NtRp2313
(dp2314
g16
S'T(5)./mid\\invention13_4.mid'
p2315
sg18
S'Am'
p2316
sg20
I4096
sg21
g22
(S'0.0625'
tRp2317
sg24
(lp2318
g1
(g26
g3
NtRp2319
(dp2320
g29
g22
(S'0.0625'
tRp2321
sg31
I1024
sg32
I0
sg33
I76
sbag1
(g26
g3
NtRp2322
(dp2323
g29
g22
(S'0.125'
tRp2324
sg31
I1024
sg32
I1
sg33
I67
sbasg34
g22
(S'0.25'
tRp2325
sg36
g22
(S'0.25'
tRp2326
sbag1
(g13
g3
NtRp2327
(dp2328
g16
S'T(0)./mid\\invention13_2.mid'
p2329
sg18
S'C'
sg20
I4096
sg21
g22
(S'0.0625'
tRp2330
sg24
(lp2331
g1
(g26
g3
NtRp2332
(dp2333
g29
g22
(S'0.0625'
tRp2334
sg31
I2560
sg32
I1
sg33
I60
sbag1
(g26
g3
NtRp2335
(dp2336
g29
g22
(S'0.125'
tRp2337
sg31
I2560
sg32
I0
sg33
I79
sbasg34
g22
(S'0.625'
tRp2338
sg36
g22
(S'0.625'
tRp2339
sbag1
(g13
g3
NtRp2340
(dp2341
g16
S'T(0)./mid\\invention13_1.mid'
p2342
sg18
S'G'
sg20
I4096
sg21
g22
(S'0.0625'
tRp2343
sg24
(lp2344
g1
(g26
g3
NtRp2345
(dp2346
g29
g22
(S'0.0625'
tRp2347
sg31
I15104
sg32
I1
sg33
I55
sbasg34
g22
(S'0.6875'
tRp2348
sg36
g22
(S'3.6875'
tRp2349
sbag1
(g13
g3
NtRp2350
(dp2351
g16
S'T(0)./mid\\invention13_2.mid'
p2352
sg18
S'Em'
p2353
sg20
I4096
sg21
g22
(S'0.0625'
tRp2354
sg24
(lp2355
g1
(g26
g3
NtRp2356
(dp2357
g29
g22
(S'0.0625'
tRp2358
sg31
I14080
sg32
I0
sg33
I71
sbasg34
g22
(S'0.4375'
tRp2359
sg36
g22
(S'3.4375'
tRp2360
sbag1
(g13
g3
NtRp2361
(dp2362
g16
S'T(0)./mid\\invention1_1.mid'
p2363
sg18
S'C'
sg20
I4096
sg21
g22
(S'0.0625'
tRp2364
sg24
(lp2365
g1
(g26
g3
NtRp2366
(dp2367
g29
g22
(S'0.0625'
tRp2368
sg31
I1280
sg32
I0
sg33
I62
sbasg34
g22
(S'0.3125'
tRp2369
sg36
g22
(S'0.3125'
tRp2370
sbag1
(g13
g3
NtRp2371
(dp2372
g16
S'T(0)./mid\\invention13_2.mid'
p2373
sg18
S'C'
sg20
I4096
sg21
g22
(S'0.0625'
tRp2374
sg24
(lp2375
g1
(g26
g3
NtRp2376
(dp2377
g29
g22
(S'0.0625'
tRp2378
sg31
I1280
sg32
I0
sg33
I67
sbasg34
g22
(S'0.3125'
tRp2379
sg36
g22
(S'0.3125'
tRp2380
sbag1
(g13
g3
NtRp2381
(dp2382
g16
S'T(0)./mid\\invention1_3.mid'
p2383
sg18
S'C'
sg20
I4096
sg21
g22
(S'0.0625'
tRp2384
sg24
(lp2385
g1
(g26
g3
NtRp2386
(dp2387
g29
g22
(S'0.0625'
tRp2388
sg31
I2304
sg32
I0
sg33
I77
sbasg34
g22
(S'0.5625'
tRp2389
sg36
g22
(S'0.5625'
tRp2390
sbag1
(g13
g3
NtRp2391
(dp2392
g16
S'T(5)./mid\\invention13_4.mid'
p2393
sg18
S'Am'
p2394
sg20
I4096
sg21
g22
(S'0.0625'
tRp2395
sg24
(lp2396
g1
(g26
g3
NtRp2397
(dp2398
g29
g22
(S'0.0625'
tRp2399
sg31
I256
sg32
I0
sg33
I84
sbasg34
g22
(S'0.0625'
tRp2400
sg36
g22
(S'0.0625'
tRp2401
sbag1
(g13
g3
NtRp2402
(dp2403
g16
S'T(0)./mid\\invention1_4.mid'
p2404
sg18
S'Am'
p2405
sg20
I4096
sg21
g22
(S'0.0625'
tRp2406
sg24
(lp2407
g1
(g26
g3
NtRp2408
(dp2409
g29
g22
(S'0.0625'
tRp2410
sg31
I2816
sg32
I0
sg33
I67
sbasg34
g22
(S'0.6875'
tRp2411
sg36
g22
(S'0.6875'
tRp2412
sbag1
(g13
g3
NtRp2413
(dp2414
g16
S'T(0)./mid\\invention13_3.mid'
p2415
sg18
S'Am'
p2416
sg20
I4096
sg21
g22
(S'0.0625'
tRp2417
sg24
(lp2418
g1
(g26
g3
NtRp2419
(dp2420
g29
g22
(S'0.0625'
tRp2421
sg31
I2304
sg32
I1
sg33
I69
sbasg34
g22
(S'0.5625'
tRp2422
sg36
g22
(S'0.5625'
tRp2423
sbag1
(g13
g3
NtRp2424
(dp2425
g16
S'T(-4)./mid\\invention13_6.mid'
p2426
sg18
S'Fm'
p2427
sg20
I4096
sg21
g22
(S'0.0625'
tRp2428
sg24
(lp2429
g1
(g26
g3
NtRp2430
(dp2431
g29
g22
(S'0.0625'
tRp2432
sg31
I1024
sg32
I0
sg33
I68
sbag1
(g26
g3
NtRp2433
(dp2434
g29
g22
(S'0.125'
tRp2435
sg31
I1024
sg32
I1
sg33
I48
sbasg34
g22
(S'0.25'
tRp2436
sg36
g22
(S'0.25'
tRp2437
sbag1
(g13
g3
NtRp2438
(dp2439
g16
S'T(0)./mid\\invention13_1.mid'
p2440
sg18
S'Am'
p2441
sg20
I4096
sg21
g22
(S'0.0625'
tRp2442
sg24
(lp2443
g1
(g26
g3
NtRp2444
(dp2445
g29
g22
(S'0.0625'
tRp2446
sg31
I256
sg32
I0
sg33
I64
sbasg34
g22
(S'0.0625'
tRp2447
sg36
g22
(S'0.0625'
tRp2448
sbag1
(g13
g3
NtRp2449
(dp2450
g16
S'T(0)./mid\\invention13_2.mid'
p2451
sg18
S'Em'
p2452
sg20
I4096
sg21
g22
(S'0.0625'
tRp2453
sg24
(lp2454
g1
(g26
g3
NtRp2455
(dp2456
g29
g22
(S'0.0625'
tRp2457
sg31
I12800
sg32
I0
sg33
I74
sbag1
(g26
g3
NtRp2458
(dp2459
g29
g22
(S'0.125'
tRp2460
sg31
I12800
sg32
I1
sg33
I59
sbasg34
g22
(S'0.125'
tRp2461
sg36
g22
(S'3.125'
tRp2462
sbag1
(g13
g3
NtRp2463
(dp2464
g16
S'T(0)./mid\\invention13_2.mid'
p2465
sg18
S'C'
sg20
I4096
sg21
g22
(S'0.0625'
tRp2466
sg24
(lp2467
g1
(g26
g3
NtRp2468
(dp2469
g29
g22
(S'0.0625'
tRp2470
sg31
I7424
sg32
I1
sg33
I64
sbasg34
g22
(S'0.8125'
tRp2471
sg36
g22
(S'1.8125'
tRp2472
sbag1
(g13
g3
NtRp2473
(dp2474
g16
S'T(5)./mid\\invention1_2.mid'
p2475
sg18
S'C'
sg20
I4096
sg21
g22
(S'0.03125'
tRp2476
sg24
(lp2477
g1
(g26
g3
NtRp2478
(dp2479
g29
g22
(S'0.03125'
tRp2480
sg31
I3072
sg32
I0
sg33
I82
sbag1
(g26
g3
NtRp2481
(dp2482
g29
g22
(S'0.0625'
tRp2483
sg31
I3072
sg32
I1
sg33
I65
sbasg34
g22
(S'0.75'
tRp2484
sg36
g22
(S'0.75'
tRp2485
sbag1
(g13
g3
NtRp2486
(dp2487
g16
S'T(0)./mid\\invention13_2.mid'
p2488
sg18
S'C'
sg20
I4096
sg21
g22
(S'0.0625'
tRp2489
sg24
(lp2490
g1
(g26
g3
NtRp2491
(dp2492
g29
g22
(S'0.0625'
tRp2493
sg31
I1024
sg32
I0
sg33
I74
sbag1
(g26
g3
NtRp2494
(dp2495
g29
g22
(S'0.125'
tRp2496
sg31
I1024
sg32
I1
sg33
I59
sbasg34
g22
(S'0.25'
tRp2497
sg36
g22
(S'0.25'
tRp2498
sbag1
(g13
g3
NtRp2499
(dp2500
g16
S'T(0)./mid\\invention1_4.mid'
p2501
sg18
S'Am'
p2502
sg20
I4096
sg21
g22
(S'0.0625'
tRp2503
sg24
(lp2504
g1
(g26
g3
NtRp2505
(dp2506
g29
g22
(S'0.0625'
tRp2507
sg31
I2304
sg32
I0
sg33
I71
sbasg34
g22
(S'0.5625'
tRp2508
sg36
g22
(S'0.5625'
tRp2509
sbag1
(g13
g3
NtRp2510
(dp2511
g16
S'T(5)./mid\\invention13_4.mid'
p2512
sg18
S'Am'
p2513
sg20
I4096
sg21
g22
(S'0.0625'
tRp2514
sg24
(lp2515
g1
(g26
g3
NtRp2516
(dp2517
g29
g22
(S'0.0625'
tRp2518
sg31
I3840
sg32
I1
sg33
I60
sbasg34
g22
(S'0.9375'
tRp2519
sg36
g22
(S'0.9375'
tRp2520
sbag1
(g13
g3
NtRp2521
(dp2522
g16
S'T(0)./mid\\invention1_3.mid'
p2523
sg18
S'C'
sg20
I4096
sg21
g22
(S'0.0625'
tRp2524
sg24
(lp2525
g1
(g26
g3
NtRp2526
(dp2527
g29
g22
(S'0.0625'
tRp2528
sg31
I3072
sg32
I0
sg33
I72
sbag1
(g26
g3
NtRp2529
(dp2530
g29
g22
(S'0.125'
tRp2531
sg31
I3072
sg32
I1
sg33
I57
sbasg34
g22
(S'0.75'
tRp2532
sg36
g22
(S'0.75'
tRp2533
sbag1
(g13
g3
NtRp2534
(dp2535
g16
S'T(0)./mid\\invention13_1.mid'
p2536
sg18
S'Am'
p2537
sg20
I4096
sg21
g22
(S'0.0625'
tRp2538
sg24
(lp2539
g1
(g26
g3
NtRp2540
(dp2541
g29
g22
(S'0.0625'
tRp2542
sg31
I512
sg32
I0
sg33
I69
sbag1
(g26
g3
NtRp2543
(dp2544
g29
g22
(S'0.25'
tRp2545
sg31
I512
sg32
I1
sg33
I57
sbasg34
g22
(S'0.125'
tRp2546
sg36
g22
(S'0.125'
tRp2547
sbag1
(g13
g3
NtRp2548
(dp2549
g16
S'T(5)./mid\\invention13_5.mid'
p2550
sg18
S'D'
sg20
I4096
sg21
g22
(S'0.0625'
tRp2551
sg24
(lp2552
g1
(g26
g3
NtRp2553
(dp2554
g29
g22
(S'0.0625'
tRp2555
sg31
I1536
sg32
I0
sg33
I78
sbag1
(g26
g3
NtRp2556
(dp2557
g29
g22
(S'0.125'
tRp2558
sg31
I1536
sg32
I1
sg33
I63
sbasg34
g22
(S'0.375'
tRp2559
sg36
g22
(S'0.375'
tRp2560
sbag1
(g13
g3
NtRp2561
(dp2562
g16
S'T(0)./mid\\invention13_1.mid'
p2563
sg18
S'G'
sg20
I4096
sg21
g22
(S'0.0625'
tRp2564
sg24
(lp2565
g1
(g26
g3
NtRp2566
(dp2567
g29
g22
(S'0.0625'
tRp2568
sg31
I15616
sg32
I1
sg33
I52
sbasg34
g22
(S'0.8125'
tRp2569
sg36
g22
(S'3.8125'
tRp2570
sbag1
(g13
g3
NtRp2571
(dp2572
g16
S'T(0)./mid\\invention13_1.mid'
p2573
sg18
S'F'
sg20
I4096
sg21
g22
(S'0.0625'
tRp2574
sg24
(lp2575
g1
(g26
g3
NtRp2576
(dp2577
g29
g22
(S'0.0625'
tRp2578
sg31
I11264
sg32
I1
sg33
I50
sbag1
(g26
g3
NtRp2579
(dp2580
g29
g22
(S'0.125'
tRp2581
sg31
I11264
sg32
I0
sg33
I74
sbasg34
g22
(S'0.75'
tRp2582
sg36
g22
(S'2.75'
tRp2583
sbag1
(g13
g3
NtRp2584
(dp2585
g16
S'T(0)./mid\\invention13_3.mid'
p2586
sg18
S'Am'
p2587
sg20
I4096
sg21
g22
(S'0.0625'
tRp2588
sg24
(lp2589
g1
(g26
g3
NtRp2590
(dp2591
g29
g22
(S'0.0625'
tRp2592
sg31
I256
sg32
I0
sg33
I81
sbasg34
g22
(S'0.0625'
tRp2593
sg36
g22
(S'0.0625'
tRp2594
sbag1
(g13
g3
NtRp2595
(dp2596
g16
S'T(0)./mid\\invention13_3.mid'
p2597
sg18
S'Am'
p2598
sg20
I4096
sg21
g22
(S'0.0625'
tRp2599
sg24
(lp2600
g1
(g26
g3
NtRp2601
(dp2602
g29
g22
(S'0.0625'
tRp2603
sg31
I2560
sg32
I1
sg33
I62
sbag1
(g26
g3
NtRp2604
(dp2605
g29
g22
(S'0.125'
tRp2606
sg31
I2560
sg32
I0
sg33
I78
sbasg34
g22
(S'0.625'
tRp2607
sg36
g22
(S'0.625'
tRp2608
sbag1
(g13
g3
NtRp2609
(dp2610
g16
S'T(-4)./mid\\invention13_6.mid'
p2611
sg18
S'Fm'
p2612
sg20
I4096
sg21
g22
(S'0.0625'
tRp2613
sg24
(lp2614
g1
(g26
g3
NtRp2615
(dp2616
g29
g22
(S'0.0625'
tRp2617
sg31
I256
sg32
I0
sg33
I72
sbasg34
g22
(S'0.0625'
tRp2618
sg36
g22
(S'0.0625'
tRp2619
sbag1
(g13
g3
NtRp2620
(dp2621
g16
S'T(0)./mid\\invention1_3.mid'
p2622
sg18
S'C'
sg20
I4096
sg21
g22
(S'0.0625'
tRp2623
sg24
(lp2624
g1
(g26
g3
NtRp2625
(dp2626
g29
g22
(S'0.0625'
tRp2627
sg31
I0
sg32
I0
sg33
I76
sbag1
(g26
g3
NtRp2628
(dp2629
g29
g22
(S'0.125'
tRp2630
sg31
I0
sg32
I1
sg33
I60
sbasg34
g22
(S'0'
tRp2631
sg36
g22
(S'0'
tRp2632
sbag1
(g13
g3
NtRp2633
(dp2634
g16
S'T(0)./mid\\invention13_3.mid'
p2635
sg18
S'Am'
p2636
sg20
I4096
sg21
g22
(S'0.0625'
tRp2637
sg24
(lp2638
g1
(g26
g3
NtRp2639
(dp2640
g29
g22
(S'0.0625'
tRp2641
sg31
I0
sg32
I0
sg33
I84
sbag1
(g26
g3
NtRp2642
(dp2643
g29
g22
(S'0.125'
tRp2644
sg31
I0
sg32
I1
sg33
I57
sbasg34
g22
(S'0'
tRp2645
sg36
g22
(S'0'
tRp2646
sbag1
(g13
g3
NtRp2647
(dp2648
g16
S'T(-4)./mid\\invention13_6.mid'
p2649
sg18
S'Fm'
p2650
sg20
I4096
sg21
g22
(S'0.0625'
tRp2651
sg24
(lp2652
g1
(g26
g3
NtRp2653
(dp2654
g29
g22
(S'0.0625'
tRp2655
sg31
I1280
sg32
I0
sg33
I72
sbasg34
g22
(S'0.3125'
tRp2656
sg36
g22
(S'0.3125'
tRp2657
sbag1
(g13
g3
NtRp2658
(dp2659
g16
S'T(0)./mid\\invention1_3.mid'
p2660
sg18
S'C'
sg20
I4096
sg21
g22
(S'0.0625'
tRp2661
sg24
(lp2662
g1
(g26
g3
NtRp2663
(dp2664
g29
g22
(S'0.0625'
tRp2665
sg31
I1792
sg32
I0
sg33
I81
sbasg34
g22
(S'0.4375'
tRp2666
sg36
g22
(S'0.4375'
tRp2667
sbag1
(g13
g3
NtRp2668
(dp2669
g16
S'T(-4)./mid\\invention13_6.mid'
p2670
sg18
S'Fm'
p2671
sg20
I4096
sg21
g22
(S'0.0625'
tRp2672
sg24
(lp2673
g1
(g26
g3
NtRp2674
(dp2675
g29
g22
(S'0.0625'
tRp2676
sg31
I2560
sg32
I0
sg33
I65
sbasg34
g22
(S'0.625'
tRp2677
sg36
g22
(S'0.625'
tRp2678
sbag1
(g13
g3
NtRp2679
(dp2680
g16
S'T(-4)./mid\\invention13_6.mid'
p2681
sg18
S'C'
sg20
I4096
sg21
g22
(S'0.0625'
tRp2682
sg24
(lp2683
g1
(g26
g3
NtRp2684
(dp2685
g29
g22
(S'0.0625'
tRp2686
sg31
I6144
sg32
I0
sg33
I70
sbag1
(g26
g3
NtRp2687
(dp2688
g29
g22
(S'0.25'
tRp2689
sg31
I6144
sg32
I1
sg33
I40
sbasg34
g22
(S'0.5'
tRp2690
sg36
g22
(S'1.5'
tRp2691
sbag1
(g13
g3
NtRp2692
(dp2693
g16
S'T(0)./mid\\invention13_2.mid'
p2694
sg18
S'C'
sg20
I4096
sg21
g22
(S'0.0625'
tRp2695
sg24
(lp2696
g1
(g26
g3
NtRp2697
(dp2698
g29
g22
(S'0.0625'
tRp2699
sg31
I1792
sg32
I0
sg33
I77
sbasg34
g22
(S'0.4375'
tRp2700
sg36
g22
(S'0.4375'
tRp2701
sbag1
(g13
g3
NtRp2702
(dp2703
g16
S'T(0)./mid\\invention13_1.mid'
p2704
sg18
S'F'
sg20
I4096
sg21
g22
(S'0.0625'
tRp2705
sg24
(lp2706
g1
(g26
g3
NtRp2707
(dp2708
g29
g22
(S'0.125'
tRp2709
sg31
I8192
sg32
I1
sg33
I60
sbasg34
g22
(S'0'
tRp2710
sg36
g22
(S'2'
tRp2711
sbag1
(g13
g3
NtRp2712
(dp2713
g16
S'T(0)./mid\\invention13_1.mid'
p2714
sg18
S'G'
sg20
I4096
sg21
g22
(S'0.0625'
tRp2715
sg24
(lp2716
g1
(g26
g3
NtRp2717
(dp2718
g29
g22
(S'0.0625'
tRp2719
sg31
I13056
sg32
I0
sg33
I74
sbasg34
g22
(S'0.1875'
tRp2720
sg36
g22
(S'3.1875'
tRp2721
sbag1
(g13
g3
NtRp2722
(dp2723
g16
S'T(0)./mid\\invention13_1.mid'
p2724
sg18
S'G'
sg20
I4096
sg21
g22
(S'0.0625'
tRp2725
sg24
(lp2726
g1
(g26
g3
NtRp2727
(dp2728
g29
g22
(S'0.0625'
tRp2729
sg31
I14848
sg32
I1
sg33
I52
sbag1
(g26
g3
NtRp2730
(dp2731
g29
g22
(S'0.125'
tRp2732
sg31
I14848
sg32
I0
sg33
I67
sbasg34
g22
(S'0.625'
tRp2733
sg36
g22
(S'3.625'
tRp2734
sbag1
(g13
g3
NtRp2735
(dp2736
g16
S'T(5)./mid\\invention13_5.mid'
p2737
sg18
S'Gm'
p2738
sg20
I4096
sg21
g22
(S'0.0625'
tRp2739
sg24
(lp2740
g1
(g26
g3
NtRp2741
(dp2742
g29
g22
(S'0.0625'
tRp2743
sg31
I6656
sg32
I0
sg33
I76
sbasg34
g22
(S'0.625'
tRp2744
sg36
g22
(S'1.625'
tRp2745
sbag1
(g13
g3
NtRp2746
(dp2747
g16
S'T(0)./mid\\invention13_2.mid'
p2748
sg18
S'Em'
p2749
sg20
I4096
sg21
g22
(S'0.0625'
tRp2750
sg24
(lp2751
g1
(g26
g3
NtRp2752
(dp2753
g29
g22
(S'0.0625'
tRp2754
sg31
I15616
sg32
I1
sg33
I60
sbasg34
g22
(S'0.8125'
tRp2755
sg36
g22
(S'3.8125'
tRp2756
sbag1
(g13
g3
NtRp2757
(dp2758
g16
S'T(0)./mid\\invention1_1.mid'
p2759
sg18
S'C'
sg20
I4096
sg21
g22
(S'0.0625'
tRp2760
sg24
(lp2761
g1
(g26
g3
NtRp2762
(dp2763
g29
g22
(S'0.0625'
tRp2764
sg31
I2560
sg32
I1
sg33
I50
sbag1
(g26
g3
NtRp2765
(dp2766
g29
g22
(S'0.125'
tRp2767
sg31
I2560
sg32
I0
sg33
I72
sbasg34
g22
(S'0.625'
tRp2768
sg36
g22
(S'0.625'
tRp2769
sbag1
(g13
g3
NtRp2770
(dp2771
g16
S'T(5)./mid\\invention13_5.mid'
p2772
sg18
S'D'
sg20
I4096
sg21
g22
(S'0.0625'
tRp2773
sg24
(lp2774
g1
(g26
g3
NtRp2775
(dp2776
g29
g22
(S'0.0625'
tRp2777
sg31
I2048
sg32
I0
sg33
I84
sbag1
(g26
g3
NtRp2778
(dp2779
g29
g22
(S'0.25'
tRp2780
sg31
I2048
sg32
I1
sg33
I54
sbasg34
g22
(S'0.5'
tRp2781
sg36
g22
(S'0.5'
tRp2782
sbag1
(g13
g3
NtRp2783
(dp2784
g16
S'T(-4)./mid\\invention13_6.mid'
p2785
sg18
S'Fm'
p2786
sg20
I4096
sg21
g22
(S'0.0625'
tRp2787
sg24
(lp2788
g1
(g26
g3
NtRp2789
(dp2790
g29
g22
(S'0.0625'
tRp2791
sg31
I3584
sg32
I1
sg33
I59
sbasg34
g22
(S'0.875'
tRp2792
sg36
g22
(S'0.875'
tRp2793
sbag1
(g13
g3
NtRp2794
(dp2795
g16
S'T(-4)./mid\\invention13_6.mid'
p2796
sg18
S'Fm'
p2797
sg20
I4096
sg21
g22
(S'0.0625'
tRp2798
sg24
(lp2799
g1
(g26
g3
NtRp2800
(dp2801
g29
g22
(S'0.0625'
tRp2802
sg31
I512
sg32
I0
sg33
I75
sbag1
(g26
g3
NtRp2803
(dp2804
g29
g22
(S'0.125'
tRp2805
sg31
I512
sg32
I1
sg33
I44
sbasg34
g22
(S'0.125'
tRp2806
sg36
g22
(S'0.125'
tRp2807
sbag1
(g13
g3
NtRp2808
(dp2809
g16
S'T(0)./mid\\invention1_3.mid'
p2810
sg18
S'C'
sg20
I4096
sg21
g22
(S'0.0625'
tRp2811
sg24
(lp2812
g1
(g26
g3
NtRp2813
(dp2814
g29
g22
(S'0.0625'
tRp2815
sg31
I2816
sg32
I0
sg33
I74
sbasg34
g22
(S'0.6875'
tRp2816
sg36
g22
(S'0.6875'
tRp2817
sbag1
(g13
g3
NtRp2818
(dp2819
g16
S'T(5)./mid\\invention13_4.mid'
p2820
sg18
S'Am'
p2821
sg20
I4096
sg21
g22
(S'0.0625'
tRp2822
sg24
(lp2823
g1
(g26
g3
NtRp2824
(dp2825
g29
g22
(S'0.0625'
tRp2826
sg31
I1536
sg32
I0
sg33
I72
sbag1
(g26
g3
NtRp2827
(dp2828
g29
g22
(S'0.125'
tRp2829
sg31
I1536
sg32
I1
sg33
I71
sbasg34
g22
(S'0.375'
tRp2830
sg36
g22
(S'0.375'
tRp2831
sbag1
(g13
g3
NtRp2832
(dp2833
g16
S'T(-4)./mid\\invention13_6.mid'
p2834
sg18
S'Fm'
p2835
sg20
I4096
sg21
g22
(S'0.0625'
tRp2836
sg24
(lp2837
g1
(g26
g3
NtRp2838
(dp2839
g29
g22
(S'0.0625'
tRp2840
sg31
I1792
sg32
I0
sg33
I68
sbasg34
g22
(S'0.4375'
tRp2841
sg36
g22
(S'0.4375'
tRp2842
sbag1
(g13
g3
NtRp2843
(dp2844
g16
S'T(5)./mid\\invention13_4.mid'
p2845
sg18
S'Am'
p2846
sg20
I4096
sg21
g22
(S'0.0625'
tRp2847
sg24
(lp2848
g1
(g26
g3
NtRp2849
(dp2850
g29
g22
(S'0.0625'
tRp2851
sg31
I1280
sg32
I0
sg33
I79
sbasg34
g22
(S'0.3125'
tRp2852
sg36
g22
(S'0.3125'
tRp2853
sbag1
(g13
g3
NtRp2854
(dp2855
g16
S'T(0)./mid\\invention1_1.mid'
p2856
sg18
S'C'
sg20
I4096
sg21
g22
(S'0.0625'
tRp2857
sg24
(lp2858
g1
(g26
g3
NtRp2859
(dp2860
g29
g22
(S'0.0625'
tRp2861
sg31
I2816
sg32
I1
sg33
I52
sbasg34
g22
(S'0.6875'
tRp2862
sg36
g22
(S'0.6875'
tRp2863
sbag1
(g13
g3
NtRp2864
(dp2865
g16
S'T(-4)./mid\\invention13_6.mid'
p2866
sg18
S'Fm'
p2867
sg20
I4096
sg21
g22
(S'0.0625'
tRp2868
sg24
(lp2869
g1
(g26
g3
NtRp2870
(dp2871
g29
g22
(S'0.0625'
tRp2872
sg31
I2048
sg32
I0
sg33
I71
sbag1
(g26
g3
NtRp2873
(dp2874
g29
g22
(S'0.25'
tRp2875
sg31
I2048
sg32
I1
sg33
I41
sbasg34
g22
(S'0.5'
tRp2876
sg36
g22
(S'0.5'
tRp2877
sbag1
(g13
g3
NtRp2878
(dp2879
g16
S'T(0)./mid\\invention1_1.mid'
p2880
sg18
S'C'
sg20
I4096
sg21
g22
(S'0.0625'
tRp2881
sg24
(lp2882
g1
(g26
g3
NtRp2883
(dp2884
g29
g22
(S'0.0625'
tRp2885
sg31
I256
sg32
I0
sg33
I60
sbasg34
g22
(S'0.0625'
tRp2886
sg36
g22
(S'0.0625'
tRp2887
sbag1
(g13
g3
NtRp2888
(dp2889
g16
S'T(5)./mid\\invention13_5.mid'
p2890
sg18
S'Gm'
p2891
sg20
I4096
sg21
g22
(S'0.0625'
tRp2892
sg24
(lp2893
g1
(g26
g3
NtRp2894
(dp2895
g29
g22
(S'0.125'
tRp2896
sg31
I4096
sg32
I1
sg33
I67
sbasg34
g22
(S'0'
tRp2897
sg36
g22
(S'1'
tRp2898
sbag1
(g13
g3
NtRp2899
(dp2900
g16
S'T(0)./mid\\invention1_3.mid'
p2901
sg18
S'C'
sg20
I4096
sg21
g22
(S'0.0625'
tRp2902
sg24
(lp2903
g1
(g26
g3
NtRp2904
(dp2905
g29
g22
(S'0.0625'
tRp2906
sg31
I1536
sg32
I0
sg33
I77
sbag1
(g26
g3
NtRp2907
(dp2908
g29
g22
(S'0.125'
tRp2909
sg31
I1536
sg32
I1
sg33
I62
sbasg34
g22
(S'0.375'
tRp2910
sg36
g22
(S'0.375'
tRp2911
sbag1
(g13
g3
NtRp2912
(dp2913
g16
S'T(5)./mid\\invention13_4.mid'
p2914
sg18
S'Am'
p2915
sg20
I4096
sg21
g22
(S'0.0625'
tRp2916
sg24
(lp2917
g1
(g26
g3
NtRp2918
(dp2919
g29
g22
(S'0.0625'
tRp2920
sg31
I2816
sg32
I1
sg33
I69
sbasg34
g22
(S'0.6875'
tRp2921
sg36
g22
(S'0.6875'
tRp2922
sbag1
(g13
g3
NtRp2923
(dp2924
g16
S'T(0)./mid\\invention13_2.mid'
p2925
sg18
S'C'
sg20
I4096
sg21
g22
(S'0.0625'
tRp2926
sg24
(lp2927
g1
(g26
g3
NtRp2928
(dp2929
g29
g22
(S'0.0625'
tRp2930
sg31
I2304
sg32
I1
sg33
I55
sbasg34
g22
(S'0.5625'
tRp2931
sg36
g22
(S'0.5625'
tRp2932
sbag1
(g13
g3
NtRp2933
(dp2934
g16
S'T(0)./mid\\invention1_4.mid'
p2935
sg18
S'Am'
p2936
sg20
I4096
sg21
g22
(S'0.0625'
tRp2937
sg24
(lp2938
g1
(g26
g3
NtRp2939
(dp2940
g29
g22
(S'0.0625'
tRp2941
sg31
I256
sg32
I0
sg33
I74
sbasg34
g22
(S'0.0625'
tRp2942
sg36
g22
(S'0.0625'
tRp2943
sbag1
(g13
g3
NtRp2944
(dp2945
g16
S'T(0)./mid\\invention13_2.mid'
p2946
sg18
S'C'
sg20
I4096
sg21
g22
(S'0.0625'
tRp2947
sg24
(lp2948
g1
(g26
g3
NtRp2949
(dp2950
g29
g22
(S'0.0625'
tRp2951
sg31
I6656
sg32
I1
sg33
I64
sbag1
(g26
g3
NtRp2952
(dp2953
g29
g22
(S'0.125'
tRp2954
sg31
I6656
sg32
I0
sg33
I72
sbasg34
g22
(S'0.625'
tRp2955
sg36
g22
(S'1.625'
tRp2956
sbatRp2957
sS'markov'
p2958
(dp2959
(g2923
tp2960
(lp2961
g2327
as(g1867
tp2962
(lp2963
g830
as(g141
tp2964
(lp2965
g2033
as(g830
tp2966
(lp2967
g389
as(g1447
tp2968
(lp2969
g1038
as(g1372
tp2970
(lp2971
g2361
as(g1192
tp2972
(lp2973
g1506
as(g162
tp2974
(lp2975
S'stop_token'
p2976
as(g1434
tp2977
(lp2978
g2561
as(g2402
tp2979
(lp2980
g1344
as(g2658
tp2981
(lp2982
g341
as(g2692
tp2983
(lp2984
g1569
ag1393
as(g775
tp2985
(lp2986
g2735
as(g2584
tp2987
(lp2988
g127
ag1
(g13
g3
NtRp2989
(dp2990
g16
S'T(0)./mid\\invention13_2.mid'
p2991
sg18
S'Am'
p2992
sg20
I4096
sg21
g22
(S'0.0625'
tRp2993
sg24
(lp2994
g1
(g26
g3
NtRp2995
(dp2996
g29
g22
(S'0.0625'
tRp2997
sg31
I8704
sg32
I0
sg33
I76
sbag1
(g26
g3
NtRp2998
(dp2999
g29
g22
(S'0.125'
tRp3000
sg31
I8704
sg32
I1
sg33
I60
sbasg34
g22
(S'0.125'
tRp3001
sg36
g22
(S'2.125'
tRp3002
sbas(g487
tp3003
(lp3004
g2548
as(g1310
tp3005
(lp3006
g1482
as(g638
tp3007
(lp3008
g1982
as(g2534
tp3009
(lp3010
g1299
ag1
(g13
g3
NtRp3011
(dp3012
g16
S'T(0)./mid\\invention13_1.mid'
p3013
sg18
S'Am'
p3014
sg20
I4096
sg21
g22
(S'0.0625'
tRp3015
sg24
(lp3016
g1
(g26
g3
NtRp3017
(dp3018
g29
g22
(S'0.0625'
tRp3019
sg31
I4864
sg32
I0
sg33
I72
sbasg34
g22
(S'0.1875'
tRp3020
sg36
g22
(S'1.1875'
tRp3021
sbas(g1857
tp3022
(lp3023
g2251
as(g1393
tp3024
(lp3025
g1
(g13
g3
NtRp3026
(dp3027
g16
S'T(0)./mid\\invention13_2.mid'
p3028
sg18
S'C'
sg20
I4096
sg21
g22
(S'0.0625'
tRp3029
sg24
(lp3030
g1
(g26
g3
NtRp3031
(dp3032
g29
g22
(S'0.0625'
tRp3033
sg31
I6400
sg32
I1
sg33
I67
sbasg34
g22
(S'0.5625'
tRp3034
sg36
g22
(S'1.5625'
tRp3035
sbas(g1927
tp3036
(lp3037
g1458
as(g2361
tp3038
(lp3039
g850
as(g2173
tp3040
(lp3041
g884
ag1
(g13
g3
NtRp3042
(dp3043
g16
S'T(0)./mid\\invention13_2.mid'
p3044
sg18
S'Am'
p3045
sg20
I4096
sg21
g22
(S'0.0625'
tRp3046
sg24
(lp3047
g1
(g26
g3
NtRp3048
(dp3049
g29
g22
(S'0.0625'
tRp3050
sg31
I9216
sg32
I0
sg33
I72
sbag1
(g26
g3
NtRp3051
(dp3052
g29
g22
(S'0.125'
tRp3053
sg31
I9216
sg32
I1
sg33
I64
sbasg34
g22
(S'0.25'
tRp3054
sg36
g22
(S'2.25'
tRp3055
sbas(g96
tp3056
(lp3057
g1076
ag1
(g13
g3
NtRp3058
(dp3059
g16
S'T(0)./mid\\invention13_1.mid'
p3060
sg18
S'Am'
p3061
sg20
I4096
sg21
g22
(S'0.0625'
tRp3062
sg24
(lp3063
g1
(g26
g3
NtRp3064
(dp3065
g29
g22
(S'0.0625'
tRp3066
sg31
I2048
sg32
I1
sg33
I57
sbag1
(g26
g3
NtRp3067
(dp3068
g29
g22
(S'0.125'
tRp3069
sg31
I2048
sg32
I0
sg33
I72
sbasg34
g22
(S'0.5'
tRp3070
sg36
g22
(S'0.5'
tRp3071
sbag1
(g13
g3
NtRp3072
(dp3073
g16
S'T(0)./mid\\invention13_1.mid'
p3074
sg18
S'Am'
p3075
sg20
I4096
sg21
g22
(S'0.0625'
tRp3076
sg24
(lp3077
g1
(g26
g3
NtRp3078
(dp3079
g29
g22
(S'0.0625'
tRp3080
sg31
I6144
sg32
I1
sg33
I57
sbag1
(g26
g3
NtRp3081
(dp3082
g29
g22
(S'0.125'
tRp3083
sg31
I6144
sg32
I0
sg33
I72
sbasg34
g22
(S'0.5'
tRp3084
sg36
g22
(S'1.5'
tRp3085
sbas(g2679
tp3086
(lp3087
g1202
as(g711
tp3088
(lp3089
g2783
as(g1656
tp3090
(lp3091
g2391
as(g2548
tp3092
(lp3093
g1269
as(g426
tp3094
(lp3095
g269
as(g1269
tp3096
(lp3097
g2770
as(g2078
tp3098
(lp3099
g2888
as(g1937
tp3100
(lp3101
g2313
as(g2933
tp3102
(lp3103
g1492
as(g2313
tp3104
(lp3105
g2843
as(g945
tp3106
(lp3107
g2976
as(g1144
tp3108
(lp3109
g579
as(g2207
tp3110
(lp3111
g2463
as(g1492
tp3112
(lp3113
g1733
as(g2878
tp3114
(lp3115
g860
as(g1202
tp3116
(lp3117
g691
ag2944
as(g2008
tp3118
(lp3119
g2933
as(g379
tp3120
(lp3121
g304
as(g2818
tp3122
(lp3123
g354
as(g2473
tp3124
(lp3125
g1414
as(g290
tp3126
(lp3127
g1
(g13
g3
NtRp3128
(dp3129
g16
S'T(0)./mid\\invention13_1.mid'
p3130
sg18
S'Am'
p3131
sg20
I4096
sg21
g22
(S'0.0625'
tRp3132
sg24
(lp3133
g1
(g26
g3
NtRp3134
(dp3135
g29
g22
(S'0.0625'
tRp3136
sg31
I6912
sg32
I1
sg33
I60
sbasg34
g22
(S'0.6875'
tRp3137
sg36
g22
(S'1.6875'
tRp3138
sbas(g1823
tp3139
(lp3140
g1111
as(g2702
tp3141
(lp3142
g2088
as(g2808
tp3143
(lp3144
g2521
as(g1323
tp3145
(lp3146
g2241
as(g2424
tp3147
(lp3148
g2647
as(g627
tp3149
(lp3150
g1164
as(g1403
tp3151
(lp3152
g2438
as(g2371
tp3153
(lp3154
g2109
ag439
as(g245
tp3155
(lp3156
g1
(g13
g3
NtRp3157
(dp3158
g16
S'T(0)./mid\\invention13_1.mid'
p3159
sg18
S'Am'
p3160
sg20
I4096
sg21
g22
(S'0.0625'
tRp3161
sg24
(lp3162
g1
(g26
g3
NtRp3163
(dp3164
g29
g22
(S'0.0625'
tRp3165
sg31
I7424
sg32
I1
sg33
I52
sbasg34
g22
(S'0.8125'
tRp3166
sg36
g22
(S'1.8125'
tRp3167
sbas(g2735
tp3168
(lp3169
g279
as(g2413
tp3170
(lp3171
g2595
ag1
(g13
g3
NtRp3172
(dp3173
g16
S'T(0)./mid\\invention13_2.mid'
p3174
sg18
S'Am'
p3175
sg20
I4096
sg21
g22
(S'0.0625'
tRp3176
sg24
(lp3177
g1
(g26
g3
NtRp3178
(dp3179
g29
g22
(S'0.0625'
tRp3180
sg31
I10752
sg32
I1
sg33
I62
sbag1
(g26
g3
NtRp3181
(dp3182
g29
g22
(S'0.125'
tRp3183
sg31
I10752
sg32
I0
sg33
I78
sbasg34
g22
(S'0.625'
tRp3184
sg36
g22
(S'2.625'
tRp3185
sbas(g107
tp3186
(lp3187
g955
as(g566
tp3188
(lp3189
g1765
as(g439
tp3190
(lp3191
g1
(g13
g3
NtRp3192
(dp3193
g16
S'T(0)./mid\\invention13_2.mid'
p3194
sg18
S'C'
sg20
I4096
sg21
g22
(S'0.0625'
tRp3195
sg24
(lp3196
g1
(g26
g3
NtRp3197
(dp3198
g29
g22
(S'0.0625'
tRp3199
sg31
I5888
sg32
I0
sg33
I77
sbasg34
g22
(S'0.4375'
tRp3200
sg36
g22
(S'1.4375'
tRp3201
sbas(g2088
tp3202
(lp3203
g566
as(g2381
tp3204
(lp3205
g1593
as(g1101
tp3206
(lp3207
g670
as(g2944
tp3208
(lp3209
g1
(g13
g3
NtRp3210
(dp3211
g16
S'T(0)./mid\\invention13_2.mid'
p3212
sg18
S'C'
sg20
I4096
sg21
g22
(S'0.0625'
tRp3213
sg24
(lp3214
g1
(g26
g3
NtRp3215
(dp3216
g29
g22
(S'0.0625'
tRp3217
sg31
I6912
sg32
I1
sg33
I67
sbasg34
g22
(S'0.6875'
tRp3218
sg36
g22
(S'1.6875'
tRp3219
sbas(g2327
tp3220
(lp3221
g1
(g13
g3
NtRp3222
(dp3223
g16
S'T(0)./mid\\invention13_2.mid'
p3224
sg18
S'C'
sg20
I4096
sg21
g22
(S'0.0625'
tRp3225
sg24
(lp3226
g1
(g26
g3
NtRp3227
(dp3228
g29
g22
(S'0.0625'
tRp3229
sg31
I2816
sg32
I1
sg33
I64
sbasg34
g22
(S'0.6875'
tRp3230
sg36
g22
(S'0.6875'
tRp3231
sbas(g220
tp3232
(lp3233
g613
ag1178
as(g2746
tp3234
(lp3235
g1708
as(g49
tp3236
(lp3237
g1310
as(g1765
tp3238
(lp3239
g193
as(g1971
tp3240
(lp3241
g1255
as(g1279
tp3242
(lp3243
g1857
as(g1212
tp3244
(lp3245
g1144
as(g2022
tp3246
(lp3247
g711
as(g117
tp3248
(lp3249
g328
as(g2888
tp3250
(lp3251
g449
as(g1890
tp3252
(lp3253
g638
as(g1006
tp3254
(lp3255
g182
as(g786
tp3256
(lp3257
g1867
as(g1695
tp3258
(lp3259
g1519
as(g2595
tp3260
(lp3261
g680
ag1
(g13
g3
NtRp3262
(dp3263
g16
S'T(0)./mid\\invention13_2.mid'
p3264
sg18
S'Am'
p3265
sg20
I4096
sg21
g22
(S'0.0625'
tRp3266
sg24
(lp3267
g1
(g26
g3
NtRp3268
(dp3269
g29
g22
(S'0.0625'
tRp3270
sg31
I11008
sg32
I1
sg33
I66
sbasg34
g22
(S'0.6875'
tRp3271
sg36
g22
(S'2.6875'
tRp3272
sbas(g497
tp3273
(lp3274
g996
as(g1582
tp3275
(lp3276
g220
as(g2438
tp3277
(lp3278
g2534
ag1
(g13
g3
NtRp3279
(dp3280
g16
S'T(0)./mid\\invention13_1.mid'
p3281
sg18
S'Am'
p3282
sg20
I4096
sg21
g22
(S'0.0625'
tRp3283
sg24
(lp3284
g1
(g26
g3
NtRp3285
(dp3286
g29
g22
(S'0.0625'
tRp3287
sg31
I4608
sg32
I0
sg33
I69
sbag1
(g26
g3
NtRp3288
(dp3289
g29
g22
(S'0.125'
tRp3290
sg31
I4608
sg32
I1
sg33
I57
sbasg34
g22
(S'0.125'
tRp3291
sg36
g22
(S'1.125'
tRp3292
sbas(g1154
tp3293
(lp3294
g2679
as(g193
tp3295
(lp3296
g1192
as(g1017
tp3297
(lp3298
g2722
as(g1846
tp3299
(lp3300
g2424
as(g1642
tp3301
(lp3302
g923
as(g2150
tp3303
(lp3304
g2899
as(g1617
tp3305
(lp3306
g1628
ag1
(g13
g3
NtRp3307
(dp3308
g16
S'T(0)./mid\\invention13_2.mid'
p3309
sg18
S'Am'
p3310
sg20
I4096
sg21
g22
(S'0.0625'
tRp3311
sg24
(lp3312
g1
(g26
g3
NtRp3313
(dp3314
g29
g22
(S'0.0625'
tRp3315
sg31
I9728
sg32
I0
sg33
I69
sbag1
(g26
g3
NtRp3316
(dp3317
g29
g22
(S'0.125'
tRp3318
sg31
I9728
sg32
I1
sg33
I67
sbasg34
g22
(S'0.375'
tRp3319
sg36
g22
(S'2.375'
tRp3320
sbas(g1670
tp3321
(lp3322
g1642
ag290
as(g1833
tp3323
(lp3324
g2150
as(g449
tp3325
(lp3326
g968
as(g1506
tp3327
(lp3328
g1961
as(g328
tp3329
(lp3330
g1903
as(g1111
tp3331
(lp3332
g2261
as(g1948
tp3333
(lp3334
g2184
as(g955
tp3335
(lp3336
g603
as(g1798
tp3337
(lp3338
g545
as(g589
tp3339
(lp3340
g520
as(g648
tp3341
(lp3342
g1529
as(g59
tp3343
(lp3344
g1948
as(g840
tp3345
(lp3346
g1
(g13
g3
NtRp3347
(dp3348
g16
S'T(0)./mid\\invention13_2.mid'
p3349
sg18
S'C'
sg20
I4096
sg21
g22
(S'0.0625'
tRp3350
sg24
(lp3351
g1
(g26
g3
NtRp3352
(dp3353
g29
g22
(S'0.0625'
tRp3354
sg31
I5376
sg32
I0
sg33
I67
sbasg34
g22
(S'0.3125'
tRp3355
sg36
g22
(S'1.3125'
tRp3356
sbas(g1681
tp3357
(lp3358
g2510
as(g1299
tp3359
(lp3360
g1582
ag1913
as(g691
tp3361
(lp3362
g755
as(g2486
tp3363
(lp3364
g2371
as(g1121
tp3365
(lp3366
g2712
as(g2033
tp3367
(lp3368
g14
as(g2350
tp3369
(lp3370
g82
as(g279
tp3371
(lp3372
g141
as(g1880
tp3373
(lp3374
g2078
as(g2122
tp3375
(lp3376
g1
(g13
g3
NtRp3377
(dp3378
g16
S'T(0)./mid\\invention13_1.mid'
p3379
sg18
S'Am'
p3380
sg20
I4096
sg21
g22
(S'0.0625'
tRp3381
sg24
(lp3382
g1
(g26
g3
NtRp3383
(dp3384
g29
g22
(S'0.0625'
tRp3385
sg31
I4352
sg32
I0
sg33
I64
sbasg34
g22
(S'0.0625'
tRp3386
sg36
g22
(S'1.0625'
tRp3387
sbas(g909
tp3388
(lp3389
g806
as(S'start_token'
p3390
tp3391
(lp3392
g2976
ag765
ag2976
ag1656
ag2976
ag2620
ag2976
ag1242
ag2976
ag2633
ag2976
ag2008
ag2976
ag1403
ag2976
ag659
ag2976
ag1323
ag2976
ag2878
as(g2712
tp3393
(lp3394
g1695
as(g613
tp3395
(lp3396
g1
(g13
g3
NtRp3397
(dp3398
g16
S'T(0)./mid\\invention13_1.mid'
p3399
sg18
S'Am'
p3400
sg20
I4096
sg21
g22
(S'0.0625'
tRp3401
sg24
(lp3402
g1
(g26
g3
NtRp3403
(dp3404
g29
g22
(S'0.0625'
tRp3405
sg31
I1792
sg32
I0
sg33
I74
sbasg34
g22
(S'0.4375'
tRp3406
sg36
g22
(S'0.4375'
tRp3407
sbas(g1708
tp3408
(lp3409
g1606
as(g510
tp3410
(lp3411
g1424
ag2486
ag840
as(g2231
tp3412
(lp3413
g474
as(g659
tp3414
(lp3415
g2609
as(g1593
tp3416
(lp3417
g2808
as(g389
tp3418
(lp3419
g1154
as(g1414
tp3420
(lp3421
g413
as(g2757
tp3422
(lp3423
g2854
as(g2843
tp3424
(lp3425
g2818
as(g127
tp3426
(lp3427
g2173
ag1
(g13
g3
NtRp3428
(dp3429
g16
S'T(0)./mid\\invention13_2.mid'
p3430
sg18
S'Am'
p3431
sg20
I4096
sg21
g22
(S'0.0625'
tRp3432
sg24
(lp3433
g1
(g26
g3
NtRp3434
(dp3435
g29
g22
(S'0.0625'
tRp3436
sg31
I8960
sg32
I0
sg33
I81
sbasg34
g22
(S'0.1875'
tRp3437
sg36
g22
(S'2.1875'
tRp3438
sbas(g520
tp3439
(lp3440
g206
as(g1333
tp3441
(lp3442
g531
ag1
(g13
g3
NtRp3443
(dp3444
g16
S'T(0)./mid\\invention13_2.mid'
p3445
sg18
S'Am'
p3446
sg20
I4096
sg21
g22
(S'0.0625'
tRp3447
sg24
(lp3448
g1
(g26
g3
NtRp3449
(dp3450
g29
g22
(S'0.0625'
tRp3451
sg31
I10240
sg32
I1
sg33
I66
sbag1
(g26
g3
NtRp3452
(dp3453
g29
g22
(S'0.125'
tRp3454
sg31
I10240
sg32
I0
sg33
I74
sbasg34
g22
(S'0.5'
tRp3455
sg36
g22
(S'2.5'
tRp3456
sbas(g735
tp3457
(lp3458
g497
as(g745
tp3459
(lp3460
g722
as(g2098
tp3461
(lp3462
g2299
as(g1519
tp3463
(lp3464
g1052
as(g1027
tp3465
(lp3466
g589
as(g884
tp3467
(lp3468
g1617
ag1
(g13
g3
NtRp3469
(dp3470
g16
S'T(0)./mid\\invention13_2.mid'
p3471
sg18
S'Am'
p3472
sg20
I4096
sg21
g22
(S'0.0625'
tRp3473
sg24
(lp3474
g1
(g26
g3
NtRp3475
(dp3476
g29
g22
(S'0.0625'
tRp3477
sg31
I9472
sg32
I0
sg33
I76
sbasg34
g22
(S'0.3125'
tRp3478
sg36
g22
(S'2.3125'
tRp3479
sbas(g850
tp3480
(lp3481
g1279
as(g860
tp3482
(lp3483
g1755
as(g1529
tp3484
(lp3485
g1447
as(g1134
tp3486
(lp3487
g1232
as(g1458
tp3488
(lp3489
g510
as(g1775
tp3490
(lp3491
g487
as(g968
tp3492
(lp3493
g1027
as(g2136
tp3494
(lp3495
g1382
as(g172
tp3496
(lp3497
g1
(g13
g3
NtRp3498
(dp3499
g16
S'T(0)./mid\\invention13_2.mid'
p3500
sg18
S'Am'
p3501
sg20
I4096
sg21
g22
(S'0.0625'
tRp3502
sg24
(lp3503
g1
(g26
g3
NtRp3504
(dp3505
g29
g22
(S'0.0625'
tRp3506
sg31
I8192
sg32
I0
sg33
I84
sbag1
(g26
g3
NtRp3507
(dp3508
g29
g22
(S'0.125'
tRp3509
sg31
I8192
sg32
I1
sg33
I57
sbasg34
g22
(S'0'
tRp3510
sg36
g22
(S'2'
tRp3511
sbas(g1788
tp3512
(lp3513
g379
as(g152
tp3514
(lp3515
g1222
as(g796
tp3516
(lp3517
g1543
as(g2609
tp3518
(lp3519
g2794
as(g354
tp3520
(lp3521
g314
as(g1982
tp3522
(lp3523
g426
as(g2271
tp3524
(lp3525
g2832
as(g256
tp3526
(lp3527
g735
as(g2899
tp3528
(lp3529
g2658
as(g1722
tp3530
(lp3531
g2064
as(g182
tp3532
(lp3533
g898
as(g1164
tp3534
(lp3535
g2912
as(g1038
tp3536
(lp3537
g2350
as(g2220
tp3538
(lp3539
g2668
as(g2770
tp3540
(lp3541
g1212
as(g579
tp3542
(lp3543
g1101
as(g69
tp3544
(lp3545
g172
as(g1065
tp3546
(lp3547
g2285
ag1
(g13
g3
NtRp3548
(dp3549
g16
S'T(0)./mid\\invention13_2.mid'
p3550
sg18
S'Am'
p3551
sg20
I4096
sg21
g22
(S'0.0625'
tRp3552
sg24
(lp3553
g1
(g26
g3
NtRp3554
(dp3555
g29
g22
(S'0.0625'
tRp3556
sg31
I11776
sg32
I1
sg33
I54
sbag1
(g26
g3
NtRp3557
(dp3558
g29
g22
(S'0.125'
tRp3559
sg31
I11776
sg32
I0
sg33
I84
sbasg34
g22
(S'0.875'
tRp3560
sg36
g22
(S'2.875'
tRp3561
sbas(g1289
tp3562
(lp3563
g1823
as(g1543
tp3564
(lp3565
g2054
as(g2499
tp3566
(lp3567
g870
as(g1995
tp3568
(lp3569
g59
as(g982
tp3570
(lp3571
g775
as(g2647
tp3572
(lp3573
g2271
as(g870
tp3574
(lp3575
g2402
as(g531
tp3576
(lp3577
g2413
ag1
(g13
g3
NtRp3578
(dp3579
g16
S'T(0)./mid\\invention13_2.mid'
p3580
sg18
S'Am'
p3581
sg20
I4096
sg21
g22
(S'0.0625'
tRp3582
sg24
(lp3583
g1
(g26
g3
NtRp3584
(dp3585
g29
g22
(S'0.0625'
tRp3586
sg31
I10496
sg32
I1
sg33
I69
sbasg34
g22
(S'0.5625'
tRp3587
sg36
g22
(S'2.5625'
tRp3588
sbas(g2299
tp3589
(lp3590
g1971
as(g806
tp3591
(lp3592
g2122
ag2702
as(g1628
tp3593
(lp3594
g1333
ag1
(g13
g3
NtRp3595
(dp3596
g16
S'T(0)./mid\\invention13_2.mid'
p3597
sg18
S'Am'
p3598
sg20
I4096
sg21
g22
(S'0.0625'
tRp3599
sg24
(lp3600
g1
(g26
g3
NtRp3601
(dp3602
g29
g22
(S'0.0625'
tRp3603
sg31
I9984
sg32
I0
sg33
I72
sbasg34
g22
(S'0.4375'
tRp3604
sg36
g22
(S'2.4375'
tRp3605
sbas(g402
tp3606
(lp3607
g2976
ag2136
as(g1232
tp3608
(lp3609
g1017
as(g670
tp3610
(lp3611
g1880
as(g14
tp3612
(lp3613
g1812
as(g2912
tp3614
(lp3615
g1798
as(g2285
tp3616
(lp3617
g402
ag1
(g13
g3
NtRp3618
(dp3619
g16
S'T(0)./mid\\invention13_2.mid'
p3620
sg18
S'Am'
p3621
sg20
I4096
sg21
g22
(S'0.0625'
tRp3622
sg24
(lp3623
g1
(g26
g3
NtRp3624
(dp3625
g29
g22
(S'0.0625'
tRp3626
sg31
I12032
sg32
I1
sg33
I57
sbasg34
g22
(S'0.9375'
tRp3627
sg36
g22
(S'2.9375'
tRp3628
sbas(g231
tp3629
(lp3630
g934
as(g2854
tp3631
(lp3632
g1890
as(g1733
tp3633
(lp3634
g365
as(g1358
tp3635
(lp3636
g1937
as(g1606
tp3637
(lp3638
g2976
as(g2561
tp3639
(lp3640
g2160
as(g1812
tp3641
(lp3642
g2976
as(g722
tp3643
(lp3644
g786
as(g1222
tp3645
(lp3646
g1121
as(g2633
tp3647
(lp3648
g2584
ag1
(g13
g3
NtRp3649
(dp3650
g16
S'T(0)./mid\\invention13_2.mid'
p3651
sg18
S'Am'
p3652
sg20
I4096
sg21
g22
(S'0.0625'
tRp3653
sg24
(lp3654
g1
(g26
g3
NtRp3655
(dp3656
g29
g22
(S'0.0625'
tRp3657
sg31
I8448
sg32
I0
sg33
I81
sbasg34
g22
(S'0.0625'
tRp3658
sg36
g22
(S'2.0625'
tRp3659
sbas(g2783
tp3660
(lp3661
g38
as(g82
tp3662
(lp3663
g2098
as(g2261
tp3664
(lp3665
g2976
as(g2194
tp3666
(lp3667
g1
(g13
g3
NtRp3668
(dp3669
g16
S'T(0)./mid\\invention13_2.mid'
p3670
sg18
S'C'
sg20
I4096
sg21
g22
(S'0.0625'
tRp3671
sg24
(lp3672
g1
(g26
g3
NtRp3673
(dp3674
g29
g22
(S'0.0625'
tRp3675
sg31
I4352
sg32
I0
sg33
I67
sbasg34
g22
(S'0.0625'
tRp3676
sg36
g22
(S'1.0625'
tRp3677
sbas(g2668
tp3678
(lp3679
g1744
as(g460
tp3680
(lp3681
g1065
ag1
(g13
g3
NtRp3682
(dp3683
g16
S'T(0)./mid\\invention13_2.mid'
p3684
sg18
S'Am'
p3685
sg20
I4096
sg21
g22
(S'0.0625'
tRp3686
sg24
(lp3687
g1
(g26
g3
NtRp3688
(dp3689
g29
g22
(S'0.0625'
tRp3690
sg31
I11520
sg32
I1
sg33
I62
sbasg34
g22
(S'0.8125'
tRp3691
sg36
g22
(S'2.8125'
tRp3692
sbas(g2864
tp3693
(lp3694
g2220
as(g206
tp3695
(lp3696
g1090
as(g2510
tp3697
(lp3698
g2976
as(g2340
tp3699
(lp3700
g1434
as(g898
tp3701
(lp3702
g2976
as(g2449
tp3703
(lp3704
g648
as(g1903
tp3705
(lp3706
g1775
as(g2832
tp3707
(lp3708
g2864
as(g2184
tp3709
(lp3710
g2194
as(g2722
tp3711
(lp3712
g2340
as(g545
tp3713
(lp3714
g1681
as(g38
tp3715
(lp3716
g701
as(g701
tp3717
(lp3718
g745
as(g923
tp3719
(lp3720
g231
ag245
as(g365
tp3721
(lp3722
g1722
as(g413
tp3723
(lp3724
g1556
as(g1242
tp3725
(lp3726
g1927
as(g680
tp3727
(lp3728
g460
ag1
(g13
g3
NtRp3729
(dp3730
g16
S'T(0)./mid\\invention13_2.mid'
p3731
sg18
S'Am'
p3732
sg20
I4096
sg21
g22
(S'0.0625'
tRp3733
sg24
(lp3734
g1
(g26
g3
NtRp3735
(dp3736
g29
g22
(S'0.0625'
tRp3737
sg31
I11264
sg32
I1
sg33
I57
sbag1
(g26
g3
NtRp3738
(dp3739
g29
g22
(S'0.125'
tRp3740
sg31
I11264
sg32
I0
sg33
I81
sbasg34
g22
(S'0.75'
tRp3741
sg36
g22
(S'2.75'
tRp3742
sbas(g1471
tp3743
(lp3744
g1
(g13
g3
NtRp3745
(dp3746
g16
S'T(0)./mid\\invention13_1.mid'
p3747
sg18
S'Am'
p3748
sg20
I4096
sg21
g22
(S'0.0625'
tRp3749
sg24
(lp3750
g1
(g26
g3
NtRp3751
(dp3752
g29
g22
(S'0.0625'
tRp3753
sg31
I7936
sg32
I1
sg33
I62
sbasg34
g22
(S'0.9375'
tRp3754
sg36
g22
(S'1.9375'
tRp3755
sbas(g2463
tp3756
(lp3757
g69
as(g304
tp3758
(lp3759
g49
as(g1090
tp3760
(lp3761
g982
as(g2620
tp3762
(lp3763
g796
as(g269
tp3764
(lp3765
g2976
as(g1178
tp3766
(lp3767
g1
(g13
g3
NtRp3768
(dp3769
g16
S'T(0)./mid\\invention13_1.mid'
p3770
sg18
S'Am'
p3771
sg20
I4096
sg21
g22
(S'0.0625'
tRp3772
sg24
(lp3773
g1
(g26
g3
NtRp3774
(dp3775
g29
g22
(S'0.0625'
tRp3776
sg31
I5888
sg32
I0
sg33
I74
sbasg34
g22
(S'0.4375'
tRp3777
sg36
g22
(S'1.4375'
tRp3778
sbas(g817
tp3779
(lp3780
g1
(g13
g3
NtRp3781
(dp3782
g16
S'T(0)./mid\\invention13_2.mid'
p3783
sg18
S'C'
sg20
I4096
sg21
g22
(S'0.0625'
tRp3784
sg24
(lp3785
g1
(g26
g3
NtRp3786
(dp3787
g29
g22
(S'0.0625'
tRp3788
sg31
I768
sg32
I0
sg33
I76
sbasg34
g22
(S'0.1875'
tRp3789
sg36
g22
(S'0.1875'
tRp3790
sbag1
(g13
g3
NtRp3791
(dp3792
g16
S'T(0)./mid\\invention13_2.mid'
p3793
sg18
S'C'
sg20
I4096
sg21
g22
(S'0.0625'
tRp3794
sg24
(lp3795
g1
(g26
g3
NtRp3796
(dp3797
g29
g22
(S'0.0625'
tRp3798
sg31
I4864
sg32
I0
sg33
I76
sbasg34
g22
(S'0.1875'
tRp3799
sg36
g22
(S'1.1875'
tRp3800
sbas(g1744
tp3801
(lp3802
g2022
as(g1569
tp3803
(lp3804
g2923
as(g2571
tp3805
(lp3806
g107
as(g2109
tp3807
(lp3808
g2692
as(g1424
tp3809
(lp3810
g2044
as(g2391
tp3811
(lp3812
g1358
as(g341
tp3813
(lp3814
g2381
as(g1052
tp3815
(lp3816
g1134
as(g1961
tp3817
(lp3818
g256
as(g2241
tp3819
(lp3820
g817
ag1
(g13
g3
NtRp3821
(dp3822
g16
S'T(0)./mid\\invention13_2.mid'
p3823
sg18
S'C'
sg20
I4096
sg21
g22
(S'0.0625'
tRp3824
sg24
(lp3825
g1
(g26
g3
NtRp3826
(dp3827
g29
g22
(S'0.0625'
tRp3828
sg31
I4608
sg32
I0
sg33
I72
sbag1
(g26
g3
NtRp3829
(dp3830
g29
g22
(S'0.125'
tRp3831
sg31
I4608
sg32
I1
sg33
I60
sbasg34
g22
(S'0.125'
tRp3832
sg36
g22
(S'1.125'
tRp3833
sbas(g755
tp3834
(lp3835
g1289
ag2207
as(g2251
tp3836
(lp3837
g2757
as(g765
tp3838
(lp3839
g117
as(g603
tp3840
(lp3841
g152
as(g474
tp3842
(lp3843
g162
as(g1076
tp3844
(lp3845
g2499
ag1670
ag1
(g13
g3
NtRp3846
(dp3847
g16
S'T(0)./mid\\invention13_1.mid'
p3848
sg18
S'Am'
p3849
sg20
I4096
sg21
g22
(S'0.0625'
tRp3850
sg24
(lp3851
g1
(g26
g3
NtRp3852
(dp3853
g29
g22
(S'0.0625'
tRp3854
sg31
I6400
sg32
I1
sg33
I52
sbasg34
g22
(S'0.5625'
tRp3855
sg36
g22
(S'1.5625'
tRp3856
sbas(g1556
tp3857
(lp3858
g556
as(g2521
tp3859
(lp3860
g2231
as(g1755
tp3861
(lp3862
g1372
as(g2054
tp3863
(lp3864
g1833
as(g1382
tp3865
(lp3866
g2449
as(g996
tp3867
(lp3868
g2571
as(g1913
tp3869
(lp3870
g1
(g13
g3
NtRp3871
(dp3872
g16
S'T(0)./mid\\invention13_1.mid'
p3873
sg18
S'Am'
p3874
sg20
I4096
sg21
g22
(S'0.0625'
tRp3875
sg24
(lp3876
g1
(g26
g3
NtRp3877
(dp3878
g29
g22
(S'0.0625'
tRp3879
sg31
I5376
sg32
I0
sg33
I64
sbasg34
g22
(S'0.3125'
tRp3880
sg36
g22
(S'1.3125'
tRp3881
sbas(g2794
tp3882
(lp3883
g1846
as(g2160
tp3884
(lp3885
g945
as(g934
tp3886
(lp3887
g909
ag1471
as(g1344
tp3888
(lp3889
g1006
as(g2044
tp3890
(lp3891
g1788
as(g1255
tp3892
(lp3893
g2746
as(g2064
tp3894
(lp3895
g96
as(g1482
tp3896
(lp3897
g2473
ag1995
as(g556
tp3898
(lp3899
g2976
as(g314
tp3900
(lp3901
g627
assS'state_chains'
p3902
(lp3903
(lp3904
a(lp3905
a(lp3906
g765
ag117
ag328
ag1903
ag1775
ag487
ag2548
ag1269
ag2770
ag1212
ag1144
ag579
ag1101
ag670
ag1880
ag2078
ag2888
ag449
ag968
ag1027
ag589
ag520
ag206
ag1090
ag982
ag775
ag2735
ag279
ag141
ag2033
ag14
ag1812
aa(lp3907
a(lp3908
g1656
ag2391
ag1358
ag1937
ag2313
ag2843
ag2818
ag354
ag314
ag627
ag1164
ag2912
ag1798
ag545
ag1681
ag2510
aa(lp3909
a(lp3910
g2620
ag796
ag1543
ag2054
ag1833
ag2150
ag2899
ag2658
ag341
ag2381
ag1593
ag2808
ag2521
ag2231
ag474
ag162
aa(lp3911
a(lp3912
g1242
ag1927
ag1458
ag510
ag1424
ag2044
ag1788
ag379
ag304
ag49
ag1310
ag1482
ag2473
ag1414
ag413
ag1556
ag556
aa(lp3913
a(lp3914
g2633
ag2584
ag127
ag2173
ag884
ag1617
ag1628
ag1333
ag531
ag2413
ag2595
ag680
ag460
ag1065
ag2285
ag402
aa(lp3915
a(lp3916
g2008
ag2933
ag1492
ag1733
ag365
ag1722
ag2064
ag96
ag1076
ag2499
ag870
ag2402
ag1344
ag1006
ag182
ag898
aa(lp3917
a(lp3918
g1403
ag2438
ag2534
ag1299
ag1582
ag220
ag613
ag3397
ag3058
ag1670
ag1642
ag923
ag231
ag934
ag909
ag806
ag2122
ag3377
ag3279
ag3011
ag1913
ag3871
ag1178
ag3768
ag3072
ag3846
ag290
ag3128
ag245
ag3157
ag1471
ag3745
ag2702
ag2088
ag566
ag1765
ag193
ag1192
ag1506
ag1961
ag256
ag735
ag497
ag996
ag2571
ag107
ag955
ag603
ag152
ag1222
ag1121
ag2712
ag1695
ag1519
ag1052
ag1134
ag1232
ag1017
ag2722
ag2340
ag1434
ag2561
ag2160
ag945
aa(lp3919
a(lp3920
g659
ag2609
ag2794
ag1846
ag2424
ag2647
ag2271
ag2832
ag2864
ag2220
ag2668
ag1744
ag2022
ag711
ag2783
ag38
ag701
ag745
ag722
ag786
ag1867
ag830
ag389
ag1154
ag2679
ag1202
ag691
ag755
ag1289
ag1823
ag1111
ag2261
aa(lp3921
a(lp3922
g1323
ag2241
ag817
ag3781
ag2486
ag2371
ag2109
ag2692
ag1569
ag2923
ag2327
ag3222
ag1995
ag59
ag1948
ag2184
ag2194
ag3668
ag3821
ag3791
ag840
ag3347
ag439
ag3192
ag1393
ag3026
ag2944
ag3210
ag2207
ag2463
ag69
ag172
ag3498
ag3649
ag2989
ag3428
ag3042
ag3469
ag3307
ag3595
ag3443
ag3578
ag3172
ag3262
ag3729
ag3682
ag3548
ag3618
ag2136
ag1382
ag2449
ag648
ag1529
ag1447
ag1038
ag2350
ag82
ag2098
ag2299
ag1971
ag1255
ag2746
ag1708
ag1606
aa(lp3923
a(lp3924
g2878
ag860
ag1755
ag1372
ag2361
ag850
ag1279
ag1857
ag2251
ag2757
ag2854
ag1890
ag638
ag1982
ag426
ag269
aasS'chain_length'
p3925
I1
sbsS'rev_mm'
p3926
g1
(g7
g3
NtRp3927
(dp3928
g10
g11
((lp3929
g14
ag38
ag49
ag59
ag69
ag1708
ag96
ag107
ag127
ag2473
ag141
ag1403
ag172
ag182
ag193
ag206
ag3871
ag231
ag245
ag256
ag269
ag279
ag290
ag304
ag314
ag328
ag341
ag354
ag365
ag379
ag389
ag82
ag402
ag413
ag426
ag439
ag449
ag460
ag474
ag487
ag497
ag510
ag520
ag531
ag545
ag556
ag566
ag579
ag589
ag603
ag613
ag627
ag638
ag648
ag659
ag670
ag680
ag691
ag701
ag711
ag722
ag735
ag2261
ag765
ag775
ag786
ag796
ag3745
ag3821
ag830
ag840
ag850
ag860
ag870
ag884
ag898
ag909
ag3128
ag3157
ag945
ag955
ag968
ag982
ag996
ag1006
ag1017
ag1027
ag1038
ag1052
ag1065
ag2064
ag1090
ag1101
ag1111
ag1121
ag1134
ag1144
ag1154
ag1164
ag1178
ag1192
ag1202
ag1212
ag1222
ag1232
ag1242
ag1255
ag1269
ag1279
ag1289
ag3011
ag1310
ag1323
ag1333
ag1344
ag1358
ag1372
ag162
ag1393
ag152
ag1414
ag1424
ag1434
ag1447
ag1458
ag1471
ag1482
ag1492
ag1506
ag1519
ag1529
ag1543
ag1556
ag1569
ag1582
ag1593
ag1606
ag2413
ag1628
ag1642
ag1656
ag3846
ag1681
ag1695
ag1857
ag1722
ag1733
ag1744
ag1755
ag1765
ag2251
ag1775
ag1788
ag1617
ag1798
ag1812
ag1823
ag1833
ag1846
ag1867
ag1880
ag1903
ag1913
ag1927
ag1937
ag1948
ag1961
ag1971
ag2783
ag1982
ag1995
ag2008
ag2022
ag2033
ag2044
ag2054
ag1076
ag2078
ag2088
ag2098
ag2109
ag2122
ag2136
ag2150
ag2160
ag2173
ag2184
ag2194
ag2207
ag2220
ag2231
ag3668
ag1890
ag117
ag2271
ag2285
ag2299
ag2313
ag2327
ag2340
ag2350
ag2361
ag3347
ag2381
ag2391
ag2402
ag2818
ag2424
ag2899
ag2449
ag2463
ag1382
ag2486
ag2499
ag2510
ag2521
ag3279
ag2548
ag755
ag2561
ag2571
ag2584
ag2595
ag2609
ag2620
ag2633
ag2647
ag2658
ag2668
ag2679
ag3192
ag2702
ag2712
ag2722
ag2735
ag2746
ag2757
ag2770
ag745
ag2794
ag2808
ag2832
ag2843
ag2854
ag2864
ag2878
ag2888
ag3377
ag2912
ag2923
ag2933
ag2944
atRp3930
sg2958
(dp3931
(g2923
tp3932
(lp3933
g1569
as(g69
tp3934
(lp3935
g2463
as(g1867
tp3936
(lp3937
g786
as(g141
tp3938
(lp3939
g279
as(g830
tp3940
(lp3941
g1867
as(g1447
tp3942
(lp3943
g1529
as(g1372
tp3944
(lp3945
g1755
as(g1192
tp3946
(lp3947
g193
as(g162
tp3948
(lp3949
g474
as(g1434
tp3950
(lp3951
g2340
as(g2402
tp3952
(lp3953
g870
as(g1065
tp3954
(lp3955
g460
ag3729
as(g3192
tp3956
(lp3957
g439
ag2109
as(g775
tp3958
(lp3959
g982
as(g2584
tp3960
(lp3961
g2633
ag3498
as(g487
tp3962
(lp3963
g1775
as(g1310
tp3964
(lp3965
g49
as(g638
tp3966
(lp3967
g1890
as(g3279
tp3968
(lp3969
g3377
ag2438
as(g1857
tp3970
(lp3971
g1279
as(g1393
tp3972
(lp3973
g3192
as(g1927
tp3974
(lp3975
g1242
as(g2361
tp3976
(lp3977
g1372
as(g2173
tp3978
(lp3979
g127
ag2989
as(g96
tp3980
(lp3981
g2064
ag1178
ag613
as(g2679
tp3982
(lp3983
g1154
as(g711
tp3984
(lp3985
g2022
as(g1656
tp3986
(lp3987
g2976
as(g2548
tp3988
(lp3989
g487
as(g426
tp3990
(lp3991
g1982
as(g1269
tp3992
(lp3993
g2548
as(g2078
tp3994
(lp3995
g1880
as(g1937
tp3996
(lp3997
g1358
as(g2933
tp3998
(lp3999
g2008
as(g2313
tp4000
(lp4001
g1937
as(g945
tp4002
(lp4003
g2160
as(g1144
tp4004
(lp4005
g1212
as(g2207
tp4006
(lp4007
g3210
as(g1492
tp4008
(lp4009
g2933
as(g2878
tp4010
(lp4011
g2976
as(g1202
tp4012
(lp4013
g2679
ag1393
as(g2008
tp4014
(lp4015
g2976
as(g379
tp4016
(lp4017
g1788
as(g2818
tp4018
(lp4019
g2843
as(g2473
tp4020
(lp4021
g1482
as(g290
tp4022
(lp4023
g3846
as(g1823
tp4024
(lp4025
g1289
as(g2702
tp4026
(lp4027
g3745
as(g2340
tp4028
(lp4029
g2722
as(g2808
tp4030
(lp4031
g1593
as(g1323
tp4032
(lp4033
g2976
as(g2424
tp4034
(lp4035
g1846
as(g627
tp4036
(lp4037
g314
as(g1403
tp4038
(lp4039
g2976
as(g3347
tp4040
(lp4041
g840
ag2486
as(g245
tp4042
(lp4043
g3128
as(g2735
tp4044
(lp4045
g775
as(g1617
tp4046
(lp4047
g884
ag3042
as(g107
tp4048
(lp4049
g2571
as(g566
tp4050
(lp4051
g2088
as(g439
tp4052
(lp4053
g3347
as(g2088
tp4054
(lp4055
g2702
as(g2381
tp4056
(lp4057
g341
as(g1101
tp4058
(lp4059
g579
as(g2944
tp4060
(lp4061
g3026
as(g2327
tp4062
(lp4063
g2923
as(g3871
tp4064
(lp4065
g1913
ag1582
as(g2746
tp4066
(lp4067
g1255
as(g49
tp4068
(lp4069
g304
as(g1765
tp4070
(lp4071
g566
as(g1971
tp4072
(lp4073
g2299
as(g1279
tp4074
(lp4075
g850
as(g1212
tp4076
(lp4077
g2770
as(g2022
tp4078
(lp4079
g1744
as(g117
tp4080
(lp4081
g765
as(g2888
tp4082
(lp4083
g2078
as(g1890
tp4084
(lp4085
g2854
as(g1006
tp4086
(lp4087
g1344
as(g786
tp4088
(lp4089
g722
as(g1695
tp4090
(lp4091
g2712
as(g2595
tp4092
(lp4093
g2413
ag3578
as(g497
tp4094
(lp4095
g735
as(g1582
tp4096
(lp4097
g1299
as(g3377
tp4098
(lp4099
g2122
ag1403
as(g1154
tp4100
(lp4101
g389
as(g193
tp4102
(lp4103
g1765
as(g1017
tp4104
(lp4105
g1232
as(g1846
tp4106
(lp4107
g2794
as(g1642
tp4108
(lp4109
g1670
as(g2150
tp4110
(lp4111
g1833
as(g2413
tp4112
(lp4113
g531
ag3443
as(g3846
tp4114
(lp4115
g3072
ag3058
as(g1458
tp4116
(lp4117
g1927
as(g449
tp4118
(lp4119
g2888
as(g1506
tp4120
(lp4121
g1192
as(g328
tp4122
(lp4123
g117
as(g1111
tp4124
(lp4125
g1823
as(g1948
tp4126
(lp4127
g59
as(g955
tp4128
(lp4129
g107
as(g1798
tp4130
(lp4131
g2912
as(g589
tp4132
(lp4133
g1027
as(g648
tp4134
(lp4135
g2449
as(g59
tp4136
(lp4137
g1995
as(g840
tp4138
(lp4139
g3791
as(g1681
tp4140
(lp4141
g545
as(g3011
tp4142
(lp4143
g3279
ag2534
as(g691
tp4144
(lp4145
g1202
as(g2486
tp4146
(lp4147
g3781
as(g1121
tp4148
(lp4149
g1222
as(g2033
tp4150
(lp4151
g141
as(g2350
tp4152
(lp4153
g1038
as(g279
tp4154
(lp4155
g2735
as(g1880
tp4156
(lp4157
g670
as(g2122
tp4158
(lp4159
g806
as(g909
tp4160
(lp4161
g934
as(g3390
tp4162
(lp4163
g2976
ag1812
ag2976
ag2510
ag2976
ag162
ag2976
ag556
ag2976
ag402
ag2976
ag898
ag2976
ag945
ag2976
ag2261
ag2976
ag1606
ag2976
ag269
as(g2712
tp4164
(lp4165
g1121
as(g613
tp4166
(lp4167
g220
as(g14
tp4168
(lp4169
g2033
as(g510
tp4170
(lp4171
g1458
ag3821
ag817
as(g2231
tp4172
(lp4173
g2521
as(g659
tp4174
(lp4175
g2976
as(g1593
tp4176
(lp4177
g2381
as(g389
tp4178
(lp4179
g830
as(g1414
tp4180
(lp4181
g2473
as(g2843
tp4182
(lp4183
g2313
as(g127
tp4184
(lp4185
g2584
ag3649
as(g520
tp4186
(lp4187
g589
as(g1333
tp4188
(lp4189
g1628
ag3307
as(g735
tp4190
(lp4191
g256
as(g745
tp4192
(lp4193
g701
as(g2098
tp4194
(lp4195
g82
as(g1519
tp4196
(lp4197
g1695
as(g1027
tp4198
(lp4199
g968
as(g884
tp4200
(lp4201
g2173
ag3428
as(g850
tp4202
(lp4203
g2361
as(g860
tp4204
(lp4205
g2878
as(g1529
tp4206
(lp4207
g648
as(g1134
tp4208
(lp4209
g1052
as(g2620
tp4210
(lp4211
g2976
as(g968
tp4212
(lp4213
g449
as(g2136
tp4214
(lp4215
g3618
as(g172
tp4216
(lp4217
g69
as(g1788
tp4218
(lp4219
g2044
as(g152
tp4220
(lp4221
g603
as(g796
tp4222
(lp4223
g2620
as(g2609
tp4224
(lp4225
g659
as(g354
tp4226
(lp4227
g2818
as(g1982
tp4228
(lp4229
g638
as(g2271
tp4230
(lp4231
g2647
as(g256
tp4232
(lp4233
g1961
as(g2899
tp4234
(lp4235
g2150
as(g1722
tp4236
(lp4237
g365
as(g182
tp4238
(lp4239
g1006
as(g1164
tp4240
(lp4241
g627
as(g1038
tp4242
(lp4243
g1447
as(g2220
tp4244
(lp4245
g2864
as(g2770
tp4246
(lp4247
g1269
as(g579
tp4248
(lp4249
g1144
as(g1995
tp4250
(lp4251
g3222
as(g2658
tp4252
(lp4253
g2899
as(g1289
tp4254
(lp4255
g755
as(g1543
tp4256
(lp4257
g796
as(g2499
tp4258
(lp4259
g1076
as(g1775
tp4260
(lp4261
g1903
as(g982
tp4262
(lp4263
g1090
as(g2647
tp4264
(lp4265
g2424
as(g870
tp4266
(lp4267
g2499
as(g531
tp4268
(lp4269
g1333
ag3595
as(g2299
tp4270
(lp4271
g2098
as(g3745
tp4272
(lp4273
g1471
ag909
as(g1628
tp4274
(lp4275
g1617
ag3469
as(g402
tp4276
(lp4277
g2285
ag3548
as(g1232
tp4278
(lp4279
g1134
as(g670
tp4280
(lp4281
g1101
as(g1708
tp4282
(lp4283
g2746
as(g2912
tp4284
(lp4285
g1164
as(g2285
tp4286
(lp4287
g1065
ag3682
as(g2854
tp4288
(lp4289
g2757
as(g1222
tp4290
(lp4291
g152
as(g1733
tp4292
(lp4293
g1492
as(g1358
tp4294
(lp4295
g2391
as(g1606
tp4296
(lp4297
g1708
as(g2561
tp4298
(lp4299
g1434
as(g1812
tp4300
(lp4301
g14
as(g722
tp4302
(lp4303
g745
as(g231
tp4304
(lp4305
g923
as(g2633
tp4306
(lp4307
g2976
ag172
as(g2783
tp4308
(lp4309
g711
as(g82
tp4310
(lp4311
g2350
as(g2194
tp4312
(lp4313
g2184
as(g2757
tp4314
(lp4315
g2251
as(g2668
tp4316
(lp4317
g2220
as(g460
tp4318
(lp4319
g680
ag3262
as(g2864
tp4320
(lp4321
g2832
as(g206
tp4322
(lp4323
g520
as(g2510
tp4324
(lp4325
g1681
as(g2261
tp4326
(lp4327
g1111
as(g898
tp4328
(lp4329
g182
as(g2449
tp4330
(lp4331
g1382
as(g1903
tp4332
(lp4333
g328
as(g2832
tp4334
(lp4335
g2271
as(g2184
tp4336
(lp4337
g1948
as(g2722
tp4338
(lp4339
g1017
as(g545
tp4340
(lp4341
g1798
as(g38
tp4342
(lp4343
g2783
as(g701
tp4344
(lp4345
g38
as(g3128
tp4346
(lp4347
g290
ag1642
as(g365
tp4348
(lp4349
g1733
as(g413
tp4350
(lp4351
g1414
as(g1242
tp4352
(lp4353
g2976
as(g680
tp4354
(lp4355
g2595
ag3172
as(g1471
tp4356
(lp4357
g3157
as(g2463
tp4358
(lp4359
g2207
as(g304
tp4360
(lp4361
g379
as(g1090
tp4362
(lp4363
g206
as(g1833
tp4364
(lp4365
g2054
as(g269
tp4366
(lp4367
g426
as(g1178
tp4368
(lp4369
g3871
as(g3821
tp4370
(lp4371
g3668
ag2241
as(g1744
tp4372
(lp4373
g2668
as(g1569
tp4374
(lp4375
g2692
as(g2571
tp4376
(lp4377
g996
as(g2109
tp4378
(lp4379
g2371
as(g1424
tp4380
(lp4381
g510
as(g2391
tp4382
(lp4383
g1656
as(g341
tp4384
(lp4385
g2658
as(g1052
tp4386
(lp4387
g1519
as(g1961
tp4388
(lp4389
g1506
as(g3668
tp4390
(lp4391
g2194
ag1323
as(g755
tp4392
(lp4393
g691
ag2944
as(g2251
tp4394
(lp4395
g1857
as(g765
tp4396
(lp4397
g2976
as(g603
tp4398
(lp4399
g955
as(g474
tp4400
(lp4401
g2231
as(g2064
tp4402
(lp4403
g1722
as(g1556
tp4404
(lp4405
g413
as(g2521
tp4406
(lp4407
g2808
as(g1755
tp4408
(lp4409
g860
as(g2054
tp4410
(lp4411
g1543
as(g1382
tp4412
(lp4413
g2136
as(g996
tp4414
(lp4415
g497
as(g1913
tp4416
(lp4417
g3011
as(g2794
tp4418
(lp4419
g2609
as(g2160
tp4420
(lp4421
g2561
as(g3157
tp4422
(lp4423
g245
ag231
as(g1344
tp4424
(lp4425
g2402
as(g2044
tp4426
(lp4427
g1424
as(g1255
tp4428
(lp4429
g1971
as(g1076
tp4430
(lp4431
g96
ag3768
ag3397
as(g1482
tp4432
(lp4433
g1310
ag2327
as(g556
tp4434
(lp4435
g1556
as(g314
tp4436
(lp4437
g354
assg3902
(lp4438
(lp4439
a(lp4440
a(lp4441
g1812
ag14
ag2033
ag141
ag279
ag2735
ag775
ag982
ag1090
ag206
ag520
ag589
ag1027
ag968
ag449
ag2888
ag2078
ag1880
ag670
ag1101
ag579
ag1144
ag1212
ag2770
ag1269
ag2548
ag487
ag1775
ag1903
ag328
ag117
ag765
aa(lp4442
a(lp4443
g2510
ag1681
ag545
ag1798
ag2912
ag1164
ag627
ag314
ag354
ag2818
ag2843
ag2313
ag1937
ag1358
ag2391
ag1656
aa(lp4444
a(lp4445
g162
ag474
ag2231
ag2521
ag2808
ag1593
ag2381
ag341
ag2658
ag2899
ag2150
ag1833
ag2054
ag1543
ag796
ag2620
aa(lp4446
a(lp4447
g556
ag1556
ag413
ag1414
ag2473
ag1482
ag1310
ag49
ag304
ag379
ag1788
ag2044
ag1424
ag510
ag1458
ag1927
ag1242
aa(lp4448
a(lp4449
g402
ag2285
ag1065
ag460
ag680
ag2595
ag2413
ag531
ag1333
ag1628
ag1617
ag884
ag2173
ag127
ag2584
ag2633
aa(lp4450
a(lp4451
g898
ag182
ag1006
ag1344
ag2402
ag870
ag2499
ag1076
ag96
ag2064
ag1722
ag365
ag1733
ag1492
ag2933
ag2008
aa(lp4452
a(lp4453
g945
ag2160
ag2561
ag1434
ag2340
ag2722
ag1017
ag1232
ag1134
ag1052
ag1519
ag1695
ag2712
ag1121
ag1222
ag152
ag603
ag955
ag107
ag2571
ag996
ag497
ag735
ag256
ag1961
ag1506
ag1192
ag193
ag1765
ag566
ag2088
ag2702
ag3745
ag1471
ag3157
ag245
ag3128
ag290
ag3846
ag3072
ag3768
ag1178
ag3871
ag1913
ag3011
ag3279
ag3377
ag2122
ag806
ag909
ag934
ag231
ag923
ag1642
ag1670
ag3058
ag3397
ag613
ag220
ag1582
ag1299
ag2534
ag2438
ag1403
aa(lp4454
a(lp4455
g2261
ag1111
ag1823
ag1289
ag755
ag691
ag1202
ag2679
ag1154
ag389
ag830
ag1867
ag786
ag722
ag745
ag701
ag38
ag2783
ag711
ag2022
ag1744
ag2668
ag2220
ag2864
ag2832
ag2271
ag2647
ag2424
ag1846
ag2794
ag2609
ag659
aa(lp4456
a(lp4457
g1606
ag1708
ag2746
ag1255
ag1971
ag2299
ag2098
ag82
ag2350
ag1038
ag1447
ag1529
ag648
ag2449
ag1382
ag2136
ag3618
ag3548
ag3682
ag3729
ag3262
ag3172
ag3578
ag3443
ag3595
ag3307
ag3469
ag3042
ag3428
ag2989
ag3649
ag3498
ag172
ag69
ag2463
ag2207
ag3210
ag2944
ag3026
ag1393
ag3192
ag439
ag3347
ag840
ag3791
ag3821
ag3668
ag2194
ag2184
ag1948
ag59
ag1995
ag3222
ag2327
ag2923
ag1569
ag2692
ag2109
ag2371
ag2486
ag3781
ag817
ag2241
ag1323
aa(lp4458
a(lp4459
g269
ag426
ag1982
ag638
ag1890
ag2854
ag2757
ag2251
ag1857
ag1279
ag850
ag2361
ag1372
ag1755
ag860
ag2878
aasg3925
I1
sbsS'type'
p4460
S'invention'
p4461
sS'pieces'
p4462
g11
((lp4463
S'./mid\\invention13_5.mid'
p4464
aS'./mid\\invention13_4.mid'
p4465
aS'./mid\\invention1_3.mid'
p4466
aS'./mid\\invention1_2.mid'
p4467
aS'./mid\\invention13_3.mid'
p4468
aS'./mid\\invention1_4.mid'
p4469
aS'./mid\\invention13_1.mid'
p4470
aS'./mid\\invention13_6.mid'
p4471
aS'./mid\\invention13_2.mid'
p4472
aS'./mid\\invention1_1.mid'
p4473
atRp4474
sb.