ccopy_reg
_reconstructor
p1
(c__main__
Recommender
p2
c__builtin__
object
p3
NtRp4
(dp5
S'mm'
p6
g1
(ccmm
Markov
p7
g3
NtRp8
(dp9
S'states'
p10
c__builtin__
set
p11
((lp12
g1
(ccmm
NoteState
p13
g3
NtRp14
(dp15
S'origin'
p16
S'T(5)./mid\\Enya_Lothlorien.mid'
p17
sS'chord'
p18
S'Dm'
p19
sS'bar'
p20
I4096
sS'state_duration'
p21
cdecimal
Decimal
p22
(S'0.125'
tRp23
sS'notes'
p24
(lp25
g1
(cdata
note
p26
g3
NtRp27
(dp28
S'dur'
p29
g22
(S'0.123779296875'
tRp30
sS'pos'
p31
I108032
sS'chn'
p32
I0
sS'pitch'
p33
I74
sbasS'bar_pos'
p34
g22
(S'0.375'
tRp35
sS'state_position'
p36
g22
(S'26.375'
tRp37
sbag1
(g13
g3
NtRp38
(dp39
g16
S'T(5)./mid\\Enya_Lothlorien.mid'
p40
sg18
S'Am'
p41
sg20
I4096
sg21
g22
(S'0.125'
tRp42
sg24
(lp43
g1
(g26
g3
NtRp44
(dp45
g29
g22
(S'0.123779296875'
tRp46
sg31
I5120
sg32
I0
sg33
I81
sbag1
(g26
g3
NtRp47
(dp48
g29
g22
(S'0.498779296875'
tRp49
sg31
I5120
sg32
I0
sg33
I84
sbasg34
g22
(S'0.25'
tRp50
sg36
g22
(S'1.25'
tRp51
sbag1
(g13
g3
NtRp52
(dp53
g16
S'T(5)./mid\\Enya_Lothlorien.mid'
p54
sg18
S'Am'
p55
sg20
I4096
sg21
g22
(S'0.125'
tRp56
sg24
(lp57
g1
(g26
g3
NtRp58
(dp59
g29
g22
(S'0.123779296875'
tRp60
sg31
I120320
sg32
I0
sg33
I57
sbasg34
g22
(S'0.375'
tRp61
sg36
g22
(S'29.375'
tRp62
sbag1
(g13
g3
NtRp63
(dp64
g16
S'T(5)./mid\\Enya_Lothlorien.mid'
p65
sg18
S'F'
sg20
I4096
sg21
g22
(S'0.125'
tRp66
sg24
(lp67
g1
(g26
g3
NtRp68
(dp69
g29
g22
(S'0.123779296875'
tRp70
sg31
I19968
sg32
I0
sg33
I62
sbasg34
g22
(S'0.875'
tRp71
sg36
g22
(S'4.875'
tRp72
sbag1
(g13
g3
NtRp73
(dp74
g16
S'T(5)./mid\\Enya_Lothlorien.mid'
p75
sg18
S'Am'
p76
sg20
I4096
sg21
g22
(S'0.125'
tRp77
sg24
(lp78
g1
(g26
g3
NtRp79
(dp80
g29
g22
(S'0.123779296875'
tRp81
sg31
I120832
sg32
I0
sg33
I64
sbasg34
g22
(S'0.5'
tRp82
sg36
g22
(S'29.5'
tRp83
sbag1
(g13
g3
NtRp84
(dp85
g16
S'T(5)./mid\\Enya_Lothlorien.mid'
p86
sg18
S'A'
sg20
I4096
sg21
g22
(S'0.125'
tRp87
sg24
(lp88
g1
(g26
g3
NtRp89
(dp90
g29
g22
(S'0.123779296875'
tRp91
sg31
I151552
sg32
I0
sg33
I45
sbag1
(g26
g3
NtRp92
(dp93
g29
g22
(S'1.212890625'
tRp94
sg31
I151552
sg32
I0
sg33
I69
sbasg34
g22
(S'0'
tRp95
sg36
g22
(S'37'
p96
tRp97
sbag1
(g13
g3
NtRp98
(dp99
g16
S'T(5)./mid\\Enya_Lothlorien.mid'
p100
sg18
S'Dm'
p101
sg20
I4096
sg21
g22
(S'0.125'
tRp102
sg24
(lp103
g1
(g26
g3
NtRp104
(dp105
g29
g22
(S'0.123779296875'
tRp106
sg31
I116736
sg32
I0
sg33
I69
sbasg34
g22
(S'0.5'
tRp107
sg36
g22
(S'28.5'
tRp108
sbag1
(g13
g3
NtRp109
(dp110
g16
S'T(5)./mid\\Enya_Lothlorien.mid'
p111
sg18
S'Am'
p112
sg20
I4096
sg21
g22
(S'0.125'
tRp113
sg24
(lp114
g1
(g26
g3
NtRp115
(dp116
g29
g22
(S'0.123779296875'
tRp117
sg31
I5632
sg32
I0
sg33
I76
sbasg34
g22
(S'0.375'
tRp118
sg36
g22
(S'1.375'
tRp119
sbag1
(g13
g3
NtRp120
(dp121
g16
S'T(5)./mid\\Enya_Lothlorien.mid'
p122
sg18
S'A'
sg20
I4096
sg21
g22
(S'0.125'
tRp123
sg24
(lp124
g1
(g26
g3
NtRp125
(dp126
g29
g22
(S'0.123779296875'
tRp127
sg31
I158208
sg32
I0
sg33
I64
sbasg34
g22
(S'0.625'
tRp128
sg36
g22
(S'38.625'
tRp129
sbag1
(g13
g3
NtRp130
(dp131
g16
S'T(5)./mid\\Enya_Lothlorien.mid'
p132
sg18
S'A'
sg20
I4096
sg21
g22
(S'0.125'
tRp133
sg24
(lp134
g1
(g26
g3
NtRp135
(dp136
g29
g22
(S'0.123779296875'
tRp137
sg31
I49152
sg32
I0
sg33
I57
sbasg34
g22
(S'0'
tRp138
sg36
g22
(S'12'
p139
tRp140
sbag1
(g13
g3
NtRp141
(dp142
g16
S'T(5)./mid\\Enya_Lothlorien.mid'
p143
sg18
S'C'
sg20
I4096
sg21
g22
(S'0.125'
tRp144
sg24
(lp145
g1
(g26
g3
NtRp146
(dp147
g29
g22
(S'0.123779296875'
tRp148
sg31
I24064
sg32
I0
sg33
I60
sbasg34
g22
(S'0.875'
tRp149
sg36
g22
(S'5.875'
tRp150
sbag1
(g13
g3
NtRp151
(dp152
g16
S'T(5)./mid\\Enya_Lothlorien.mid'
p153
sg18
S'Am'
p154
sg20
I4096
sg21
g22
(S'0.25'
tRp155
sg24
(lp156
g1
(g26
g3
NtRp157
(dp158
g29
g22
(S'0.248779296875'
tRp159
sg31
I7168
sg32
I0
sg33
I81
sbasg34
g22
(S'0.75'
tRp160
sg36
g22
(S'1.75'
tRp161
sbag1
(g13
g3
NtRp162
(dp163
g16
S'T(5)./mid\\Enya_Lothlorien.mid'
p164
sg18
S'A'
sg20
I4096
sg21
g22
(S'0.125'
tRp165
sg24
(lp166
g1
(g26
g3
NtRp167
(dp168
g29
g22
(S'0.123779296875'
tRp169
sg31
I152064
sg32
I0
sg33
I52
sbasg34
g22
(S'0.125'
tRp170
sg36
g22
(S'37.125'
tRp171
sbag1
(g13
g3
NtRp172
(dp173
g16
S'T(5)./mid\\Enya_Lothlorien.mid'
p174
sg18
S'A'
sg20
I4096
sg21
g22
(S'0.125'
tRp175
sg24
(lp176
g1
(g26
g3
NtRp177
(dp178
g29
g22
(S'0.625'
tRp179
sg31
I161280
sg32
I0
sg33
I76
sbasg34
g22
(S'0.375'
tRp180
sg36
g22
(S'39.375'
tRp181
sbag1
(g13
g3
NtRp182
(dp183
g16
S'T(5)./mid\\Enya_Lothlorien.mid'
p184
sg18
S'A'
sg20
I4096
sg21
g22
(S'0.125'
tRp185
sg24
(lp186
g1
(g26
g3
NtRp187
(dp188
g29
g22
(S'1'
tRp189
sg31
I159744
sg32
I0
sg33
I69
sbasg34
g22
(S'0'
tRp190
sg36
g22
(S'39'
p191
tRp192
sbag1
(g13
g3
NtRp193
(dp194
g16
S'T(5)./mid\\Enya_Lothlorien.mid'
p195
sg18
S'Am'
p196
sg20
I4096
sg21
g22
(S'0.125'
tRp197
sg24
(lp198
g1
(g26
g3
NtRp199
(dp200
g29
g22
(S'0.123779296875'
tRp201
sg31
I122368
sg32
I0
sg33
I55
sbasg34
g22
(S'0.875'
tRp202
sg36
g22
(S'29.875'
tRp203
sbag1
(g13
g3
NtRp204
(dp205
g16
S'T(5)./mid\\Enya_Lothlorien.mid'
p206
sg18
S'Am'
p207
sg20
I4096
sg21
g22
(S'0.125'
tRp208
sg24
(lp209
g1
(g26
g3
NtRp210
(dp211
g29
g22
(S'0.123779296875'
tRp212
sg31
I6144
sg32
I0
sg33
I69
sbasg34
g22
(S'0.5'
tRp213
sg36
g22
(S'1.5'
tRp214
sbag1
(g13
g3
NtRp215
(dp216
g16
S'T(5)./mid\\Enya_Lothlorien.mid'
p217
sg18
S'D'
sg20
I4096
sg21
g22
(S'0.125'
tRp218
sg24
(lp219
g1
(g26
g3
NtRp220
(dp221
g29
g22
(S'0.123779296875'
tRp222
sg31
I31744
sg32
I0
sg33
I57
sbasg34
g22
(S'0.75'
tRp223
sg36
g22
(S'7.75'
tRp224
sbag1
(g13
g3
NtRp225
(dp226
g16
S'T(5)./mid\\Enya_Lothlorien.mid'
p227
sg18
S'C'
sg20
I4096
sg21
g22
(S'0.125'
tRp228
sg24
(lp229
g1
(g26
g3
NtRp230
(dp231
g29
g22
(S'0.123779296875'
tRp232
sg31
I23040
sg32
I0
sg33
I48
sbasg34
g22
(S'0.625'
tRp233
sg36
g22
(S'5.625'
tRp234
sbag1
(g13
g3
NtRp235
(dp236
g16
S'T(5)./mid\\Enya_Lothlorien.mid'
p237
sg18
S'A'
sg20
I4096
sg21
g22
(S'0.125'
tRp238
sg24
(lp239
g1
(g26
g3
NtRp240
(dp241
g29
g22
(S'0.123779296875'
tRp242
sg31
I45056
sg32
I0
sg33
I57
sbag1
(g26
g3
NtRp243
(dp244
g29
g22
(S'0.248779296875'
tRp245
sg31
I45056
sg32
I0
sg33
I69
sbasg34
g22
(S'0'
tRp246
sg36
g22
(S'11'
p247
tRp248
sbag1
(g13
g3
NtRp249
(dp250
g16
S'T(5)./mid\\Enya_Lothlorien.mid'
p251
sg18
S'C'
sg20
I4096
sg21
g22
(S'0.125'
tRp252
sg24
(lp253
g1
(g26
g3
NtRp254
(dp255
g29
g22
(S'0.123779296875'
tRp256
sg31
I36864
sg32
I0
sg33
I48
sbag1
(g26
g3
NtRp257
(dp258
g29
g22
(S'0.748779296875'
tRp259
sg31
I36864
sg32
I0
sg33
I64
sbasg34
g22
(S'0'
tRp260
sg36
g22
(S'9'
tRp261
sbag1
(g13
g3
NtRp262
(dp263
g16
S'T(5)./mid\\Enya_Lothlorien.mid'
p264
sg18
S'Dm'
p265
sg20
I4096
sg21
g22
(S'0.125'
tRp266
sg24
(lp267
g1
(g26
g3
NtRp268
(dp269
g29
g22
(S'0.123779296875'
tRp270
sg31
I54784
sg32
I0
sg33
I69
sbasg34
g22
(S'0.375'
tRp271
sg36
g22
(S'13.375'
tRp272
sbag1
(g13
g3
NtRp273
(dp274
g16
S'T(5)./mid\\Enya_Lothlorien.mid'
p275
sg18
S'Dm'
p276
sg20
I4096
sg21
g22
(S'0.125'
tRp277
sg24
(lp278
g1
(g26
g3
NtRp279
(dp280
g29
g22
(S'0.123779296875'
tRp281
sg31
I135680
sg32
I0
sg33
I57
sbasg34
g22
(S'0.125'
tRp282
sg36
g22
(S'33.125'
tRp283
sbag1
(g13
g3
NtRp284
(dp285
g16
S'T(5)./mid\\Enya_Lothlorien.mid'
p286
sg18
S'Dm'
p287
sg20
I4096
sg21
g22
(S'0.125'
tRp288
sg24
(lp289
g1
(g26
g3
NtRp290
(dp291
g29
g22
(S'0.123779296875'
tRp292
sg31
I117248
sg32
I0
sg33
I74
sbasg34
g22
(S'0.625'
tRp293
sg36
g22
(S'28.625'
tRp294
sbag1
(g13
g3
NtRp295
(dp296
g16
S'T(5)./mid\\Enya_Lothlorien.mid'
p297
sg18
S'C'
sg20
I4096
sg21
g22
(S'0.125'
tRp298
sg24
(lp299
g1
(g26
g3
NtRp300
(dp301
g29
g22
(S'0.123779296875'
tRp302
sg31
I23552
sg32
I0
sg33
I55
sbasg34
g22
(S'0.75'
tRp303
sg36
g22
(S'5.75'
tRp304
sbag1
(g13
g3
NtRp305
(dp306
g16
S'T(5)./mid\\Enya_Lothlorien.mid'
p307
sg18
S'F'
sg20
I4096
sg21
g22
(S'0.125'
tRp308
sg24
(lp309
g1
(g26
g3
NtRp310
(dp311
g29
g22
(S'0.123779296875'
tRp312
sg31
I18432
sg32
I0
sg33
I55
sbag1
(g26
g3
NtRp313
(dp314
g29
g22
(S'0.123779296875'
tRp315
sg31
I18432
sg32
I0
sg33
I72
sbasg34
g22
(S'0.5'
tRp316
sg36
g22
(S'4.5'
tRp317
sbag1
(g13
g3
NtRp318
(dp319
g16
S'T(5)./mid\\Enya_Lothlorien.mid'
p320
sg18
S'D'
sg20
I4096
sg21
g22
(S'0.125'
tRp321
sg24
(lp322
g1
(g26
g3
NtRp323
(dp324
g29
g22
(S'0.123779296875'
tRp325
sg31
I28672
sg32
I0
sg33
I50
sbag1
(g26
g3
NtRp326
(dp327
g29
g22
(S'0.9462890625'
tRp328
sg31
I28672
sg32
I0
sg33
I69
sbasg34
g22
(S'0'
tRp329
sg36
g22
(S'7'
tRp330
sbag1
(g13
g3
NtRp331
(dp332
g16
S'T(5)./mid\\Enya_Lothlorien.mid'
p333
sg18
S'Am'
p334
sg20
I4096
sg21
g22
(S'0.125'
tRp335
sg24
(lp336
g1
(g26
g3
NtRp337
(dp338
g29
g22
(S'0.08837890625'
tRp339
sg31
I113152
sg32
I0
sg33
I81
sbasg34
g22
(S'0.625'
tRp340
sg36
g22
(S'27.625'
tRp341
sbag1
(g13
g3
NtRp342
(dp343
g16
S'T(5)./mid\\Enya_Lothlorien.mid'
p344
sg18
S'F'
sg20
I4096
sg21
g22
(S'0.125'
tRp345
sg24
(lp346
g1
(g26
g3
NtRp347
(dp348
g29
g22
(S'0.123779296875'
tRp349
sg31
I17920
sg32
I0
sg33
I60
sbag1
(g26
g3
NtRp350
(dp351
g29
g22
(S'0.123779296875'
tRp352
sg31
I17920
sg32
I0
sg33
I69
sbasg34
g22
(S'0.375'
tRp353
sg36
g22
(S'4.375'
tRp354
sbag1
(g13
g3
NtRp355
(dp356
g16
S'T(5)./mid\\Enya_Lothlorien.mid'
p357
sg18
S'Dm'
p358
sg20
I4096
sg21
g22
(S'0.125'
tRp359
sg24
(lp360
g1
(g26
g3
NtRp361
(dp362
g29
g22
(S'0.123779296875'
tRp363
sg31
I53248
sg32
I0
sg33
I62
sbag1
(g26
g3
NtRp364
(dp365
g29
g22
(S'0.123779296875'
tRp366
sg31
I53248
sg32
I0
sg33
I89
sbasg34
g22
(S'0'
tRp367
sg36
g22
(S'13'
p368
tRp369
sbag1
(g13
g3
NtRp370
(dp371
g16
S'T(5)./mid\\Enya_Lothlorien.mid'
p372
sg18
S'Dm'
p373
sg20
I4096
sg21
g22
(S'0.25'
tRp374
sg24
(lp375
g1
(g26
g3
NtRp376
(dp377
g29
g22
(S'0.248779296875'
tRp378
sg31
I3072
sg32
I0
sg33
I86
sbasg34
g22
(S'0.75'
tRp379
sg36
g22
(S'0.75'
tRp380
sbag1
(g13
g3
NtRp381
(dp382
g16
S'T(5)./mid\\Enya_Lothlorien.mid'
p383
sg18
S'C'
sg20
I4096
sg21
g22
(S'0.125'
tRp384
sg24
(lp385
g1
(g26
g3
NtRp386
(dp387
g29
g22
(S'0.123779296875'
tRp388
sg31
I39936
sg32
I0
sg33
I55
sbag1
(g26
g3
NtRp389
(dp390
g29
g22
(S'0.248779296875'
tRp391
sg31
I39936
sg32
I0
sg33
I67
sbasg34
g22
(S'0.75'
tRp392
sg36
g22
(S'9.75'
tRp393
sbag1
(g13
g3
NtRp394
(dp395
g16
S'T(5)./mid\\Enya_Lothlorien.mid'
p396
sg18
S'Dm'
p397
sg20
I4096
sg21
g22
(S'0.125'
tRp398
sg24
(lp399
g1
(g26
g3
NtRp400
(dp401
g29
g22
(S'0.123779296875'
tRp402
sg31
I1024
sg32
I0
sg33
I86
sbag1
(g26
g3
NtRp403
(dp404
g29
g22
(S'0.498779296875'
tRp405
sg31
I1024
sg32
I0
sg33
I89
sbasg34
g22
(S'0.25'
tRp406
sg36
g22
(S'0.25'
tRp407
sbag1
(g13
g3
NtRp408
(dp409
g16
S'T(5)./mid\\Enya_Lothlorien.mid'
p410
sg18
S'Am'
p411
sg20
I4096
sg21
g22
(S'0.125'
tRp412
sg24
(lp413
g1
(g26
g3
NtRp414
(dp415
g29
g22
(S'0.123779296875'
tRp416
sg31
I4608
sg32
I0
sg33
I76
sbag1
(g26
g3
NtRp417
(dp418
g29
g22
(S'0.123779296875'
tRp419
sg31
I4608
sg32
I0
sg33
I83
sbasg34
g22
(S'0.125'
tRp420
sg36
g22
(S'1.125'
tRp421
sbag1
(g13
g3
NtRp422
(dp423
g16
S'T(5)./mid\\Enya_Lothlorien.mid'
p424
sg18
S'Dm'
p425
sg20
I4096
sg21
g22
(S'0.125'
tRp426
sg24
(lp427
g1
(g26
g3
NtRp428
(dp429
g29
g22
(S'0.123779296875'
tRp430
sg31
I2560
sg32
I0
sg33
I81
sbasg34
g22
(S'0.625'
tRp431
sg36
g22
(S'0.625'
tRp432
sbag1
(g13
g3
NtRp433
(dp434
g16
S'T(5)./mid\\Enya_Lothlorien.mid'
p435
sg18
S'Dm'
p436
sg20
I4096
sg21
g22
(S'0.125'
tRp437
sg24
(lp438
g1
(g26
g3
NtRp439
(dp440
g29
g22
(S'0.123779296875'
tRp441
sg31
I135168
sg32
I0
sg33
I50
sbag1
(g26
g3
NtRp442
(dp443
g29
g22
(S'0.911865234375'
tRp444
sg31
I135168
sg32
I0
sg33
I69
sbasg34
g22
(S'0'
tRp445
sg36
g22
(S'33'
p446
tRp447
sbag1
(g13
g3
NtRp448
(dp449
g16
S'T(5)./mid\\Enya_Lothlorien.mid'
p450
sg18
S'C'
sg20
I4096
sg21
g22
(S'0.125'
tRp451
sg24
(lp452
g1
(g26
g3
NtRp453
(dp454
g29
g22
(S'0.123779296875'
tRp455
sg31
I20992
sg32
I0
sg33
I55
sbasg34
g22
(S'0.125'
tRp456
sg36
g22
(S'5.125'
tRp457
sbag1
(g13
g3
NtRp458
(dp459
g16
S'T(5)./mid\\Enya_Lothlorien.mid'
p460
sg18
S'D'
sg20
I4096
sg21
g22
(S'0.125'
tRp461
sg24
(lp462
g1
(g26
g3
NtRp463
(dp464
g29
g22
(S'0.123779296875'
tRp465
sg31
I31232
sg32
I0
sg33
I50
sbasg34
g22
(S'0.625'
tRp466
sg36
g22
(S'7.625'
tRp467
sbag1
(g13
g3
NtRp468
(dp469
g16
S'T(5)./mid\\Enya_Lothlorien.mid'
p470
sg18
S'A'
sg20
I4096
sg21
g22
(S'0.125'
tRp471
sg24
(lp472
g1
(g26
g3
NtRp473
(dp474
g29
g22
(S'0.123779296875'
tRp475
sg31
I158720
sg32
I0
sg33
I69
sbasg34
g22
(S'0.75'
tRp476
sg36
g22
(S'38.75'
tRp477
sbag1
(g13
g3
NtRp478
(dp479
g16
S'T(5)./mid\\Enya_Lothlorien.mid'
p480
sg18
S'Dm'
p481
sg20
I4096
sg21
g22
(S'0.375'
tRp482
sg24
(lp483
g1
(g26
g3
NtRp484
(dp485
g29
g22
(S'0.373779296875'
tRp486
sg31
I136192
sg32
I0
sg33
I62
sbasg34
g22
(S'0.25'
tRp487
sg36
g22
(S'33.25'
tRp488
sbag1
(g13
g3
NtRp489
(dp490
g16
S'T(5)./mid\\Enya_Lothlorien.mid'
p491
sg18
S'D'
sg20
I4096
sg21
g22
(S'0.125'
tRp492
sg24
(lp493
g1
(g26
g3
NtRp494
(dp495
g29
g22
(S'0.123779296875'
tRp496
sg31
I29184
sg32
I0
sg33
I57
sbasg34
g22
(S'0.125'
tRp497
sg36
g22
(S'7.125'
tRp498
sbag1
(g13
g3
NtRp499
(dp500
g16
S'T(5)./mid\\Enya_Lothlorien.mid'
p501
sg18
S'Dm'
p502
sg20
I4096
sg21
g22
(S'0.125'
tRp503
sg24
(lp504
g1
(g26
g3
NtRp505
(dp506
g29
g22
(S'0.123779296875'
tRp507
sg31
I1536
sg32
I0
sg33
I81
sbasg34
g22
(S'0.375'
tRp508
sg36
g22
(S'0.375'
tRp509
sbag1
(g13
g3
NtRp510
(dp511
g16
S'T(5)./mid\\Enya_Lothlorien.mid'
p512
sg18
S'C'
sg20
I4096
sg21
g22
(S'0.125'
tRp513
sg24
(lp514
g1
(g26
g3
NtRp515
(dp516
g29
g22
(S'0.123779296875'
tRp517
sg31
I130048
sg32
I0
sg33
I60
sbasg34
g22
(S'0.75'
tRp518
sg36
g22
(S'31.75'
tRp519
sbag1
(g13
g3
NtRp520
(dp521
g16
S'T(5)./mid\\Enya_Lothlorien.mid'
p522
sg18
S'C'
sg20
I4096
sg21
g22
(S'0.125'
tRp523
sg24
(lp524
g1
(g26
g3
NtRp525
(dp526
g29
g22
(S'0.123779296875'
tRp527
sg31
I20480
sg32
I0
sg33
I48
sbag1
(g26
g3
NtRp528
(dp529
g29
g22
(S'0.998779296875'
tRp530
sg31
I20480
sg32
I0
sg33
I67
sbasg34
g22
(S'0'
tRp531
sg36
g22
(S'5'
tRp532
sbag1
(g13
g3
NtRp533
(dp534
g16
S'T(5)./mid\\Enya_Lothlorien.mid'
p535
sg18
S'F'
sg20
I4096
sg21
g22
(S'0.125'
tRp536
sg24
(lp537
g1
(g26
g3
NtRp538
(dp539
g29
g22
(S'0.123779296875'
tRp540
sg31
I18944
sg32
I0
sg33
I62
sbag1
(g26
g3
NtRp541
(dp542
g29
g22
(S'0.123779296875'
tRp543
sg31
I18944
sg32
I0
sg33
I71
sbasg34
g22
(S'0.625'
tRp544
sg36
g22
(S'4.625'
tRp545
sbag1
(g13
g3
NtRp546
(dp547
g16
S'T(5)./mid\\Enya_Lothlorien.mid'
p548
sg18
S'Dm'
p549
sg20
I4096
sg21
g22
(S'0.125'
tRp550
sg24
(lp551
g1
(g26
g3
NtRp552
(dp553
g29
g22
(S'0.123779296875'
tRp554
sg31
I118272
sg32
I0
sg33
I69
sbasg34
g22
(S'0.875'
tRp555
sg36
g22
(S'28.875'
tRp556
sbag1
(g13
g3
NtRp557
(dp558
g16
S'T(5)./mid\\Enya_Lothlorien.mid'
p559
sg18
S'A'
sg20
I4096
sg21
g22
(S'0.125'
tRp560
sg24
(lp561
g1
(g26
g3
NtRp562
(dp563
g29
g22
(S'0.123779296875'
tRp564
sg31
I45568
sg32
I0
sg33
I64
sbasg34
g22
(S'0.125'
tRp565
sg36
g22
(S'11.125'
tRp566
sbag1
(g13
g3
NtRp567
(dp568
g16
S'T(5)./mid\\Enya_Lothlorien.mid'
p569
sg18
S'A'
sg20
I4096
sg21
g22
(S'0.375'
tRp570
sg24
(lp571
g1
(g26
g3
NtRp572
(dp573
g29
g22
(S'0.373779296875'
tRp574
sg31
I46080
sg32
I0
sg33
I69
sbasg34
g22
(S'0.25'
tRp575
sg36
g22
(S'11.25'
tRp576
sbag1
(g13
g3
NtRp577
(dp578
g16
S'T(5)./mid\\Enya_Lothlorien.mid'
p579
sg18
S'Am'
p580
sg20
I4096
sg21
g22
(S'0.125'
tRp581
sg24
(lp582
g1
(g26
g3
NtRp583
(dp584
g29
g22
(S'0.123779296875'
tRp585
sg31
I114176
sg32
I0
sg33
I74
sbasg34
g22
(S'0.875'
tRp586
sg36
g22
(S'27.875'
tRp587
sbag1
(g13
g3
NtRp588
(dp589
g16
S'T(5)./mid\\Enya_Lothlorien.mid'
p590
sg18
S'F'
sg20
I4096
sg21
g22
(S'0.125'
tRp591
sg24
(lp592
g1
(g26
g3
NtRp593
(dp594
g29
g22
(S'0.123779296875'
tRp595
sg31
I16384
sg32
I0
sg33
I53
sbag1
(g26
g3
NtRp596
(dp597
g29
g22
(S'0.248779296875'
tRp598
sg31
I16384
sg32
I0
sg33
I69
sbasg34
g22
(S'0'
tRp599
sg36
g22
(S'4'
tRp600
sbag1
(g13
g3
NtRp601
(dp602
g16
S'T(5)./mid\\Enya_Lothlorien.mid'
p603
sg18
S'Am'
p604
sg20
I4096
sg21
g22
(S'0.125'
tRp605
sg24
(lp606
g1
(g26
g3
NtRp607
(dp608
g29
g22
(S'0.123779296875'
tRp609
sg31
I57856
sg32
I0
sg33
I64
sbag1
(g26
g3
NtRp610
(dp611
g29
g22
(S'0.123779296875'
tRp612
sg31
I57856
sg32
I0
sg33
I83
sbasg34
g22
(S'0.125'
tRp613
sg36
g22
(S'14.125'
tRp614
sbag1
(g13
g3
NtRp615
(dp616
g16
S'T(5)./mid\\Enya_Lothlorien.mid'
p617
sg18
S'Dm'
p618
sg20
I4096
sg21
g22
(S'0.125'
tRp619
sg24
(lp620
g1
(g26
g3
NtRp621
(dp622
g29
g22
(S'0.248779296875'
tRp623
sg31
I11264
sg32
I0
sg33
I86
sbasg34
g22
(S'0.75'
tRp624
sg36
g22
(S'2.75'
tRp625
sbag1
(g13
g3
NtRp626
(dp627
g16
S'T(5)./mid\\Enya_Lothlorien.mid'
p628
sg18
S'A'
sg20
I4096
sg21
g22
(S'1.033203125'
tRp629
sg24
(lp630
g1
(g26
g3
NtRp631
(dp632
g29
g22
(S'0.998779296875'
tRp633
sg31
I163840
sg32
I0
sg33
I93
sbag1
(g26
g3
NtRp634
(dp635
g29
g22
(S'1'
tRp636
sg31
I163840
sg32
I0
sg33
I76
sbag1
(g26
g3
NtRp637
(dp638
g29
g22
(S'1'
tRp639
sg31
I163840
sg32
I0
sg33
I81
sbag1
(g26
g3
NtRp640
(dp641
g29
g22
(S'1.033203125'
tRp642
sg31
I163840
sg32
I0
sg33
I69
sbasg34
g22
(S'0'
tRp643
sg36
g22
(S'40'
p644
tRp645
sbag1
(g13
g3
NtRp646
(dp647
g16
S'T(5)./mid\\Enya_Lothlorien.mid'
p648
sg18
S'Am'
p649
sg20
I4096
sg21
g22
(S'0.125'
tRp650
sg24
(lp651
g1
(g26
g3
NtRp652
(dp653
g29
g22
(S'0.248779296875'
tRp654
sg31
I113664
sg32
I0
sg33
I81
sbasg34
g22
(S'0.75'
tRp655
sg36
g22
(S'27.75'
tRp656
sbag1
(g13
g3
NtRp657
(dp658
g16
S'T(5)./mid\\Enya_Lothlorien.mid'
p659
sg18
S'A'
sg20
I4096
sg21
g22
(S'0.125'
tRp660
sg24
(lp661
g1
(g26
g3
NtRp662
(dp663
g29
g22
(S'0.123779296875'
tRp664
sg31
I160256
sg32
I0
sg33
I76
sbasg34
g22
(S'0.125'
tRp665
sg36
g22
(S'39.125'
tRp666
sbag1
(g13
g3
NtRp667
(dp668
g16
S'T(5)./mid\\Enya_Lothlorien.mid'
p669
sg18
S'Am'
p670
sg20
I4096
sg21
g22
(S'0.125'
tRp671
sg24
(lp672
g1
(g26
g3
NtRp673
(dp674
g29
g22
(S'0.123779296875'
tRp675
sg31
I6656
sg32
I0
sg33
I76
sbasg34
g22
(S'0.625'
tRp676
sg36
g22
(S'1.625'
tRp677
sbag1
(g13
g3
NtRp678
(dp679
g16
S'T(5)./mid\\Enya_Lothlorien.mid'
p680
sg18
S'Dm'
p681
sg20
I4096
sg21
g22
(S'0.125'
tRp682
sg24
(lp683
g1
(g26
g3
NtRp684
(dp685
g29
g22
(S'0.123779296875'
tRp686
sg31
I54272
sg32
I0
sg33
I74
sbag1
(g26
g3
NtRp687
(dp688
g29
g22
(S'0.498779296875'
tRp689
sg31
I54272
sg32
I0
sg33
I89
sbasg34
g22
(S'0.25'
tRp690
sg36
g22
(S'13.25'
tRp691
sbag1
(g13
g3
NtRp692
(dp693
g16
S'T(5)./mid\\Enya_Lothlorien.mid'
p694
sg18
S'C'
sg20
I4096
sg21
g22
(S'0.125'
tRp695
sg24
(lp696
g1
(g26
g3
NtRp697
(dp698
g29
g22
(S'0.123779296875'
tRp699
sg31
I129536
sg32
I0
sg33
I55
sbasg34
g22
(S'0.625'
tRp700
sg36
g22
(S'31.625'
tRp701
sbag1
(g13
g3
NtRp702
(dp703
g16
S'T(5)./mid\\Enya_Lothlorien.mid'
p704
sg18
S'A'
sg20
I4096
sg21
g22
(S'0.375'
tRp705
sg24
(lp706
g1
(g26
g3
NtRp707
(dp708
g29
g22
(S'0.373779296875'
tRp709
sg31
I152576
sg32
I0
sg33
I57
sbasg34
g22
(S'0.25'
tRp710
sg36
g22
(S'37.25'
tRp711
sbag1
(g13
g3
NtRp712
(dp713
g16
S'T(5)./mid\\Enya_Lothlorien.mid'
p714
sg18
S'Dm'
p715
sg20
I4096
sg21
g22
(S'0.125'
tRp716
sg24
(lp717
g1
(g26
g3
NtRp718
(dp719
g29
g22
(S'0.123779296875'
tRp720
sg31
I53760
sg32
I0
sg33
I69
sbag1
(g26
g3
NtRp721
(dp722
g29
g22
(S'0.123779296875'
tRp723
sg31
I53760
sg32
I0
sg33
I88
sbasg34
g22
(S'0.125'
tRp724
sg36
g22
(S'13.125'
tRp725
sbag1
(g13
g3
NtRp726
(dp727
g16
S'T(5)./mid\\Enya_Lothlorien.mid'
p728
sg18
S'Dm'
p729
sg20
I4096
sg21
g22
(S'0.125'
tRp730
sg24
(lp731
g1
(g26
g3
NtRp732
(dp733
g29
g22
(S'0.123779296875'
tRp734
sg31
I0
sg32
I0
sg33
I74
sbag1
(g26
g3
NtRp735
(dp736
g29
g22
(S'0.123779296875'
tRp737
sg31
I0
sg32
I0
sg33
I89
sbasg34
g22
(S'0'
tRp738
sg36
g22
(S'0'
tRp739
sbag1
(g13
g3
NtRp740
(dp741
g16
S'T(5)./mid\\Enya_Lothlorien.mid'
p742
sg18
S'A'
sg20
I4096
sg21
g22
(S'0.125'
tRp743
sg24
(lp744
g1
(g26
g3
NtRp745
(dp746
g29
g22
(S'0.123779296875'
tRp747
sg31
I155136
sg32
I0
sg33
I64
sbasg34
g22
(S'0.875'
tRp748
sg36
g22
(S'37.875'
tRp749
sbag1
(g13
g3
NtRp750
(dp751
g16
S'T(5)./mid\\Enya_Lothlorien.mid'
p752
sg18
S'Dm'
p753
sg20
I4096
sg21
g22
(S'0.125'
tRp754
sg24
(lp755
g1
(g26
g3
NtRp756
(dp757
g29
g22
(S'0.123779296875'
tRp758
sg31
I2048
sg32
I0
sg33
I74
sbasg34
g22
(S'0.5'
tRp759
sg36
g22
(S'0.5'
tRp760
sbag1
(g13
g3
NtRp761
(dp762
g16
S'T(5)./mid\\Enya_Lothlorien.mid'
p763
sg18
S'A'
sg20
I4096
sg21
g22
(S'0.125'
tRp764
sg24
(lp765
g1
(g26
g3
NtRp766
(dp767
g29
g22
(S'0.123779296875'
tRp768
sg31
I154112
sg32
I0
sg33
I52
sbasg34
g22
(S'0.625'
tRp769
sg36
g22
(S'37.625'
tRp770
sbag1
(g13
g3
NtRp771
(dp772
g16
S'T(5)./mid\\Enya_Lothlorien.mid'
p773
sg18
S'Am'
p774
sg20
I4096
sg21
g22
(S'0.125'
tRp775
sg24
(lp776
g1
(g26
g3
NtRp777
(dp778
g29
g22
(S'0.123779296875'
tRp779
sg31
I57344
sg32
I0
sg33
I57
sbag1
(g26
g3
NtRp780
(dp781
g29
g22
(S'0.123779296875'
tRp782
sg31
I57344
sg32
I0
sg33
I84
sbasg34
g22
(S'0'
tRp783
sg36
g22
(S'14'
p784
tRp785
sbag1
(g13
g3
NtRp786
(dp787
g16
S'T(5)./mid\\Enya_Lothlorien.mid'
p788
sg18
S'A'
sg20
I4096
sg21
g22
(S'0.125'
tRp789
sg24
(lp790
g1
(g26
g3
NtRp791
(dp792
g29
g22
(S'0.123779296875'
tRp793
sg31
I159232
sg32
I0
sg33
I76
sbasg34
g22
(S'0.875'
tRp794
sg36
g22
(S'38.875'
tRp795
sbag1
(g13
g3
NtRp796
(dp797
g16
S'T(5)./mid\\Enya_Lothlorien.mid'
p798
sg18
S'A'
sg20
I4096
sg21
g22
(S'0.125'
tRp799
sg24
(lp800
g1
(g26
g3
NtRp801
(dp802
g29
g22
(S'0.123779296875'
tRp803
sg31
I47616
sg32
I0
sg33
I57
sbasg34
g22
(S'0.625'
tRp804
sg36
g22
(S'11.625'
tRp805
sbag1
(g13
g3
NtRp806
(dp807
g16
S'T(5)./mid\\Enya_Lothlorien.mid'
p808
sg18
S'A'
sg20
I4096
sg21
g22
(S'0.125'
tRp809
sg24
(lp810
g1
(g26
g3
NtRp811
(dp812
g29
g22
(S'0.123779296875'
tRp813
sg31
I48128
sg32
I0
sg33
I64
sbasg34
g22
(S'0.75'
tRp814
sg36
g22
(S'11.75'
tRp815
sbag1
(g13
g3
NtRp816
(dp817
g16
S'T(5)./mid\\Enya_Lothlorien.mid'
p818
sg18
S'Am'
p819
sg20
I4096
sg21
g22
(S'0.125'
tRp820
sg24
(lp821
g1
(g26
g3
NtRp822
(dp823
g29
g22
(S'0.123779296875'
tRp824
sg31
I112128
sg32
I0
sg33
I69
sbasg34
g22
(S'0.375'
tRp825
sg36
g22
(S'27.375'
tRp826
sbag1
(g13
g3
NtRp827
(dp828
g16
S'T(5)./mid\\Enya_Lothlorien.mid'
p829
sg18
S'A'
sg20
I4096
sg21
g22
(S'0.125'
tRp830
sg24
(lp831
g1
(g26
g3
NtRp832
(dp833
g29
g22
(S'0.123779296875'
tRp834
sg31
I154624
sg32
I0
sg33
I57
sbasg34
g22
(S'0.75'
tRp835
sg36
g22
(S'37.75'
tRp836
sbag1
(g13
g3
NtRp837
(dp838
g16
S'T(5)./mid\\Enya_Lothlorien.mid'
p839
sg18
S'Dm'
p840
sg20
I4096
sg21
g22
(S'0.125'
tRp841
sg24
(lp842
g1
(g26
g3
NtRp843
(dp844
g29
g22
(S'0.123779296875'
tRp845
sg31
I11776
sg32
I0
sg33
I81
sbasg34
g22
(S'0.875'
tRp846
sg36
g22
(S'2.875'
tRp847
sbag1
(g13
g3
NtRp848
(dp849
g16
S'T(5)./mid\\Enya_Lothlorien.mid'
p850
sg18
S'Am'
p851
sg20
I4096
sg21
g22
(S'0.125'
tRp852
sg24
(lp853
g1
(g26
g3
NtRp854
(dp855
g29
g22
(S'0.123779296875'
tRp856
sg31
I4096
sg32
I0
sg33
I69
sbag1
(g26
g3
NtRp857
(dp858
g29
g22
(S'0.123779296875'
tRp859
sg31
I4096
sg32
I0
sg33
I84
sbasg34
g22
(S'0'
tRp860
sg36
g22
(S'1'
tRp861
sbag1
(g13
g3
NtRp862
(dp863
g16
S'T(5)./mid\\Enya_Lothlorien.mid'
p864
sg18
S'Am'
p865
sg20
I4096
sg21
g22
(S'0.125'
tRp866
sg24
(lp867
g1
(g26
g3
NtRp868
(dp869
g29
g22
(S'0.123779296875'
tRp870
sg31
I121344
sg32
I0
sg33
I69
sbasg34
g22
(S'0.625'
tRp871
sg36
g22
(S'29.625'
tRp872
sbag1
(g13
g3
NtRp873
(dp874
g16
S'T(5)./mid\\Enya_Lothlorien.mid'
p875
sg18
S'Am'
p876
sg20
I4096
sg21
g22
(S'0.125'
tRp877
sg24
(lp878
g1
(g26
g3
NtRp879
(dp880
g29
g22
(S'0.123779296875'
tRp881
sg31
I112640
sg32
I0
sg33
I76
sbasg34
g22
(S'0.5'
tRp882
sg36
g22
(S'27.5'
tRp883
sbag1
(g13
g3
NtRp884
(dp885
g16
S'T(5)./mid\\Enya_Lothlorien.mid'
p886
sg18
S'Dm'
p887
sg20
I4096
sg21
g22
(S'0.125'
tRp888
sg24
(lp889
g1
(g26
g3
NtRp890
(dp891
g29
g22
(S'0.123779296875'
tRp892
sg31
I138240
sg32
I0
sg33
I62
sbasg34
g22
(S'0.75'
tRp893
sg36
g22
(S'33.75'
tRp894
sbag1
(g13
g3
NtRp895
(dp896
g16
S'T(5)./mid\\Enya_Lothlorien.mid'
p897
sg18
S'Dm'
p898
sg20
I4096
sg21
g22
(S'0.125'
tRp899
sg24
(lp900
g1
(g26
g3
NtRp901
(dp902
g29
g22
(S'0.123779296875'
tRp903
sg31
I108544
sg32
I0
sg33
I81
sbasg34
g22
(S'0.5'
tRp904
sg36
g22
(S'26.5'
tRp905
sbag1
(g13
g3
NtRp906
(dp907
g16
S'T(5)./mid\\Enya_Lothlorien.mid'
p908
sg18
S'Dm'
p909
sg20
I4096
sg21
g22
(S'0.125'
tRp910
sg24
(lp911
g1
(g26
g3
NtRp912
(dp913
g29
g22
(S'0.123779296875'
tRp914
sg31
I137728
sg32
I0
sg33
I57
sbasg34
g22
(S'0.625'
tRp915
sg36
g22
(S'33.625'
tRp916
sbag1
(g13
g3
NtRp917
(dp918
g16
S'T(5)./mid\\Enya_Lothlorien.mid'
p919
sg18
S'F'
sg20
I4096
sg21
g22
(S'0.125'
tRp920
sg24
(lp921
g1
(g26
g3
NtRp922
(dp923
g29
g22
(S'0.123779296875'
tRp924
sg31
I17408
sg32
I0
sg33
I65
sbag1
(g26
g3
NtRp925
(dp926
g29
g22
(S'0.123779296875'
tRp927
sg31
I17408
sg32
I0
sg33
I67
sbasg34
g22
(S'0.25'
tRp928
sg36
g22
(S'4.25'
tRp929
sbag1
(g13
g3
NtRp930
(dp931
g16
S'T(5)./mid\\Enya_Lothlorien.mid'
p932
sg18
S'A'
sg20
I4096
sg21
g22
(S'0.112060546875'
tRp933
sg24
(lp934
g1
(g26
g3
NtRp935
(dp936
g29
g22
(S'0.237060546875'
tRp937
sg31
I162869
sg32
I0
sg33
I81
sbasg34
g22
(S'0.762939453125'
tRp938
sg36
g22
(S'39.762939453125'
tRp939
sbag1
(g13
g3
NtRp940
(dp941
g16
S'T(5)./mid\\Enya_Lothlorien.mid'
p942
sg18
S'F'
sg20
I4096
sg21
g22
(S'0.125'
tRp943
sg24
(lp944
g1
(g26
g3
NtRp945
(dp946
g29
g22
(S'0.123779296875'
tRp947
sg31
I16896
sg32
I0
sg33
I60
sbasg34
g22
(S'0.125'
tRp948
sg36
g22
(S'4.125'
tRp949
sbag1
(g13
g3
NtRp950
(dp951
g16
S'T(5)./mid\\Enya_Lothlorien.mid'
p952
sg18
S'Dm'
p953
sg20
I4096
sg21
g22
(S'0.125'
tRp954
sg24
(lp955
g1
(g26
g3
NtRp956
(dp957
g29
g22
(S'0.123779296875'
tRp958
sg31
I512
sg32
I0
sg33
I81
sbag1
(g26
g3
NtRp959
(dp960
g29
g22
(S'0.123779296875'
tRp961
sg31
I512
sg32
I0
sg33
I88
sbasg34
g22
(S'0.125'
tRp962
sg36
g22
(S'0.125'
tRp963
sbag1
(g13
g3
NtRp964
(dp965
g16
S'T(5)./mid\\Enya_Lothlorien.mid'
p966
sg18
S'A'
sg20
I4096
sg21
g22
(S'0.125'
tRp967
sg24
(lp968
g1
(g26
g3
NtRp969
(dp970
g29
g22
(S'1.158203125'
tRp971
sg31
I163328
sg32
I0
sg33
I88
sbasg34
g22
(S'0.875'
tRp972
sg36
g22
(S'39.875'
tRp973
sbag1
(g13
g3
NtRp974
(dp975
g16
S'T(5)./mid\\Enya_Lothlorien.mid'
p976
sg18
S'C'
sg20
I4096
sg21
g22
(S'0.375'
tRp977
sg24
(lp978
g1
(g26
g3
NtRp979
(dp980
g29
g22
(S'0.373779296875'
tRp981
sg31
I21504
sg32
I0
sg33
I60
sbasg34
g22
(S'0.25'
tRp982
sg36
g22
(S'5.25'
tRp983
sbag1
(g13
g3
NtRp984
(dp985
g16
S'T(5)./mid\\Enya_Lothlorien.mid'
p986
sg18
S'A'
sg20
I4096
sg21
g22
(S'0.125'
tRp987
sg24
(lp988
g1
(g26
g3
NtRp989
(dp990
g29
g22
(S'0.2041015625'
tRp991
sg31
I161792
sg32
I0
sg33
I81
sbasg34
g22
(S'0.5'
tRp992
sg36
g22
(S'39.5'
tRp993
sbag1
(g13
g3
NtRp994
(dp995
g16
S'T(5)./mid\\Enya_Lothlorien.mid'
p996
sg18
S'C'
sg20
I4096
sg21
g22
(S'0.125'
tRp997
sg24
(lp998
g1
(g26
g3
NtRp999
(dp1000
g29
g22
(S'0.123779296875'
tRp1001
sg31
I130560
sg32
I0
sg33
I64
sbasg34
g22
(S'0.875'
tRp1002
sg36
g22
(S'31.875'
tRp1003
sbag1
(g13
g3
NtRp1004
(dp1005
g16
S'T(5)./mid\\Enya_Lothlorien.mid'
p1006
sg18
S'A'
sg20
I4096
sg21
g22
(S'0.125'
tRp1007
sg24
(lp1008
g1
(g26
g3
NtRp1009
(dp1010
g29
g22
(S'0.123779296875'
tRp1011
sg31
I48640
sg32
I0
sg33
I69
sbasg34
g22
(S'0.875'
tRp1012
sg36
g22
(S'11.875'
tRp1013
sbag1
(g13
g3
NtRp1014
(dp1015
g16
S'T(5)./mid\\Enya_Lothlorien.mid'
p1016
sg18
S'Dm'
p1017
sg20
I4096
sg21
g22
(S'0.125'
tRp1018
sg24
(lp1019
g1
(g26
g3
NtRp1020
(dp1021
g29
g22
(S'0.09619140625'
tRp1022
sg31
I109056
sg32
I0
sg33
I86
sbasg34
g22
(S'0.625'
tRp1023
sg36
g22
(S'26.625'
tRp1024
sbag1
(g13
g3
NtRp1025
(dp1026
g16
S'T(5)./mid\\Enya_Lothlorien.mid'
p1027
sg18
S'Dm'
p1028
sg20
I4096
sg21
g22
(S'0.125'
tRp1029
sg24
(lp1030
g1
(g26
g3
NtRp1031
(dp1032
g29
g22
(S'0.123779296875'
tRp1033
sg31
I116224
sg32
I0
sg33
I62
sbasg34
g22
(S'0.375'
tRp1034
sg36
g22
(S'28.375'
tRp1035
sbag1
(g13
g3
NtRp1036
(dp1037
g16
S'T(5)./mid\\Enya_Lothlorien.mid'
p1038
sg18
S'Am'
p1039
sg20
I4096
sg21
g22
(S'0.125'
tRp1040
sg24
(lp1041
g1
(g26
g3
NtRp1042
(dp1043
g29
g22
(S'0.123779296875'
tRp1044
sg31
I58880
sg32
I0
sg33
I64
sbasg34
g22
(S'0.375'
tRp1045
sg36
g22
(S'14.375'
tRp1046
sbag1
(g13
g3
NtRp1047
(dp1048
g16
S'T(5)./mid\\Enya_Lothlorien.mid'
p1049
sg18
S'D'
sg20
I4096
sg21
g22
(S'0.125'
tRp1050
sg24
(lp1051
g1
(g26
g3
NtRp1052
(dp1053
g29
g22
(S'0.123779296875'
tRp1054
sg31
I32256
sg32
I0
sg33
I62
sbasg34
g22
(S'0.875'
tRp1055
sg36
g22
(S'7.875'
tRp1056
sbag1
(g13
g3
NtRp1057
(dp1058
g16
S'T(5)./mid\\Enya_Lothlorien.mid'
p1059
sg18
S'Am'
p1060
sg20
I4096
sg21
g22
(S'0.125'
tRp1061
sg24
(lp1062
g1
(g26
g3
NtRp1063
(dp1064
g29
g22
(S'0.123779296875'
tRp1065
sg31
I58368
sg32
I0
sg33
I69
sbag1
(g26
g3
NtRp1066
(dp1067
g29
g22
(S'0.498779296875'
tRp1068
sg31
I58368
sg32
I0
sg33
I84
sbasg34
g22
(S'0.25'
tRp1069
sg36
g22
(S'14.25'
tRp1070
sbag1
(g13
g3
NtRp1071
(dp1072
g16
S'T(5)./mid\\Enya_Lothlorien.mid'
p1073
sg18
S'A'
sg20
I4096
sg21
g22
(S'0.125'
tRp1074
sg24
(lp1075
g1
(g26
g3
NtRp1076
(dp1077
g29
g22
(S'0.123779296875'
tRp1078
sg31
I160768
sg32
I0
sg33
I81
sbasg34
g22
(S'0.25'
tRp1079
sg36
g22
(S'39.25'
tRp1080
sbag1
(g13
g3
NtRp1081
(dp1082
g16
S'T(5)./mid\\Enya_Lothlorien.mid'
p1083
sg18
S'F'
sg20
I4096
sg21
g22
(S'0.125'
tRp1084
sg24
(lp1085
g1
(g26
g3
NtRp1086
(dp1087
g29
g22
(S'0.123779296875'
tRp1088
sg31
I19456
sg32
I0
sg33
I67
sbasg34
g22
(S'0.75'
tRp1089
sg36
g22
(S'4.75'
tRp1090
sbag1
(g13
g3
NtRp1091
(dp1092
g16
S'T(5)./mid\\Enya_Lothlorien.mid'
p1093
sg18
S'A'
sg20
I4096
sg21
g22
(S'0.137939453125'
tRp1094
sg24
(lp1095
g1
(g26
g3
NtRp1096
(dp1097
g29
g22
(S'0.123779296875'
tRp1098
sg31
I162304
sg32
I0
sg33
I88
sbasg34
g22
(S'0.625'
tRp1099
sg36
g22
(S'39.625'
tRp1100
sbag1
(g13
g3
NtRp1101
(dp1102
g16
S'T(5)./mid\\Enya_Lothlorien.mid'
p1103
sg18
S'D'
sg20
I4096
sg21
g22
(S'0.375'
tRp1104
sg24
(lp1105
g1
(g26
g3
NtRp1106
(dp1107
g29
g22
(S'0.373779296875'
tRp1108
sg31
I29696
sg32
I0
sg33
I62
sbasg34
g22
(S'0.25'
tRp1109
sg36
g22
(S'7.25'
tRp1110
sbag1
(g13
g3
NtRp1111
(dp1112
g16
S'T(5)./mid\\Enya_Lothlorien.mid'
p1113
sg18
S'Dm'
p1114
sg20
I4096
sg21
g22
(S'0.125'
tRp1115
sg24
(lp1116
g1
(g26
g3
NtRp1117
(dp1118
g29
g22
(S'0.123779296875'
tRp1119
sg31
I138752
sg32
I0
sg33
I65
sbasg34
g22
(S'0.875'
tRp1120
sg36
g22
(S'33.875'
tRp1121
sbatRp1122
sS'markov'
p1123
(dp1124
(g478
tp1125
(lp1126
g906
as(g1101
tp1127
(lp1128
g458
ag1
(g13
g3
NtRp1129
(dp1130
g16
S'T(5)./mid\\Enya_Lothlorien.mid'
p1131
sg18
S'D'
sg20
I4096
sg21
g22
(S'0.125'
tRp1132
sg24
(lp1133
g1
(g26
g3
NtRp1134
(dp1135
g29
g22
(S'0.123779296875'
tRp1136
sg31
I84480
sg32
I0
sg33
I50
sbasg34
g22
(S'0.625'
tRp1137
sg36
g22
(S'20.625'
tRp1138
sbas(g848
tp1139
(lp1140
g408
ag1
(g13
g3
NtRp1141
(dp1142
g16
S'T(5)./mid\\Enya_Lothlorien.mid'
p1143
sg18
S'Am'
p1144
sg20
I4096
sg21
g22
(S'0.125'
tRp1145
sg24
(lp1146
g1
(g26
g3
NtRp1147
(dp1148
g29
g22
(S'0.123779296875'
tRp1149
sg31
I12800
sg32
I0
sg33
I76
sbag1
(g26
g3
NtRp1150
(dp1151
g29
g22
(S'0.123779296875'
tRp1152
sg31
I12800
sg32
I0
sg33
I83
sbasg34
g22
(S'0.125'
tRp1153
sg36
g22
(S'3.125'
tRp1154
sbag1
(g13
g3
NtRp1155
(dp1156
g16
S'T(5)./mid\\Enya_Lothlorien.mid'
p1157
sg18
S'Am'
p1158
sg20
I4096
sg21
g22
(S'0.125'
tRp1159
sg24
(lp1160
g1
(g26
g3
NtRp1161
(dp1162
g29
g22
(S'0.123779296875'
tRp1163
sg31
I111104
sg32
I0
sg33
I76
sbag1
(g26
g3
NtRp1164
(dp1165
g29
g22
(S'0.123779296875'
tRp1166
sg31
I111104
sg32
I0
sg33
I83
sbasg34
g22
(S'0.125'
tRp1167
sg36
g22
(S'27.125'
tRp1168
sbas(g895
tp1169
(lp1170
g1014
as(g712
tp1171
(lp1172
g678
ag1
(g13
g3
NtRp1173
(dp1174
g16
S'T(5)./mid\\Enya_Lothlorien.mid'
p1175
sg18
S'Dm'
p1176
sg20
I4096
sg21
g22
(S'0.125'
tRp1177
sg24
(lp1178
g1
(g26
g3
NtRp1179
(dp1180
g29
g22
(S'0.123779296875'
tRp1181
sg31
I62464
sg32
I0
sg33
I74
sbag1
(g26
g3
NtRp1182
(dp1183
g29
g22
(S'0.498779296875'
tRp1184
sg31
I62464
sg32
I0
sg33
I89
sbasg34
g22
(S'0.25'
tRp1185
sg36
g22
(S'15.25'
tRp1186
sbag1
(g13
g3
NtRp1187
(dp1188
g16
S'T(5)./mid\\Enya_Lothlorien.mid'
p1189
sg18
S'Dm'
p1190
sg20
I4096
sg21
g22
(S'0.125'
tRp1191
sg24
(lp1192
g1
(g26
g3
NtRp1193
(dp1194
g29
g22
(S'0.123779296875'
tRp1195
sg31
I115712
sg32
I0
sg33
I74
sbag1
(g26
g3
NtRp1196
(dp1197
g29
g22
(S'0.498779296875'
tRp1198
sg31
I115712
sg32
I0
sg33
I89
sbasg34
g22
(S'0.25'
tRp1199
sg36
g22
(S'28.25'
tRp1200
sbas(g273
tp1201
(lp1202
g478
as(g726
tp1203
(lp1204
g950
ag1
(g13
g3
NtRp1205
(dp1206
g16
S'T(5)./mid\\Enya_Lothlorien.mid'
p1207
sg18
S'Dm'
p1208
sg20
I4096
sg21
g22
(S'0.125'
tRp1209
sg24
(lp1210
g1
(g26
g3
NtRp1211
(dp1212
g29
g22
(S'0.123779296875'
tRp1213
sg31
I8704
sg32
I0
sg33
I81
sbag1
(g26
g3
NtRp1214
(dp1215
g29
g22
(S'0.123779296875'
tRp1216
sg31
I8704
sg32
I0
sg33
I88
sbasg34
g22
(S'0.125'
tRp1217
sg36
g22
(S'2.125'
tRp1218
sbag1
(g13
g3
NtRp1219
(dp1220
g16
S'T(5)./mid\\Enya_Lothlorien.mid'
p1221
sg18
S'Dm'
p1222
sg20
I4096
sg21
g22
(S'0.125'
tRp1223
sg24
(lp1224
g1
(g26
g3
NtRp1225
(dp1226
g29
g22
(S'0.123779296875'
tRp1227
sg31
I107008
sg32
I0
sg33
I81
sbag1
(g26
g3
NtRp1228
(dp1229
g29
g22
(S'0.123779296875'
tRp1230
sg31
I107008
sg32
I0
sg33
I88
sbasg34
g22
(S'0.125'
tRp1231
sg36
g22
(S'26.125'
tRp1232
sbas(g1004
tp1233
(lp1234
g130
ag355
ag1
(g13
g3
NtRp1235
(dp1236
g16
S'T(5)./mid\\Enya_Lothlorien.mid'
p1237
sg18
S'A'
sg20
I4096
sg21
g22
(S'0.125'
tRp1238
sg24
(lp1239
g1
(g26
g3
NtRp1240
(dp1241
g29
g22
(S'0.123779296875'
tRp1242
sg31
I102400
sg32
I0
sg33
I57
sbasg34
g22
(S'0'
tRp1243
sg36
g22
(S'25'
p1244
tRp1245
sbag1
(g13
g3
NtRp1246
(dp1247
g16
S'T(5)./mid\\Enya_Lothlorien.mid'
p1248
sg18
S'Dm'
p1249
sg20
I4096
sg21
g22
(S'0.125'
tRp1250
sg24
(lp1251
g1
(g26
g3
NtRp1252
(dp1253
g29
g22
(S'0.123779296875'
tRp1254
sg31
I106496
sg32
I0
sg33
I74
sbag1
(g26
g3
NtRp1255
(dp1256
g29
g22
(S'0.123779296875'
tRp1257
sg31
I106496
sg32
I0
sg33
I89
sbasg34
g22
(S'0'
tRp1258
sg36
g22
(S'26'
p1259
tRp1260
sbas(g370
tp1261
(lp1262
g848
ag771
ag1
(g13
g3
NtRp1263
(dp1264
g16
S'T(5)./mid\\Enya_Lothlorien.mid'
p1265
sg18
S'Am'
p1266
sg20
I4096
sg21
g22
(S'0.125'
tRp1267
sg24
(lp1268
g1
(g26
g3
NtRp1269
(dp1270
g29
g22
(S'0.123779296875'
tRp1271
sg31
I65536
sg32
I0
sg33
I57
sbag1
(g26
g3
NtRp1272
(dp1273
g29
g22
(S'0.123779296875'
tRp1274
sg31
I65536
sg32
I0
sg33
I84
sbasg34
g22
(S'0'
tRp1275
sg36
g22
(S'16'
p1276
tRp1277
sbas(g974
tp1278
(lp1279
g225
ag1
(g13
g3
NtRp1280
(dp1281
g16
S'T(5)./mid\\Enya_Lothlorien.mid'
p1282
sg18
S'C'
sg20
I4096
sg21
g22
(S'0.125'
tRp1283
sg24
(lp1284
g1
(g26
g3
NtRp1285
(dp1286
g29
g22
(S'0.123779296875'
tRp1287
sg31
I39424
sg32
I0
sg33
I48
sbasg34
g22
(S'0.625'
tRp1288
sg36
g22
(S'9.625'
tRp1289
sbag1
(g13
g3
NtRp1290
(dp1291
g16
S'T(5)./mid\\Enya_Lothlorien.mid'
p1292
sg18
S'C'
sg20
I4096
sg21
g22
(S'0.125'
tRp1293
sg24
(lp1294
g1
(g26
g3
NtRp1295
(dp1296
g29
g22
(S'0.123779296875'
tRp1297
sg31
I76288
sg32
I0
sg33
I48
sbasg34
g22
(S'0.625'
tRp1298
sg36
g22
(S'18.625'
tRp1299
sbag1
(g13
g3
NtRp1300
(dp1301
g16
S'T(5)./mid\\Enya_Lothlorien.mid'
p1302
sg18
S'C'
sg20
I4096
sg21
g22
(S'0.125'
tRp1303
sg24
(lp1304
g1
(g26
g3
NtRp1305
(dp1306
g29
g22
(S'0.123779296875'
tRp1307
sg31
I92672
sg32
I0
sg33
I48
sbasg34
g22
(S'0.625'
tRp1308
sg36
g22
(S'22.625'
tRp1309
sbag692
ag1
(g13
g3
NtRp1310
(dp1311
g16
S'T(5)./mid\\Enya_Lothlorien.mid'
p1312
sg18
S'C'
sg20
I4096
sg21
g22
(S'0.125'
tRp1313
sg24
(lp1314
g1
(g26
g3
NtRp1315
(dp1316
g29
g22
(S'0.123779296875'
tRp1317
sg31
I145920
sg32
I0
sg33
I48
sbasg34
g22
(S'0.625'
tRp1318
sg36
g22
(S'35.625'
tRp1319
sbas(g408
tp1320
(lp1321
g38
ag1
(g13
g3
NtRp1322
(dp1323
g16
S'T(5)./mid\\Enya_Lothlorien.mid'
p1324
sg18
S'Am'
p1325
sg20
I4096
sg21
g22
(S'0.125'
tRp1326
sg24
(lp1327
g1
(g26
g3
NtRp1328
(dp1329
g29
g22
(S'0.123779296875'
tRp1330
sg31
I13312
sg32
I0
sg33
I81
sbag1
(g26
g3
NtRp1331
(dp1332
g29
g22
(S'0.498779296875'
tRp1333
sg31
I13312
sg32
I0
sg33
I84
sbasg34
g22
(S'0.25'
tRp1334
sg36
g22
(S'3.25'
tRp1335
sbag1
(g13
g3
NtRp1336
(dp1337
g16
S'T(5)./mid\\Enya_Lothlorien.mid'
p1338
sg18
S'Am'
p1339
sg20
I4096
sg21
g22
(S'0.125'
tRp1340
sg24
(lp1341
g1
(g26
g3
NtRp1342
(dp1343
g29
g22
(S'0.123779296875'
tRp1344
sg31
I111616
sg32
I0
sg33
I81
sbag1
(g26
g3
NtRp1345
(dp1346
g29
g22
(S'0.498779296875'
tRp1347
sg31
I111616
sg32
I0
sg33
I84
sbasg34
g22
(S'0.25'
tRp1348
sg36
g22
(S'27.25'
tRp1349
sbas(g381
tp1350
(lp1351
g1
(g13
g3
NtRp1352
(dp1353
g16
S'T(5)./mid\\Enya_Lothlorien.mid'
p1354
sg18
S'C'
sg20
I4096
sg21
g22
(S'0.125'
tRp1355
sg24
(lp1356
g1
(g26
g3
NtRp1357
(dp1358
g29
g22
(S'0.123779296875'
tRp1359
sg31
I40448
sg32
I0
sg33
I60
sbasg34
g22
(S'0.875'
tRp1360
sg36
g22
(S'9.875'
tRp1361
sbag1
(g13
g3
NtRp1362
(dp1363
g16
S'T(5)./mid\\Enya_Lothlorien.mid'
p1364
sg18
S'C'
sg20
I4096
sg21
g22
(S'0.125'
tRp1365
sg24
(lp1366
g1
(g26
g3
NtRp1367
(dp1368
g29
g22
(S'0.123779296875'
tRp1369
sg31
I93696
sg32
I0
sg33
I60
sbasg34
g22
(S'0.875'
tRp1370
sg36
g22
(S'22.875'
tRp1371
sbag1
(g13
g3
NtRp1372
(dp1373
g16
S'T(5)./mid\\Enya_Lothlorien.mid'
p1374
sg18
S'C'
sg20
I4096
sg21
g22
(S'0.125'
tRp1375
sg24
(lp1376
g1
(g26
g3
NtRp1377
(dp1378
g29
g22
(S'0.123779296875'
tRp1379
sg31
I146944
sg32
I0
sg33
I60
sbasg34
g22
(S'0.875'
tRp1380
sg36
g22
(S'35.875'
tRp1381
sbas(g458
tp1382
(lp1383
g215
ag1
(g13
g3
NtRp1384
(dp1385
g16
S'T(5)./mid\\Enya_Lothlorien.mid'
p1386
sg18
S'D'
sg20
I4096
sg21
g22
(S'0.125'
tRp1387
sg24
(lp1388
g1
(g26
g3
NtRp1389
(dp1390
g29
g22
(S'0.123779296875'
tRp1391
sg31
I84992
sg32
I0
sg33
I57
sbasg34
g22
(S'0.75'
tRp1392
sg36
g22
(S'20.75'
tRp1393
sbas(g1111
tp1394
(lp1395
g1
(g13
g3
NtRp1396
(dp1397
g16
S'T(5)./mid\\Enya_Lothlorien.mid'
p1398
sg18
S'F'
sg20
I4096
sg21
g22
(S'0.125'
tRp1399
sg24
(lp1400
g1
(g26
g3
NtRp1401
(dp1402
g29
g22
(S'0.123779296875'
tRp1403
sg31
I139264
sg32
I0
sg33
I53
sbag1
(g26
g3
NtRp1404
(dp1405
g29
g22
(S'0.248779296875'
tRp1406
sg31
I139264
sg32
I0
sg33
I69
sbasg34
g22
(S'0'
tRp1407
sg36
g22
(S'34'
p1408
tRp1409
sbas(g796
tp1410
(lp1411
g806
ag1
(g13
g3
NtRp1412
(dp1413
g16
S'T(5)./mid\\Enya_Lothlorien.mid'
p1414
sg18
S'A'
sg20
I4096
sg21
g22
(S'0.125'
tRp1415
sg24
(lp1416
g1
(g26
g3
NtRp1417
(dp1418
g29
g22
(S'0.123779296875'
tRp1419
sg31
I52224
sg32
I0
sg33
I64
sbasg34
g22
(S'0.75'
tRp1420
sg36
g22
(S'12.75'
tRp1421
sbag1
(g13
g3
NtRp1422
(dp1423
g16
S'T(5)./mid\\Enya_Lothlorien.mid'
p1424
sg18
S'A'
sg20
I4096
sg21
g22
(S'0.125'
tRp1425
sg24
(lp1426
g1
(g26
g3
NtRp1427
(dp1428
g29
g22
(S'0.123779296875'
tRp1429
sg31
I101376
sg32
I0
sg33
I64
sbasg34
g22
(S'0.75'
tRp1430
sg36
g22
(S'24.75'
tRp1431
sbag1
(g13
g3
NtRp1432
(dp1433
g16
S'T(5)./mid\\Enya_Lothlorien.mid'
p1434
sg18
S'A'
sg20
I4096
sg21
g22
(S'0.125'
tRp1435
sg24
(lp1436
g1
(g26
g3
NtRp1437
(dp1438
g29
g22
(S'0.123779296875'
tRp1439
sg31
I105472
sg32
I0
sg33
I64
sbasg34
g22
(S'0.75'
tRp1440
sg36
g22
(S'25.75'
tRp1441
sbas(g1047
tp1442
(lp1443
g1
(g13
g3
NtRp1444
(dp1445
g16
S'T(5)./mid\\Enya_Lothlorien.mid'
p1446
sg18
S'F'
sg20
I4096
sg21
g22
(S'0.125'
tRp1447
sg24
(lp1448
g1
(g26
g3
NtRp1449
(dp1450
g29
g22
(S'0.123779296875'
tRp1451
sg31
I32768
sg32
I0
sg33
I53
sbag1
(g26
g3
NtRp1452
(dp1453
g29
g22
(S'0.248779296875'
tRp1454
sg31
I32768
sg32
I0
sg33
I69
sbasg34
g22
(S'0'
tRp1455
sg36
g22
(S'8'
tRp1456
sbag1
(g13
g3
NtRp1457
(dp1458
g16
S'T(5)./mid\\Enya_Lothlorien.mid'
p1459
sg18
S'F'
sg20
I4096
sg21
g22
(S'0.125'
tRp1460
sg24
(lp1461
g1
(g26
g3
NtRp1462
(dp1463
g29
g22
(S'0.123779296875'
tRp1464
sg31
I86016
sg32
I0
sg33
I53
sbag1
(g26
g3
NtRp1465
(dp1466
g29
g22
(S'0.248779296875'
tRp1467
sg31
I86016
sg32
I0
sg33
I69
sbasg34
g22
(S'0'
tRp1468
sg36
g22
(S'21'
p1469
tRp1470
sbas(g331
tp1471
(lp1472
g646
as(g355
tp1473
(lp1474
g712
ag1
(g13
g3
NtRp1475
(dp1476
g16
S'T(5)./mid\\Enya_Lothlorien.mid'
p1477
sg18
S'Dm'
p1478
sg20
I4096
sg21
g22
(S'0.125'
tRp1479
sg24
(lp1480
g1
(g26
g3
NtRp1481
(dp1482
g29
g22
(S'0.123779296875'
tRp1483
sg31
I61952
sg32
I0
sg33
I69
sbag1
(g26
g3
NtRp1484
(dp1485
g29
g22
(S'0.123779296875'
tRp1486
sg31
I61952
sg32
I0
sg33
I88
sbasg34
g22
(S'0.125'
tRp1487
sg36
g22
(S'15.125'
tRp1488
sbag1
(g13
g3
NtRp1489
(dp1490
g16
S'T(5)./mid\\Enya_Lothlorien.mid'
p1491
sg18
S'Dm'
p1492
sg20
I4096
sg21
g22
(S'0.125'
tRp1493
sg24
(lp1494
g1
(g26
g3
NtRp1495
(dp1496
g29
g22
(S'0.123779296875'
tRp1497
sg31
I115200
sg32
I0
sg33
I69
sbag1
(g26
g3
NtRp1498
(dp1499
g29
g22
(S'0.123779296875'
tRp1500
sg31
I115200
sg32
I0
sg33
I88
sbasg34
g22
(S'0.125'
tRp1501
sg36
g22
(S'28.125'
tRp1502
sbas(g109
tp1503
(lp1504
g204
ag1
(g13
g3
NtRp1505
(dp1506
g16
S'T(5)./mid\\Enya_Lothlorien.mid'
p1507
sg18
S'Am'
p1508
sg20
I4096
sg21
g22
(S'0.125'
tRp1509
sg24
(lp1510
g1
(g26
g3
NtRp1511
(dp1512
g29
g22
(S'0.123779296875'
tRp1513
sg31
I14336
sg32
I0
sg33
I69
sbasg34
g22
(S'0.5'
tRp1514
sg36
g22
(S'3.5'
tRp1515
sbas(g73
tp1516
(lp1517
g862
as(g225
tp1518
(lp1519
g295
ag381
ag1
(g13
g3
NtRp1520
(dp1521
g16
S'T(5)./mid\\Enya_Lothlorien.mid'
p1522
sg18
S'C'
sg20
I4096
sg21
g22
(S'0.125'
tRp1523
sg24
(lp1524
g1
(g26
g3
NtRp1525
(dp1526
g29
g22
(S'0.123779296875'
tRp1527
sg31
I76800
sg32
I0
sg33
I55
sbasg34
g22
(S'0.75'
tRp1528
sg36
g22
(S'18.75'
tRp1529
sbag1
(g13
g3
NtRp1530
(dp1531
g16
S'T(5)./mid\\Enya_Lothlorien.mid'
p1532
sg18
S'C'
sg20
I4096
sg21
g22
(S'0.125'
tRp1533
sg24
(lp1534
g1
(g26
g3
NtRp1535
(dp1536
g29
g22
(S'0.123779296875'
tRp1537
sg31
I93184
sg32
I0
sg33
I55
sbag1
(g26
g3
NtRp1538
(dp1539
g29
g22
(S'0.248779296875'
tRp1540
sg31
I93184
sg32
I0
sg33
I67
sbasg34
g22
(S'0.75'
tRp1541
sg36
g22
(S'22.75'
tRp1542
sbag1
(g13
g3
NtRp1543
(dp1544
g16
S'T(5)./mid\\Enya_Lothlorien.mid'
p1545
sg18
S'C'
sg20
I4096
sg21
g22
(S'0.125'
tRp1546
sg24
(lp1547
g1
(g26
g3
NtRp1548
(dp1549
g29
g22
(S'0.123779296875'
tRp1550
sg31
I146432
sg32
I0
sg33
I55
sbag1
(g26
g3
NtRp1551
(dp1552
g29
g22
(S'0.248779296875'
tRp1553
sg31
I146432
sg32
I0
sg33
I67
sbasg34
g22
(S'0.75'
tRp1554
sg36
g22
(S'35.75'
tRp1555
sbas(g667
tp1556
(lp1557
g151
ag1
(g13
g3
NtRp1558
(dp1559
g16
S'T(5)./mid\\Enya_Lothlorien.mid'
p1560
sg18
S'Am'
p1561
sg20
I4096
sg21
g22
(S'0.25'
tRp1562
sg24
(lp1563
g1
(g26
g3
NtRp1564
(dp1565
g29
g22
(S'0.248779296875'
tRp1566
sg31
I15360
sg32
I0
sg33
I81
sbasg34
g22
(S'0.75'
tRp1567
sg36
g22
(S'3.75'
tRp1568
sbag1
(g13
g3
NtRp1569
(dp1570
g16
S'T(5)./mid\\Enya_Lothlorien.mid'
p1571
sg18
S'Am'
p1572
sg20
I4096
sg21
g22
(S'0.25'
tRp1573
sg24
(lp1574
g1
(g26
g3
NtRp1575
(dp1576
g29
g22
(S'0.248779296875'
tRp1577
sg31
I60416
sg32
I0
sg33
I81
sbasg34
g22
(S'0.75'
tRp1578
sg36
g22
(S'14.75'
tRp1579
sbag1
(g13
g3
NtRp1580
(dp1581
g16
S'T(5)./mid\\Enya_Lothlorien.mid'
p1582
sg18
S'Am'
p1583
sg20
I4096
sg21
g22
(S'0.25'
tRp1584
sg24
(lp1585
g1
(g26
g3
NtRp1586
(dp1587
g29
g22
(S'0.248779296875'
tRp1588
sg31
I68608
sg32
I0
sg33
I81
sbasg34
g22
(S'0.75'
tRp1589
sg36
g22
(S'16.75'
tRp1590
sbas(g422
tp1591
(lp1592
g370
ag615
ag1
(g13
g3
NtRp1593
(dp1594
g16
S'T(5)./mid\\Enya_Lothlorien.mid'
p1595
sg18
S'Dm'
p1596
sg20
I4096
sg21
g22
(S'0.25'
tRp1597
sg24
(lp1598
g1
(g26
g3
NtRp1599
(dp1600
g29
g22
(S'0.248779296875'
tRp1601
sg31
I56320
sg32
I0
sg33
I86
sbasg34
g22
(S'0.75'
tRp1602
sg36
g22
(S'13.75'
tRp1603
sbag1
(g13
g3
NtRp1604
(dp1605
g16
S'T(5)./mid\\Enya_Lothlorien.mid'
p1606
sg18
S'Dm'
p1607
sg20
I4096
sg21
g22
(S'0.25'
tRp1608
sg24
(lp1609
g1
(g26
g3
NtRp1610
(dp1611
g29
g22
(S'0.248779296875'
tRp1612
sg31
I64512
sg32
I0
sg33
I86
sbasg34
g22
(S'0.75'
tRp1613
sg36
g22
(S'15.75'
tRp1614
sbas(g750
tp1615
(lp1616
g422
ag1
(g13
g3
NtRp1617
(dp1618
g16
S'T(5)./mid\\Enya_Lothlorien.mid'
p1619
sg18
S'Dm'
p1620
sg20
I4096
sg21
g22
(S'0.125'
tRp1621
sg24
(lp1622
g1
(g26
g3
NtRp1623
(dp1624
g29
g22
(S'0.123779296875'
tRp1625
sg31
I10752
sg32
I0
sg33
I81
sbasg34
g22
(S'0.625'
tRp1626
sg36
g22
(S'2.625'
tRp1627
sbag1
(g13
g3
NtRp1628
(dp1629
g16
S'T(5)./mid\\Enya_Lothlorien.mid'
p1630
sg18
S'Dm'
p1631
sg20
I4096
sg21
g22
(S'0.125'
tRp1632
sg24
(lp1633
g1
(g26
g3
NtRp1634
(dp1635
g29
g22
(S'0.373779296875'
tRp1636
sg31
I55808
sg32
I0
sg33
I81
sbasg34
g22
(S'0.625'
tRp1637
sg36
g22
(S'13.625'
tRp1638
sbag1
(g13
g3
NtRp1639
(dp1640
g16
S'T(5)./mid\\Enya_Lothlorien.mid'
p1641
sg18
S'Dm'
p1642
sg20
I4096
sg21
g22
(S'0.125'
tRp1643
sg24
(lp1644
g1
(g26
g3
NtRp1645
(dp1646
g29
g22
(S'0.373779296875'
tRp1647
sg31
I64000
sg32
I0
sg33
I81
sbasg34
g22
(S'0.625'
tRp1648
sg36
g22
(S'15.625'
tRp1649
sbas(g862
tp1650
(lp1651
g1
(g13
g3
NtRp1652
(dp1653
g16
S'T(5)./mid\\Enya_Lothlorien.mid'
p1654
sg18
S'Am'
p1655
sg20
I4096
sg21
g22
(S'0.125'
tRp1656
sg24
(lp1657
g1
(g26
g3
NtRp1658
(dp1659
g29
g22
(S'0.248779296875'
tRp1660
sg31
I121856
sg32
I0
sg33
I81
sbasg34
g22
(S'0.75'
tRp1661
sg36
g22
(S'29.75'
tRp1662
sbas(g284
tp1663
(lp1664
g1
(g13
g3
NtRp1665
(dp1666
g16
S'T(5)./mid\\Enya_Lothlorien.mid'
p1667
sg18
S'Dm'
p1668
sg20
I4096
sg21
g22
(S'0.125'
tRp1669
sg24
(lp1670
g1
(g26
g3
NtRp1671
(dp1672
g29
g22
(S'0.248779296875'
tRp1673
sg31
I117760
sg32
I0
sg33
I86
sbasg34
g22
(S'0.75'
tRp1674
sg36
g22
(S'28.75'
tRp1675
sbas(g204
tp1676
(lp1677
g667
ag1
(g13
g3
NtRp1678
(dp1679
g16
S'T(5)./mid\\Enya_Lothlorien.mid'
p1680
sg18
S'Am'
p1681
sg20
I4096
sg21
g22
(S'0.125'
tRp1682
sg24
(lp1683
g1
(g26
g3
NtRp1684
(dp1685
g29
g22
(S'0.123779296875'
tRp1686
sg31
I14848
sg32
I0
sg33
I76
sbasg34
g22
(S'0.625'
tRp1687
sg36
g22
(S'3.625'
tRp1688
sbag1
(g13
g3
NtRp1689
(dp1690
g16
S'T(5)./mid\\Enya_Lothlorien.mid'
p1691
sg18
S'Am'
p1692
sg20
I4096
sg21
g22
(S'0.125'
tRp1693
sg24
(lp1694
g1
(g26
g3
NtRp1695
(dp1696
g29
g22
(S'0.373779296875'
tRp1697
sg31
I59904
sg32
I0
sg33
I76
sbasg34
g22
(S'0.625'
tRp1698
sg36
g22
(S'14.625'
tRp1699
sbag1
(g13
g3
NtRp1700
(dp1701
g16
S'T(5)./mid\\Enya_Lothlorien.mid'
p1702
sg18
S'Am'
p1703
sg20
I4096
sg21
g22
(S'0.125'
tRp1704
sg24
(lp1705
g1
(g26
g3
NtRp1706
(dp1707
g29
g22
(S'0.373779296875'
tRp1708
sg31
I68096
sg32
I0
sg33
I76
sbasg34
g22
(S'0.625'
tRp1709
sg36
g22
(S'16.625'
tRp1710
sbas(g489
tp1711
(lp1712
g1101
ag1
(g13
g3
NtRp1713
(dp1714
g16
S'T(5)./mid\\Enya_Lothlorien.mid'
p1715
sg18
S'D'
sg20
I4096
sg21
g22
(S'0.375'
tRp1716
sg24
(lp1717
g1
(g26
g3
NtRp1718
(dp1719
g29
g22
(S'0.373779296875'
tRp1720
sg31
I82944
sg32
I0
sg33
I62
sbasg34
g22
(S'0.25'
tRp1721
sg36
g22
(S'20.25'
tRp1722
sbas(g940
tp1723
(lp1724
g917
ag1
(g13
g3
NtRp1725
(dp1726
g16
S'T(5)./mid\\Enya_Lothlorien.mid'
p1727
sg18
S'F'
sg20
I4096
sg21
g22
(S'0.125'
tRp1728
sg24
(lp1729
g1
(g26
g3
NtRp1730
(dp1731
g29
g22
(S'0.123779296875'
tRp1732
sg31
I25600
sg32
I0
sg33
I65
sbag1
(g26
g3
NtRp1733
(dp1734
g29
g22
(S'0.123779296875'
tRp1735
sg31
I25600
sg32
I0
sg33
I67
sbasg34
g22
(S'0.25'
tRp1736
sg36
g22
(S'6.25'
tRp1737
sbag1
(g13
g3
NtRp1738
(dp1739
g16
S'T(5)./mid\\Enya_Lothlorien.mid'
p1740
sg18
S'F'
sg20
I4096
sg21
g22
(S'0.125'
tRp1741
sg24
(lp1742
g1
(g26
g3
NtRp1743
(dp1744
g29
g22
(S'0.123779296875'
tRp1745
sg31
I33792
sg32
I0
sg33
I65
sbag1
(g26
g3
NtRp1746
(dp1747
g29
g22
(S'0.123779296875'
tRp1748
sg31
I33792
sg32
I0
sg33
I67
sbasg34
g22
(S'0.25'
tRp1749
sg36
g22
(S'8.25'
tRp1750
sbag1
(g13
g3
NtRp1751
(dp1752
g16
S'T(5)./mid\\Enya_Lothlorien.mid'
p1753
sg18
S'F'
sg20
I4096
sg21
g22
(S'0.125'
tRp1754
sg24
(lp1755
g1
(g26
g3
NtRp1756
(dp1757
g29
g22
(S'0.123779296875'
tRp1758
sg31
I41984
sg32
I0
sg33
I65
sbag1
(g26
g3
NtRp1759
(dp1760
g29
g22
(S'0.123779296875'
tRp1761
sg31
I41984
sg32
I0
sg33
I67
sbasg34
g22
(S'0.25'
tRp1762
sg36
g22
(S'10.25'
tRp1763
sbag1
(g13
g3
NtRp1764
(dp1765
g16
S'T(5)./mid\\Enya_Lothlorien.mid'
p1766
sg18
S'F'
sg20
I4096
sg21
g22
(S'0.125'
tRp1767
sg24
(lp1768
g1
(g26
g3
NtRp1769
(dp1770
g29
g22
(S'0.123779296875'
tRp1771
sg31
I70656
sg32
I0
sg33
I65
sbag1
(g26
g3
NtRp1772
(dp1773
g29
g22
(S'0.123779296875'
tRp1774
sg31
I70656
sg32
I0
sg33
I67
sbasg34
g22
(S'0.25'
tRp1775
sg36
g22
(S'17.25'
tRp1776
sbag1
(g13
g3
NtRp1777
(dp1778
g16
S'T(5)./mid\\Enya_Lothlorien.mid'
p1779
sg18
S'F'
sg20
I4096
sg21
g22
(S'0.125'
tRp1780
sg24
(lp1781
g1
(g26
g3
NtRp1782
(dp1783
g29
g22
(S'0.123779296875'
tRp1784
sg31
I78848
sg32
I0
sg33
I65
sbag1
(g26
g3
NtRp1785
(dp1786
g29
g22
(S'0.123779296875'
tRp1787
sg31
I78848
sg32
I0
sg33
I67
sbasg34
g22
(S'0.25'
tRp1788
sg36
g22
(S'19.25'
tRp1789
sbag1
(g13
g3
NtRp1790
(dp1791
g16
S'T(5)./mid\\Enya_Lothlorien.mid'
p1792
sg18
S'F'
sg20
I4096
sg21
g22
(S'0.125'
tRp1793
sg24
(lp1794
g1
(g26
g3
NtRp1795
(dp1796
g29
g22
(S'0.123779296875'
tRp1797
sg31
I87040
sg32
I0
sg33
I65
sbag1
(g26
g3
NtRp1798
(dp1799
g29
g22
(S'0.123779296875'
tRp1800
sg31
I87040
sg32
I0
sg33
I67
sbasg34
g22
(S'0.25'
tRp1801
sg36
g22
(S'21.25'
tRp1802
sbag1
(g13
g3
NtRp1803
(dp1804
g16
S'T(5)./mid\\Enya_Lothlorien.mid'
p1805
sg18
S'F'
sg20
I4096
sg21
g22
(S'0.125'
tRp1806
sg24
(lp1807
g1
(g26
g3
NtRp1808
(dp1809
g29
g22
(S'0.123779296875'
tRp1810
sg31
I95232
sg32
I0
sg33
I65
sbag1
(g26
g3
NtRp1811
(dp1812
g29
g22
(S'0.123779296875'
tRp1813
sg31
I95232
sg32
I0
sg33
I67
sbasg34
g22
(S'0.25'
tRp1814
sg36
g22
(S'23.25'
tRp1815
sbag1
(g13
g3
NtRp1816
(dp1817
g16
S'T(5)./mid\\Enya_Lothlorien.mid'
p1818
sg18
S'F'
sg20
I4096
sg21
g22
(S'0.125'
tRp1819
sg24
(lp1820
g1
(g26
g3
NtRp1821
(dp1822
g29
g22
(S'0.123779296875'
tRp1823
sg31
I123904
sg32
I0
sg33
I65
sbag1
(g26
g3
NtRp1824
(dp1825
g29
g22
(S'0.123779296875'
tRp1826
sg31
I123904
sg32
I0
sg33
I67
sbasg34
g22
(S'0.25'
tRp1827
sg36
g22
(S'30.25'
tRp1828
sbag1
(g13
g3
NtRp1829
(dp1830
g16
S'T(5)./mid\\Enya_Lothlorien.mid'
p1831
sg18
S'F'
sg20
I4096
sg21
g22
(S'0.125'
tRp1832
sg24
(lp1833
g1
(g26
g3
NtRp1834
(dp1835
g29
g22
(S'0.123779296875'
tRp1836
sg31
I132096
sg32
I0
sg33
I65
sbag1
(g26
g3
NtRp1837
(dp1838
g29
g22
(S'0.123779296875'
tRp1839
sg31
I132096
sg32
I0
sg33
I67
sbasg34
g22
(S'0.25'
tRp1840
sg36
g22
(S'32.25'
tRp1841
sbag1
(g13
g3
NtRp1842
(dp1843
g16
S'T(5)./mid\\Enya_Lothlorien.mid'
p1844
sg18
S'F'
sg20
I4096
sg21
g22
(S'0.125'
tRp1845
sg24
(lp1846
g1
(g26
g3
NtRp1847
(dp1848
g29
g22
(S'0.123779296875'
tRp1849
sg31
I140288
sg32
I0
sg33
I65
sbag1
(g26
g3
NtRp1850
(dp1851
g29
g22
(S'0.123779296875'
tRp1852
sg31
I140288
sg32
I0
sg33
I67
sbasg34
g22
(S'0.25'
tRp1853
sg36
g22
(S'34.25'
tRp1854
sbag1
(g13
g3
NtRp1855
(dp1856
g16
S'T(5)./mid\\Enya_Lothlorien.mid'
p1857
sg18
S'F'
sg20
I4096
sg21
g22
(S'0.125'
tRp1858
sg24
(lp1859
g1
(g26
g3
NtRp1860
(dp1861
g29
g22
(S'0.123779296875'
tRp1862
sg31
I148480
sg32
I0
sg33
I65
sbag1
(g26
g3
NtRp1863
(dp1864
g29
g22
(S'0.123779296875'
tRp1865
sg31
I148480
sg32
I0
sg33
I67
sbasg34
g22
(S'0.25'
tRp1866
sg36
g22
(S'36.25'
tRp1867
sbas(g162
tp1868
(lp1869
g702
as(g1071
tp1870
(lp1871
g172
as(g318
tp1872
(lp1873
g489
ag1
(g13
g3
NtRp1874
(dp1875
g16
S'T(5)./mid\\Enya_Lothlorien.mid'
p1876
sg18
S'D'
sg20
I4096
sg21
g22
(S'0.125'
tRp1877
sg24
(lp1878
g1
(g26
g3
NtRp1879
(dp1880
g29
g22
(S'0.123779296875'
tRp1881
sg31
I82432
sg32
I0
sg33
I57
sbasg34
g22
(S'0.125'
tRp1882
sg36
g22
(S'20.125'
tRp1883
sbas(g14
tp1884
(lp1885
g895
as(g130
tp1886
(lp1887
g1
(g13
g3
NtRp1888
(dp1889
g16
S'T(5)./mid\\Enya_Lothlorien.mid'
p1890
sg18
S'A'
sg20
I4096
sg21
g22
(S'0.125'
tRp1891
sg24
(lp1892
g1
(g26
g3
NtRp1893
(dp1894
g29
g22
(S'0.123779296875'
tRp1895
sg31
I49664
sg32
I0
sg33
I64
sbasg34
g22
(S'0.125'
tRp1896
sg36
g22
(S'12.125'
tRp1897
sbag1
(g13
g3
NtRp1898
(dp1899
g16
S'T(5)./mid\\Enya_Lothlorien.mid'
p1900
sg18
S'A'
sg20
I4096
sg21
g22
(S'0.125'
tRp1901
sg24
(lp1902
g1
(g26
g3
NtRp1903
(dp1904
g29
g22
(S'0.123779296875'
tRp1905
sg31
I102912
sg32
I0
sg33
I64
sbasg34
g22
(S'0.125'
tRp1906
sg36
g22
(S'25.125'
tRp1907
sbag1
(g13
g3
NtRp1908
(dp1909
g16
S'T(5)./mid\\Enya_Lothlorien.mid'
p1910
sg18
S'A'
sg20
I4096
sg21
g22
(S'0.125'
tRp1911
sg24
(lp1912
g1
(g26
g3
NtRp1913
(dp1914
g29
g22
(S'0.123779296875'
tRp1915
sg31
I156160
sg32
I0
sg33
I64
sbasg34
g22
(S'0.125'
tRp1916
sg36
g22
(S'38.125'
tRp1917
sbas(g141
tp1918
(lp1919
g1
(g13
g3
NtRp1920
(dp1921
g16
S'T(5)./mid\\Enya_Lothlorien.mid'
p1922
sg18
S'F'
sg20
I4096
sg21
g22
(S'0.125'
tRp1923
sg24
(lp1924
g1
(g26
g3
NtRp1925
(dp1926
g29
g22
(S'0.123779296875'
tRp1927
sg31
I24576
sg32
I0
sg33
I53
sbag1
(g26
g3
NtRp1928
(dp1929
g29
g22
(S'0.248779296875'
tRp1930
sg31
I24576
sg32
I0
sg33
I69
sbasg34
g22
(S'0'
tRp1931
sg36
g22
(S'6'
tRp1932
sbag1
(g13
g3
NtRp1933
(dp1934
g16
S'T(5)./mid\\Enya_Lothlorien.mid'
p1935
sg18
S'F'
sg20
I4096
sg21
g22
(S'0.125'
tRp1936
sg24
(lp1937
g1
(g26
g3
NtRp1938
(dp1939
g29
g22
(S'0.123779296875'
tRp1940
sg31
I40960
sg32
I0
sg33
I53
sbag1
(g26
g3
NtRp1941
(dp1942
g29
g22
(S'0.248779296875'
tRp1943
sg31
I40960
sg32
I0
sg33
I69
sbasg34
g22
(S'0'
tRp1944
sg36
g22
(S'10'
p1945
tRp1946
sbag1
(g13
g3
NtRp1947
(dp1948
g16
S'T(5)./mid\\Enya_Lothlorien.mid'
p1949
sg18
S'F'
sg20
I4096
sg21
g22
(S'0.125'
tRp1950
sg24
(lp1951
g1
(g26
g3
NtRp1952
(dp1953
g29
g22
(S'0.123779296875'
tRp1954
sg31
I77824
sg32
I0
sg33
I53
sbag1
(g26
g3
NtRp1955
(dp1956
g29
g22
(S'0.248779296875'
tRp1957
sg31
I77824
sg32
I0
sg33
I69
sbasg34
g22
(S'0'
tRp1958
sg36
g22
(S'19'
p1959
tRp1960
sbag1
(g13
g3
NtRp1961
(dp1962
g16
S'T(5)./mid\\Enya_Lothlorien.mid'
p1963
sg18
S'F'
sg20
I4096
sg21
g22
(S'0.125'
tRp1964
sg24
(lp1965
g1
(g26
g3
NtRp1966
(dp1967
g29
g22
(S'0.123779296875'
tRp1968
sg31
I94208
sg32
I0
sg33
I53
sbag1
(g26
g3
NtRp1969
(dp1970
g29
g22
(S'0.248779296875'
tRp1971
sg31
I94208
sg32
I0
sg33
I69
sbasg34
g22
(S'0'
tRp1972
sg36
g22
(S'23'
p1973
tRp1974
sbag1
(g13
g3
NtRp1975
(dp1976
g16
S'T(5)./mid\\Enya_Lothlorien.mid'
p1977
sg18
S'F'
sg20
I4096
sg21
g22
(S'0.125'
tRp1978
sg24
(lp1979
g1
(g26
g3
NtRp1980
(dp1981
g29
g22
(S'0.123779296875'
tRp1982
sg31
I147456
sg32
I0
sg33
I53
sbag1
(g26
g3
NtRp1983
(dp1984
g29
g22
(S'0.248779296875'
tRp1985
sg31
I147456
sg32
I0
sg33
I69
sbasg34
g22
(S'0'
tRp1986
sg36
g22
(S'36'
p1987
tRp1988
sbas(g786
tp1989
(lp1990
g182
as(g588
tp1991
(lp1992
g940
ag1
(g13
g3
NtRp1993
(dp1994
g16
S'T(5)./mid\\Enya_Lothlorien.mid'
p1995
sg18
S'F'
sg20
I4096
sg21
g22
(S'0.125'
tRp1996
sg24
(lp1997
g1
(g26
g3
NtRp1998
(dp1999
g29
g22
(S'0.123779296875'
tRp2000
sg31
I25088
sg32
I0
sg33
I60
sbasg34
g22
(S'0.125'
tRp2001
sg36
g22
(S'6.125'
tRp2002
sbag1
(g13
g3
NtRp2003
(dp2004
g16
S'T(5)./mid\\Enya_Lothlorien.mid'
p2005
sg18
S'F'
sg20
I4096
sg21
g22
(S'0.125'
tRp2006
sg24
(lp2007
g1
(g26
g3
NtRp2008
(dp2009
g29
g22
(S'0.123779296875'
tRp2010
sg31
I33280
sg32
I0
sg33
I60
sbasg34
g22
(S'0.125'
tRp2011
sg36
g22
(S'8.125'
tRp2012
sbag1
(g13
g3
NtRp2013
(dp2014
g16
S'T(5)./mid\\Enya_Lothlorien.mid'
p2015
sg18
S'F'
sg20
I4096
sg21
g22
(S'0.125'
tRp2016
sg24
(lp2017
g1
(g26
g3
NtRp2018
(dp2019
g29
g22
(S'0.123779296875'
tRp2020
sg31
I41472
sg32
I0
sg33
I60
sbasg34
g22
(S'0.125'
tRp2021
sg36
g22
(S'10.125'
tRp2022
sbag1
(g13
g3
NtRp2023
(dp2024
g16
S'T(5)./mid\\Enya_Lothlorien.mid'
p2025
sg18
S'F'
sg20
I4096
sg21
g22
(S'0.125'
tRp2026
sg24
(lp2027
g1
(g26
g3
NtRp2028
(dp2029
g29
g22
(S'0.123779296875'
tRp2030
sg31
I70144
sg32
I0
sg33
I60
sbasg34
g22
(S'0.125'
tRp2031
sg36
g22
(S'17.125'
tRp2032
sbag1
(g13
g3
NtRp2033
(dp2034
g16
S'T(5)./mid\\Enya_Lothlorien.mid'
p2035
sg18
S'F'
sg20
I4096
sg21
g22
(S'0.125'
tRp2036
sg24
(lp2037
g1
(g26
g3
NtRp2038
(dp2039
g29
g22
(S'0.123779296875'
tRp2040
sg31
I78336
sg32
I0
sg33
I60
sbasg34
g22
(S'0.125'
tRp2041
sg36
g22
(S'19.125'
tRp2042
sbag1
(g13
g3
NtRp2043
(dp2044
g16
S'T(5)./mid\\Enya_Lothlorien.mid'
p2045
sg18
S'F'
sg20
I4096
sg21
g22
(S'0.125'
tRp2046
sg24
(lp2047
g1
(g26
g3
NtRp2048
(dp2049
g29
g22
(S'0.123779296875'
tRp2050
sg31
I86528
sg32
I0
sg33
I60
sbasg34
g22
(S'0.125'
tRp2051
sg36
g22
(S'21.125'
tRp2052
sbag1
(g13
g3
NtRp2053
(dp2054
g16
S'T(5)./mid\\Enya_Lothlorien.mid'
p2055
sg18
S'F'
sg20
I4096
sg21
g22
(S'0.125'
tRp2056
sg24
(lp2057
g1
(g26
g3
NtRp2058
(dp2059
g29
g22
(S'0.123779296875'
tRp2060
sg31
I94720
sg32
I0
sg33
I60
sbasg34
g22
(S'0.125'
tRp2061
sg36
g22
(S'23.125'
tRp2062
sbag1
(g13
g3
NtRp2063
(dp2064
g16
S'T(5)./mid\\Enya_Lothlorien.mid'
p2065
sg18
S'F'
sg20
I4096
sg21
g22
(S'0.125'
tRp2066
sg24
(lp2067
g1
(g26
g3
NtRp2068
(dp2069
g29
g22
(S'0.123779296875'
tRp2070
sg31
I123392
sg32
I0
sg33
I60
sbasg34
g22
(S'0.125'
tRp2071
sg36
g22
(S'30.125'
tRp2072
sbag1
(g13
g3
NtRp2073
(dp2074
g16
S'T(5)./mid\\Enya_Lothlorien.mid'
p2075
sg18
S'F'
sg20
I4096
sg21
g22
(S'0.125'
tRp2076
sg24
(lp2077
g1
(g26
g3
NtRp2078
(dp2079
g29
g22
(S'0.123779296875'
tRp2080
sg31
I131584
sg32
I0
sg33
I60
sbasg34
g22
(S'0.125'
tRp2081
sg36
g22
(S'32.125'
tRp2082
sbag1
(g13
g3
NtRp2083
(dp2084
g16
S'T(5)./mid\\Enya_Lothlorien.mid'
p2085
sg18
S'F'
sg20
I4096
sg21
g22
(S'0.125'
tRp2086
sg24
(lp2087
g1
(g26
g3
NtRp2088
(dp2089
g29
g22
(S'0.123779296875'
tRp2090
sg31
I139776
sg32
I0
sg33
I60
sbasg34
g22
(S'0.125'
tRp2091
sg36
g22
(S'34.125'
tRp2092
sbag1
(g13
g3
NtRp2093
(dp2094
g16
S'T(5)./mid\\Enya_Lothlorien.mid'
p2095
sg18
S'F'
sg20
I4096
sg21
g22
(S'0.125'
tRp2096
sg24
(lp2097
g1
(g26
g3
NtRp2098
(dp2099
g29
g22
(S'0.123779296875'
tRp2100
sg31
I147968
sg32
I0
sg33
I60
sbasg34
g22
(S'0.125'
tRp2101
sg36
g22
(S'36.125'
tRp2102
sbas(g950
tp2103
(lp2104
g394
ag1
(g13
g3
NtRp2105
(dp2106
g16
S'T(5)./mid\\Enya_Lothlorien.mid'
p2107
sg18
S'Dm'
p2108
sg20
I4096
sg21
g22
(S'0.125'
tRp2109
sg24
(lp2110
g1
(g26
g3
NtRp2111
(dp2112
g29
g22
(S'0.123779296875'
tRp2113
sg31
I9216
sg32
I0
sg33
I86
sbag1
(g26
g3
NtRp2114
(dp2115
g29
g22
(S'0.498779296875'
tRp2116
sg31
I9216
sg32
I0
sg33
I89
sbasg34
g22
(S'0.25'
tRp2117
sg36
g22
(S'2.25'
tRp2118
sbag1
(g13
g3
NtRp2119
(dp2120
g16
S'T(5)./mid\\Enya_Lothlorien.mid'
p2121
sg18
S'Dm'
p2122
sg20
I4096
sg21
g22
(S'0.125'
tRp2123
sg24
(lp2124
g1
(g26
g3
NtRp2125
(dp2126
g29
g22
(S'0.123779296875'
tRp2127
sg31
I107520
sg32
I0
sg33
I86
sbag1
(g26
g3
NtRp2128
(dp2129
g29
g22
(S'0.498779296875'
tRp2130
sg31
I107520
sg32
I0
sg33
I89
sbasg34
g22
(S'0.25'
tRp2131
sg36
g22
(S'26.25'
tRp2132
sbas(g906
tp2133
(lp2134
g884
as(g678
tp2135
(lp2136
g262
ag1
(g13
g3
NtRp2137
(dp2138
g16
S'T(5)./mid\\Enya_Lothlorien.mid'
p2139
sg18
S'Dm'
p2140
sg20
I4096
sg21
g22
(S'0.125'
tRp2141
sg24
(lp2142
g1
(g26
g3
NtRp2143
(dp2144
g29
g22
(S'0.123779296875'
tRp2145
sg31
I62976
sg32
I0
sg33
I69
sbasg34
g22
(S'0.375'
tRp2146
sg36
g22
(S'15.375'
tRp2147
sbag1025
as(g567
tp2148
(lp2149
g796
ag1
(g13
g3
NtRp2150
(dp2151
g16
S'T(5)./mid\\Enya_Lothlorien.mid'
p2152
sg18
S'A'
sg20
I4096
sg21
g22
(S'0.125'
tRp2153
sg24
(lp2154
g1
(g26
g3
NtRp2155
(dp2156
g29
g22
(S'0.123779296875'
tRp2157
sg31
I51712
sg32
I0
sg33
I57
sbasg34
g22
(S'0.625'
tRp2158
sg36
g22
(S'12.625'
tRp2159
sbag1
(g13
g3
NtRp2160
(dp2161
g16
S'T(5)./mid\\Enya_Lothlorien.mid'
p2162
sg18
S'A'
sg20
I4096
sg21
g22
(S'0.125'
tRp2163
sg24
(lp2164
g1
(g26
g3
NtRp2165
(dp2166
g29
g22
(S'0.123779296875'
tRp2167
sg31
I100864
sg32
I0
sg33
I57
sbasg34
g22
(S'0.625'
tRp2168
sg36
g22
(S'24.625'
tRp2169
sbag1
(g13
g3
NtRp2170
(dp2171
g16
S'T(5)./mid\\Enya_Lothlorien.mid'
p2172
sg18
S'A'
sg20
I4096
sg21
g22
(S'0.125'
tRp2173
sg24
(lp2174
g1
(g26
g3
NtRp2175
(dp2176
g29
g22
(S'0.123779296875'
tRp2177
sg31
I104960
sg32
I0
sg33
I57
sbasg34
g22
(S'0.625'
tRp2178
sg36
g22
(S'25.625'
tRp2179
sbag120
as(g1081
tp2180
(lp2181
g63
ag1
(g13
g3
NtRp2182
(dp2183
g16
S'T(5)./mid\\Enya_Lothlorien.mid'
p2184
sg18
S'F'
sg20
I4096
sg21
g22
(S'0.125'
tRp2185
sg24
(lp2186
g1
(g26
g3
NtRp2187
(dp2188
g29
g22
(S'0.123779296875'
tRp2189
sg31
I28160
sg32
I0
sg33
I62
sbasg34
g22
(S'0.875'
tRp2190
sg36
g22
(S'6.875'
tRp2191
sbag1
(g13
g3
NtRp2192
(dp2193
g16
S'T(5)./mid\\Enya_Lothlorien.mid'
p2194
sg18
S'F'
sg20
I4096
sg21
g22
(S'0.125'
tRp2195
sg24
(lp2196
g1
(g26
g3
NtRp2197
(dp2198
g29
g22
(S'0.123779296875'
tRp2199
sg31
I36352
sg32
I0
sg33
I62
sbasg34
g22
(S'0.875'
tRp2200
sg36
g22
(S'8.875'
tRp2201
sbag1
(g13
g3
NtRp2202
(dp2203
g16
S'T(5)./mid\\Enya_Lothlorien.mid'
p2204
sg18
S'F'
sg20
I4096
sg21
g22
(S'0.125'
tRp2205
sg24
(lp2206
g1
(g26
g3
NtRp2207
(dp2208
g29
g22
(S'0.123779296875'
tRp2209
sg31
I44544
sg32
I0
sg33
I62
sbasg34
g22
(S'0.875'
tRp2210
sg36
g22
(S'10.875'
tRp2211
sbag1
(g13
g3
NtRp2212
(dp2213
g16
S'T(5)./mid\\Enya_Lothlorien.mid'
p2214
sg18
S'F'
sg20
I4096
sg21
g22
(S'0.125'
tRp2215
sg24
(lp2216
g1
(g26
g3
NtRp2217
(dp2218
g29
g22
(S'0.123779296875'
tRp2219
sg31
I73216
sg32
I0
sg33
I62
sbasg34
g22
(S'0.875'
tRp2220
sg36
g22
(S'17.875'
tRp2221
sbag1
(g13
g3
NtRp2222
(dp2223
g16
S'T(5)./mid\\Enya_Lothlorien.mid'
p2224
sg18
S'F'
sg20
I4096
sg21
g22
(S'0.125'
tRp2225
sg24
(lp2226
g1
(g26
g3
NtRp2227
(dp2228
g29
g22
(S'0.123779296875'
tRp2229
sg31
I81408
sg32
I0
sg33
I62
sbasg34
g22
(S'0.875'
tRp2230
sg36
g22
(S'19.875'
tRp2231
sbag1
(g13
g3
NtRp2232
(dp2233
g16
S'T(5)./mid\\Enya_Lothlorien.mid'
p2234
sg18
S'F'
sg20
I4096
sg21
g22
(S'0.125'
tRp2235
sg24
(lp2236
g1
(g26
g3
NtRp2237
(dp2238
g29
g22
(S'0.123779296875'
tRp2239
sg31
I89600
sg32
I0
sg33
I62
sbasg34
g22
(S'0.875'
tRp2240
sg36
g22
(S'21.875'
tRp2241
sbag1
(g13
g3
NtRp2242
(dp2243
g16
S'T(5)./mid\\Enya_Lothlorien.mid'
p2244
sg18
S'F'
sg20
I4096
sg21
g22
(S'0.125'
tRp2245
sg24
(lp2246
g1
(g26
g3
NtRp2247
(dp2248
g29
g22
(S'0.123779296875'
tRp2249
sg31
I97792
sg32
I0
sg33
I62
sbasg34
g22
(S'0.875'
tRp2250
sg36
g22
(S'23.875'
tRp2251
sbag1
(g13
g3
NtRp2252
(dp2253
g16
S'T(5)./mid\\Enya_Lothlorien.mid'
p2254
sg18
S'F'
sg20
I4096
sg21
g22
(S'0.125'
tRp2255
sg24
(lp2256
g1
(g26
g3
NtRp2257
(dp2258
g29
g22
(S'0.123779296875'
tRp2259
sg31
I126464
sg32
I0
sg33
I62
sbasg34
g22
(S'0.875'
tRp2260
sg36
g22
(S'30.875'
tRp2261
sbag1
(g13
g3
NtRp2262
(dp2263
g16
S'T(5)./mid\\Enya_Lothlorien.mid'
p2264
sg18
S'F'
sg20
I4096
sg21
g22
(S'0.125'
tRp2265
sg24
(lp2266
g1
(g26
g3
NtRp2267
(dp2268
g29
g22
(S'0.123779296875'
tRp2269
sg31
I134656
sg32
I0
sg33
I62
sbasg34
g22
(S'0.875'
tRp2270
sg36
g22
(S'32.875'
tRp2271
sbag1
(g13
g3
NtRp2272
(dp2273
g16
S'T(5)./mid\\Enya_Lothlorien.mid'
p2274
sg18
S'F'
sg20
I4096
sg21
g22
(S'0.125'
tRp2275
sg24
(lp2276
g1
(g26
g3
NtRp2277
(dp2278
g29
g22
(S'0.123779296875'
tRp2279
sg31
I142848
sg32
I0
sg33
I62
sbasg34
g22
(S'0.875'
tRp2280
sg36
g22
(S'34.875'
tRp2281
sbag1
(g13
g3
NtRp2282
(dp2283
g16
S'T(5)./mid\\Enya_Lothlorien.mid'
p2284
sg18
S'F'
sg20
I4096
sg21
g22
(S'0.125'
tRp2285
sg24
(lp2286
g1
(g26
g3
NtRp2287
(dp2288
g29
g22
(S'0.123779296875'
tRp2289
sg31
I151040
sg32
I0
sg33
I62
sbasg34
g22
(S'0.875'
tRp2290
sg36
g22
(S'36.875'
tRp2291
sbas(S'start_token'
p2292
tp2293
(lp2294
S'stop_token'
p2295
ag726
as(g615
tp2296
(lp2297
g837
ag1
(g13
g3
NtRp2298
(dp2299
g16
S'T(5)./mid\\Enya_Lothlorien.mid'
p2300
sg18
S'Dm'
p2301
sg20
I4096
sg21
g22
(S'0.125'
tRp2302
sg24
(lp2303
g1
(g26
g3
NtRp2304
(dp2305
g29
g22
(S'0.123779296875'
tRp2306
sg31
I110080
sg32
I0
sg33
I81
sbasg34
g22
(S'0.875'
tRp2307
sg36
g22
(S'26.875'
tRp2308
sbag546
as(g646
tp2309
(lp2310
g577
ag193
as(g837
tp2311
(lp2312
g1
(g13
g3
NtRp2313
(dp2314
g16
S'T(5)./mid\\Enya_Lothlorien.mid'
p2315
sg18
S'Am'
p2316
sg20
I4096
sg21
g22
(S'0.125'
tRp2317
sg24
(lp2318
g1
(g26
g3
NtRp2319
(dp2320
g29
g22
(S'0.123779296875'
tRp2321
sg31
I12288
sg32
I0
sg33
I69
sbag1
(g26
g3
NtRp2322
(dp2323
g29
g22
(S'0.123779296875'
tRp2324
sg31
I12288
sg32
I0
sg33
I84
sbasg34
g22
(S'0'
tRp2325
sg36
g22
(S'3'
tRp2326
sbag1
(g13
g3
NtRp2327
(dp2328
g16
S'T(5)./mid\\Enya_Lothlorien.mid'
p2329
sg18
S'Am'
p2330
sg20
I4096
sg21
g22
(S'0.125'
tRp2331
sg24
(lp2332
g1
(g26
g3
NtRp2333
(dp2334
g29
g22
(S'0.123779296875'
tRp2335
sg31
I110592
sg32
I0
sg33
I69
sbag1
(g26
g3
NtRp2336
(dp2337
g29
g22
(S'0.123779296875'
tRp2338
sg31
I110592
sg32
I0
sg33
I84
sbasg34
g22
(S'0'
tRp2339
sg36
g22
(S'27'
p2340
tRp2341
sbas(g249
tp2342
(lp2343
g1
(g13
g3
NtRp2344
(dp2345
g16
S'T(5)./mid\\Enya_Lothlorien.mid'
p2346
sg18
S'C'
sg20
I4096
sg21
g22
(S'0.125'
tRp2347
sg24
(lp2348
g1
(g26
g3
NtRp2349
(dp2350
g29
g22
(S'0.123779296875'
tRp2351
sg31
I37376
sg32
I0
sg33
I55
sbasg34
g22
(S'0.125'
tRp2352
sg36
g22
(S'9.125'
tRp2353
sbag1
(g13
g3
NtRp2354
(dp2355
g16
S'T(5)./mid\\Enya_Lothlorien.mid'
p2356
sg18
S'C'
sg20
I4096
sg21
g22
(S'0.125'
tRp2357
sg24
(lp2358
g1
(g26
g3
NtRp2359
(dp2360
g29
g22
(S'0.123779296875'
tRp2361
sg31
I90624
sg32
I0
sg33
I55
sbasg34
g22
(S'0.125'
tRp2362
sg36
g22
(S'22.125'
tRp2363
sbag1
(g13
g3
NtRp2364
(dp2365
g16
S'T(5)./mid\\Enya_Lothlorien.mid'
p2366
sg18
S'C'
sg20
I4096
sg21
g22
(S'0.125'
tRp2367
sg24
(lp2368
g1
(g26
g3
NtRp2369
(dp2370
g29
g22
(S'0.123779296875'
tRp2371
sg31
I143872
sg32
I0
sg33
I55
sbasg34
g22
(S'0.125'
tRp2372
sg36
g22
(S'35.125'
tRp2373
sbas(g626
tp2374
(lp2375
g2295
as(g702
tp2376
(lp2377
g761
as(g884
tp2378
(lp2379
g1111
as(g761
tp2380
(lp2381
g827
as(g342
tp2382
(lp2383
g305
ag1
(g13
g3
NtRp2384
(dp2385
g16
S'T(5)./mid\\Enya_Lothlorien.mid'
p2386
sg18
S'F'
sg20
I4096
sg21
g22
(S'0.125'
tRp2387
sg24
(lp2388
g1
(g26
g3
NtRp2389
(dp2390
g29
g22
(S'0.123779296875'
tRp2391
sg31
I26624
sg32
I0
sg33
I55
sbag1
(g26
g3
NtRp2392
(dp2393
g29
g22
(S'0.123779296875'
tRp2394
sg31
I26624
sg32
I0
sg33
I72
sbasg34
g22
(S'0.5'
tRp2395
sg36
g22
(S'6.5'
tRp2396
sbag1
(g13
g3
NtRp2397
(dp2398
g16
S'T(5)./mid\\Enya_Lothlorien.mid'
p2399
sg18
S'F'
sg20
I4096
sg21
g22
(S'0.125'
tRp2400
sg24
(lp2401
g1
(g26
g3
NtRp2402
(dp2403
g29
g22
(S'0.123779296875'
tRp2404
sg31
I34816
sg32
I0
sg33
I55
sbag1
(g26
g3
NtRp2405
(dp2406
g29
g22
(S'0.123779296875'
tRp2407
sg31
I34816
sg32
I0
sg33
I72
sbasg34
g22
(S'0.5'
tRp2408
sg36
g22
(S'8.5'
tRp2409
sbag1
(g13
g3
NtRp2410
(dp2411
g16
S'T(5)./mid\\Enya_Lothlorien.mid'
p2412
sg18
S'F'
sg20
I4096
sg21
g22
(S'0.125'
tRp2413
sg24
(lp2414
g1
(g26
g3
NtRp2415
(dp2416
g29
g22
(S'0.123779296875'
tRp2417
sg31
I43008
sg32
I0
sg33
I55
sbag1
(g26
g3
NtRp2418
(dp2419
g29
g22
(S'0.123779296875'
tRp2420
sg31
I43008
sg32
I0
sg33
I72
sbasg34
g22
(S'0.5'
tRp2421
sg36
g22
(S'10.5'
tRp2422
sbag1
(g13
g3
NtRp2423
(dp2424
g16
S'T(5)./mid\\Enya_Lothlorien.mid'
p2425
sg18
S'F'
sg20
I4096
sg21
g22
(S'0.125'
tRp2426
sg24
(lp2427
g1
(g26
g3
NtRp2428
(dp2429
g29
g22
(S'0.123779296875'
tRp2430
sg31
I71680
sg32
I0
sg33
I55
sbag1
(g26
g3
NtRp2431
(dp2432
g29
g22
(S'0.123779296875'
tRp2433
sg31
I71680
sg32
I0
sg33
I72
sbasg34
g22
(S'0.5'
tRp2434
sg36
g22
(S'17.5'
tRp2435
sbag1
(g13
g3
NtRp2436
(dp2437
g16
S'T(5)./mid\\Enya_Lothlorien.mid'
p2438
sg18
S'F'
sg20
I4096
sg21
g22
(S'0.125'
tRp2439
sg24
(lp2440
g1
(g26
g3
NtRp2441
(dp2442
g29
g22
(S'0.123779296875'
tRp2443
sg31
I79872
sg32
I0
sg33
I55
sbag1
(g26
g3
NtRp2444
(dp2445
g29
g22
(S'0.123779296875'
tRp2446
sg31
I79872
sg32
I0
sg33
I72
sbasg34
g22
(S'0.5'
tRp2447
sg36
g22
(S'19.5'
tRp2448
sbag1
(g13
g3
NtRp2449
(dp2450
g16
S'T(5)./mid\\Enya_Lothlorien.mid'
p2451
sg18
S'F'
sg20
I4096
sg21
g22
(S'0.125'
tRp2452
sg24
(lp2453
g1
(g26
g3
NtRp2454
(dp2455
g29
g22
(S'0.123779296875'
tRp2456
sg31
I88064
sg32
I0
sg33
I55
sbag1
(g26
g3
NtRp2457
(dp2458
g29
g22
(S'0.123779296875'
tRp2459
sg31
I88064
sg32
I0
sg33
I72
sbasg34
g22
(S'0.5'
tRp2460
sg36
g22
(S'21.5'
tRp2461
sbag1
(g13
g3
NtRp2462
(dp2463
g16
S'T(5)./mid\\Enya_Lothlorien.mid'
p2464
sg18
S'F'
sg20
I4096
sg21
g22
(S'0.125'
tRp2465
sg24
(lp2466
g1
(g26
g3
NtRp2467
(dp2468
g29
g22
(S'0.123779296875'
tRp2469
sg31
I96256
sg32
I0
sg33
I55
sbag1
(g26
g3
NtRp2470
(dp2471
g29
g22
(S'0.123779296875'
tRp2472
sg31
I96256
sg32
I0
sg33
I72
sbasg34
g22
(S'0.5'
tRp2473
sg36
g22
(S'23.5'
tRp2474
sbag1
(g13
g3
NtRp2475
(dp2476
g16
S'T(5)./mid\\Enya_Lothlorien.mid'
p2477
sg18
S'F'
sg20
I4096
sg21
g22
(S'0.125'
tRp2478
sg24
(lp2479
g1
(g26
g3
NtRp2480
(dp2481
g29
g22
(S'0.123779296875'
tRp2482
sg31
I124928
sg32
I0
sg33
I55
sbag1
(g26
g3
NtRp2483
(dp2484
g29
g22
(S'0.123779296875'
tRp2485
sg31
I124928
sg32
I0
sg33
I72
sbasg34
g22
(S'0.5'
tRp2486
sg36
g22
(S'30.5'
tRp2487
sbag1
(g13
g3
NtRp2488
(dp2489
g16
S'T(5)./mid\\Enya_Lothlorien.mid'
p2490
sg18
S'F'
sg20
I4096
sg21
g22
(S'0.125'
tRp2491
sg24
(lp2492
g1
(g26
g3
NtRp2493
(dp2494
g29
g22
(S'0.123779296875'
tRp2495
sg31
I133120
sg32
I0
sg33
I55
sbag1
(g26
g3
NtRp2496
(dp2497
g29
g22
(S'0.123779296875'
tRp2498
sg31
I133120
sg32
I0
sg33
I72
sbasg34
g22
(S'0.5'
tRp2499
sg36
g22
(S'32.5'
tRp2500
sbag1
(g13
g3
NtRp2501
(dp2502
g16
S'T(5)./mid\\Enya_Lothlorien.mid'
p2503
sg18
S'F'
sg20
I4096
sg21
g22
(S'0.125'
tRp2504
sg24
(lp2505
g1
(g26
g3
NtRp2506
(dp2507
g29
g22
(S'0.123779296875'
tRp2508
sg31
I141312
sg32
I0
sg33
I55
sbag1
(g26
g3
NtRp2509
(dp2510
g29
g22
(S'0.123779296875'
tRp2511
sg31
I141312
sg32
I0
sg33
I72
sbasg34
g22
(S'0.5'
tRp2512
sg36
g22
(S'34.5'
tRp2513
sbag1
(g13
g3
NtRp2514
(dp2515
g16
S'T(5)./mid\\Enya_Lothlorien.mid'
p2516
sg18
S'F'
sg20
I4096
sg21
g22
(S'0.125'
tRp2517
sg24
(lp2518
g1
(g26
g3
NtRp2519
(dp2520
g29
g22
(S'0.123779296875'
tRp2521
sg31
I149504
sg32
I0
sg33
I55
sbag1
(g26
g3
NtRp2522
(dp2523
g29
g22
(S'0.123779296875'
tRp2524
sg31
I149504
sg32
I0
sg33
I72
sbasg34
g22
(S'0.5'
tRp2525
sg36
g22
(S'36.5'
tRp2526
sbas(g601
tp2527
(lp2528
g1057
ag1
(g13
g3
NtRp2529
(dp2530
g16
S'T(5)./mid\\Enya_Lothlorien.mid'
p2531
sg18
S'Am'
p2532
sg20
I4096
sg21
g22
(S'0.125'
tRp2533
sg24
(lp2534
g1
(g26
g3
NtRp2535
(dp2536
g29
g22
(S'0.123779296875'
tRp2537
sg31
I66560
sg32
I0
sg33
I69
sbag1
(g26
g3
NtRp2538
(dp2539
g29
g22
(S'0.498779296875'
tRp2540
sg31
I66560
sg32
I0
sg33
I84
sbasg34
g22
(S'0.25'
tRp2541
sg36
g22
(S'16.25'
tRp2542
sbag1
(g13
g3
NtRp2543
(dp2544
g16
S'T(5)./mid\\Enya_Lothlorien.mid'
p2545
sg18
S'Am'
p2546
sg20
I4096
sg21
g22
(S'0.125'
tRp2547
sg24
(lp2548
g1
(g26
g3
NtRp2549
(dp2550
g29
g22
(S'0.123779296875'
tRp2551
sg31
I119808
sg32
I0
sg33
I69
sbag1
(g26
g3
NtRp2552
(dp2553
g29
g22
(S'0.498779296875'
tRp2554
sg31
I119808
sg32
I0
sg33
I84
sbasg34
g22
(S'0.25'
tRp2555
sg36
g22
(S'29.25'
tRp2556
sbas(g557
tp2557
(lp2558
g567
ag1
(g13
g3
NtRp2559
(dp2560
g16
S'T(5)./mid\\Enya_Lothlorien.mid'
p2561
sg18
S'A'
sg20
I4096
sg21
g22
(S'0.375'
tRp2562
sg24
(lp2563
g1
(g26
g3
NtRp2564
(dp2565
g29
g22
(S'0.373779296875'
tRp2566
sg31
I50176
sg32
I0
sg33
I69
sbasg34
g22
(S'0.25'
tRp2567
sg36
g22
(S'12.25'
tRp2568
sbag1
(g13
g3
NtRp2569
(dp2570
g16
S'T(5)./mid\\Enya_Lothlorien.mid'
p2571
sg18
S'A'
sg20
I4096
sg21
g22
(S'0.375'
tRp2572
sg24
(lp2573
g1
(g26
g3
NtRp2574
(dp2575
g29
g22
(S'0.373779296875'
tRp2576
sg31
I99328
sg32
I0
sg33
I69
sbasg34
g22
(S'0.25'
tRp2577
sg36
g22
(S'24.25'
tRp2578
sbag1
(g13
g3
NtRp2579
(dp2580
g16
S'T(5)./mid\\Enya_Lothlorien.mid'
p2581
sg18
S'A'
sg20
I4096
sg21
g22
(S'0.375'
tRp2582
sg24
(lp2583
g1
(g26
g3
NtRp2584
(dp2585
g29
g22
(S'0.373779296875'
tRp2586
sg31
I103424
sg32
I0
sg33
I69
sbasg34
g22
(S'0.25'
tRp2587
sg36
g22
(S'25.25'
tRp2588
sbag1
(g13
g3
NtRp2589
(dp2590
g16
S'T(5)./mid\\Enya_Lothlorien.mid'
p2591
sg18
S'A'
sg20
I4096
sg21
g22
(S'0.375'
tRp2592
sg24
(lp2593
g1
(g26
g3
NtRp2594
(dp2595
g29
g22
(S'0.373779296875'
tRp2596
sg31
I156672
sg32
I0
sg33
I69
sbasg34
g22
(S'0.25'
tRp2597
sg36
g22
(S'38.25'
tRp2598
sbas(g63
tp2599
(lp2600
g520
ag318
ag249
ag235
ag1
(g13
g3
NtRp2601
(dp2602
g16
S'T(5)./mid\\Enya_Lothlorien.mid'
p2603
sg18
S'C'
sg20
I4096
sg21
g22
(S'0.125'
tRp2604
sg24
(lp2605
g1
(g26
g3
NtRp2606
(dp2607
g29
g22
(S'0.123779296875'
tRp2608
sg31
I73728
sg32
I0
sg33
I48
sbag1
(g26
g3
NtRp2609
(dp2610
g29
g22
(S'0.998779296875'
tRp2611
sg31
I73728
sg32
I0
sg33
I67
sbasg34
g22
(S'0'
tRp2612
sg36
g22
(S'18'
p2613
tRp2614
sbag1
(g13
g3
NtRp2615
(dp2616
g16
S'T(5)./mid\\Enya_Lothlorien.mid'
p2617
sg18
S'D'
sg20
I4096
sg21
g22
(S'0.125'
tRp2618
sg24
(lp2619
g1
(g26
g3
NtRp2620
(dp2621
g29
g22
(S'0.123779296875'
tRp2622
sg31
I81920
sg32
I0
sg33
I50
sbag1
(g26
g3
NtRp2623
(dp2624
g29
g22
(S'0.955078125'
tRp2625
sg31
I81920
sg32
I0
sg33
I69
sbasg34
g22
(S'0'
tRp2626
sg36
g22
(S'20'
p2627
tRp2628
sbag1
(g13
g3
NtRp2629
(dp2630
g16
S'T(5)./mid\\Enya_Lothlorien.mid'
p2631
sg18
S'C'
sg20
I4096
sg21
g22
(S'0.125'
tRp2632
sg24
(lp2633
g1
(g26
g3
NtRp2634
(dp2635
g29
g22
(S'0.123779296875'
tRp2636
sg31
I90112
sg32
I0
sg33
I48
sbag1
(g26
g3
NtRp2637
(dp2638
g29
g22
(S'0.748779296875'
tRp2639
sg31
I90112
sg32
I0
sg33
I64
sbasg34
g22
(S'0'
tRp2640
sg36
g22
(S'22'
p2641
tRp2642
sbag1
(g13
g3
NtRp2643
(dp2644
g16
S'T(5)./mid\\Enya_Lothlorien.mid'
p2645
sg18
S'A'
sg20
I4096
sg21
g22
(S'0.125'
tRp2646
sg24
(lp2647
g1
(g26
g3
NtRp2648
(dp2649
g29
g22
(S'0.123779296875'
tRp2650
sg31
I98304
sg32
I0
sg33
I57
sbag1
(g26
g3
NtRp2651
(dp2652
g29
g22
(S'0.248779296875'
tRp2653
sg31
I98304
sg32
I0
sg33
I69
sbasg34
g22
(S'0'
tRp2654
sg36
g22
(S'24'
p2655
tRp2656
sbag1
(g13
g3
NtRp2657
(dp2658
g16
S'T(5)./mid\\Enya_Lothlorien.mid'
p2659
sg18
S'C'
sg20
I4096
sg21
g22
(S'0.125'
tRp2660
sg24
(lp2661
g1
(g26
g3
NtRp2662
(dp2663
g29
g22
(S'0.123779296875'
tRp2664
sg31
I126976
sg32
I0
sg33
I48
sbag1
(g26
g3
NtRp2665
(dp2666
g29
g22
(S'0.998779296875'
tRp2667
sg31
I126976
sg32
I0
sg33
I67
sbasg34
g22
(S'0'
tRp2668
sg36
g22
(S'31'
p2669
tRp2670
sbag433
ag1
(g13
g3
NtRp2671
(dp2672
g16
S'T(5)./mid\\Enya_Lothlorien.mid'
p2673
sg18
S'C'
sg20
I4096
sg21
g22
(S'0.125'
tRp2674
sg24
(lp2675
g1
(g26
g3
NtRp2676
(dp2677
g29
g22
(S'0.123779296875'
tRp2678
sg31
I143360
sg32
I0
sg33
I48
sbag1
(g26
g3
NtRp2679
(dp2680
g29
g22
(S'0.748779296875'
tRp2681
sg31
I143360
sg32
I0
sg33
I64
sbasg34
g22
(S'0'
tRp2682
sg36
g22
(S'35'
p2683
tRp2684
sbag84
as(g1025
tp2685
(lp2686
g98
as(g499
tp2687
(lp2688
g750
ag1
(g13
g3
NtRp2689
(dp2690
g16
S'T(5)./mid\\Enya_Lothlorien.mid'
p2691
sg18
S'Dm'
p2692
sg20
I4096
sg21
g22
(S'0.125'
tRp2693
sg24
(lp2694
g1
(g26
g3
NtRp2695
(dp2696
g29
g22
(S'0.123779296875'
tRp2697
sg31
I10240
sg32
I0
sg33
I74
sbasg34
g22
(S'0.5'
tRp2698
sg36
g22
(S'2.5'
tRp2699
sbas(g193
tp2700
(lp2701
g1
(g13
g3
NtRp2702
(dp2703
g16
S'T(5)./mid\\Enya_Lothlorien.mid'
p2704
sg18
S'F'
sg20
I4096
sg21
g22
(S'0.125'
tRp2705
sg24
(lp2706
g1
(g26
g3
NtRp2707
(dp2708
g29
g22
(S'0.123779296875'
tRp2709
sg31
I122880
sg32
I0
sg33
I53
sbag1
(g26
g3
NtRp2710
(dp2711
g29
g22
(S'0.248779296875'
tRp2712
sg31
I122880
sg32
I0
sg33
I69
sbasg34
g22
(S'0'
tRp2713
sg36
g22
(S'30'
p2714
tRp2715
sbas(g433
tp2716
(lp2717
g273
as(g546
tp2718
(lp2719
g1
(g13
g3
NtRp2720
(dp2721
g16
S'T(5)./mid\\Enya_Lothlorien.mid'
p2722
sg18
S'Am'
p2723
sg20
I4096
sg21
g22
(S'0.125'
tRp2724
sg24
(lp2725
g1
(g26
g3
NtRp2726
(dp2727
g29
g22
(S'0.123779296875'
tRp2728
sg31
I118784
sg32
I0
sg33
I57
sbag1
(g26
g3
NtRp2729
(dp2730
g29
g22
(S'0.123779296875'
tRp2731
sg31
I118784
sg32
I0
sg33
I84
sbasg34
g22
(S'0'
tRp2732
sg36
g22
(S'29'
p2733
tRp2734
sbas(g873
tp2735
(lp2736
g331
as(g215
tp2737
(lp2738
g1047
ag1
(g13
g3
NtRp2739
(dp2740
g16
S'T(5)./mid\\Enya_Lothlorien.mid'
p2741
sg18
S'D'
sg20
I4096
sg21
g22
(S'0.125'
tRp2742
sg24
(lp2743
g1
(g26
g3
NtRp2744
(dp2745
g29
g22
(S'0.123779296875'
tRp2746
sg31
I85504
sg32
I0
sg33
I62
sbasg34
g22
(S'0.875'
tRp2747
sg36
g22
(S'20.875'
tRp2748
sbas(g510
tp2749
(lp2750
g994
as(g533
tp2751
(lp2752
g1081
ag1
(g13
g3
NtRp2753
(dp2754
g16
S'T(5)./mid\\Enya_Lothlorien.mid'
p2755
sg18
S'F'
sg20
I4096
sg21
g22
(S'0.125'
tRp2756
sg24
(lp2757
g1
(g26
g3
NtRp2758
(dp2759
g29
g22
(S'0.123779296875'
tRp2760
sg31
I27648
sg32
I0
sg33
I67
sbasg34
g22
(S'0.75'
tRp2761
sg36
g22
(S'6.75'
tRp2762
sbag1
(g13
g3
NtRp2763
(dp2764
g16
S'T(5)./mid\\Enya_Lothlorien.mid'
p2765
sg18
S'F'
sg20
I4096
sg21
g22
(S'0.125'
tRp2766
sg24
(lp2767
g1
(g26
g3
NtRp2768
(dp2769
g29
g22
(S'0.123779296875'
tRp2770
sg31
I35840
sg32
I0
sg33
I67
sbasg34
g22
(S'0.75'
tRp2771
sg36
g22
(S'8.75'
tRp2772
sbag1
(g13
g3
NtRp2773
(dp2774
g16
S'T(5)./mid\\Enya_Lothlorien.mid'
p2775
sg18
S'F'
sg20
I4096
sg21
g22
(S'0.125'
tRp2776
sg24
(lp2777
g1
(g26
g3
NtRp2778
(dp2779
g29
g22
(S'0.123779296875'
tRp2780
sg31
I44032
sg32
I0
sg33
I67
sbasg34
g22
(S'0.75'
tRp2781
sg36
g22
(S'10.75'
tRp2782
sbag1
(g13
g3
NtRp2783
(dp2784
g16
S'T(5)./mid\\Enya_Lothlorien.mid'
p2785
sg18
S'F'
sg20
I4096
sg21
g22
(S'0.125'
tRp2786
sg24
(lp2787
g1
(g26
g3
NtRp2788
(dp2789
g29
g22
(S'0.123779296875'
tRp2790
sg31
I72704
sg32
I0
sg33
I67
sbasg34
g22
(S'0.75'
tRp2791
sg36
g22
(S'17.75'
tRp2792
sbag1
(g13
g3
NtRp2793
(dp2794
g16
S'T(5)./mid\\Enya_Lothlorien.mid'
p2795
sg18
S'F'
sg20
I4096
sg21
g22
(S'0.125'
tRp2796
sg24
(lp2797
g1
(g26
g3
NtRp2798
(dp2799
g29
g22
(S'0.123779296875'
tRp2800
sg31
I80896
sg32
I0
sg33
I67
sbasg34
g22
(S'0.75'
tRp2801
sg36
g22
(S'19.75'
tRp2802
sbag1
(g13
g3
NtRp2803
(dp2804
g16
S'T(5)./mid\\Enya_Lothlorien.mid'
p2805
sg18
S'F'
sg20
I4096
sg21
g22
(S'0.125'
tRp2806
sg24
(lp2807
g1
(g26
g3
NtRp2808
(dp2809
g29
g22
(S'0.123779296875'
tRp2810
sg31
I89088
sg32
I0
sg33
I67
sbasg34
g22
(S'0.75'
tRp2811
sg36
g22
(S'21.75'
tRp2812
sbag1
(g13
g3
NtRp2813
(dp2814
g16
S'T(5)./mid\\Enya_Lothlorien.mid'
p2815
sg18
S'F'
sg20
I4096
sg21
g22
(S'0.125'
tRp2816
sg24
(lp2817
g1
(g26
g3
NtRp2818
(dp2819
g29
g22
(S'0.123779296875'
tRp2820
sg31
I97280
sg32
I0
sg33
I67
sbasg34
g22
(S'0.75'
tRp2821
sg36
g22
(S'23.75'
tRp2822
sbag1
(g13
g3
NtRp2823
(dp2824
g16
S'T(5)./mid\\Enya_Lothlorien.mid'
p2825
sg18
S'F'
sg20
I4096
sg21
g22
(S'0.125'
tRp2826
sg24
(lp2827
g1
(g26
g3
NtRp2828
(dp2829
g29
g22
(S'0.123779296875'
tRp2830
sg31
I125952
sg32
I0
sg33
I67
sbasg34
g22
(S'0.75'
tRp2831
sg36
g22
(S'30.75'
tRp2832
sbag1
(g13
g3
NtRp2833
(dp2834
g16
S'T(5)./mid\\Enya_Lothlorien.mid'
p2835
sg18
S'F'
sg20
I4096
sg21
g22
(S'0.125'
tRp2836
sg24
(lp2837
g1
(g26
g3
NtRp2838
(dp2839
g29
g22
(S'0.123779296875'
tRp2840
sg31
I134144
sg32
I0
sg33
I67
sbasg34
g22
(S'0.75'
tRp2841
sg36
g22
(S'32.75'
tRp2842
sbag1
(g13
g3
NtRp2843
(dp2844
g16
S'T(5)./mid\\Enya_Lothlorien.mid'
p2845
sg18
S'F'
sg20
I4096
sg21
g22
(S'0.125'
tRp2846
sg24
(lp2847
g1
(g26
g3
NtRp2848
(dp2849
g29
g22
(S'0.123779296875'
tRp2850
sg31
I142336
sg32
I0
sg33
I67
sbasg34
g22
(S'0.75'
tRp2851
sg36
g22
(S'34.75'
tRp2852
sbag1
(g13
g3
NtRp2853
(dp2854
g16
S'T(5)./mid\\Enya_Lothlorien.mid'
p2855
sg18
S'F'
sg20
I4096
sg21
g22
(S'0.125'
tRp2856
sg24
(lp2857
g1
(g26
g3
NtRp2858
(dp2859
g29
g22
(S'0.123779296875'
tRp2860
sg31
I150528
sg32
I0
sg33
I67
sbasg34
g22
(S'0.75'
tRp2861
sg36
g22
(S'36.75'
tRp2862
sbas(g84
tp2863
(lp2864
g162
as(g38
tp2865
(lp2866
g109
ag1
(g13
g3
NtRp2867
(dp2868
g16
S'T(5)./mid\\Enya_Lothlorien.mid'
p2869
sg18
S'Am'
p2870
sg20
I4096
sg21
g22
(S'0.125'
tRp2871
sg24
(lp2872
g1
(g26
g3
NtRp2873
(dp2874
g29
g22
(S'0.123779296875'
tRp2875
sg31
I13824
sg32
I0
sg33
I76
sbasg34
g22
(S'0.375'
tRp2876
sg36
g22
(S'3.375'
tRp2877
sbag816
as(g994
tp2878
(lp2879
g1
(g13
g3
NtRp2880
(dp2881
g16
S'T(5)./mid\\Enya_Lothlorien.mid'
p2882
sg18
S'F'
sg20
I4096
sg21
g22
(S'0.125'
tRp2883
sg24
(lp2884
g1
(g26
g3
NtRp2885
(dp2886
g29
g22
(S'0.123779296875'
tRp2887
sg31
I131072
sg32
I0
sg33
I53
sbag1
(g26
g3
NtRp2888
(dp2889
g29
g22
(S'0.248779296875'
tRp2890
sg31
I131072
sg32
I0
sg33
I69
sbasg34
g22
(S'0'
tRp2891
sg36
g22
(S'32'
p2892
tRp2893
sbas(g262
tp2894
(lp2895
g1
(g13
g3
NtRp2896
(dp2897
g16
S'T(5)./mid\\Enya_Lothlorien.mid'
p2898
sg18
S'Dm'
p2899
sg20
I4096
sg21
g22
(S'0.125'
tRp2900
sg24
(lp2901
g1
(g26
g3
NtRp2902
(dp2903
g29
g22
(S'0.123779296875'
tRp2904
sg31
I55296
sg32
I0
sg33
I74
sbasg34
g22
(S'0.5'
tRp2905
sg36
g22
(S'13.5'
tRp2906
sbag1
(g13
g3
NtRp2907
(dp2908
g16
S'T(5)./mid\\Enya_Lothlorien.mid'
p2909
sg18
S'Dm'
p2910
sg20
I4096
sg21
g22
(S'0.125'
tRp2911
sg24
(lp2912
g1
(g26
g3
NtRp2913
(dp2914
g29
g22
(S'0.123779296875'
tRp2915
sg31
I63488
sg32
I0
sg33
I74
sbasg34
g22
(S'0.5'
tRp2916
sg36
g22
(S'15.5'
tRp2917
sbas(g448
tp2918
(lp2919
g974
ag1
(g13
g3
NtRp2920
(dp2921
g16
S'T(5)./mid\\Enya_Lothlorien.mid'
p2922
sg18
S'C'
sg20
I4096
sg21
g22
(S'0.375'
tRp2923
sg24
(lp2924
g1
(g26
g3
NtRp2925
(dp2926
g29
g22
(S'0.373779296875'
tRp2927
sg31
I37888
sg32
I0
sg33
I60
sbasg34
g22
(S'0.25'
tRp2928
sg36
g22
(S'9.25'
tRp2929
sbag1
(g13
g3
NtRp2930
(dp2931
g16
S'T(5)./mid\\Enya_Lothlorien.mid'
p2932
sg18
S'C'
sg20
I4096
sg21
g22
(S'0.375'
tRp2933
sg24
(lp2934
g1
(g26
g3
NtRp2935
(dp2936
g29
g22
(S'0.373779296875'
tRp2937
sg31
I74752
sg32
I0
sg33
I60
sbasg34
g22
(S'0.25'
tRp2938
sg36
g22
(S'18.25'
tRp2939
sbag1
(g13
g3
NtRp2940
(dp2941
g16
S'T(5)./mid\\Enya_Lothlorien.mid'
p2942
sg18
S'C'
sg20
I4096
sg21
g22
(S'0.375'
tRp2943
sg24
(lp2944
g1
(g26
g3
NtRp2945
(dp2946
g29
g22
(S'0.373779296875'
tRp2947
sg31
I91136
sg32
I0
sg33
I60
sbasg34
g22
(S'0.25'
tRp2948
sg36
g22
(S'22.25'
tRp2949
sbag1
(g13
g3
NtRp2950
(dp2951
g16
S'T(5)./mid\\Enya_Lothlorien.mid'
p2952
sg18
S'C'
sg20
I4096
sg21
g22
(S'0.375'
tRp2953
sg24
(lp2954
g1
(g26
g3
NtRp2955
(dp2956
g29
g22
(S'0.373779296875'
tRp2957
sg31
I128000
sg32
I0
sg33
I60
sbasg34
g22
(S'0.25'
tRp2958
sg36
g22
(S'31.25'
tRp2959
sbag1
(g13
g3
NtRp2960
(dp2961
g16
S'T(5)./mid\\Enya_Lothlorien.mid'
p2962
sg18
S'C'
sg20
I4096
sg21
g22
(S'0.375'
tRp2963
sg24
(lp2964
g1
(g26
g3
NtRp2965
(dp2966
g29
g22
(S'0.373779296875'
tRp2967
sg31
I144384
sg32
I0
sg33
I60
sbasg34
g22
(S'0.25'
tRp2968
sg36
g22
(S'35.25'
tRp2969
sbas(g394
tp2970
(lp2971
g499
ag1
(g13
g3
NtRp2972
(dp2973
g16
S'T(5)./mid\\Enya_Lothlorien.mid'
p2974
sg18
S'Dm'
p2975
sg20
I4096
sg21
g22
(S'0.125'
tRp2976
sg24
(lp2977
g1
(g26
g3
NtRp2978
(dp2979
g29
g22
(S'0.123779296875'
tRp2980
sg31
I9728
sg32
I0
sg33
I81
sbasg34
g22
(S'0.375'
tRp2981
sg36
g22
(S'2.375'
tRp2982
sbag14
as(g182
tp2983
(lp2984
g657
as(g692
tp2985
(lp2986
g510
as(g235
tp2987
(lp2988
g557
ag1
(g13
g3
NtRp2989
(dp2990
g16
S'T(5)./mid\\Enya_Lothlorien.mid'
p2991
sg18
S'A'
sg20
I4096
sg21
g22
(S'0.125'
tRp2992
sg24
(lp2993
g1
(g26
g3
NtRp2994
(dp2995
g29
g22
(S'0.123779296875'
tRp2996
sg31
I98816
sg32
I0
sg33
I64
sbasg34
g22
(S'0.125'
tRp2997
sg36
g22
(S'24.125'
tRp2998
sbas(g984
tp2999
(lp3000
g1091
as(g816
tp3001
(lp3002
g873
as(g120
tp3003
(lp3004
g468
as(g771
tp3005
(lp3006
g601
ag1
(g13
g3
NtRp3007
(dp3008
g16
S'T(5)./mid\\Enya_Lothlorien.mid'
p3009
sg18
S'Am'
p3010
sg20
I4096
sg21
g22
(S'0.125'
tRp3011
sg24
(lp3012
g1
(g26
g3
NtRp3013
(dp3014
g29
g22
(S'0.123779296875'
tRp3015
sg31
I66048
sg32
I0
sg33
I64
sbag1
(g26
g3
NtRp3016
(dp3017
g29
g22
(S'0.123779296875'
tRp3018
sg31
I66048
sg32
I0
sg33
I83
sbasg34
g22
(S'0.125'
tRp3019
sg36
g22
(S'16.125'
tRp3020
sbag1
(g13
g3
NtRp3021
(dp3022
g16
S'T(5)./mid\\Enya_Lothlorien.mid'
p3023
sg18
S'Am'
p3024
sg20
I4096
sg21
g22
(S'0.125'
tRp3025
sg24
(lp3026
g1
(g26
g3
NtRp3027
(dp3028
g29
g22
(S'0.123779296875'
tRp3029
sg31
I119296
sg32
I0
sg33
I64
sbag1
(g26
g3
NtRp3030
(dp3031
g29
g22
(S'0.123779296875'
tRp3032
sg31
I119296
sg32
I0
sg33
I83
sbasg34
g22
(S'0.125'
tRp3033
sg36
g22
(S'29.125'
tRp3034
sbas(g520
tp3035
(lp3036
g448
ag1
(g13
g3
NtRp3037
(dp3038
g16
S'T(5)./mid\\Enya_Lothlorien.mid'
p3039
sg18
S'C'
sg20
I4096
sg21
g22
(S'0.125'
tRp3040
sg24
(lp3041
g1
(g26
g3
NtRp3042
(dp3043
g29
g22
(S'0.123779296875'
tRp3044
sg31
I74240
sg32
I0
sg33
I55
sbasg34
g22
(S'0.125'
tRp3045
sg36
g22
(S'18.125'
tRp3046
sbag1
(g13
g3
NtRp3047
(dp3048
g16
S'T(5)./mid\\Enya_Lothlorien.mid'
p3049
sg18
S'C'
sg20
I4096
sg21
g22
(S'0.125'
tRp3050
sg24
(lp3051
g1
(g26
g3
NtRp3052
(dp3053
g29
g22
(S'0.123779296875'
tRp3054
sg31
I127488
sg32
I0
sg33
I55
sbasg34
g22
(S'0.125'
tRp3055
sg36
g22
(S'31.125'
tRp3056
sbas(g917
tp3057
(lp3058
g342
ag1
(g13
g3
NtRp3059
(dp3060
g16
S'T(5)./mid\\Enya_Lothlorien.mid'
p3061
sg18
S'F'
sg20
I4096
sg21
g22
(S'0.125'
tRp3062
sg24
(lp3063
g1
(g26
g3
NtRp3064
(dp3065
g29
g22
(S'0.123779296875'
tRp3066
sg31
I26112
sg32
I0
sg33
I60
sbag1
(g26
g3
NtRp3067
(dp3068
g29
g22
(S'0.123779296875'
tRp3069
sg31
I26112
sg32
I0
sg33
I69
sbasg34
g22
(S'0.375'
tRp3070
sg36
g22
(S'6.375'
tRp3071
sbag1
(g13
g3
NtRp3072
(dp3073
g16
S'T(5)./mid\\Enya_Lothlorien.mid'
p3074
sg18
S'F'
sg20
I4096
sg21
g22
(S'0.125'
tRp3075
sg24
(lp3076
g1
(g26
g3
NtRp3077
(dp3078
g29
g22
(S'0.123779296875'
tRp3079
sg31
I34304
sg32
I0
sg33
I60
sbag1
(g26
g3
NtRp3080
(dp3081
g29
g22
(S'0.123779296875'
tRp3082
sg31
I34304
sg32
I0
sg33
I69
sbasg34
g22
(S'0.375'
tRp3083
sg36
g22
(S'8.375'
tRp3084
sbag1
(g13
g3
NtRp3085
(dp3086
g16
S'T(5)./mid\\Enya_Lothlorien.mid'
p3087
sg18
S'F'
sg20
I4096
sg21
g22
(S'0.125'
tRp3088
sg24
(lp3089
g1
(g26
g3
NtRp3090
(dp3091
g29
g22
(S'0.123779296875'
tRp3092
sg31
I42496
sg32
I0
sg33
I60
sbag1
(g26
g3
NtRp3093
(dp3094
g29
g22
(S'0.123779296875'
tRp3095
sg31
I42496
sg32
I0
sg33
I69
sbasg34
g22
(S'0.375'
tRp3096
sg36
g22
(S'10.375'
tRp3097
sbag1
(g13
g3
NtRp3098
(dp3099
g16
S'T(5)./mid\\Enya_Lothlorien.mid'
p3100
sg18
S'F'
sg20
I4096
sg21
g22
(S'0.125'
tRp3101
sg24
(lp3102
g1
(g26
g3
NtRp3103
(dp3104
g29
g22
(S'0.123779296875'
tRp3105
sg31
I71168
sg32
I0
sg33
I60
sbag1
(g26
g3
NtRp3106
(dp3107
g29
g22
(S'0.123779296875'
tRp3108
sg31
I71168
sg32
I0
sg33
I69
sbasg34
g22
(S'0.375'
tRp3109
sg36
g22
(S'17.375'
tRp3110
sbag1
(g13
g3
NtRp3111
(dp3112
g16
S'T(5)./mid\\Enya_Lothlorien.mid'
p3113
sg18
S'F'
sg20
I4096
sg21
g22
(S'0.125'
tRp3114
sg24
(lp3115
g1
(g26
g3
NtRp3116
(dp3117
g29
g22
(S'0.123779296875'
tRp3118
sg31
I79360
sg32
I0
sg33
I60
sbag1
(g26
g3
NtRp3119
(dp3120
g29
g22
(S'0.123779296875'
tRp3121
sg31
I79360
sg32
I0
sg33
I69
sbasg34
g22
(S'0.375'
tRp3122
sg36
g22
(S'19.375'
tRp3123
sbag1
(g13
g3
NtRp3124
(dp3125
g16
S'T(5)./mid\\Enya_Lothlorien.mid'
p3126
sg18
S'F'
sg20
I4096
sg21
g22
(S'0.125'
tRp3127
sg24
(lp3128
g1
(g26
g3
NtRp3129
(dp3130
g29
g22
(S'0.123779296875'
tRp3131
sg31
I87552
sg32
I0
sg33
I60
sbag1
(g26
g3
NtRp3132
(dp3133
g29
g22
(S'0.123779296875'
tRp3134
sg31
I87552
sg32
I0
sg33
I69
sbasg34
g22
(S'0.375'
tRp3135
sg36
g22
(S'21.375'
tRp3136
sbag1
(g13
g3
NtRp3137
(dp3138
g16
S'T(5)./mid\\Enya_Lothlorien.mid'
p3139
sg18
S'F'
sg20
I4096
sg21
g22
(S'0.125'
tRp3140
sg24
(lp3141
g1
(g26
g3
NtRp3142
(dp3143
g29
g22
(S'0.123779296875'
tRp3144
sg31
I95744
sg32
I0
sg33
I60
sbag1
(g26
g3
NtRp3145
(dp3146
g29
g22
(S'0.123779296875'
tRp3147
sg31
I95744
sg32
I0
sg33
I69
sbasg34
g22
(S'0.375'
tRp3148
sg36
g22
(S'23.375'
tRp3149
sbag1
(g13
g3
NtRp3150
(dp3151
g16
S'T(5)./mid\\Enya_Lothlorien.mid'
p3152
sg18
S'F'
sg20
I4096
sg21
g22
(S'0.125'
tRp3153
sg24
(lp3154
g1
(g26
g3
NtRp3155
(dp3156
g29
g22
(S'0.123779296875'
tRp3157
sg31
I124416
sg32
I0
sg33
I60
sbag1
(g26
g3
NtRp3158
(dp3159
g29
g22
(S'0.123779296875'
tRp3160
sg31
I124416
sg32
I0
sg33
I69
sbasg34
g22
(S'0.375'
tRp3161
sg36
g22
(S'30.375'
tRp3162
sbag1
(g13
g3
NtRp3163
(dp3164
g16
S'T(5)./mid\\Enya_Lothlorien.mid'
p3165
sg18
S'F'
sg20
I4096
sg21
g22
(S'0.125'
tRp3166
sg24
(lp3167
g1
(g26
g3
NtRp3168
(dp3169
g29
g22
(S'0.123779296875'
tRp3170
sg31
I132608
sg32
I0
sg33
I60
sbag1
(g26
g3
NtRp3171
(dp3172
g29
g22
(S'0.123779296875'
tRp3173
sg31
I132608
sg32
I0
sg33
I69
sbasg34
g22
(S'0.375'
tRp3174
sg36
g22
(S'32.375'
tRp3175
sbag1
(g13
g3
NtRp3176
(dp3177
g16
S'T(5)./mid\\Enya_Lothlorien.mid'
p3178
sg18
S'F'
sg20
I4096
sg21
g22
(S'0.125'
tRp3179
sg24
(lp3180
g1
(g26
g3
NtRp3181
(dp3182
g29
g22
(S'0.123779296875'
tRp3183
sg31
I140800
sg32
I0
sg33
I60
sbag1
(g26
g3
NtRp3184
(dp3185
g29
g22
(S'0.123779296875'
tRp3186
sg31
I140800
sg32
I0
sg33
I69
sbasg34
g22
(S'0.375'
tRp3187
sg36
g22
(S'34.375'
tRp3188
sbag1
(g13
g3
NtRp3189
(dp3190
g16
S'T(5)./mid\\Enya_Lothlorien.mid'
p3191
sg18
S'F'
sg20
I4096
sg21
g22
(S'0.125'
tRp3192
sg24
(lp3193
g1
(g26
g3
NtRp3194
(dp3195
g29
g22
(S'0.123779296875'
tRp3196
sg31
I148992
sg32
I0
sg33
I60
sbag1
(g26
g3
NtRp3197
(dp3198
g29
g22
(S'0.123779296875'
tRp3199
sg31
I148992
sg32
I0
sg33
I69
sbasg34
g22
(S'0.375'
tRp3200
sg36
g22
(S'36.375'
tRp3201
sbas(g806
tp3202
(lp3203
g1004
ag1
(g13
g3
NtRp3204
(dp3205
g16
S'T(5)./mid\\Enya_Lothlorien.mid'
p3206
sg18
S'A'
sg20
I4096
sg21
g22
(S'0.125'
tRp3207
sg24
(lp3208
g1
(g26
g3
NtRp3209
(dp3210
g29
g22
(S'0.123779296875'
tRp3211
sg31
I52736
sg32
I0
sg33
I69
sbasg34
g22
(S'0.875'
tRp3212
sg36
g22
(S'12.875'
tRp3213
sbag1
(g13
g3
NtRp3214
(dp3215
g16
S'T(5)./mid\\Enya_Lothlorien.mid'
p3216
sg18
S'A'
sg20
I4096
sg21
g22
(S'0.125'
tRp3217
sg24
(lp3218
g1
(g26
g3
NtRp3219
(dp3220
g29
g22
(S'0.123779296875'
tRp3221
sg31
I101888
sg32
I0
sg33
I69
sbasg34
g22
(S'0.875'
tRp3222
sg36
g22
(S'24.875'
tRp3223
sbag1
(g13
g3
NtRp3224
(dp3225
g16
S'T(5)./mid\\Enya_Lothlorien.mid'
p3226
sg18
S'A'
sg20
I4096
sg21
g22
(S'0.125'
tRp3227
sg24
(lp3228
g1
(g26
g3
NtRp3229
(dp3230
g29
g22
(S'0.123779296875'
tRp3231
sg31
I105984
sg32
I0
sg33
I69
sbasg34
g22
(S'0.875'
tRp3232
sg36
g22
(S'25.875'
tRp3233
sbas(g1057
tp3234
(lp3235
g1036
ag1
(g13
g3
NtRp3236
(dp3237
g16
S'T(5)./mid\\Enya_Lothlorien.mid'
p3238
sg18
S'Am'
p3239
sg20
I4096
sg21
g22
(S'0.125'
tRp3240
sg24
(lp3241
g1
(g26
g3
NtRp3242
(dp3243
g29
g22
(S'0.123779296875'
tRp3244
sg31
I67072
sg32
I0
sg33
I64
sbasg34
g22
(S'0.375'
tRp3245
sg36
g22
(S'16.375'
tRp3246
sbag52
as(g577
tp3247
(lp3248
g1
(g13
g3
NtRp3249
(dp3250
g16
S'T(5)./mid\\Enya_Lothlorien.mid'
p3251
sg18
S'Dm'
p3252
sg20
I4096
sg21
g22
(S'0.125'
tRp3253
sg24
(lp3254
g1
(g26
g3
NtRp3255
(dp3256
g29
g22
(S'0.123779296875'
tRp3257
sg31
I114688
sg32
I0
sg33
I62
sbag1
(g26
g3
NtRp3258
(dp3259
g29
g22
(S'0.123779296875'
tRp3260
sg31
I114688
sg32
I0
sg33
I89
sbasg34
g22
(S'0'
tRp3261
sg36
g22
(S'28'
p3262
tRp3263
sbas(g295
tp3264
(lp3265
g141
ag1
(g13
g3
NtRp3266
(dp3267
g16
S'T(5)./mid\\Enya_Lothlorien.mid'
p3268
sg18
S'C'
sg20
I4096
sg21
g22
(S'0.125'
tRp3269
sg24
(lp3270
g1
(g26
g3
NtRp3271
(dp3272
g29
g22
(S'0.123779296875'
tRp3273
sg31
I77312
sg32
I0
sg33
I60
sbasg34
g22
(S'0.875'
tRp3274
sg36
g22
(S'18.875'
tRp3275
sbas(g657
tp3276
(lp3277
g1071
as(g964
tp3278
(lp3279
g626
as(g172
tp3280
(lp3281
g984
as(g1091
tp3282
(lp3283
g930
as(g930
tp3284
(lp3285
g964
as(g1036
tp3286
(lp3287
g1
(g13
g3
NtRp3288
(dp3289
g16
S'T(5)./mid\\Enya_Lothlorien.mid'
p3290
sg18
S'Am'
p3291
sg20
I4096
sg21
g22
(S'0.125'
tRp3292
sg24
(lp3293
g1
(g26
g3
NtRp3294
(dp3295
g29
g22
(S'0.123779296875'
tRp3296
sg31
I59392
sg32
I0
sg33
I69
sbasg34
g22
(S'0.5'
tRp3297
sg36
g22
(S'14.5'
tRp3298
sbag1
(g13
g3
NtRp3299
(dp3300
g16
S'T(5)./mid\\Enya_Lothlorien.mid'
p3301
sg18
S'Am'
p3302
sg20
I4096
sg21
g22
(S'0.125'
tRp3303
sg24
(lp3304
g1
(g26
g3
NtRp3305
(dp3306
g29
g22
(S'0.123779296875'
tRp3307
sg31
I67584
sg32
I0
sg33
I69
sbasg34
g22
(S'0.5'
tRp3308
sg36
g22
(S'16.5'
tRp3309
sbas(g827
tp3310
(lp3311
g740
as(g151
tp3312
(lp3313
g1
(g13
g3
NtRp3314
(dp3315
g16
S'T(5)./mid\\Enya_Lothlorien.mid'
p3316
sg18
S'Dm'
p3317
sg20
I4096
sg21
g22
(S'0.125'
tRp3318
sg24
(lp3319
g1
(g26
g3
NtRp3320
(dp3321
g29
g22
(S'0.123779296875'
tRp3322
sg31
I8192
sg32
I0
sg33
I74
sbag1
(g26
g3
NtRp3323
(dp3324
g29
g22
(S'0.123779296875'
tRp3325
sg31
I8192
sg32
I0
sg33
I89
sbasg34
g22
(S'0'
tRp3326
sg36
g22
(S'2'
tRp3327
sbag588
ag1
(g13
g3
NtRp3328
(dp3329
g16
S'T(5)./mid\\Enya_Lothlorien.mid'
p3330
sg18
S'Dm'
p3331
sg20
I4096
sg21
g22
(S'0.125'
tRp3332
sg24
(lp3333
g1
(g26
g3
NtRp3334
(dp3335
g29
g22
(S'0.123779296875'
tRp3336
sg31
I61440
sg32
I0
sg33
I62
sbag1
(g26
g3
NtRp3337
(dp3338
g29
g22
(S'0.123779296875'
tRp3339
sg31
I61440
sg32
I0
sg33
I89
sbasg34
g22
(S'0'
tRp3340
sg36
g22
(S'15'
p3341
tRp3342
sbag1
(g13
g3
NtRp3343
(dp3344
g16
S'T(5)./mid\\Enya_Lothlorien.mid'
p3345
sg18
S'F'
sg20
I4096
sg21
g22
(S'0.125'
tRp3346
sg24
(lp3347
g1
(g26
g3
NtRp3348
(dp3349
g29
g22
(S'0.123779296875'
tRp3350
sg31
I69632
sg32
I0
sg33
I53
sbag1
(g26
g3
NtRp3351
(dp3352
g29
g22
(S'0.248779296875'
tRp3353
sg31
I69632
sg32
I0
sg33
I69
sbasg34
g22
(S'0'
tRp3354
sg36
g22
(S'17'
p3355
tRp3356
sbas(g468
tp3357
(lp3358
g786
as(g305
tp3359
(lp3360
g533
ag1
(g13
g3
NtRp3361
(dp3362
g16
S'T(5)./mid\\Enya_Lothlorien.mid'
p3363
sg18
S'F'
sg20
I4096
sg21
g22
(S'0.125'
tRp3364
sg24
(lp3365
g1
(g26
g3
NtRp3366
(dp3367
g29
g22
(S'0.123779296875'
tRp3368
sg31
I27136
sg32
I0
sg33
I62
sbag1
(g26
g3
NtRp3369
(dp3370
g29
g22
(S'0.123779296875'
tRp3371
sg31
I27136
sg32
I0
sg33
I71
sbasg34
g22
(S'0.625'
tRp3372
sg36
g22
(S'6.625'
tRp3373
sbag1
(g13
g3
NtRp3374
(dp3375
g16
S'T(5)./mid\\Enya_Lothlorien.mid'
p3376
sg18
S'F'
sg20
I4096
sg21
g22
(S'0.125'
tRp3377
sg24
(lp3378
g1
(g26
g3
NtRp3379
(dp3380
g29
g22
(S'0.123779296875'
tRp3381
sg31
I35328
sg32
I0
sg33
I62
sbag1
(g26
g3
NtRp3382
(dp3383
g29
g22
(S'0.123779296875'
tRp3384
sg31
I35328
sg32
I0
sg33
I71
sbasg34
g22
(S'0.625'
tRp3385
sg36
g22
(S'8.625'
tRp3386
sbag1
(g13
g3
NtRp3387
(dp3388
g16
S'T(5)./mid\\Enya_Lothlorien.mid'
p3389
sg18
S'F'
sg20
I4096
sg21
g22
(S'0.125'
tRp3390
sg24
(lp3391
g1
(g26
g3
NtRp3392
(dp3393
g29
g22
(S'0.123779296875'
tRp3394
sg31
I43520
sg32
I0
sg33
I62
sbag1
(g26
g3
NtRp3395
(dp3396
g29
g22
(S'0.123779296875'
tRp3397
sg31
I43520
sg32
I0
sg33
I71
sbasg34
g22
(S'0.625'
tRp3398
sg36
g22
(S'10.625'
tRp3399
sbag1
(g13
g3
NtRp3400
(dp3401
g16
S'T(5)./mid\\Enya_Lothlorien.mid'
p3402
sg18
S'F'
sg20
I4096
sg21
g22
(S'0.125'
tRp3403
sg24
(lp3404
g1
(g26
g3
NtRp3405
(dp3406
g29
g22
(S'0.123779296875'
tRp3407
sg31
I72192
sg32
I0
sg33
I62
sbag1
(g26
g3
NtRp3408
(dp3409
g29
g22
(S'0.123779296875'
tRp3410
sg31
I72192
sg32
I0
sg33
I71
sbasg34
g22
(S'0.625'
tRp3411
sg36
g22
(S'17.625'
tRp3412
sbag1
(g13
g3
NtRp3413
(dp3414
g16
S'T(5)./mid\\Enya_Lothlorien.mid'
p3415
sg18
S'F'
sg20
I4096
sg21
g22
(S'0.125'
tRp3416
sg24
(lp3417
g1
(g26
g3
NtRp3418
(dp3419
g29
g22
(S'0.123779296875'
tRp3420
sg31
I80384
sg32
I0
sg33
I62
sbag1
(g26
g3
NtRp3421
(dp3422
g29
g22
(S'0.123779296875'
tRp3423
sg31
I80384
sg32
I0
sg33
I71
sbasg34
g22
(S'0.625'
tRp3424
sg36
g22
(S'19.625'
tRp3425
sbag1
(g13
g3
NtRp3426
(dp3427
g16
S'T(5)./mid\\Enya_Lothlorien.mid'
p3428
sg18
S'F'
sg20
I4096
sg21
g22
(S'0.125'
tRp3429
sg24
(lp3430
g1
(g26
g3
NtRp3431
(dp3432
g29
g22
(S'0.123779296875'
tRp3433
sg31
I88576
sg32
I0
sg33
I62
sbag1
(g26
g3
NtRp3434
(dp3435
g29
g22
(S'0.123779296875'
tRp3436
sg31
I88576
sg32
I0
sg33
I71
sbasg34
g22
(S'0.625'
tRp3437
sg36
g22
(S'21.625'
tRp3438
sbag1
(g13
g3
NtRp3439
(dp3440
g16
S'T(5)./mid\\Enya_Lothlorien.mid'
p3441
sg18
S'F'
sg20
I4096
sg21
g22
(S'0.125'
tRp3442
sg24
(lp3443
g1
(g26
g3
NtRp3444
(dp3445
g29
g22
(S'0.123779296875'
tRp3446
sg31
I96768
sg32
I0
sg33
I62
sbag1
(g26
g3
NtRp3447
(dp3448
g29
g22
(S'0.123779296875'
tRp3449
sg31
I96768
sg32
I0
sg33
I71
sbasg34
g22
(S'0.625'
tRp3450
sg36
g22
(S'23.625'
tRp3451
sbag1
(g13
g3
NtRp3452
(dp3453
g16
S'T(5)./mid\\Enya_Lothlorien.mid'
p3454
sg18
S'F'
sg20
I4096
sg21
g22
(S'0.125'
tRp3455
sg24
(lp3456
g1
(g26
g3
NtRp3457
(dp3458
g29
g22
(S'0.123779296875'
tRp3459
sg31
I125440
sg32
I0
sg33
I62
sbag1
(g26
g3
NtRp3460
(dp3461
g29
g22
(S'0.123779296875'
tRp3462
sg31
I125440
sg32
I0
sg33
I71
sbasg34
g22
(S'0.625'
tRp3463
sg36
g22
(S'30.625'
tRp3464
sbag1
(g13
g3
NtRp3465
(dp3466
g16
S'T(5)./mid\\Enya_Lothlorien.mid'
p3467
sg18
S'F'
sg20
I4096
sg21
g22
(S'0.125'
tRp3468
sg24
(lp3469
g1
(g26
g3
NtRp3470
(dp3471
g29
g22
(S'0.123779296875'
tRp3472
sg31
I133632
sg32
I0
sg33
I62
sbag1
(g26
g3
NtRp3473
(dp3474
g29
g22
(S'0.123779296875'
tRp3475
sg31
I133632
sg32
I0
sg33
I71
sbasg34
g22
(S'0.625'
tRp3476
sg36
g22
(S'32.625'
tRp3477
sbag1
(g13
g3
NtRp3478
(dp3479
g16
S'T(5)./mid\\Enya_Lothlorien.mid'
p3480
sg18
S'F'
sg20
I4096
sg21
g22
(S'0.125'
tRp3481
sg24
(lp3482
g1
(g26
g3
NtRp3483
(dp3484
g29
g22
(S'0.123779296875'
tRp3485
sg31
I141824
sg32
I0
sg33
I62
sbag1
(g26
g3
NtRp3486
(dp3487
g29
g22
(S'0.123779296875'
tRp3488
sg31
I141824
sg32
I0
sg33
I71
sbasg34
g22
(S'0.625'
tRp3489
sg36
g22
(S'34.625'
tRp3490
sbag1
(g13
g3
NtRp3491
(dp3492
g16
S'T(5)./mid\\Enya_Lothlorien.mid'
p3493
sg18
S'F'
sg20
I4096
sg21
g22
(S'0.125'
tRp3494
sg24
(lp3495
g1
(g26
g3
NtRp3496
(dp3497
g29
g22
(S'0.123779296875'
tRp3498
sg31
I150016
sg32
I0
sg33
I62
sbag1
(g26
g3
NtRp3499
(dp3500
g29
g22
(S'0.123779296875'
tRp3501
sg31
I150016
sg32
I0
sg33
I71
sbasg34
g22
(S'0.625'
tRp3502
sg36
g22
(S'36.625'
tRp3503
sbas(g1014
tp3504
(lp3505
g1
(g13
g3
NtRp3506
(dp3507
g16
S'T(5)./mid\\Enya_Lothlorien.mid'
p3508
sg18
S'Dm'
p3509
sg20
I4096
sg21
g22
(S'0.125'
tRp3510
sg24
(lp3511
g1
(g26
g3
NtRp3512
(dp3513
g29
g22
(S'0.248779296875'
tRp3514
sg31
I109568
sg32
I0
sg33
I86
sbasg34
g22
(S'0.75'
tRp3515
sg36
g22
(S'26.75'
tRp3516
sbas(g52
tp3517
(lp3518
g73
as(g98
tp3519
(lp3520
g284
as(g740
tp3521
(lp3522
g1
(g13
g3
NtRp3523
(dp3524
g16
S'T(5)./mid\\Enya_Lothlorien.mid'
p3525
sg18
S'A'
sg20
I4096
sg21
g22
(S'0.125'
tRp3526
sg24
(lp3527
g1
(g26
g3
NtRp3528
(dp3529
g29
g22
(S'0.123779296875'
tRp3530
sg31
I155648
sg32
I0
sg33
I57
sbasg34
g22
(S'0'
tRp3531
sg36
g22
(S'38'
p3532
tRp3533
sbassS'state_chains'
p3534
(lp3535
(lp3536
a(lp3537
a(lp3538
g726
ag950
ag394
ag499
ag750
ag422
ag370
ag848
ag408
ag38
ag109
ag204
ag667
ag151
ag3314
ag1205
ag2105
ag2972
ag2689
ag1617
ag615
ag837
ag2313
ag1141
ag1322
ag2867
ag1505
ag1678
ag1558
ag588
ag940
ag917
ag342
ag305
ag533
ag1081
ag63
ag520
ag448
ag974
ag225
ag295
ag141
ag1920
ag1993
ag1725
ag3059
ag2384
ag3361
ag2753
ag2182
ag318
ag489
ag1101
ag458
ag215
ag1047
ag1444
ag2003
ag1738
ag3072
ag2397
ag3374
ag2763
ag2192
ag249
ag2344
ag2920
ag1280
ag381
ag1352
ag1933
ag2013
ag1751
ag3085
ag2410
ag3387
ag2773
ag2202
ag235
ag557
ag567
ag796
ag806
ag1004
ag130
ag1888
ag2559
ag2150
ag1412
ag3204
ag355
ag712
ag678
ag262
ag2896
ag1628
ag1593
ag771
ag601
ag1057
ag1036
ag3288
ag1689
ag1569
ag3328
ag1475
ag1173
ag2137
ag2907
ag1639
ag1604
ag1263
ag3007
ag2529
ag3236
ag3299
ag1700
ag1580
ag3343
ag2023
ag1764
ag3098
ag2423
ag3400
ag2783
ag2212
ag2601
ag3037
ag2930
ag1290
ag1520
ag3266
ag1947
ag2033
ag1777
ag3111
ag2436
ag3413
ag2793
ag2222
ag2615
ag1874
ag1713
ag1129
ag1384
ag2739
ag1457
ag2043
ag1790
ag3124
ag2449
ag3426
ag2803
ag2232
ag2629
ag2354
ag2940
ag1300
ag1530
ag1362
ag1961
ag2053
ag1803
ag3137
ag2462
ag3439
ag2813
ag2242
ag2643
ag2989
ag2569
ag2160
ag1422
ag3214
ag1235
ag1898
ag2579
ag2170
ag1432
ag3224
ag1246
ag1219
ag2119
ag14
ag895
ag1014
ag3506
ag2298
ag2327
ag1155
ag1336
ag816
ag873
ag331
ag646
ag577
ag3249
ag1489
ag1187
ag1025
ag98
ag284
ag1665
ag546
ag2720
ag3021
ag2543
ag52
ag73
ag862
ag1652
ag193
ag2702
ag2063
ag1816
ag3150
ag2475
ag3452
ag2823
ag2252
ag2657
ag3047
ag2950
ag692
ag510
ag994
ag2880
ag2073
ag1829
ag3163
ag2488
ag3465
ag2833
ag2262
ag433
ag273
ag478
ag906
ag884
ag1111
ag1396
ag2083
ag1842
ag3176
ag2501
ag3478
ag2843
ag2272
ag2671
ag2364
ag2960
ag1310
ag1543
ag1372
ag1975
ag2093
ag1855
ag3189
ag2514
ag3491
ag2853
ag2282
ag84
ag162
ag702
ag761
ag827
ag740
ag3523
ag1908
ag2589
ag120
ag468
ag786
ag182
ag657
ag1071
ag172
ag984
ag1091
ag930
ag964
ag626
aasS'chain_length'
p3539
I1
sbsS'rev_mm'
p3540
g1
(g7
g3
NtRp3541
(dp3542
g10
g11
((lp3543
g52
ag1336
ag14
ag73
ag84
ag98
ag2867
ag884
ag120
ag3523
ag1372
ag1652
ag162
ag172
ag468
ag193
ag3299
ag1384
ag1310
ag2643
ag2671
ag2137
ag273
ag284
ag1520
ag2514
ag2615
ag331
ag3189
ag3249
ag1604
ag1543
ag2119
ag1155
ag1639
ag433
ag2364
ag1129
ag2589
ag478
ag1874
ag2972
ag510
ag2657
ag3491
ag546
ag1908
ag2282
ag577
ag1975
ag3021
ag1665
ag626
ag1580
ag657
ag1700
ag1187
ag692
ag827
ag1489
ag1246
ag740
ag2907
ag761
ag2720
ag786
ag2170
ag1432
ag816
ag702
ag2298
ag2543
ag182
ag862
ag873
ag895
ag906
ag2093
ag930
ag1855
ag1219
ag964
ag2960
ag1071
ag994
ag3224
ag1014
ag1025
ag3236
ag2739
ag2327
ag984
ag2853
ag1091
ag1713
ag1111
atRp3544
sg1123
(dp3545
(g1713
tp3546
(lp3547
g1874
ag489
as(g2543
tp3548
(lp3549
g3021
ag3007
ag601
as(g577
tp3550
(lp3551
g646
as(g1489
tp3552
(lp3553
g3249
ag3328
ag355
as(g273
tp3554
(lp3555
g433
as(g1384
tp3556
(lp3557
g1129
ag458
as(g3224
tp3558
(lp3559
g1432
ag1422
ag1412
ag806
as(g1665
tp3560
(lp3561
g284
ag1014
ag1617
as(g2960
tp3562
(lp3563
g2364
ag3047
ag2354
ag3037
ag2344
ag448
as(g1155
tp3564
(lp3565
g2327
ag2313
ag848
as(g1543
tp3566
(lp3567
g1310
ag1300
ag1280
as(g1129
tp3568
(lp3569
g1713
ag1101
as(g1111
tp3570
(lp3571
g884
as(g2170
tp3572
(lp3573
g2579
ag2569
ag2559
ag567
as(g2739
tp3574
(lp3575
g1384
ag215
as(g331
tp3576
(lp3577
g873
as(g3249
tp3578
(lp3579
g577
ag1569
ag3204
as(g478
tp3580
(lp3581
g273
as(g73
tp3582
(lp3583
g52
as(g172
tp3584
(lp3585
g1071
as(g1310
tp3586
(lp3587
g2960
ag2940
ag2930
ag2920
ag974
as(g1700
tp3588
(lp3589
g3299
ag3288
ag1505
ag204
as(g1639
tp3590
(lp3591
g2907
ag2896
ag2689
ag750
as(g2907
tp3592
(lp3593
g2137
ag262
ag2972
ag499
as(g862
tp3594
(lp3595
g73
as(g3236
tp3596
(lp3597
g2529
ag1057
as(g284
tp3598
(lp3599
g98
as(g3299
tp3600
(lp3601
g3236
ag1036
ag2867
ag109
as(g1874
tp3602
(lp3603
g2615
ag318
as(g2093
tp3604
(lp3605
g1975
ag1396
ag2880
ag2702
ag1961
ag1457
ag1947
ag3343
ag1933
ag1444
ag1920
ag588
as(g162
tp3606
(lp3607
g84
as(g984
tp3608
(lp3609
g172
as(g994
tp3610
(lp3611
g510
as(g52
tp3612
(lp3613
g2543
as(g702
tp3614
(lp3615
g162
as(g1372
tp3616
(lp3617
g1543
ag1530
ag1520
ag381
ag295
as(g786
tp3618
(lp3619
g468
as(g1975
tp3620
(lp3621
g1372
ag1111
ag994
ag193
ag1362
ag2739
ag3266
ag1580
ag1352
ag1047
ag141
ag1558
as(g1219
tp3622
(lp3623
g1246
ag3314
ag726
as(g906
tp3624
(lp3625
g478
as(g1187
tp3626
(lp3627
g1489
ag1475
ag712
as(g2589
tp3628
(lp3629
g1908
ag1898
ag2989
ag1888
ag557
as(g2853
tp3630
(lp3631
g3491
ag3478
ag3465
ag3452
ag3439
ag3426
ag3413
ag3400
ag3387
ag3374
ag3361
ag533
as(g2292
tp3632
(lp3633
g2295
ag626
as(g1604
tp3634
(lp3635
g1639
ag1628
ag422
as(g1580
tp3636
(lp3637
g1700
ag1689
ag1678
ag667
as(g2298
tp3638
(lp3639
g3506
ag615
as(g2671
tp3640
(lp3641
g2272
ag2232
ag2192
as(g626
tp3642
(lp3643
g964
as(g3523
tp3644
(lp3645
g740
ag3214
ag1004
as(g884
tp3646
(lp3647
g906
as(g761
tp3648
(lp3649
g702
as(g3189
tp3650
(lp3651
g1855
ag1842
ag1829
ag1816
ag1803
ag1790
ag1777
ag1764
ag1751
ag1738
ag1725
ag917
as(g3021
tp3652
(lp3653
g2720
ag1263
ag771
as(g1908
tp3654
(lp3655
g3523
ag1235
ag2643
ag130
ag235
as(g2282
tp3656
(lp3657
g2853
ag2843
ag2833
ag2823
ag2813
ag2803
ag2793
ag2783
ag2773
ag2763
ag2753
ag1081
as(g1025
tp3658
(lp3659
g1187
as(g2972
tp3660
(lp3661
g2105
ag394
as(g193
tp3662
(lp3663
g1652
as(g433
tp3664
(lp3665
g2262
as(g546
tp3666
(lp3667
g1665
as(g873
tp3668
(lp3669
g816
as(g2867
tp3670
(lp3671
g1322
ag38
as(g510
tp3672
(lp3673
g692
as(g3491
tp3674
(lp3675
g2514
ag2501
ag2488
ag2475
ag2462
ag2449
ag2436
ag2423
ag2410
ag2397
ag2384
ag305
as(g84
tp3676
(lp3677
g2282
as(g1336
tp3678
(lp3679
g1155
ag1141
ag408
as(g2615
tp3680
(lp3681
g2222
ag2182
as(g2137
tp3682
(lp3683
g1173
ag678
as(g2364
tp3684
(lp3685
g2671
ag2657
ag2629
ag2601
ag249
ag520
as(g2119
tp3686
(lp3687
g1219
ag1205
ag950
as(g468
tp3688
(lp3689
g120
as(g692
tp3690
(lp3691
g2950
as(g2643
tp3692
(lp3693
g2242
ag2202
as(g816
tp3694
(lp3695
g1336
as(g120
tp3696
(lp3697
g2589
as(g2720
tp3698
(lp3699
g546
ag1604
ag1593
as(g2657
tp3700
(lp3701
g2252
ag2212
ag63
as(g1855
tp3702
(lp3703
g2093
ag2083
ag2073
ag2063
ag2053
ag2043
ag2033
ag2023
ag2013
ag2003
ag1993
ag940
as(g1432
tp3704
(lp3705
g2170
ag2160
ag2150
ag796
as(g2327
tp3706
(lp3707
g2298
ag837
ag370
as(g895
tp3708
(lp3709
g14
as(g1520
tp3710
(lp3711
g1290
ag225
as(g657
tp3712
(lp3713
g182
as(g964
tp3714
(lp3715
g930
as(g1071
tp3716
(lp3717
g657
as(g1091
tp3718
(lp3719
g984
as(g930
tp3720
(lp3721
g1091
as(g1246
tp3722
(lp3723
g3224
ag151
ag2295
as(g827
tp3724
(lp3725
g761
as(g1652
tp3726
(lp3727
g862
ag331
as(g182
tp3728
(lp3729
g786
as(g2514
tp3730
(lp3731
g3189
ag3176
ag3163
ag3150
ag3137
ag3124
ag3111
ag3098
ag3085
ag3072
ag3059
ag342
as(g1014
tp3732
(lp3733
g895
as(g14
tp3734
(lp3735
g2119
as(g98
tp3736
(lp3737
g1025
as(g740
tp3738
(lp3739
g827
assg3534
(lp3740
(lp3741
a(lp3742
a(lp3743
g626
ag964
ag930
ag1091
ag984
ag172
ag1071
ag657
ag182
ag786
ag468
ag120
ag2589
ag1908
ag3523
ag740
ag827
ag761
ag702
ag162
ag84
ag2282
ag2853
ag3491
ag2514
ag3189
ag1855
ag2093
ag1975
ag1372
ag1543
ag1310
ag2960
ag2364
ag2671
ag2272
ag2843
ag3478
ag2501
ag3176
ag1842
ag2083
ag1396
ag1111
ag884
ag906
ag478
ag273
ag433
ag2262
ag2833
ag3465
ag2488
ag3163
ag1829
ag2073
ag2880
ag994
ag510
ag692
ag2950
ag3047
ag2657
ag2252
ag2823
ag3452
ag2475
ag3150
ag1816
ag2063
ag2702
ag193
ag1652
ag862
ag73
ag52
ag2543
ag3021
ag2720
ag546
ag1665
ag284
ag98
ag1025
ag1187
ag1489
ag3249
ag577
ag646
ag331
ag873
ag816
ag1336
ag1155
ag2327
ag2298
ag3506
ag1014
ag895
ag14
ag2119
ag1219
ag1246
ag3224
ag1432
ag2170
ag2579
ag1898
ag1235
ag3214
ag1422
ag2160
ag2569
ag2989
ag2643
ag2242
ag2813
ag3439
ag2462
ag3137
ag1803
ag2053
ag1961
ag1362
ag1530
ag1300
ag2940
ag2354
ag2629
ag2232
ag2803
ag3426
ag2449
ag3124
ag1790
ag2043
ag1457
ag2739
ag1384
ag1129
ag1713
ag1874
ag2615
ag2222
ag2793
ag3413
ag2436
ag3111
ag1777
ag2033
ag1947
ag3266
ag1520
ag1290
ag2930
ag3037
ag2601
ag2212
ag2783
ag3400
ag2423
ag3098
ag1764
ag2023
ag3343
ag1580
ag1700
ag3299
ag3236
ag2529
ag3007
ag1263
ag1604
ag1639
ag2907
ag2137
ag1173
ag1475
ag3328
ag1569
ag1689
ag3288
ag1036
ag1057
ag601
ag771
ag1593
ag1628
ag2896
ag262
ag678
ag712
ag355
ag3204
ag1412
ag2150
ag2559
ag1888
ag130
ag1004
ag806
ag796
ag567
ag557
ag235
ag2202
ag2773
ag3387
ag2410
ag3085
ag1751
ag2013
ag1933
ag1352
ag381
ag1280
ag2920
ag2344
ag249
ag2192
ag2763
ag3374
ag2397
ag3072
ag1738
ag2003
ag1444
ag1047
ag215
ag458
ag1101
ag489
ag318
ag2182
ag2753
ag3361
ag2384
ag3059
ag1725
ag1993
ag1920
ag141
ag295
ag225
ag974
ag448
ag520
ag63
ag1081
ag533
ag305
ag342
ag917
ag940
ag588
ag1558
ag1678
ag1505
ag2867
ag1322
ag1141
ag2313
ag837
ag615
ag1617
ag2689
ag2972
ag2105
ag1205
ag3314
ag151
ag667
ag204
ag109
ag38
ag408
ag848
ag370
ag422
ag750
ag499
ag394
ag950
ag726
aasg3539
I1
sbsS'type'
p3744
S'enya half'
p3745
sS'pieces'
p3746
g11
((lp3747
S'./mid\\Enya_Lothlorien.mid'
p3748
atRp3749
sb.