ccopy_reg
_reconstructor
p1
(c__main__
Recommender
p2
c__builtin__
object
p3
NtRp4
(dp5
S'mm'
p6
g1
(ccmm
Markov
p7
g3
NtRp8
(dp9
S'states'
p10
c__builtin__
set
p11
((lp12
g1
(ccmm
NoteState
p13
g3
NtRp14
(dp15
S'origin'
p16
S'T(4)mid/minutewaltz_1.mid'
p17
sS'chord'
p18
S'Am'
p19
sS'bar'
p20
I3072
sS'state_duration'
p21
cdecimal
Decimal
p22
(S'0.1666666666666666666666666667'
tRp23
sS'notes'
p24
(lp25
g1
(cdata
note
p26
g3
NtRp27
(dp28
S'dur'
p29
g22
(S'0.1666666666666666666666666667'
tRp30
sS'pos'
p31
I24064
sS'chn'
p32
I0
sS'pitch'
p33
I74
sbasS'bar_pos'
p34
g22
(S'0.8333333333333333333333333333'
tRp35
sS'state_position'
p36
g22
(S'7.833333333333333333333333333'
tRp37
sbag1
(g13
g3
NtRp38
(dp39
g16
S'T(-1)mid/minutewaltz_3.mid'
p40
sg18
S'C'
sg20
I3072
sg21
g22
(S'0.166666666666666666666666666'
tRp41
sg24
(lp42
g1
(g26
g3
NtRp43
(dp44
g29
g22
(S'0.1666666666666666666666666667'
tRp45
sg31
I15872
sg32
I0
sg33
I71
sbasg34
g22
(S'0.1666666666666666666666666667'
tRp46
sg36
g22
(S'5.166666666666666666666666667'
tRp47
sbag1
(g13
g3
NtRp48
(dp49
g16
S'T(-1)mid/minutewaltz_3.mid'
p50
sg18
S'G'
sg20
I3072
sg21
g22
(S'0.1666666666666666666666666667'
tRp51
sg24
(lp52
g1
(g26
g3
NtRp53
(dp54
g29
g22
(S'0.1666666666666666666666666667'
tRp55
sg31
I20992
sg32
I0
sg33
I67
sbasg34
g22
(S'0.8333333333333333333333333333'
tRp56
sg36
g22
(S'6.833333333333333333333333333'
tRp57
sbag1
(g13
g3
NtRp58
(dp59
g16
S'T(-1)mid/minutewaltz_3.mid'
p60
sg18
S'Am'
p61
sg20
I3072
sg21
g22
(S'0.166666666666666666666666666'
tRp62
sg24
(lp63
g1
(g26
g3
NtRp64
(dp65
g29
g22
(S'0.1666666666666666666666666667'
tRp66
sg31
I3584
sg32
I0
sg33
I77
sbasg34
g22
(S'0.1666666666666666666666666667'
tRp67
sg36
g22
(S'1.166666666666666666666666667'
tRp68
sbag1
(g13
g3
NtRp69
(dp70
g16
S'T(4)mid/minutewaltz_1.mid'
p71
sg18
S'C'
sg20
I3072
sg21
g22
(S'0.166666666666666666666666667'
tRp72
sg24
(lp73
g1
(g26
g3
NtRp74
(dp75
g29
g22
(S'0.1666666666666666666666666667'
tRp76
sg31
I16896
sg32
I0
sg33
I78
sbasg34
g22
(S'0.5'
tRp77
sg36
g22
(S'5.5'
tRp78
sbag1
(g13
g3
NtRp79
(dp80
g16
S'T(4)mid/minutewaltz_1.mid'
p81
sg18
S'F'
sg20
I3072
sg21
g22
(S'0.166666666666666666666666667'
tRp82
sg24
(lp83
g1
(g26
g3
NtRp84
(dp85
g29
g22
(S'0.1666666666666666666666666667'
tRp86
sg31
I9216
sg32
I0
sg33
I74
sbag1
(g26
g3
NtRp87
(dp88
g29
g22
(S'0.3333333333333333333333333333'
tRp89
sg31
I9216
sg32
I1
sg33
I57
sbasg34
g22
(S'0'
tRp90
sg36
g22
(S'3'
tRp91
sbag1
(g13
g3
NtRp92
(dp93
g16
S'T(-1)mid/minutewaltz_3.mid'
p94
sg18
S'C'
sg20
I3072
sg21
g22
(S'0.166666666666666666666666666'
tRp95
sg24
(lp96
g1
(g26
g3
NtRp97
(dp98
g29
g22
(S'0.1666666666666666666666666667'
tRp99
sg31
I11264
sg32
I0
sg33
I79
sbasg34
g22
(S'0.6666666666666666666666666667'
tRp100
sg36
g22
(S'3.666666666666666666666666667'
tRp101
sbag1
(g13
g3
NtRp102
(dp103
g16
S'T(-1)mid/minutewaltz_3.mid'
p104
sg18
S'C'
sg20
I3072
sg21
g22
(S'0.166666666666666666666666667'
tRp105
sg24
(lp106
g1
(g26
g3
NtRp107
(dp108
g29
g22
(S'0.1666666666666666666666666667'
tRp109
sg31
I15360
sg32
I0
sg33
I72
sbag1
(g26
g3
NtRp110
(dp111
g29
g22
(S'0.3333333333333333333333333333'
tRp112
sg31
I15360
sg32
I1
sg33
I43
sbasg34
g22
(S'0'
tRp113
sg36
g22
(S'5'
tRp114
sbag1
(g13
g3
NtRp115
(dp116
g16
S'T(-1)mid/minutewaltz_3.mid'
p117
sg18
S'Am'
p118
sg20
I3072
sg21
g22
(S'0.166666666666666666666666666'
tRp119
sg24
(lp120
g1
(g26
g3
NtRp121
(dp122
g29
g22
(S'0.1666666666666666666666666667'
tRp123
sg31
I5120
sg32
I0
sg33
I76
sbag1
(g26
g3
NtRp124
(dp125
g29
g22
(S'0.3333333333333333333333333333'
tRp126
sg31
I5120
sg32
I1
sg33
I52
sbag1
(g26
g3
NtRp127
(dp128
g29
g22
(S'0.3333333333333333333333333333'
tRp129
sg31
I5120
sg32
I1
sg33
I60
sbasg34
g22
(S'0.6666666666666666666666666667'
tRp130
sg36
g22
(S'1.666666666666666666666666667'
tRp131
sbag1
(g13
g3
NtRp132
(dp133
g16
S'T(4)mid/minutewaltz_1.mid'
p134
sg18
S'Am'
p135
sg20
I3072
sg21
g22
(S'0.166666666666666666666666667'
tRp136
sg24
(lp137
g1
(g26
g3
NtRp138
(dp139
g29
g22
(S'0.1666666666666666666666666667'
tRp140
sg31
I22528
sg32
I0
sg33
I78
sbag1
(g26
g3
NtRp141
(dp142
g29
g22
(S'0.3333333333333333333333333333'
tRp143
sg31
I22528
sg32
I1
sg33
I64
sbag1
(g26
g3
NtRp144
(dp145
g29
g22
(S'0.3333333333333333333333333333'
tRp146
sg31
I22528
sg32
I1
sg33
I70
sbasg34
g22
(S'0.3333333333333333333333333333'
tRp147
sg36
g22
(S'7.333333333333333333333333333'
tRp148
sbag1
(g13
g3
NtRp149
(dp150
g16
S'T(4)mid/minutewaltz_1.mid'
p151
sg18
S'F'
sg20
I3072
sg21
g22
(S'0.1666666666666666666666666667'
tRp152
sg24
(lp153
g1
(g26
g3
NtRp154
(dp155
g29
g22
(S'0.1666666666666666666666666667'
tRp156
sg31
I1024
sg32
I0
sg33
I76
sbag1
(g26
g3
NtRp157
(dp158
g29
g22
(S'0.3333333333333333333333333333'
tRp159
sg31
I1024
sg32
I1
sg33
I60
sbag1
(g26
g3
NtRp160
(dp161
g29
g22
(S'0.3333333333333333333333333333'
tRp162
sg31
I1024
sg32
I1
sg33
I65
sbag1
(g26
g3
NtRp163
(dp164
g29
g22
(S'0.3333333333333333333333333333'
tRp165
sg31
I1024
sg32
I1
sg33
I69
sbasg34
g22
(S'0.3333333333333333333333333333'
tRp166
sg36
g22
(S'0.3333333333333333333333333333'
tRp167
sbag1
(g13
g3
NtRp168
(dp169
g16
S'T(-1)mid/minutewaltz_3.mid'
p170
sg18
S'E'
sg20
I3072
sg21
g22
(S'0.1666666666666666666666666666'
tRp171
sg24
(lp172
g1
(g26
g3
NtRp173
(dp174
g29
g22
(S'0.1666666666666666666666666667'
tRp175
sg31
I2048
sg32
I0
sg33
I79
sbag1
(g26
g3
NtRp176
(dp177
g29
g22
(S'0.3333333333333333333333333333'
tRp178
sg31
I2048
sg32
I1
sg33
I52
sbag1
(g26
g3
NtRp179
(dp180
g29
g22
(S'0.3333333333333333333333333333'
tRp181
sg31
I2048
sg32
I1
sg33
I59
sbag1
(g26
g3
NtRp182
(dp183
g29
g22
(S'0.3333333333333333333333333333'
tRp184
sg31
I2048
sg32
I1
sg33
I62
sbasg34
g22
(S'0.6666666666666666666666666667'
tRp185
sg36
g22
(S'0.6666666666666666666666666667'
tRp186
sbag1
(g13
g3
NtRp187
(dp188
g16
S'T(4)mid/minutewaltz_1.mid'
p189
sg18
S'Am'
p190
sg20
I3072
sg21
g22
(S'0.166666666666666666666666666'
tRp191
sg24
(lp192
g1
(g26
g3
NtRp193
(dp194
g29
g22
(S'0.1666666666666666666666666667'
tRp195
sg31
I23552
sg32
I0
sg33
I81
sbag1
(g26
g3
NtRp196
(dp197
g29
g22
(S'0.3333333333333333333333333333'
tRp198
sg31
I23552
sg32
I1
sg33
I64
sbag1
(g26
g3
NtRp199
(dp200
g29
g22
(S'0.3333333333333333333333333333'
tRp201
sg31
I23552
sg32
I1
sg33
I70
sbasg34
g22
(S'0.6666666666666666666666666667'
tRp202
sg36
g22
(S'7.666666666666666666666666667'
tRp203
sbag1
(g13
g3
NtRp204
(dp205
g16
S'T(-1)mid/minutewaltz_3.mid'
p206
sg18
S'E'
sg20
I3072
sg21
g22
(S'0.1666666666666666666666666667'
tRp207
sg24
(lp208
g1
(g26
g3
NtRp209
(dp210
g29
g22
(S'0.1666666666666666666666666667'
tRp211
sg31
I1536
sg32
I0
sg33
I76
sbasg34
g22
(S'0.5'
tRp212
sg36
g22
(S'0.5'
tRp213
sbag1
(g13
g3
NtRp214
(dp215
g16
S'T(4)mid/minutewaltz_1.mid'
p216
sg18
S'Am'
p217
sg20
I3072
sg21
g22
(S'0.166666666666666666666666667'
tRp218
sg24
(lp219
g1
(g26
g3
NtRp220
(dp221
g29
g22
(S'0.3333333333333333333333333333'
tRp222
sg31
I19456
sg32
I1
sg33
I64
sbag1
(g26
g3
NtRp223
(dp224
g29
g22
(S'0.3333333333333333333333333333'
tRp225
sg31
I19456
sg32
I1
sg33
I70
sbasg34
g22
(S'0.3333333333333333333333333333'
tRp226
sg36
g22
(S'6.333333333333333333333333333'
tRp227
sbag1
(g13
g3
NtRp228
(dp229
g16
S'T(4)mid/minutewaltz_1.mid'
p230
sg18
S'F'
sg20
I3072
sg21
g22
(S'0.1666666666666666666666666666'
tRp231
sg24
(lp232
g1
(g26
g3
NtRp233
(dp234
g29
g22
(S'0.1666666666666666666666666667'
tRp235
sg31
I512
sg32
I0
sg33
I72
sbasg34
g22
(S'0.1666666666666666666666666667'
tRp236
sg36
g22
(S'0.1666666666666666666666666667'
tRp237
sbag1
(g13
g3
NtRp238
(dp239
g16
S'T(-1)mid/minutewaltz_3.mid'
p240
sg18
S'G'
sg20
I3072
sg21
g22
(S'0.166666666666666666666666667'
tRp241
sg24
(lp242
g1
(g26
g3
NtRp243
(dp244
g29
g22
(S'0.1666666666666666666666666667'
tRp245
sg31
I8704
sg32
I0
sg33
I81
sbasg34
g22
(S'0.8333333333333333333333333333'
tRp246
sg36
g22
(S'2.833333333333333333333333333'
tRp247
sbag1
(g13
g3
NtRp248
(dp249
g16
S'T(4)mid/minutewaltz_1.mid'
p250
sg18
S'Am'
p251
sg20
I3072
sg21
g22
(S'0.333333333333333333333333333'
tRp252
sg24
(lp253
g1
(g26
g3
NtRp254
(dp255
g29
g22
(S'0.3333333333333333333333333333'
tRp256
sg31
I12288
sg32
I1
sg33
I48
sbag1
(g26
g3
NtRp257
(dp258
g29
g22
(S'0.5'
tRp259
sg31
I12288
sg32
I0
sg33
I86
sbasg34
g22
(S'0'
tRp260
sg36
g22
(S'4'
tRp261
sbag1
(g13
g3
NtRp262
(dp263
g16
S'T(-1)mid/minutewaltz_3.mid'
p264
sg18
S'Am'
p265
sg20
I3072
sg21
g22
(S'0.166666666666666666666666667'
tRp266
sg24
(lp267
g1
(g26
g3
NtRp268
(dp269
g29
g22
(S'0.1666666666666666666666666667'
tRp270
sg31
I4096
sg32
I0
sg33
I76
sbag1
(g26
g3
NtRp271
(dp272
g29
g22
(S'0.3333333333333333333333333333'
tRp273
sg31
I4096
sg32
I1
sg33
I52
sbag1
(g26
g3
NtRp274
(dp275
g29
g22
(S'0.3333333333333333333333333333'
tRp276
sg31
I4096
sg32
I1
sg33
I60
sbasg34
g22
(S'0.3333333333333333333333333333'
tRp277
sg36
g22
(S'1.333333333333333333333333333'
tRp278
sbag1
(g13
g3
NtRp279
(dp280
g16
S'T(4)mid/minutewaltz_1.mid'
p281
sg18
S'F'
sg20
I3072
sg21
g22
(S'0.1666666666666666666666666667'
tRp282
sg24
(lp283
g1
(g26
g3
NtRp284
(dp285
g29
g22
(S'0.1666666666666666666666666667'
tRp286
sg31
I1536
sg32
I0
sg33
I74
sbasg34
g22
(S'0.5'
tRp287
sg36
g22
(S'0.5'
tRp288
sbag1
(g13
g3
NtRp289
(dp290
g16
S'T(-1)mid/minutewaltz_3.mid'
p291
sg18
S'Am'
p292
sg20
I3072
sg21
g22
(S'0.166666666666666666666666667'
tRp293
sg24
(lp294
g1
(g26
g3
NtRp295
(dp296
g29
g22
(S'0.1666666666666666666666666667'
tRp297
sg31
I4608
sg32
I0
sg33
I75
sbasg34
g22
(S'0.5'
tRp298
sg36
g22
(S'1.5'
tRp299
sbag1
(g13
g3
NtRp300
(dp301
g16
S'T(-1)mid/minutewaltz_3.mid'
p302
sg18
S'C'
sg20
I3072
sg21
g22
(S'0.166666666666666666666666667'
tRp303
sg24
(lp304
g1
(g26
g3
NtRp305
(dp306
g29
g22
(S'0.1666666666666666666666666667'
tRp307
sg31
I9216
sg32
I0
sg33
I79
sbag1
(g26
g3
NtRp308
(dp309
g29
g22
(S'0.3333333333333333333333333333'
tRp310
sg31
I9216
sg32
I1
sg33
I48
sbasg34
g22
(S'0'
tRp311
sg36
g22
(S'3'
tRp312
sbag1
(g13
g3
NtRp313
(dp314
g16
S'T(-1)mid/minutewaltz_3.mid'
p315
sg18
S'G'
sg20
I3072
sg21
g22
(S'0.111002604166666666666666666'
tRp316
sg24
(lp317
g1
(g26
g3
NtRp318
(dp319
g29
g22
(S'0.1110026041666666666666666667'
tRp320
sg31
I6827
sg32
I0
sg33
I79
sbasg34
g22
(S'0.2223307291666666666666666667'
tRp321
sg36
g22
(S'2.222330729166666666666666667'
tRp322
sbag1
(g13
g3
NtRp323
(dp324
g16
S'T(-1)mid/minutewaltz_3.mid'
p325
sg18
S'E'
sg20
I3072
sg21
g22
(S'0.1110026041666666666666666666'
tRp326
sg24
(lp327
g1
(g26
g3
NtRp328
(dp329
g29
g22
(S'0.1110026041666666666666666667'
tRp330
sg31
I683
sg32
I0
sg33
I76
sbasg34
g22
(S'0.2223307291666666666666666667'
tRp331
sg36
g22
(S'0.2223307291666666666666666667'
tRp332
sbag1
(g13
g3
NtRp333
(dp334
g16
S'T(-1)mid/minutewaltz_3.mid'
p335
sg18
S'Dm'
p336
sg20
I3072
sg21
g22
(S'0.166666666666666666666666666'
tRp337
sg24
(lp338
g1
(g26
g3
NtRp339
(dp340
g29
g22
(S'0.1666666666666666666666666667'
tRp341
sg31
I12800
sg32
I0
sg33
I81
sbasg34
g22
(S'0.1666666666666666666666666667'
tRp342
sg36
g22
(S'4.166666666666666666666666667'
tRp343
sbag1
(g13
g3
NtRp344
(dp345
g16
S'T(-1)mid/minutewaltz_3.mid'
p346
sg18
S'Dm'
p347
sg20
I3072
sg21
g22
(S'0.166666666666666666666666667'
tRp348
sg24
(lp349
g1
(g26
g3
NtRp350
(dp351
g29
g22
(S'0.1666666666666666666666666667'
tRp352
sg31
I13824
sg32
I0
sg33
I77
sbasg34
g22
(S'0.5'
tRp353
sg36
g22
(S'4.5'
tRp354
sbag1
(g13
g3
NtRp355
(dp356
g16
S'T(4)mid/minutewaltz_1.mid'
p357
sg18
S'C'
sg20
I3072
sg21
g22
(S'0.333333333333333333333333333'
tRp358
sg24
(lp359
g1
(g26
g3
NtRp360
(dp361
g29
g22
(S'0.3333333333333333333333333333'
tRp362
sg31
I17408
sg32
I1
sg33
I60
sbag1
(g26
g3
NtRp363
(dp364
g29
g22
(S'0.3333333333333333333333333333'
tRp365
sg31
I17408
sg32
I1
sg33
I64
sbag1
(g26
g3
NtRp366
(dp367
g29
g22
(S'0.3333333333333333333333333333'
tRp368
sg31
I17408
sg32
I1
sg33
I70
sbag1
(g26
g3
NtRp369
(dp370
g29
g22
(S'0.3333333333333333333333333333'
tRp371
sg31
I17408
sg32
I0
sg33
I79
sbasg34
g22
(S'0.6666666666666666666666666667'
tRp372
sg36
g22
(S'5.666666666666666666666666667'
tRp373
sbag1
(g13
g3
NtRp374
(dp375
g16
S'T(4)mid/minutewaltz_1.mid'
p376
sg18
S'Am'
p377
sg20
I3072
sg21
g22
(S'0.166666666666666666666666666'
tRp378
sg24
(lp379
g1
(g26
g3
NtRp380
(dp381
g29
g22
(S'0.1666666666666666666666666667'
tRp382
sg31
I14336
sg32
I0
sg33
I82
sbag1
(g26
g3
NtRp383
(dp384
g29
g22
(S'0.3333333333333333333333333333'
tRp385
sg31
I14336
sg32
I1
sg33
I60
sbag1
(g26
g3
NtRp386
(dp387
g29
g22
(S'0.3333333333333333333333333333'
tRp388
sg31
I14336
sg32
I1
sg33
I64
sbag1
(g26
g3
NtRp389
(dp390
g29
g22
(S'0.3333333333333333333333333333'
tRp391
sg31
I14336
sg32
I1
sg33
I70
sbasg34
g22
(S'0.6666666666666666666666666667'
tRp392
sg36
g22
(S'4.666666666666666666666666667'
tRp393
sbag1
(g13
g3
NtRp394
(dp395
g16
S'T(4)mid/minutewaltz_1.mid'
p396
sg18
S'F'
sg20
I3072
sg21
g22
(S'0.1666666666666666666666666667'
tRp397
sg24
(lp398
g1
(g26
g3
NtRp399
(dp400
g29
g22
(S'0.1666666666666666666666666667'
tRp401
sg31
I0
sg32
I0
sg33
I71
sbag1
(g26
g3
NtRp402
(dp403
g29
g22
(S'0.3333333333333333333333333333'
tRp404
sg31
I0
sg32
I1
sg33
I53
sbasg34
g22
(S'0'
tRp405
sg36
g22
(S'0'
tRp406
sbag1
(g13
g3
NtRp407
(dp408
g16
S'T(4)mid/minutewaltz_1.mid'
p409
sg18
S'F'
sg20
I3072
sg21
g22
(S'0.166666666666666666666666666'
tRp410
sg24
(lp411
g1
(g26
g3
NtRp412
(dp413
g29
g22
(S'0.1666666666666666666666666667'
tRp414
sg31
I9728
sg32
I0
sg33
I76
sbasg34
g22
(S'0.1666666666666666666666666667'
tRp415
sg36
g22
(S'3.166666666666666666666666667'
tRp416
sbag1
(g13
g3
NtRp417
(dp418
g16
S'T(4)mid/minutewaltz_1.mid'
p419
sg18
S'Am'
p420
sg20
I3072
sg21
g22
(S'0.166666666666666666666666667'
tRp421
sg24
(lp422
g1
(g26
g3
NtRp423
(dp424
g29
g22
(S'0.1666666666666666666666666667'
tRp425
sg31
I21504
sg32
I0
sg33
I81
sbag1
(g26
g3
NtRp426
(dp427
g29
g22
(S'0.3333333333333333333333333333'
tRp428
sg31
I21504
sg32
I1
sg33
I60
sbasg34
g22
(S'0'
tRp429
sg36
g22
(S'7'
tRp430
sbag1
(g13
g3
NtRp431
(dp432
g16
S'T(4)mid/minutewaltz_1.mid'
p433
sg18
S'F'
sg20
I3072
sg21
g22
(S'0.166666666666666666666666666'
tRp434
sg24
(lp435
g1
(g26
g3
NtRp436
(dp437
g29
g22
(S'0.1666666666666666666666666667'
tRp438
sg31
I3584
sg32
I0
sg33
I74
sbasg34
g22
(S'0.1666666666666666666666666667'
tRp439
sg36
g22
(S'1.166666666666666666666666667'
tRp440
sbag1
(g13
g3
NtRp441
(dp442
g16
S'T(-1)mid/minutewaltz_3.mid'
p443
sg18
S'G'
sg20
I3072
sg21
g22
(S'0.166666666666666666666666667'
tRp444
sg24
(lp445
g1
(g26
g3
NtRp446
(dp447
g29
g22
(S'0.1666666666666666666666666667'
tRp448
sg31
I19968
sg32
I0
sg33
I62
sbasg34
g22
(S'0.5'
tRp449
sg36
g22
(S'6.5'
tRp450
sbag1
(g13
g3
NtRp451
(dp452
g16
S'T(-1)mid/minutewaltz_3.mid'
p453
sg18
S'E'
sg20
I3072
sg21
g22
(S'0.1666666666666666666666666667'
tRp454
sg24
(lp455
g1
(g26
g3
NtRp456
(dp457
g29
g22
(S'0.1666666666666666666666666667'
tRp458
sg31
I1024
sg32
I0
sg33
I75
sbag1
(g26
g3
NtRp459
(dp460
g29
g22
(S'0.3333333333333333333333333333'
tRp461
sg31
I1024
sg32
I1
sg33
I52
sbag1
(g26
g3
NtRp462
(dp463
g29
g22
(S'0.3333333333333333333333333333'
tRp464
sg31
I1024
sg32
I1
sg33
I59
sbag1
(g26
g3
NtRp465
(dp466
g29
g22
(S'0.3333333333333333333333333333'
tRp467
sg31
I1024
sg32
I1
sg33
I62
sbasg34
g22
(S'0.3333333333333333333333333333'
tRp468
sg36
g22
(S'0.3333333333333333333333333333'
tRp469
sbag1
(g13
g3
NtRp470
(dp471
g16
S'T(-1)mid/minutewaltz_3.mid'
p472
sg18
S'G'
sg20
I3072
sg21
g22
(S'0.111002604166666666666666667'
tRp473
sg24
(lp474
g1
(g26
g3
NtRp475
(dp476
g29
g22
(S'0.1110026041666666666666666667'
tRp477
sg31
I6144
sg32
I0
sg33
I79
sbag1
(g26
g3
NtRp478
(dp479
g29
g22
(S'0.3333333333333333333333333333'
tRp480
sg31
I6144
sg32
I1
sg33
I47
sbasg34
g22
(S'0'
tRp481
sg36
g22
(S'2'
tRp482
sbag1
(g13
g3
NtRp483
(dp484
g16
S'T(-1)mid/minutewaltz_3.mid'
p485
sg18
S'Dm'
p486
sg20
I3072
sg21
g22
(S'0.166666666666666666666666667'
tRp487
sg24
(lp488
g1
(g26
g3
NtRp489
(dp490
g29
g22
(S'0.1666666666666666666666666667'
tRp491
sg31
I13312
sg32
I0
sg33
I79
sbag1
(g26
g3
NtRp492
(dp493
g29
g22
(S'0.6666666666666666666666666667'
tRp494
sg31
I13312
sg32
I1
sg33
I57
sbag1
(g26
g3
NtRp495
(dp496
g29
g22
(S'0.6666666666666666666666666667'
tRp497
sg31
I13312
sg32
I1
sg33
I62
sbasg34
g22
(S'0.3333333333333333333333333333'
tRp498
sg36
g22
(S'4.333333333333333333333333333'
tRp499
sbag1
(g13
g3
NtRp500
(dp501
g16
S'T(-1)mid/minutewaltz_3.mid'
p502
sg18
S'G'
sg20
I3072
sg21
g22
(S'0.166666666666666666666666667'
tRp503
sg24
(lp504
g1
(g26
g3
NtRp505
(dp506
g29
g22
(S'0.1666666666666666666666666667'
tRp507
sg31
I7680
sg32
I0
sg33
I79
sbasg34
g22
(S'0.5'
tRp508
sg36
g22
(S'2.5'
tRp509
sbag1
(g13
g3
NtRp510
(dp511
g16
S'T(4)mid/minutewaltz_1.mid'
p512
sg18
S'F'
sg20
I3072
sg21
g22
(S'0.166666666666666666666666667'
tRp513
sg24
(lp514
g1
(g26
g3
NtRp515
(dp516
g29
g22
(S'0.1666666666666666666666666667'
tRp517
sg31
I3072
sg32
I0
sg33
I76
sbag1
(g26
g3
NtRp518
(dp519
g29
g22
(S'0.3333333333333333333333333333'
tRp520
sg31
I3072
sg32
I1
sg33
I57
sbasg34
g22
(S'0'
tRp521
sg36
g22
(S'1'
tRp522
sbag1
(g13
g3
NtRp523
(dp524
g16
S'T(-1)mid/minutewaltz_3.mid'
p525
sg18
S'C'
sg20
I3072
sg21
g22
(S'0.166666666666666666666666667'
tRp526
sg24
(lp527
g1
(g26
g3
NtRp528
(dp529
g29
g22
(S'0.1666666666666666666666666667'
tRp530
sg31
I11776
sg32
I0
sg33
I84
sbasg34
g22
(S'0.8333333333333333333333333333'
tRp531
sg36
g22
(S'3.833333333333333333333333333'
tRp532
sbag1
(g13
g3
NtRp533
(dp534
g16
S'T(-1)mid/minutewaltz_3.mid'
p535
sg18
S'E'
sg20
I3072
sg21
g22
(S'0.1666666666666666666666666667'
tRp536
sg24
(lp537
g1
(g26
g3
NtRp538
(dp539
g29
g22
(S'0.1666666666666666666666666667'
tRp540
sg31
I2560
sg32
I0
sg33
I77
sbasg34
g22
(S'0.8333333333333333333333333333'
tRp541
sg36
g22
(S'0.8333333333333333333333333333'
tRp542
sbag1
(g13
g3
NtRp543
(dp544
g16
S'T(4)mid/minutewaltz_1.mid'
p545
sg18
S'Am'
p546
sg20
I3072
sg21
g22
(S'0.166666666666666666666666667'
tRp547
sg24
(lp548
g1
(g26
g3
NtRp549
(dp550
g29
g22
(S'0.1666666666666666666666666667'
tRp551
sg31
I14848
sg32
I0
sg33
I81
sbasg34
g22
(S'0.8333333333333333333333333333'
tRp552
sg36
g22
(S'4.833333333333333333333333333'
tRp553
sbag1
(g13
g3
NtRp554
(dp555
g16
S'T(4)mid/minutewaltz_1.mid'
p556
sg18
S'F'
sg20
I3072
sg21
g22
(S'0.166666666666666666666666666'
tRp557
sg24
(lp558
g1
(g26
g3
NtRp559
(dp560
g29
g22
(S'0.1666666666666666666666666667'
tRp561
sg31
I5120
sg32
I0
sg33
I76
sbag1
(g26
g3
NtRp562
(dp563
g29
g22
(S'0.3333333333333333333333333333'
tRp564
sg31
I5120
sg32
I1
sg33
I60
sbag1
(g26
g3
NtRp565
(dp566
g29
g22
(S'0.3333333333333333333333333333'
tRp567
sg31
I5120
sg32
I1
sg33
I65
sbag1
(g26
g3
NtRp568
(dp569
g29
g22
(S'0.3333333333333333333333333333'
tRp570
sg31
I5120
sg32
I1
sg33
I69
sbasg34
g22
(S'0.6666666666666666666666666667'
tRp571
sg36
g22
(S'1.666666666666666666666666667'
tRp572
sbag1
(g13
g3
NtRp573
(dp574
g16
S'T(4)mid/minutewaltz_1.mid'
p575
sg18
S'F'
sg20
I3072
sg21
g22
(S'0.166666666666666666666666667'
tRp576
sg24
(lp577
g1
(g26
g3
NtRp578
(dp579
g29
g22
(S'0.1666666666666666666666666667'
tRp580
sg31
I5632
sg32
I0
sg33
I74
sbasg34
g22
(S'0.8333333333333333333333333333'
tRp581
sg36
g22
(S'1.833333333333333333333333333'
tRp582
sbag1
(g13
g3
NtRp583
(dp584
g16
S'T(-1)mid/minutewaltz_3.mid'
p585
sg18
S'G'
sg20
I3072
sg21
g22
(S'0.166666666666666666666666666'
tRp586
sg24
(lp587
g1
(g26
g3
NtRp588
(dp589
g29
g22
(S'0.1666666666666666666666666667'
tRp590
sg31
I18944
sg32
I0
sg33
I60
sbasg34
g22
(S'0.1666666666666666666666666667'
tRp591
sg36
g22
(S'6.166666666666666666666666667'
tRp592
sbag1
(g13
g3
NtRp593
(dp594
g16
S'T(-1)mid/minutewaltz_3.mid'
p595
sg18
S'G'
sg20
I3072
sg21
g22
(S'0.166666666666666666666666666'
tRp596
sg24
(lp597
g1
(g26
g3
NtRp598
(dp599
g29
g22
(S'0.1666666666666666666666666667'
tRp600
sg31
I20480
sg32
I0
sg33
I69
sbag1
(g26
g3
NtRp601
(dp602
g29
g22
(S'0.3333333333333333333333333333'
tRp603
sg31
I20480
sg32
I1
sg33
I53
sbag1
(g26
g3
NtRp604
(dp605
g29
g22
(S'0.3333333333333333333333333333'
tRp606
sg31
I20480
sg32
I1
sg33
I55
sbag1
(g26
g3
NtRp607
(dp608
g29
g22
(S'0.3333333333333333333333333333'
tRp609
sg31
I20480
sg32
I1
sg33
I59
sbasg34
g22
(S'0.6666666666666666666666666667'
tRp610
sg36
g22
(S'6.666666666666666666666666667'
tRp611
sbag1
(g13
g3
NtRp612
(dp613
g16
S'T(-1)mid/minutewaltz_3.mid'
p614
sg18
S'Am'
p615
sg20
I3072
sg21
g22
(S'0.166666666666666666666666667'
tRp616
sg24
(lp617
g1
(g26
g3
NtRp618
(dp619
g29
g22
(S'0.1666666666666666666666666667'
tRp620
sg31
I3072
sg32
I0
sg33
I76
sbag1
(g26
g3
NtRp621
(dp622
g29
g22
(S'0.3333333333333333333333333333'
tRp623
sg31
I3072
sg32
I1
sg33
I45
sbasg34
g22
(S'0'
tRp624
sg36
g22
(S'1'
tRp625
sbag1
(g13
g3
NtRp626
(dp627
g16
S'T(-1)mid/minutewaltz_3.mid'
p628
sg18
S'C'
sg20
I3072
sg21
g22
(S'0.166666666666666666666666666'
tRp629
sg24
(lp630
g1
(g26
g3
NtRp631
(dp632
g29
g22
(S'0.1666666666666666666666666667'
tRp633
sg31
I17408
sg32
I0
sg33
I65
sbasg34
g22
(S'0.6666666666666666666666666667'
tRp634
sg36
g22
(S'5.666666666666666666666666667'
tRp635
sbag1
(g13
g3
NtRp636
(dp637
g16
S'T(4)mid/minutewaltz_1.mid'
p638
sg18
S'F'
sg20
I3072
sg21
g22
(S'0.166666666666666666666666667'
tRp639
sg24
(lp640
g1
(g26
g3
NtRp641
(dp642
g29
g22
(S'0.1666666666666666666666666667'
tRp643
sg31
I11776
sg32
I0
sg33
I82
sbasg34
g22
(S'0.8333333333333333333333333333'
tRp644
sg36
g22
(S'3.833333333333333333333333333'
tRp645
sbag1
(g13
g3
NtRp646
(dp647
g16
S'T(-1)mid/minutewaltz_3.mid'
p648
sg18
S'E'
sg20
I3072
sg21
g22
(S'0.1113281250000000000000000000'
tRp649
sg24
(lp650
g1
(g26
g3
NtRp651
(dp652
g29
g22
(S'0.111328125'
tRp653
sg31
I341
sg32
I0
sg33
I77
sbasg34
g22
(S'0.1110026041666666666666666667'
tRp654
sg36
g22
(S'0.1110026041666666666666666667'
tRp655
sbag1
(g13
g3
NtRp656
(dp657
g16
S'T(4)mid/minutewaltz_1.mid'
p658
sg18
S'F'
sg20
I3072
sg21
g22
(S'0.166666666666666666666666667'
tRp659
sg24
(lp660
g1
(g26
g3
NtRp661
(dp662
g29
g22
(S'0.1666666666666666666666666667'
tRp663
sg31
I4096
sg32
I0
sg33
I71
sbag1
(g26
g3
NtRp664
(dp665
g29
g22
(S'0.3333333333333333333333333333'
tRp666
sg31
I4096
sg32
I1
sg33
I60
sbag1
(g26
g3
NtRp667
(dp668
g29
g22
(S'0.3333333333333333333333333333'
tRp669
sg31
I4096
sg32
I1
sg33
I65
sbag1
(g26
g3
NtRp670
(dp671
g29
g22
(S'0.3333333333333333333333333333'
tRp672
sg31
I4096
sg32
I1
sg33
I69
sbasg34
g22
(S'0.3333333333333333333333333333'
tRp673
sg36
g22
(S'1.333333333333333333333333333'
tRp674
sbag1
(g13
g3
NtRp675
(dp676
g16
S'T(4)mid/minutewaltz_1.mid'
p677
sg18
S'F'
sg20
I3072
sg21
g22
(S'0.1666666666666666666666666666'
tRp678
sg24
(lp679
g1
(g26
g3
NtRp680
(dp681
g29
g22
(S'0.1666666666666666666666666667'
tRp682
sg31
I2048
sg32
I0
sg33
I71
sbag1
(g26
g3
NtRp683
(dp684
g29
g22
(S'0.3333333333333333333333333333'
tRp685
sg31
I2048
sg32
I1
sg33
I60
sbag1
(g26
g3
NtRp686
(dp687
g29
g22
(S'0.3333333333333333333333333333'
tRp688
sg31
I2048
sg32
I1
sg33
I65
sbag1
(g26
g3
NtRp689
(dp690
g29
g22
(S'0.3333333333333333333333333333'
tRp691
sg31
I2048
sg32
I1
sg33
I69
sbasg34
g22
(S'0.6666666666666666666666666667'
tRp692
sg36
g22
(S'0.6666666666666666666666666667'
tRp693
sbag1
(g13
g3
NtRp694
(dp695
g16
S'T(4)mid/minutewaltz_1.mid'
p696
sg18
S'F'
sg20
I3072
sg21
g22
(S'0.166666666666666666666666666'
tRp697
sg24
(lp698
g1
(g26
g3
NtRp699
(dp700
g29
g22
(S'0.1666666666666666666666666667'
tRp701
sg31
I11264
sg32
I0
sg33
I81
sbag1
(g26
g3
NtRp702
(dp703
g29
g22
(S'0.3333333333333333333333333333'
tRp704
sg31
I11264
sg32
I1
sg33
I60
sbag1
(g26
g3
NtRp705
(dp706
g29
g22
(S'0.3333333333333333333333333333'
tRp707
sg31
I11264
sg32
I1
sg33
I65
sbag1
(g26
g3
NtRp708
(dp709
g29
g22
(S'0.3333333333333333333333333333'
tRp710
sg31
I11264
sg32
I1
sg33
I69
sbasg34
g22
(S'0.6666666666666666666666666667'
tRp711
sg36
g22
(S'3.666666666666666666666666667'
tRp712
sbag1
(g13
g3
NtRp713
(dp714
g16
S'T(4)mid/minutewaltz_1.mid'
p715
sg18
S'C'
sg20
I3072
sg21
g22
(S'0.166666666666666666666666667'
tRp716
sg24
(lp717
g1
(g26
g3
NtRp718
(dp719
g29
g22
(S'0.1666666666666666666666666667'
tRp720
sg31
I16384
sg32
I0
sg33
I79
sbag1
(g26
g3
NtRp721
(dp722
g29
g22
(S'0.3333333333333333333333333333'
tRp723
sg31
I16384
sg32
I1
sg33
I60
sbag1
(g26
g3
NtRp724
(dp725
g29
g22
(S'0.3333333333333333333333333333'
tRp726
sg31
I16384
sg32
I1
sg33
I64
sbag1
(g26
g3
NtRp727
(dp728
g29
g22
(S'0.3333333333333333333333333333'
tRp729
sg31
I16384
sg32
I1
sg33
I70
sbasg34
g22
(S'0.3333333333333333333333333333'
tRp730
sg36
g22
(S'5.333333333333333333333333333'
tRp731
sbag1
(g13
g3
NtRp732
(dp733
g16
S'T(-1)mid/minutewaltz_3.mid'
p734
sg18
S'Dm'
p735
sg20
I3072
sg21
g22
(S'0.166666666666666666666666666'
tRp736
sg24
(lp737
g1
(g26
g3
NtRp738
(dp739
g29
g22
(S'0.1666666666666666666666666667'
tRp740
sg31
I14336
sg32
I0
sg33
I76
sbasg34
g22
(S'0.6666666666666666666666666667'
tRp741
sg36
g22
(S'4.666666666666666666666666667'
tRp742
sbag1
(g13
g3
NtRp743
(dp744
g16
S'T(4)mid/minutewaltz_1.mid'
p745
sg18
S'Am'
p746
sg20
I3072
sg21
g22
(S'0.166666666666666666666666667'
tRp747
sg24
(lp748
g1
(g26
g3
NtRp749
(dp750
g29
g22
(S'0.1666666666666666666666666667'
tRp751
sg31
I13824
sg32
I0
sg33
I84
sbasg34
g22
(S'0.5'
tRp752
sg36
g22
(S'4.5'
tRp753
sbag1
(g13
g3
NtRp754
(dp755
g16
S'T(4)mid/minutewaltz_1.mid'
p756
sg18
S'F'
sg20
I3072
sg21
g22
(S'0.166666666666666666666666667'
tRp757
sg24
(lp758
g1
(g26
g3
NtRp759
(dp760
g29
g22
(S'0.1666666666666666666666666667'
tRp761
sg31
I10240
sg32
I0
sg33
I77
sbag1
(g26
g3
NtRp762
(dp763
g29
g22
(S'0.3333333333333333333333333333'
tRp764
sg31
I10240
sg32
I1
sg33
I60
sbag1
(g26
g3
NtRp765
(dp766
g29
g22
(S'0.3333333333333333333333333333'
tRp767
sg31
I10240
sg32
I1
sg33
I65
sbag1
(g26
g3
NtRp768
(dp769
g29
g22
(S'0.3333333333333333333333333333'
tRp770
sg31
I10240
sg32
I1
sg33
I69
sbasg34
g22
(S'0.3333333333333333333333333333'
tRp771
sg36
g22
(S'3.333333333333333333333333333'
tRp772
sbag1
(g13
g3
NtRp773
(dp774
g16
S'T(-1)mid/minutewaltz_3.mid'
p775
sg18
S'Dm'
p776
sg20
I3072
sg21
g22
(S'0.166666666666666666666666667'
tRp777
sg24
(lp778
g1
(g26
g3
NtRp779
(dp780
g29
g22
(S'0.1666666666666666666666666667'
tRp781
sg31
I12288
sg32
I0
sg33
I83
sbag1
(g26
g3
NtRp782
(dp783
g29
g22
(S'0.3333333333333333333333333333'
tRp784
sg31
I12288
sg32
I1
sg33
I53
sbasg34
g22
(S'0'
tRp785
sg36
g22
(S'4'
tRp786
sbag1
(g13
g3
NtRp787
(dp788
g16
S'T(4)mid/minutewaltz_1.mid'
p789
sg18
S'F'
sg20
I3072
sg21
g22
(S'0.1666666666666666666666666667'
tRp790
sg24
(lp791
g1
(g26
g3
NtRp792
(dp793
g29
g22
(S'0.1666666666666666666666666667'
tRp794
sg31
I2560
sg32
I0
sg33
I72
sbasg34
g22
(S'0.8333333333333333333333333333'
tRp795
sg36
g22
(S'0.8333333333333333333333333333'
tRp796
sbag1
(g13
g3
NtRp797
(dp798
g16
S'T(4)mid/minutewaltz_1.mid'
p799
sg18
S'Am'
p800
sg20
I3072
sg21
g22
(S'0.166666666666666666666666666'
tRp801
sg24
(lp802
g1
(g26
g3
NtRp803
(dp804
g29
g22
(S'0.1666666666666666666666666667'
tRp805
sg31
I22016
sg32
I0
sg33
I79
sbasg34
g22
(S'0.1666666666666666666666666667'
tRp806
sg36
g22
(S'7.166666666666666666666666667'
tRp807
sbag1
(g13
g3
NtRp808
(dp809
g16
S'T(4)mid/minutewaltz_1.mid'
p810
sg18
S'C'
sg20
I3072
sg21
g22
(S'0.166666666666666666666666666'
tRp811
sg24
(lp812
g1
(g26
g3
NtRp813
(dp814
g29
g22
(S'0.1666666666666666666666666667'
tRp815
sg31
I15872
sg32
I0
sg33
I79
sbasg34
g22
(S'0.1666666666666666666666666667'
tRp816
sg36
g22
(S'5.166666666666666666666666667'
tRp817
sbag1
(g13
g3
NtRp818
(dp819
g16
S'T(-1)mid/minutewaltz_3.mid'
p820
sg18
S'G'
sg20
I3072
sg21
g22
(S'0.166666666666666666666666667'
tRp821
sg24
(lp822
g1
(g26
g3
NtRp823
(dp824
g29
g22
(S'0.1666666666666666666666666667'
tRp825
sg31
I7168
sg32
I0
sg33
I78
sbag1
(g26
g3
NtRp826
(dp827
g29
g22
(S'0.3333333333333333333333333333'
tRp828
sg31
I7168
sg32
I1
sg33
I55
sbag1
(g26
g3
NtRp829
(dp830
g29
g22
(S'0.3333333333333333333333333333'
tRp831
sg31
I7168
sg32
I1
sg33
I62
sbag1
(g26
g3
NtRp832
(dp833
g29
g22
(S'0.3333333333333333333333333333'
tRp834
sg31
I7168
sg32
I1
sg33
I65
sbasg34
g22
(S'0.3333333333333333333333333333'
tRp835
sg36
g22
(S'2.333333333333333333333333333'
tRp836
sbag1
(g13
g3
NtRp837
(dp838
g16
S'T(-1)mid/minutewaltz_3.mid'
p839
sg18
S'G'
sg20
I3072
sg21
g22
(S'0.166666666666666666666666667'
tRp840
sg24
(lp841
g1
(g26
g3
NtRp842
(dp843
g29
g22
(S'0.1666666666666666666666666667'
tRp844
sg31
I18432
sg32
I0
sg33
I62
sbag1
(g26
g3
NtRp845
(dp846
g29
g22
(S'0.3333333333333333333333333333'
tRp847
sg31
I18432
sg32
I1
sg33
I43
sbasg34
g22
(S'0'
tRp848
sg36
g22
(S'6'
tRp849
sbag1
(g13
g3
NtRp850
(dp851
g16
S'T(4)mid/minutewaltz_1.mid'
p852
sg18
S'Am'
p853
sg20
I3072
sg21
g22
(S'0.166666666666666666666666667'
tRp854
sg24
(lp855
g1
(g26
g3
NtRp856
(dp857
g29
g22
(S'0.1666666666666666666666666667'
tRp858
sg31
I23040
sg32
I0
sg33
I79
sbasg34
g22
(S'0.5'
tRp859
sg36
g22
(S'7.5'
tRp860
sbag1
(g13
g3
NtRp861
(dp862
g16
S'T(4)mid/minutewaltz_1.mid'
p863
sg18
S'Am'
p864
sg20
I3072
sg21
g22
(S'0.166666666666666666666666666'
tRp865
sg24
(lp866
g1
(g26
g3
NtRp867
(dp868
g29
g22
(S'0.1666666666666666666666666667'
tRp869
sg31
I20480
sg32
I0
sg33
I82
sbag1
(g26
g3
NtRp870
(dp871
g29
g22
(S'0.3333333333333333333333333333'
tRp872
sg31
I20480
sg32
I1
sg33
I64
sbag1
(g26
g3
NtRp873
(dp874
g29
g22
(S'0.3333333333333333333333333333'
tRp875
sg31
I20480
sg32
I1
sg33
I70
sbasg34
g22
(S'0.6666666666666666666666666667'
tRp876
sg36
g22
(S'6.666666666666666666666666667'
tRp877
sbag1
(g13
g3
NtRp878
(dp879
g16
S'T(-1)mid/minutewaltz_3.mid'
p880
sg18
S'G'
sg20
I3072
sg21
g22
(S'0.111328125000000000000000000'
tRp881
sg24
(lp882
g1
(g26
g3
NtRp883
(dp884
g29
g22
(S'0.111328125'
tRp885
sg31
I6485
sg32
I0
sg33
I81
sbasg34
g22
(S'0.1110026041666666666666666667'
tRp886
sg36
g22
(S'2.111002604166666666666666667'
tRp887
sbag1
(g13
g3
NtRp888
(dp889
g16
S'T(4)mid/minutewaltz_1.mid'
p890
sg18
S'F'
sg20
I3072
sg21
g22
(S'0.166666666666666666666666667'
tRp891
sg24
(lp892
g1
(g26
g3
NtRp893
(dp894
g29
g22
(S'0.1666666666666666666666666667'
tRp895
sg31
I10752
sg32
I0
sg33
I79
sbasg34
g22
(S'0.5'
tRp896
sg36
g22
(S'3.5'
tRp897
sbag1
(g13
g3
NtRp898
(dp899
g16
S'T(-1)mid/minutewaltz_3.mid'
p900
sg18
S'C'
sg20
I3072
sg21
g22
(S'0.166666666666666666666666667'
tRp901
sg24
(lp902
g1
(g26
g3
NtRp903
(dp904
g29
g22
(S'0.1666666666666666666666666667'
tRp905
sg31
I10240
sg32
I0
sg33
I79
sbag1
(g26
g3
NtRp906
(dp907
g29
g22
(S'0.6666666666666666666666666667'
tRp908
sg31
I10240
sg32
I1
sg33
I55
sbag1
(g26
g3
NtRp909
(dp910
g29
g22
(S'0.6666666666666666666666666667'
tRp911
sg31
I10240
sg32
I1
sg33
I64
sbasg34
g22
(S'0.3333333333333333333333333333'
tRp912
sg36
g22
(S'3.333333333333333333333333333'
tRp913
sbag1
(g13
g3
NtRp914
(dp915
g16
S'T(4)mid/minutewaltz_1.mid'
p916
sg18
S'Am'
p917
sg20
I3072
sg21
g22
(S'0.166666666666666666666666667'
tRp918
sg24
(lp919
g1
(g26
g3
NtRp920
(dp921
g29
g22
(S'0.3333333333333333333333333333'
tRp922
sg31
I13312
sg32
I1
sg33
I60
sbag1
(g26
g3
NtRp923
(dp924
g29
g22
(S'0.3333333333333333333333333333'
tRp925
sg31
I13312
sg32
I1
sg33
I64
sbag1
(g26
g3
NtRp926
(dp927
g29
g22
(S'0.3333333333333333333333333333'
tRp928
sg31
I13312
sg32
I1
sg33
I70
sbasg34
g22
(S'0.3333333333333333333333333333'
tRp929
sg36
g22
(S'4.333333333333333333333333333'
tRp930
sbag1
(g13
g3
NtRp931
(dp932
g16
S'T(-1)mid/minutewaltz_3.mid'
p933
sg18
S'E'
sg20
I3072
sg21
g22
(S'0.1110026041666666666666666667'
tRp934
sg24
(lp935
g1
(g26
g3
NtRp936
(dp937
g29
g22
(S'0.1110026041666666666666666667'
tRp938
sg31
I0
sg32
I0
sg33
I76
sbag1
(g26
g3
NtRp939
(dp940
g29
g22
(S'0.3333333333333333333333333333'
tRp941
sg31
I0
sg32
I1
sg33
I44
sbasg34
g22
(S'0'
tRp942
sg36
g22
(S'0'
tRp943
sbag1
(g13
g3
NtRp944
(dp945
g16
S'T(-1)mid/minutewaltz_3.mid'
p946
sg18
S'C'
sg20
I3072
sg21
g22
(S'0.166666666666666666666666666'
tRp947
sg24
(lp948
g1
(g26
g3
NtRp949
(dp950
g29
g22
(S'0.1666666666666666666666666667'
tRp951
sg31
I9728
sg32
I0
sg33
I81
sbasg34
g22
(S'0.1666666666666666666666666667'
tRp952
sg36
g22
(S'3.166666666666666666666666667'
tRp953
sbag1
(g13
g3
NtRp954
(dp955
g16
S'T(4)mid/minutewaltz_1.mid'
p956
sg18
S'F'
sg20
I3072
sg21
g22
(S'0.166666666666666666666666667'
tRp957
sg24
(lp958
g1
(g26
g3
NtRp959
(dp960
g29
g22
(S'0.1666666666666666666666666667'
tRp961
sg31
I4608
sg32
I0
sg33
I72
sbasg34
g22
(S'0.5'
tRp962
sg36
g22
(S'1.5'
tRp963
sbag1
(g13
g3
NtRp964
(dp965
g16
S'T(-1)mid/minutewaltz_3.mid'
p966
sg18
S'G'
sg20
I3072
sg21
g22
(S'0.166666666666666666666666667'
tRp967
sg24
(lp968
g1
(g26
g3
NtRp969
(dp970
g29
g22
(S'0.1666666666666666666666666667'
tRp971
sg31
I19456
sg32
I0
sg33
I59
sbag1
(g26
g3
NtRp972
(dp973
g29
g22
(S'0.3333333333333333333333333333'
tRp974
sg31
I19456
sg32
I1
sg33
I53
sbag1
(g26
g3
NtRp975
(dp976
g29
g22
(S'0.3333333333333333333333333333'
tRp977
sg31
I19456
sg32
I1
sg33
I55
sbasg34
g22
(S'0.3333333333333333333333333333'
tRp978
sg36
g22
(S'6.333333333333333333333333333'
tRp979
sbag1
(g13
g3
NtRp980
(dp981
g16
S'T(-1)mid/minutewaltz_3.mid'
p982
sg18
S'Dm'
p983
sg20
I3072
sg21
g22
(S'0.166666666666666666666666667'
tRp984
sg24
(lp985
g1
(g26
g3
NtRp986
(dp987
g29
g22
(S'0.1666666666666666666666666667'
tRp988
sg31
I14848
sg32
I0
sg33
I74
sbasg34
g22
(S'0.8333333333333333333333333333'
tRp989
sg36
g22
(S'4.833333333333333333333333333'
tRp990
sbag1
(g13
g3
NtRp991
(dp992
g16
S'T(-1)mid/minutewaltz_3.mid'
p993
sg18
S'C'
sg20
I3072
sg21
g22
(S'0.166666666666666666666666667'
tRp994
sg24
(lp995
g1
(g26
g3
NtRp996
(dp997
g29
g22
(S'0.1666666666666666666666666667'
tRp998
sg31
I16896
sg32
I0
sg33
I67
sbasg34
g22
(S'0.5'
tRp999
sg36
g22
(S'5.5'
tRp1000
sbag1
(g13
g3
NtRp1001
(dp1002
g16
S'T(-1)mid/minutewaltz_3.mid'
p1003
sg18
S'C'
sg20
I3072
sg21
g22
(S'0.166666666666666666666666667'
tRp1004
sg24
(lp1005
g1
(g26
g3
NtRp1006
(dp1007
g29
g22
(S'0.1666666666666666666666666667'
tRp1008
sg31
I17920
sg32
I0
sg33
I64
sbasg34
g22
(S'0.8333333333333333333333333333'
tRp1009
sg36
g22
(S'5.833333333333333333333333333'
tRp1010
sbag1
(g13
g3
NtRp1011
(dp1012
g16
S'T(4)mid/minutewaltz_1.mid'
p1013
sg18
S'C'
sg20
I3072
sg21
g22
(S'0.166666666666666666666666667'
tRp1014
sg24
(lp1015
g1
(g26
g3
NtRp1016
(dp1017
g29
g22
(S'0.1666666666666666666666666667'
tRp1018
sg31
I15360
sg32
I0
sg33
I81
sbag1
(g26
g3
NtRp1019
(dp1020
g29
g22
(S'0.3333333333333333333333333333'
tRp1021
sg31
I15360
sg32
I1
sg33
I55
sbasg34
g22
(S'0'
tRp1022
sg36
g22
(S'5'
tRp1023
sbag1
(g13
g3
NtRp1024
(dp1025
g16
S'T(-1)mid/minutewaltz_3.mid'
p1026
sg18
S'G'
sg20
I3072
sg21
g22
(S'0.166666666666666666666666666'
tRp1027
sg24
(lp1028
g1
(g26
g3
NtRp1029
(dp1030
g29
g22
(S'0.1666666666666666666666666667'
tRp1031
sg31
I8192
sg32
I0
sg33
I83
sbag1
(g26
g3
NtRp1032
(dp1033
g29
g22
(S'0.3333333333333333333333333333'
tRp1034
sg31
I8192
sg32
I1
sg33
I55
sbag1
(g26
g3
NtRp1035
(dp1036
g29
g22
(S'0.3333333333333333333333333333'
tRp1037
sg31
I8192
sg32
I1
sg33
I62
sbag1
(g26
g3
NtRp1038
(dp1039
g29
g22
(S'0.3333333333333333333333333333'
tRp1040
sg31
I8192
sg32
I1
sg33
I65
sbasg34
g22
(S'0.6666666666666666666666666667'
tRp1041
sg36
g22
(S'2.666666666666666666666666667'
tRp1042
sbag1
(g13
g3
NtRp1043
(dp1044
g16
S'T(-1)mid/minutewaltz_3.mid'
p1045
sg18
S'C'
sg20
I3072
sg21
g22
(S'0.166666666666666666666666667'
tRp1046
sg24
(lp1047
g1
(g26
g3
NtRp1048
(dp1049
g29
g22
(S'0.1666666666666666666666666667'
tRp1050
sg31
I16384
sg32
I0
sg33
I69
sbag1
(g26
g3
NtRp1051
(dp1052
g29
g22
(S'0.6666666666666666666666666667'
tRp1053
sg31
I16384
sg32
I1
sg33
I52
sbag1
(g26
g3
NtRp1054
(dp1055
g29
g22
(S'0.6666666666666666666666666667'
tRp1056
sg31
I16384
sg32
I1
sg33
I55
sbag1
(g26
g3
NtRp1057
(dp1058
g29
g22
(S'0.6666666666666666666666666667'
tRp1059
sg31
I16384
sg32
I1
sg33
I60
sbasg34
g22
(S'0.3333333333333333333333333333'
tRp1060
sg36
g22
(S'5.333333333333333333333333333'
tRp1061
sbatRp1062
sS'markov'
p1063
(dp1064
(g612
tp1065
(lp1066
g58
as(g1011
tp1067
(lp1068
g808
as(g214
tp1069
(lp1070
g1
(g13
g3
NtRp1071
(dp1072
g16
S'T(4)mid/minutewaltz_1.mid'
p1073
sg18
S'Am'
p1074
sg20
I3072
sg21
g22
(S'0.166666666666666666666666667'
tRp1075
sg24
(lp1076
g1
(g26
g3
NtRp1077
(dp1078
g29
g22
(S'0.1666666666666666666666666667'
tRp1079
sg31
I19968
sg32
I0
sg33
I84
sbasg34
g22
(S'0.5'
tRp1080
sg36
g22
(S'6.5'
tRp1081
sbas(g313
tp1082
(lp1083
g818
as(g543
tp1084
(lp1085
g1011
ag417
ag470
as(g69
tp1086
(lp1087
g355
ag92
as(g954
tp1088
(lp1089
g554
as(g554
tp1090
(lp1091
g573
as(g646
tp1092
(lp1093
g323
as(g1043
tp1094
(lp1095
g991
as(g92
tp1096
(lp1097
g523
as(g573
tp1098
(lp1099
g1
(g13
g3
NtRp1100
(dp1101
g16
S'T(4)mid/minutewaltz_1.mid'
p1102
sg18
S'F'
sg20
I3072
sg21
g22
(S'0.166666666666666666666666667'
tRp1103
sg24
(lp1104
g1
(g26
g3
NtRp1105
(dp1106
g29
g22
(S'0.1666666666666666666666666667'
tRp1107
sg31
I6144
sg32
I0
sg33
I71
sbag1
(g26
g3
NtRp1108
(dp1109
g29
g22
(S'0.3333333333333333333333333333'
tRp1110
sg31
I6144
sg32
I1
sg33
I53
sbasg34
g22
(S'0'
tRp1111
sg36
g22
(S'2'
tRp1112
sbas(g675
tp1113
(lp1114
g787
ag1
(g13
g3
NtRp1115
(dp1116
g16
S'T(4)mid/minutewaltz_1.mid'
p1117
sg18
S'F'
sg20
I3072
sg21
g22
(S'0.166666666666666666666666667'
tRp1118
sg24
(lp1119
g1
(g26
g3
NtRp1120
(dp1121
g29
g22
(S'0.1666666666666666666666666667'
tRp1122
sg31
I8704
sg32
I0
sg33
I72
sbasg34
g22
(S'0.8333333333333333333333333333'
tRp1123
sg36
g22
(S'2.833333333333333333333333333'
tRp1124
sbas(g593
tp1125
(lp1126
g48
as(g102
tp1127
(lp1128
g38
as(g374
tp1129
(lp1130
g543
as(g837
tp1131
(lp1132
g583
as(g694
tp1133
(lp1134
g636
as(g964
tp1135
(lp1136
g441
as(g132
tp1137
(lp1138
g850
as(g248
tp1139
(lp1140
g914
ag214
as(g500
tp1141
(lp1142
g1024
as(g713
tp1143
(lp1144
g69
as(g797
tp1145
(lp1146
g132
as(g773
tp1147
(lp1148
g333
as(g523
tp1149
(lp1150
g773
as(g850
tp1151
(lp1152
g187
as(g533
tp1153
(lp1154
g612
as(g898
tp1155
(lp1156
g1
(g13
g3
NtRp1157
(dp1158
g16
S'T(-1)mid/minutewaltz_3.mid'
p1159
sg18
S'C'
sg20
I3072
sg21
g22
(S'0.166666666666666666666666667'
tRp1160
sg24
(lp1161
g1
(g26
g3
NtRp1162
(dp1163
g29
g22
(S'0.1666666666666666666666666667'
tRp1164
sg31
I10752
sg32
I0
sg33
I78
sbasg34
g22
(S'0.5'
tRp1165
sg36
g22
(S'3.5'
tRp1166
sbas(g818
tp1167
(lp1168
g500
as(g168
tp1169
(lp1170
g533
as(g417
tp1171
(lp1172
g797
as(g238
tp1173
(lp1174
g300
as(g583
tp1175
(lp1176
g964
as(g204
tp1177
(lp1178
g168
as(g754
tp1179
(lp1180
g888
as(g289
tp1181
(lp1182
g115
as(g48
tp1183
(lp1184
S'stop_token'
p1185
as(g451
tp1186
(lp1187
g204
as(g1001
tp1188
(lp1189
g837
as(g787
tp1190
(lp1191
g510
ag79
as(g470
tp1192
(lp1193
g878
as(g228
tp1194
(lp1195
g149
ag1
(g13
g3
NtRp1196
(dp1197
g16
S'T(4)mid/minutewaltz_1.mid'
p1198
sg18
S'F'
sg20
I3072
sg21
g22
(S'0.166666666666666666666666667'
tRp1199
sg24
(lp1200
g1
(g26
g3
NtRp1201
(dp1202
g29
g22
(S'0.1666666666666666666666666667'
tRp1203
sg31
I7168
sg32
I0
sg33
I76
sbag1
(g26
g3
NtRp1204
(dp1205
g29
g22
(S'0.3333333333333333333333333333'
tRp1206
sg31
I7168
sg32
I1
sg33
I60
sbag1
(g26
g3
NtRp1207
(dp1208
g29
g22
(S'0.3333333333333333333333333333'
tRp1209
sg31
I7168
sg32
I1
sg33
I65
sbag1
(g26
g3
NtRp1210
(dp1211
g29
g22
(S'0.3333333333333333333333333333'
tRp1212
sg31
I7168
sg32
I1
sg33
I69
sbasg34
g22
(S'0.3333333333333333333333333333'
tRp1213
sg36
g22
(S'2.333333333333333333333333333'
tRp1214
sbas(g323
tp1215
(lp1216
g451
as(g944
tp1217
(lp1218
g898
as(g861
tp1219
(lp1220
g1
(g13
g3
NtRp1221
(dp1222
g16
S'T(4)mid/minutewaltz_1.mid'
p1223
sg18
S'Am'
p1224
sg20
I3072
sg21
g22
(S'0.166666666666666666666666667'
tRp1225
sg24
(lp1226
g1
(g26
g3
NtRp1227
(dp1228
g29
g22
(S'0.1666666666666666666666666667'
tRp1229
sg31
I20992
sg32
I0
sg33
I81
sbasg34
g22
(S'0.8333333333333333333333333333'
tRp1230
sg36
g22
(S'6.833333333333333333333333333'
tRp1231
sbas(g38
tp1232
(lp1233
g1043
as(g333
tp1234
(lp1235
g483
as(g656
tp1236
(lp1237
g954
as(g626
tp1238
(lp1239
g1001
as(g355
tp1240
(lp1241
g1
(g13
g3
NtRp1242
(dp1243
g16
S'T(4)mid/minutewaltz_1.mid'
p1244
sg18
S'Am'
p1245
sg20
I3072
sg21
g22
(S'0.333333333333333333333333333'
tRp1246
sg24
(lp1247
g1
(g26
g3
NtRp1248
(dp1249
g29
g22
(S'0.3333333333333333333333333333'
tRp1250
sg31
I18432
sg32
I1
sg33
I48
sbag1
(g26
g3
NtRp1251
(dp1252
g29
g22
(S'0.5'
tRp1253
sg31
I18432
sg32
I0
sg33
I86
sbasg34
g22
(S'0'
tRp1254
sg36
g22
(S'6'
tRp1255
sbas(g344
tp1256
(lp1257
g732
as(g888
tp1258
(lp1259
g694
as(g931
tp1260
(lp1261
g646
as(g914
tp1262
(lp1263
g743
as(g483
tp1264
(lp1265
g344
as(g808
tp1266
(lp1267
g713
as(g149
tp1268
(lp1269
g279
ag1
(g13
g3
NtRp1270
(dp1271
g16
S'T(4)mid/minutewaltz_1.mid'
p1272
sg18
S'F'
sg20
I3072
sg21
g22
(S'0.166666666666666666666666667'
tRp1273
sg24
(lp1274
g1
(g26
g3
NtRp1275
(dp1276
g29
g22
(S'0.1666666666666666666666666667'
tRp1277
sg31
I7680
sg32
I0
sg33
I74
sbasg34
g22
(S'0.5'
tRp1278
sg36
g22
(S'2.5'
tRp1279
sbas(g262
tp1280
(lp1281
g289
as(g510
tp1282
(lp1283
g431
as(g1024
tp1284
(lp1285
g238
as(g14
tp1286
(lp1287
g1185
as(g279
tp1288
(lp1289
g675
ag1
(g13
g3
NtRp1290
(dp1291
g16
S'T(4)mid/minutewaltz_1.mid'
p1292
sg18
S'F'
sg20
I3072
sg21
g22
(S'0.166666666666666666666666666'
tRp1293
sg24
(lp1294
g1
(g26
g3
NtRp1295
(dp1296
g29
g22
(S'0.1666666666666666666666666667'
tRp1297
sg31
I8192
sg32
I0
sg33
I71
sbag1
(g26
g3
NtRp1298
(dp1299
g29
g22
(S'0.3333333333333333333333333333'
tRp1300
sg31
I8192
sg32
I1
sg33
I60
sbag1
(g26
g3
NtRp1301
(dp1302
g29
g22
(S'0.3333333333333333333333333333'
tRp1303
sg31
I8192
sg32
I1
sg33
I65
sbag1
(g26
g3
NtRp1304
(dp1305
g29
g22
(S'0.3333333333333333333333333333'
tRp1306
sg31
I8192
sg32
I1
sg33
I69
sbasg34
g22
(S'0.6666666666666666666666666667'
tRp1307
sg36
g22
(S'2.666666666666666666666666667'
tRp1308
sbas(S'start_token'
p1309
tp1310
(lp1311
g1185
ag394
ag1185
ag931
as(g991
tp1312
(lp1313
g626
as(g441
tp1314
(lp1315
g593
as(g980
tp1316
(lp1317
g102
as(g732
tp1318
(lp1319
g980
as(g394
tp1320
(lp1321
g228
ag1
(g13
g3
NtRp1322
(dp1323
g16
S'T(4)mid/minutewaltz_1.mid'
p1324
sg18
S'F'
sg20
I3072
sg21
g22
(S'0.166666666666666666666666666'
tRp1325
sg24
(lp1326
g1
(g26
g3
NtRp1327
(dp1328
g29
g22
(S'0.1666666666666666666666666667'
tRp1329
sg31
I6656
sg32
I0
sg33
I72
sbasg34
g22
(S'0.1666666666666666666666666667'
tRp1330
sg36
g22
(S'2.166666666666666666666666667'
tRp1331
sbas(g58
tp1332
(lp1333
g262
as(g300
tp1334
(lp1335
g944
as(g407
tp1336
(lp1337
g754
as(g79
tp1338
(lp1339
g407
as(g187
tp1340
(lp1341
g14
as(g431
tp1342
(lp1343
g656
as(g636
tp1344
(lp1345
g248
as(g743
tp1346
(lp1347
g374
ag861
as(g115
tp1348
(lp1349
g1
(g13
g3
NtRp1350
(dp1351
g16
S'T(-1)mid/minutewaltz_3.mid'
p1352
sg18
S'Am'
p1353
sg20
I3072
sg21
g22
(S'0.166666666666666666666666667'
tRp1354
sg24
(lp1355
g1
(g26
g3
NtRp1356
(dp1357
g29
g22
(S'0.1666666666666666666666666667'
tRp1358
sg31
I5632
sg32
I0
sg33
I81
sbasg34
g22
(S'0.8333333333333333333333333333'
tRp1359
sg36
g22
(S'1.833333333333333333333333333'
tRp1360
sbas(g878
tp1361
(lp1362
g313
assS'state_chains'
p1363
(lp1364
(lp1365
a(lp1366
a(lp1367
g394
ag228
ag149
ag279
ag675
ag787
ag510
ag431
ag656
ag954
ag554
ag573
ag1100
ag1322
ag1196
ag1270
ag1290
ag1115
ag79
ag407
ag754
ag888
ag694
ag636
ag248
ag914
ag743
ag374
ag543
ag1011
ag808
ag713
ag69
ag355
ag1242
ag214
ag1071
ag861
ag1221
ag417
ag797
ag132
ag850
ag187
ag14
aa(lp1368
a(lp1369
g931
ag646
ag323
ag451
ag204
ag168
ag533
ag612
ag58
ag262
ag289
ag115
ag1350
ag470
ag878
ag313
ag818
ag500
ag1024
ag238
ag300
ag944
ag898
ag1157
ag92
ag523
ag773
ag333
ag483
ag344
ag732
ag980
ag102
ag38
ag1043
ag991
ag626
ag1001
ag837
ag583
ag964
ag441
ag593
ag48
aasS'chain_length'
p1370
I1
sbsS'rev_mm'
p1371
g1
(g7
g3
NtRp1372
(dp1373
g10
g11
((lp1374
g14
ag38
ag48
ag58
ag69
ag79
ag732
ag102
ag132
ag1196
ag168
ag187
ag204
ag214
ag1322
ag262
ag1242
ag238
ag1270
ag289
ag773
ag313
ag323
ag483
ag646
ag355
ag374
ag914
ag407
ag417
ag431
ag964
ag451
ag470
ag837
ag898
ag510
ag523
ag92
ag1221
ag500
ag554
ag573
ag333
ag612
ag931
ag636
ag344
ag656
ag1290
ag533
ag694
ag713
ag1071
ag754
ag1001
ag1115
ag797
ag808
ag818
ag593
ag850
ag861
ag878
ag888
ag1100
ag1043
ag115
ag980
ag954
ag441
ag991
ag300
ag944
ag1011
ag626
ag1024
ag583
atRp1375
sg1063
(dp1376
(g612
tp1377
(lp1378
g533
as(g1011
tp1379
(lp1380
g543
as(g214
tp1381
(lp1382
g1242
as(g313
tp1383
(lp1384
g878
as(g1221
tp1385
(lp1386
g861
ag374
ag115
as(g797
tp1387
(lp1388
g417
as(g850
tp1389
(lp1390
g132
as(g554
tp1391
(lp1392
g954
as(g344
tp1393
(lp1394
g483
as(g837
tp1395
(lp1396
g1001
as(g92
tp1397
(lp1398
g1157
as(g573
tp1399
(lp1400
g554
as(g1290
tp1401
(lp1402
g1270
ag279
as(g102
tp1403
(lp1404
g980
as(g374
tp1405
(lp1406
g743
as(g694
tp1407
(lp1408
g888
as(g441
tp1409
(lp1410
g964
as(g132
tp1411
(lp1412
g797
as(g1242
tp1413
(lp1414
g355
ag636
as(g898
tp1415
(lp1416
g944
as(g713
tp1417
(lp1418
g808
as(g1043
tp1419
(lp1420
g38
as(g69
tp1421
(lp1422
g713
ag898
as(g300
tp1423
(lp1424
g238
as(g523
tp1425
(lp1426
g92
as(g470
tp1427
(lp1428
g1350
as(g954
tp1429
(lp1430
g656
as(g931
tp1431
(lp1432
g1185
as(g533
tp1433
(lp1434
g168
as(g500
tp1435
(lp1436
g818
as(g818
tp1437
(lp1438
g313
as(g168
tp1439
(lp1440
g204
as(g417
tp1441
(lp1442
g1221
as(g262
tp1443
(lp1444
g58
as(g48
tp1445
(lp1446
g593
as(g289
tp1447
(lp1448
g262
as(g754
tp1449
(lp1450
g407
as(g944
tp1451
(lp1452
g300
as(g1024
tp1453
(lp1454
g500
as(g451
tp1455
(lp1456
g323
as(g1115
tp1457
(lp1458
g1290
ag675
as(g593
tp1459
(lp1460
g441
as(g1322
tp1461
(lp1462
g1100
ag394
as(g323
tp1463
(lp1464
g646
as(g980
tp1465
(lp1466
g732
as(g861
tp1467
(lp1468
g1071
as(g964
tp1469
(lp1470
g583
as(g656
tp1471
(lp1472
g431
as(g583
tp1473
(lp1474
g837
as(g646
tp1475
(lp1476
g931
as(g355
tp1477
(lp1478
g69
as(g38
tp1479
(lp1480
g102
as(g888
tp1481
(lp1482
g754
as(g115
tp1483
(lp1484
g289
as(g914
tp1485
(lp1486
g248
as(g483
tp1487
(lp1488
g333
as(g808
tp1489
(lp1490
g1011
as(g1196
tp1491
(lp1492
g1322
ag228
as(g238
tp1493
(lp1494
g1024
as(g510
tp1495
(lp1496
g787
as(g626
tp1497
(lp1498
g991
as(g14
tp1499
(lp1500
g187
as(g1270
tp1501
(lp1502
g1196
ag149
as(g1309
tp1503
(lp1504
g1185
ag14
ag1185
ag48
as(g878
tp1505
(lp1506
g470
as(g991
tp1507
(lp1508
g1043
as(g732
tp1509
(lp1510
g344
as(g1100
tp1511
(lp1512
g573
ag1185
as(g58
tp1513
(lp1514
g612
as(g773
tp1515
(lp1516
g523
as(g407
tp1517
(lp1518
g79
as(g333
tp1519
(lp1520
g773
as(g79
tp1521
(lp1522
g1115
as(g187
tp1523
(lp1524
g850
as(g431
tp1525
(lp1526
g510
as(g636
tp1527
(lp1528
g694
as(g1071
tp1529
(lp1530
g214
ag914
as(g204
tp1531
(lp1532
g451
as(g1001
tp1533
(lp1534
g626
assg1363
(lp1535
(lp1536
a(lp1537
a(lp1538
g14
ag187
ag850
ag132
ag797
ag417
ag1221
ag861
ag1071
ag214
ag1242
ag355
ag69
ag713
ag808
ag1011
ag543
ag374
ag743
ag914
ag248
ag636
ag694
ag888
ag754
ag407
ag79
ag1115
ag1290
ag1270
ag1196
ag1322
ag1100
ag573
ag554
ag954
ag656
ag431
ag510
ag787
ag675
ag279
ag149
ag228
ag394
aa(lp1539
a(lp1540
g48
ag593
ag441
ag964
ag583
ag837
ag1001
ag626
ag991
ag1043
ag38
ag102
ag980
ag732
ag344
ag483
ag333
ag773
ag523
ag92
ag1157
ag898
ag944
ag300
ag238
ag1024
ag500
ag818
ag313
ag878
ag470
ag1350
ag115
ag289
ag262
ag58
ag612
ag533
ag168
ag204
ag451
ag323
ag646
ag931
aasg1370
I1
sbsS'type'
p1541
S'minute half'
p1542
sS'pieces'
p1543
g11
((lp1544
S'mid/minutewaltz_1.mid'
p1545
aS'mid/minutewaltz_3.mid'
p1546
atRp1547
sb.