ccopy_reg
_reconstructor
p1
(c__main__
Recommender
p2
c__builtin__
object
p3
NtRp4
(dp5
S'mm'
p6
g1
(ccmm
Markov
p7
g3
NtRp8
(dp9
S'states'
p10
c__builtin__
set
p11
((lp12
g1
(ccmm
NoteState
p13
g3
NtRp14
(dp15
S'origin'
p16
S'T(4)./mid/Samples/Hip-Hop/HipHop_Chords\\KanyeWest_Stronger_CHORDS.mid'
p17
sS'chord'
p18
S'Gm'
p19
sS'bar'
p20
I1920
sS'state_duration'
p21
cdecimal
Decimal
p22
(S'0.25'
tRp23
sS'notes'
p24
(lp25
g1
(cdata
note
p26
g3
NtRp27
(dp28
S'dur'
p29
g22
(S'0.2447916666666666666666666667'
tRp30
sS'pos'
p31
I11040
sS'chn'
p32
I0
sS'pitch'
p33
I74
sbasS'bar_pos'
p34
g22
(S'0.75'
tRp35
sS'state_position'
p36
g22
(S'5.75'
tRp37
sbag1
(g13
g3
NtRp38
(dp39
g16
S'T(-5)./mid/Samples/Hip-Hop/HipHop_Chords\\KanyeWest_GoodMorning_CHORDS.mid'
p40
sg18
S'Am'
p41
sg20
I1920
sg21
g22
(S'0.9494791666666666666666666667'
tRp42
sg24
(lp43
g1
(g26
g3
NtRp44
(dp45
g29
g22
(S'0.9494791666666666666666666667'
tRp46
sg31
I245760
sg32
I4
sg33
I33
sbag1
(g26
g3
NtRp47
(dp48
g29
g22
(S'0.9494791666666666666666666667'
tRp49
sg31
I245760
sg32
I4
sg33
I40
sbag1
(g26
g3
NtRp50
(dp51
g29
g22
(S'0.9494791666666666666666666667'
tRp52
sg31
I245760
sg32
I4
sg33
I45
sbasg34
g22
(S'0'
tRp53
sg36
g22
(S'128'
p54
tRp55
sbag1
(g13
g3
NtRp56
(dp57
g16
S'T(4)./mid/Samples/Hip-Hop/HipHop_Chords\\KanyeWest_Stronger_CHORDS.mid'
p58
sg18
S'F'
sg20
I1920
sg21
g22
(S'0.75'
tRp59
sg24
(lp60
g1
(g26
g3
NtRp61
(dp62
g29
g22
(S'0.7447916666666666666666666667'
tRp63
sg31
I12000
sg32
I0
sg33
I72
sbasg34
g22
(S'0.25'
tRp64
sg36
g22
(S'6.25'
tRp65
sbag1
(g13
g3
NtRp66
(dp67
g16
S'T(-5)./mid/Samples/Hip-Hop/HipHop_Chords\\KanyeWest_GoodMorning_CHORDS.mid'
p68
sg18
S'Am'
p69
sg20
I1920
sg21
g22
(S'4'
tRp70
sg24
(lp71
g1
(g26
g3
NtRp72
(dp73
g29
g22
(S'2.849479166666666666666666667'
tRp74
sg31
I53760
sg32
I4
sg33
I33
sbag1
(g26
g3
NtRp75
(dp76
g29
g22
(S'2.849479166666666666666666667'
tRp77
sg31
I53760
sg32
I4
sg33
I40
sbag1
(g26
g3
NtRp78
(dp79
g29
g22
(S'2.849479166666666666666666667'
tRp80
sg31
I53760
sg32
I4
sg33
I45
sbasg34
g22
(S'0'
tRp81
sg36
g22
(S'28'
p82
tRp83
sbag1
(g13
g3
NtRp84
(dp85
g16
S'T(5)./mid/Samples/Hip-Hop/HipHop_Chords\\KanyeWest_ThroughTheWire_CHORDS.mid'
p86
sg18
S'A#/Bb'
p87
sg20
I1920
sg21
g22
(S'0.5'
tRp88
sg24
(lp89
g1
(g26
g3
NtRp90
(dp91
g29
g22
(S'0.4973958333333333333333333333'
tRp92
sg31
I12480
sg32
I2
sg33
I65
sbag1
(g26
g3
NtRp93
(dp94
g29
g22
(S'0.4973958333333333333333333333'
tRp95
sg31
I12480
sg32
I2
sg33
I70
sbag1
(g26
g3
NtRp96
(dp97
g29
g22
(S'0.4973958333333333333333333333'
tRp98
sg31
I12480
sg32
I2
sg33
I74
sbasg34
g22
(S'0.5'
tRp99
sg36
g22
(S'6.5'
tRp100
sbag1
(g13
g3
NtRp101
(dp102
g16
S'T(5)./mid/Samples/Hip-Hop/HipHop_Chords\\KanyeWest_ThroughTheWire_CHORDS.mid'
p103
sg18
S'Dm'
p104
sg20
I1920
sg21
g22
(S'0.1875'
tRp105
sg24
(lp106
g1
(g26
g3
NtRp107
(dp108
g29
g22
(S'0.1848958333333333333333333333'
tRp109
sg31
I15960
sg32
I2
sg33
I67
sbag1
(g26
g3
NtRp110
(dp111
g29
g22
(S'0.1848958333333333333333333333'
tRp112
sg31
I15960
sg32
I2
sg33
I72
sbag1
(g26
g3
NtRp113
(dp114
g29
g22
(S'0.1848958333333333333333333333'
tRp115
sg31
I15960
sg32
I2
sg33
I76
sbasg34
g22
(S'0.3125'
tRp116
sg36
g22
(S'8.3125'
tRp117
sbag1
(g13
g3
NtRp118
(dp119
g16
S'T(5)./mid/Samples/Hip-Hop/HipHop_Chords\\KanyeWest_ThroughTheWire_CHORDS.mid'
p120
sg18
S'C'
sg20
I1920
sg21
g22
(S'0.3125'
tRp121
sg24
(lp122
g1
(g26
g3
NtRp123
(dp124
g29
g22
(S'0.4036458333333333333333333333'
tRp125
sg31
I5760
sg32
I2
sg33
I72
sbag1
(g26
g3
NtRp126
(dp127
g29
g22
(S'0.4973958333333333333333333333'
tRp128
sg31
I5760
sg32
I2
sg33
I64
sbag1
(g26
g3
NtRp129
(dp130
g29
g22
(S'0.4973958333333333333333333333'
tRp131
sg31
I5760
sg32
I2
sg33
I67
sbag1
(g26
g3
NtRp132
(dp133
g29
g22
(S'0.4973958333333333333333333333'
tRp134
sg31
I5760
sg32
I2
sg33
I74
sbag1
(g26
g3
NtRp135
(dp136
g29
g22
(S'0.4973958333333333333333333333'
tRp137
sg31
I5760
sg32
I2
sg33
I76
sbasg34
g22
(S'0'
tRp138
sg36
g22
(S'3'
tRp139
sbag1
(g13
g3
NtRp140
(dp141
g16
S'T(4)./mid/Samples/Hip-Hop/HipHop_Chords\\KanyeWest_Stronger_CHORDS.mid'
p142
sg18
S'C'
sg20
I1920
sg21
g22
(S'0.5'
tRp143
sg24
(lp144
g1
(g26
g3
NtRp145
(dp146
g29
g22
(S'0.4947916666666666666666666667'
tRp147
sg31
I14400
sg32
I0
sg33
I72
sbasg34
g22
(S'0.5'
tRp148
sg36
g22
(S'7.5'
tRp149
sbag1
(g13
g3
NtRp150
(dp151
g16
S'T(5)./mid/Samples/Hip-Hop/HipHop_Chords\\KanyeWest_ThroughTheWire_CHORDS.mid'
p152
sg18
S'Dm'
p153
sg20
I1920
sg21
g22
(S'0.3125'
tRp154
sg24
(lp155
g1
(g26
g3
NtRp156
(dp157
g29
g22
(S'0.2473958333333333333333333333'
tRp158
sg31
I15360
sg32
I2
sg33
I69
sbag1
(g26
g3
NtRp159
(dp160
g29
g22
(S'0.2473958333333333333333333333'
tRp161
sg31
I15360
sg32
I2
sg33
I72
sbag1
(g26
g3
NtRp162
(dp163
g29
g22
(S'0.2473958333333333333333333333'
tRp164
sg31
I15360
sg32
I2
sg33
I76
sbag1
(g26
g3
NtRp165
(dp166
g29
g22
(S'0.2473958333333333333333333333'
tRp167
sg31
I15360
sg32
I2
sg33
I77
sbasg34
g22
(S'0'
tRp168
sg36
g22
(S'8'
tRp169
sbag1
(g13
g3
NtRp170
(dp171
g16
S'T(-6)./mid/Samples/Hip-Hop/HipHop_Chords\\KanyeWest_AllTheLights_CHORDS.mid'
p172
sg18
S'Am'
p173
sg20
I1920
sg21
g22
(S'0.12500000000000000000000000'
tRp174
sg24
(lp175
g1
(g26
g3
NtRp176
(dp177
g29
g22
(S'0.125'
tRp178
sg31
I35050
sg32
I2
sg33
I35
sbasg34
g22
(S'0.2552083333333333333333333333'
tRp179
sg36
g22
(S'18.25520833333333333333333333'
tRp180
sbag1
(g13
g3
NtRp181
(dp182
g16
S'T(5)./mid/Samples/Hip-Hop/HipHop_Chords\\KanyeWest_ThroughTheWire_CHORDS.mid'
p183
sg18
S'F'
sg20
I1920
sg21
g22
(S'0.1875'
tRp184
sg24
(lp185
g1
(g26
g3
NtRp186
(dp187
g29
g22
(S'0.1848958333333333333333333333'
tRp188
sg31
I720
sg32
I2
sg33
I67
sbag1
(g26
g3
NtRp189
(dp190
g29
g22
(S'0.1848958333333333333333333333'
tRp191
sg31
I720
sg32
I2
sg33
I70
sbasg34
g22
(S'0.375'
tRp192
sg36
g22
(S'0.375'
tRp193
sbag1
(g13
g3
NtRp194
(dp195
g16
S'T(-5)./mid/Samples/Hip-Hop/HipHop_Chords\\KanyeWest_GoodMorning_CHORDS.mid'
p196
sg18
S'C'
sg20
I1920
sg21
g22
(S'0.25'
tRp197
sg24
(lp198
g1
(g26
g3
NtRp199
(dp200
g29
g22
(S'0.2369791666666666666666666667'
tRp201
sg31
I1440
sg32
I4
sg33
I48
sbasg34
g22
(S'0.75'
tRp202
sg36
g22
(S'0.75'
tRp203
sbag1
(g13
g3
NtRp204
(dp205
g16
S'T(4)./mid/Samples/Hip-Hop/HipHop_Chords\\KanyeWest_Stronger_CHORDS.mid'
p206
sg18
S'D'
sg20
I1920
sg21
g22
(S'0.5'
tRp207
sg24
(lp208
g1
(g26
g3
NtRp209
(dp210
g29
g22
(S'0.4947916666666666666666666667'
tRp211
sg31
I8640
sg32
I0
sg33
I60
sbag1
(g26
g3
NtRp212
(dp213
g29
g22
(S'0.4947916666666666666666666667'
tRp214
sg31
I8640
sg32
I0
sg33
I62
sbag1
(g26
g3
NtRp215
(dp216
g29
g22
(S'0.4947916666666666666666666667'
tRp217
sg31
I8640
sg32
I0
sg33
I66
sbag1
(g26
g3
NtRp218
(dp219
g29
g22
(S'0.4947916666666666666666666667'
tRp220
sg31
I8640
sg32
I0
sg33
I69
sbasg34
g22
(S'0.5'
tRp221
sg36
g22
(S'4.5'
tRp222
sbag1
(g13
g3
NtRp223
(dp224
g16
S'T(-5)./mid/Samples/Hip-Hop/HipHop_Chords\\KanyeWest_GoodMorning_CHORDS.mid'
p225
sg18
S'Gm'
p226
sg20
I1920
sg21
g22
(S'0.25'
tRp227
sg24
(lp228
g1
(g26
g3
NtRp229
(dp230
g29
g22
(S'0.2369791666666666666666666667'
tRp231
sg31
I37920
sg32
I4
sg33
I31
sbag1
(g26
g3
NtRp232
(dp233
g29
g22
(S'0.2369791666666666666666666667'
tRp234
sg31
I37920
sg32
I4
sg33
I38
sbag1
(g26
g3
NtRp235
(dp236
g29
g22
(S'0.2369791666666666666666666667'
tRp237
sg31
I37920
sg32
I4
sg33
I43
sbasg34
g22
(S'0.75'
tRp238
sg36
g22
(S'19.75'
tRp239
sbag1
(g13
g3
NtRp240
(dp241
g16
S'T(-5)./mid/Samples/Hip-Hop/HipHop_Chords\\KanyeWest_GoodMorning_CHORDS.mid'
p242
sg18
S'G'
sg20
I1920
sg21
g22
(S'0.25'
tRp243
sg24
(lp244
g1
(g26
g3
NtRp245
(dp246
g29
g22
(S'0.2369791666666666666666666667'
tRp247
sg31
I3360
sg32
I4
sg33
I43
sbasg34
g22
(S'0.75'
tRp248
sg36
g22
(S'1.75'
tRp249
sbag1
(g13
g3
NtRp250
(dp251
g16
S'T(5)./mid/Samples/Hip-Hop/HipHop_Chords\\KanyeWest_ThroughTheWire_CHORDS.mid'
p252
sg18
S'F'
sg20
I1920
sg21
g22
(S'0.1875'
tRp253
sg24
(lp254
g1
(g26
g3
NtRp255
(dp256
g29
g22
(S'0.1848958333333333333333333333'
tRp257
sg31
I0
sg32
I2
sg33
I69
sbag1
(g26
g3
NtRp258
(dp259
g29
g22
(S'0.1848958333333333333333333333'
tRp260
sg31
I0
sg32
I2
sg33
I72
sbasg34
g22
(S'0'
tRp261
sg36
g22
(S'0'
tRp262
sbag1
(g13
g3
NtRp263
(dp264
g16
S'T(5)./mid/Samples/Hip-Hop/HipHop_Chords\\KanyeWest_ThroughTheWire_CHORDS.mid'
p265
sg18
S'C'
sg20
I1920
sg21
g22
(S'0.1875'
tRp266
sg24
(lp267
g1
(g26
g3
NtRp268
(dp269
g29
g22
(S'0.1848958333333333333333333333'
tRp270
sg31
I7320
sg32
I2
sg33
I67
sbag1
(g26
g3
NtRp271
(dp272
g29
g22
(S'0.1848958333333333333333333333'
tRp273
sg31
I7320
sg32
I2
sg33
I72
sbag1
(g26
g3
NtRp274
(dp275
g29
g22
(S'0.1848958333333333333333333333'
tRp276
sg31
I7320
sg32
I2
sg33
I76
sbasg34
g22
(S'0.8125'
tRp277
sg36
g22
(S'3.8125'
tRp278
sbag1
(g13
g3
NtRp279
(dp280
g16
S'T(-5)./mid/Samples/Hip-Hop/HipHop_Chords\\KanyeWest_GoodMorning_CHORDS.mid'
p281
sg18
S'Am'
p282
sg20
I1920
sg21
g22
(S'17.75'
tRp283
sg24
(lp284
g1
(g26
g3
NtRp285
(dp286
g29
g22
(S'1.899479166666666666666666667'
tRp287
sg31
I211200
sg32
I4
sg33
I33
sbag1
(g26
g3
NtRp288
(dp289
g29
g22
(S'1.899479166666666666666666667'
tRp290
sg31
I211200
sg32
I4
sg33
I36
sbag1
(g26
g3
NtRp291
(dp292
g29
g22
(S'1.899479166666666666666666667'
tRp293
sg31
I211200
sg32
I4
sg33
I40
sbag1
(g26
g3
NtRp294
(dp295
g29
g22
(S'1.899479166666666666666666667'
tRp296
sg31
I211200
sg32
I4
sg33
I45
sbasg34
g22
(S'0'
tRp297
sg36
g22
(S'110'
p298
tRp299
sbag1
(g13
g3
NtRp300
(dp301
g16
S'T(4)./mid/Samples/Hip-Hop/HipHop_Chords\\KanyeWest_Stronger_CHORDS.mid'
p302
sg18
S'C'
sg20
I1920
sg21
g22
(S'0.5'
tRp303
sg24
(lp304
g1
(g26
g3
NtRp305
(dp306
g29
g22
(S'0.9947916666666666666666666667'
tRp307
sg31
I13440
sg32
I0
sg33
I60
sbag1
(g26
g3
NtRp308
(dp309
g29
g22
(S'0.9947916666666666666666666667'
tRp310
sg31
I13440
sg32
I0
sg33
I64
sbag1
(g26
g3
NtRp311
(dp312
g29
g22
(S'0.9947916666666666666666666667'
tRp313
sg31
I13440
sg32
I0
sg33
I67
sbasg34
g22
(S'0'
tRp314
sg36
g22
(S'7'
tRp315
sbag1
(g13
g3
NtRp316
(dp317
g16
S'T(5)./mid/Samples/Hip-Hop/HipHop_Chords\\KanyeWest_ThroughTheWire_CHORDS.mid'
p318
sg18
g87
sg20
I1920
sg21
g22
(S'0.1875'
tRp319
sg24
(lp320
g1
(g26
g3
NtRp321
(dp322
g29
g22
(S'0.1848958333333333333333333333'
tRp323
sg31
I11520
sg32
I2
sg33
I69
sbag1
(g26
g3
NtRp324
(dp325
g29
g22
(S'0.1848958333333333333333333333'
tRp326
sg31
I11520
sg32
I2
sg33
I74
sbag1
(g26
g3
NtRp327
(dp328
g29
g22
(S'0.1848958333333333333333333333'
tRp329
sg31
I11520
sg32
I2
sg33
I77
sbasg34
g22
(S'0'
tRp330
sg36
g22
(S'6'
tRp331
sbag1
(g13
g3
NtRp332
(dp333
g16
S'T(4)./mid/Samples/Hip-Hop/HipHop_Chords\\KanyeWest_Stronger_CHORDS.mid'
p334
sg18
S'Gm'
p335
sg20
I1920
sg21
g22
(S'0.2447916666666666666666666667'
tRp336
sg24
(lp337
g1
(g26
g3
NtRp338
(dp339
g29
g22
(S'0.2447916666666666666666666667'
tRp340
sg31
I32640
sg32
I0
sg33
I55
sbag1
(g26
g3
NtRp341
(dp342
g29
g22
(S'0.2447916666666666666666666667'
tRp343
sg31
I32640
sg32
I0
sg33
I67
sbag1
(g26
g3
NtRp344
(dp345
g29
g22
(S'0.2447916666666666666666666667'
tRp346
sg31
I32640
sg32
I0
sg33
I70
sbag1
(g26
g3
NtRp347
(dp348
g29
g22
(S'0.2447916666666666666666666667'
tRp349
sg31
I32640
sg32
I0
sg33
I74
sbasg34
g22
(S'0'
tRp350
sg36
g22
(S'17'
p351
tRp352
sbag1
(g13
g3
NtRp353
(dp354
g16
S'T(-5)./mid/Samples/Hip-Hop/HipHop_Chords\\KanyeWest_GoodMorning_CHORDS.mid'
p355
sg18
S'Am'
p356
sg20
I1920
sg21
g22
(S'0.25'
tRp357
sg24
(lp358
g1
(g26
g3
NtRp359
(dp360
g29
g22
(S'0.2369791666666666666666666667'
tRp361
sg31
I30240
sg32
I4
sg33
I31
sbag1
(g26
g3
NtRp362
(dp363
g29
g22
(S'0.2369791666666666666666666667'
tRp364
sg31
I30240
sg32
I4
sg33
I38
sbag1
(g26
g3
NtRp365
(dp366
g29
g22
(S'0.2369791666666666666666666667'
tRp367
sg31
I30240
sg32
I4
sg33
I43
sbasg34
g22
(S'0.75'
tRp368
sg36
g22
(S'15.75'
tRp369
sbag1
(g13
g3
NtRp370
(dp371
g16
S'T(-5)./mid/Samples/Hip-Hop/HipHop_Chords\\KanyeWest_GoodMorning_CHORDS.mid'
p372
sg18
S'G'
sg20
I1920
sg21
g22
(S'0.75'
tRp373
sg24
(lp374
g1
(g26
g3
NtRp375
(dp376
g29
g22
(S'0.7119791666666666666666666667'
tRp377
sg31
I1920
sg32
I4
sg33
I31
sbag1
(g26
g3
NtRp378
(dp379
g29
g22
(S'0.7119791666666666666666666667'
tRp380
sg31
I1920
sg32
I4
sg33
I35
sbag1
(g26
g3
NtRp381
(dp382
g29
g22
(S'0.7119791666666666666666666667'
tRp383
sg31
I1920
sg32
I4
sg33
I38
sbag1
(g26
g3
NtRp384
(dp385
g29
g22
(S'0.7119791666666666666666666667'
tRp386
sg31
I1920
sg32
I4
sg33
I43
sbasg34
g22
(S'0'
tRp387
sg36
g22
(S'1'
tRp388
sbag1
(g13
g3
NtRp389
(dp390
g16
S'T(5)./mid/Samples/Hip-Hop/HipHop_Chords\\KanyeWest_ThroughTheWire_CHORDS.mid'
p391
sg18
g87
sg20
I1920
sg21
g22
(S'1.466145833333333333333333333'
tRp392
sg24
(lp393
g1
(g26
g3
NtRp394
(dp395
g29
g22
(S'1.466145833333333333333333333'
tRp396
sg31
I20160
sg32
I2
sg33
I65
sbag1
(g26
g3
NtRp397
(dp398
g29
g22
(S'1.466145833333333333333333333'
tRp399
sg31
I20160
sg32
I2
sg33
I67
sbag1
(g26
g3
NtRp400
(dp401
g29
g22
(S'1.466145833333333333333333333'
tRp402
sg31
I20160
sg32
I2
sg33
I70
sbag1
(g26
g3
NtRp403
(dp404
g29
g22
(S'1.466145833333333333333333333'
tRp405
sg31
I20160
sg32
I2
sg33
I72
sbasg34
g22
(S'0.5'
tRp406
sg36
g22
(S'10.5'
tRp407
sbag1
(g13
g3
NtRp408
(dp409
g16
S'T(5)./mid/Samples/Hip-Hop/HipHop_Chords\\KanyeWest_ThroughTheWire_CHORDS.mid'
p410
sg18
S'Dm'
p411
sg20
I1920
sg21
g22
(S'0.5'
tRp412
sg24
(lp413
g1
(g26
g3
NtRp414
(dp415
g29
g22
(S'0.4973958333333333333333333333'
tRp416
sg31
I16320
sg32
I2
sg33
I69
sbag1
(g26
g3
NtRp417
(dp418
g29
g22
(S'0.4973958333333333333333333333'
tRp419
sg31
I16320
sg32
I2
sg33
I70
sbag1
(g26
g3
NtRp420
(dp421
g29
g22
(S'0.4973958333333333333333333333'
tRp422
sg31
I16320
sg32
I2
sg33
I74
sbag1
(g26
g3
NtRp423
(dp424
g29
g22
(S'0.4973958333333333333333333333'
tRp425
sg31
I16320
sg32
I2
sg33
I77
sbasg34
g22
(S'0.5'
tRp426
sg36
g22
(S'8.5'
tRp427
sbag1
(g13
g3
NtRp428
(dp429
g16
S'T(5)./mid/Samples/Hip-Hop/HipHop_Chords\\KanyeWest_ThroughTheWire_CHORDS.mid'
p430
sg18
S'F'
sg20
I1920
sg21
g22
(S'0.1875'
tRp431
sg24
(lp432
g1
(g26
g3
NtRp433
(dp434
g29
g22
(S'0.1848958333333333333333333333'
tRp435
sg31
I360
sg32
I2
sg33
I65
sbag1
(g26
g3
NtRp436
(dp437
g29
g22
(S'0.1848958333333333333333333333'
tRp438
sg31
I360
sg32
I2
sg33
I70
sbasg34
g22
(S'0.1875'
tRp439
sg36
g22
(S'0.1875'
tRp440
sbag1
(g13
g3
NtRp441
(dp442
g16
S'T(5)./mid/Samples/Hip-Hop/HipHop_Chords\\KanyeWest_ThroughTheWire_CHORDS.mid'
p443
sg18
S'F'
sg20
I1920
sg21
g22
(S'0.5'
tRp444
sg24
(lp445
g1
(g26
g3
NtRp446
(dp447
g29
g22
(S'0.4973958333333333333333333333'
tRp448
sg31
I7680
sg32
I2
sg33
I65
sbag1
(g26
g3
NtRp449
(dp450
g29
g22
(S'0.4973958333333333333333333333'
tRp451
sg31
I7680
sg32
I2
sg33
I69
sbag1
(g26
g3
NtRp452
(dp453
g29
g22
(S'0.4973958333333333333333333333'
tRp454
sg31
I7680
sg32
I2
sg33
I72
sbasg34
g22
(S'0'
tRp455
sg36
g22
(S'4'
tRp456
sbag1
(g13
g3
NtRp457
(dp458
g16
S'T(5)./mid/Samples/Hip-Hop/HipHop_Chords\\KanyeWest_ThroughTheWire_CHORDS.mid'
p459
sg18
S'C'
sg20
I1920
sg21
g22
(S'0.0625'
tRp460
sg24
(lp461
g1
(g26
g3
NtRp462
(dp463
g29
g22
(S'0.09114583333333333333333333333'
tRp464
sg31
I6600
sg32
I2
sg33
I84
sbasg34
g22
(S'0.4375'
tRp465
sg36
g22
(S'3.4375'
tRp466
sbag1
(g13
g3
NtRp467
(dp468
g16
S'T(5)./mid/Samples/Hip-Hop/HipHop_Chords\\KanyeWest_ThroughTheWire_CHORDS.mid'
p469
sg18
S'Em'
p470
sg20
I1920
sg21
g22
(S'0.5'
tRp471
sg24
(lp472
g1
(g26
g3
NtRp473
(dp474
g29
g22
(S'0.4973958333333333333333333333'
tRp475
sg31
I10560
sg32
I2
sg33
I67
sbag1
(g26
g3
NtRp476
(dp477
g29
g22
(S'0.4973958333333333333333333333'
tRp478
sg31
I10560
sg32
I2
sg33
I73
sbag1
(g26
g3
NtRp479
(dp480
g29
g22
(S'0.4973958333333333333333333333'
tRp481
sg31
I10560
sg32
I2
sg33
I76
sbag1
(g26
g3
NtRp482
(dp483
g29
g22
(S'0.4973958333333333333333333333'
tRp484
sg31
I10560
sg32
I2
sg33
I77
sbasg34
g22
(S'0.5'
tRp485
sg36
g22
(S'5.5'
tRp486
sbag1
(g13
g3
NtRp487
(dp488
g16
S'T(4)./mid/Samples/Hip-Hop/HipHop_Chords\\KanyeWest_Stronger_CHORDS.mid'
p489
sg18
S'F'
sg20
I1920
sg21
g22
(S'1'
tRp490
sg24
(lp491
g1
(g26
g3
NtRp492
(dp493
g29
g22
(S'0.9947916666666666666666666667'
tRp494
sg31
I3840
sg32
I0
sg33
I60
sbag1
(g26
g3
NtRp495
(dp496
g29
g22
(S'0.9947916666666666666666666667'
tRp497
sg31
I3840
sg32
I0
sg33
I65
sbag1
(g26
g3
NtRp498
(dp499
g29
g22
(S'0.9947916666666666666666666667'
tRp500
sg31
I3840
sg32
I0
sg33
I69
sbasg34
g22
(S'0'
tRp501
sg36
g22
(S'2'
tRp502
sbag1
(g13
g3
NtRp503
(dp504
g16
S'T(5)./mid/Samples/Hip-Hop/HipHop_Chords\\KanyeWest_ThroughTheWire_CHORDS.mid'
p505
sg18
S'C'
sg20
I1920
sg21
g22
(S'0.5'
tRp506
sg24
(lp507
g1
(g26
g3
NtRp508
(dp509
g29
g22
(S'0.4973958333333333333333333333'
tRp510
sg31
I13440
sg32
I2
sg33
I64
sbag1
(g26
g3
NtRp511
(dp512
g29
g22
(S'0.4973958333333333333333333333'
tRp513
sg31
I13440
sg32
I2
sg33
I67
sbag1
(g26
g3
NtRp514
(dp515
g29
g22
(S'0.4973958333333333333333333333'
tRp516
sg31
I13440
sg32
I2
sg33
I72
sbag1
(g26
g3
NtRp517
(dp518
g29
g22
(S'0.4973958333333333333333333333'
tRp519
sg31
I13440
sg32
I2
sg33
I74
sbag1
(g26
g3
NtRp520
(dp521
g29
g22
(S'0.4973958333333333333333333333'
tRp522
sg31
I13440
sg32
I2
sg33
I76
sbasg34
g22
(S'0'
tRp523
sg36
g22
(S'7'
tRp524
sbag1
(g13
g3
NtRp525
(dp526
g16
S'T(5)./mid/Samples/Hip-Hop/HipHop_Chords\\KanyeWest_ThroughTheWire_CHORDS.mid'
p527
sg18
S'C'
sg20
I1920
sg21
g22
(S'0.0625'
tRp528
sg24
(lp529
g1
(g26
g3
NtRp530
(dp531
g29
g22
(S'0.09114583333333333333333333333'
tRp532
sg31
I6360
sg32
I2
sg33
I72
sbasg34
g22
(S'0.3125'
tRp533
sg36
g22
(S'3.3125'
tRp534
sbag1
(g13
g3
NtRp535
(dp536
g16
S'T(-6)./mid/Samples/Hip-Hop/HipHop_Chords\\KanyeWest_AllTheLights_CHORDS.mid'
p537
sg18
S'Am'
p538
sg20
I1920
sg21
g22
(S'1.125'
tRp539
sg24
(lp540
g1
(g26
g3
NtRp541
(dp542
g29
g22
(S'1.125'
tRp543
sg31
I31440
sg32
I2
sg33
I36
sbasg34
g22
(S'0.375'
tRp544
sg36
g22
(S'16.375'
tRp545
sbag1
(g13
g3
NtRp546
(dp547
g16
S'T(-6)./mid/Samples/Hip-Hop/HipHop_Chords\\KanyeWest_AllTheLights_CHORDS.mid'
p548
sg18
S'G#/Ab'
p549
sg20
I1920
sg21
g22
(S'0.50520833333333333333333333'
tRp550
sg24
(lp551
g1
(g26
g3
NtRp552
(dp553
g29
g22
(S'0.5'
tRp554
sg31
I33600
sg32
I2
sg33
I38
sbasg34
g22
(S'0.5'
tRp555
sg36
g22
(S'17.5'
tRp556
sbag1
(g13
g3
NtRp557
(dp558
g16
S'T(4)./mid/Samples/Hip-Hop/HipHop_Chords\\KanyeWest_Stronger_CHORDS.mid'
p559
sg18
S'Gm'
p560
sg20
I1920
sg21
g22
(S'0.25'
tRp561
sg24
(lp562
g1
(g26
g3
NtRp563
(dp564
g29
g22
(S'0.4947916666666666666666666667'
tRp565
sg31
I10560
sg32
I0
sg33
I70
sbasg34
g22
(S'0.5'
tRp566
sg36
g22
(S'5.5'
tRp567
sbag1
(g13
g3
NtRp568
(dp569
g16
S'T(5)./mid/Samples/Hip-Hop/HipHop_Chords\\KanyeWest_ThroughTheWire_CHORDS.mid'
p570
sg18
S'C'
sg20
I1920
sg21
g22
(S'0.0625'
tRp571
sg24
(lp572
g1
(g26
g3
NtRp573
(dp574
g29
g22
(S'0.09114583333333333333333333333'
tRp575
sg31
I6480
sg32
I2
sg33
I77
sbasg34
g22
(S'0.375'
tRp576
sg36
g22
(S'3.375'
tRp577
sbag1
(g13
g3
NtRp578
(dp579
g16
S'T(-6)./mid/Samples/Hip-Hop/HipHop_Chords\\KanyeWest_AllTheLights_CHORDS.mid'
p580
sg18
S'F'
sg20
I1920
sg21
g22
(S'16.5'
tRp581
sg24
(lp582
g1
(g26
g3
NtRp583
(dp584
g29
g22
(S'0.5'
tRp585
sg31
I45120
sg32
I2
sg33
I33
sbasg34
g22
(S'0.5'
tRp586
sg36
g22
(S'23.5'
tRp587
sbag1
(g13
g3
NtRp588
(dp589
g16
S'T(5)./mid/Samples/Hip-Hop/HipHop_Chords\\KanyeWest_ThroughTheWire_CHORDS.mid'
p590
sg18
S'Dm'
p591
sg20
I1920
sg21
g22
(S'0.3125'
tRp592
sg24
(lp593
g1
(g26
g3
NtRp594
(dp595
g29
g22
(S'0.3098958333333333333333333333'
tRp596
sg31
I4200
sg32
I2
sg33
I69
sbag1
(g26
g3
NtRp597
(dp598
g29
g22
(S'0.3098958333333333333333333333'
tRp599
sg31
I4200
sg32
I2
sg33
I74
sbag1
(g26
g3
NtRp600
(dp601
g29
g22
(S'0.3098958333333333333333333333'
tRp602
sg31
I4200
sg32
I2
sg33
I77
sbasg34
g22
(S'0.1875'
tRp603
sg36
g22
(S'2.1875'
tRp604
sbag1
(g13
g3
NtRp605
(dp606
g16
S'T(5)./mid/Samples/Hip-Hop/HipHop_Chords\\KanyeWest_ThroughTheWire_CHORDS.mid'
p607
sg18
S'Em'
p608
sg20
I1920
sg21
g22
(S'0.5'
tRp609
sg24
(lp610
g1
(g26
g3
NtRp611
(dp612
g29
g22
(S'0.4973958333333333333333333333'
tRp613
sg31
I9600
sg32
I2
sg33
I71
sbag1
(g26
g3
NtRp614
(dp615
g29
g22
(S'0.4973958333333333333333333333'
tRp616
sg31
I9600
sg32
I2
sg33
I74
sbag1
(g26
g3
NtRp617
(dp618
g29
g22
(S'0.4973958333333333333333333333'
tRp619
sg31
I9600
sg32
I2
sg33
I76
sbag1
(g26
g3
NtRp620
(dp621
g29
g22
(S'0.4973958333333333333333333333'
tRp622
sg31
I9600
sg32
I2
sg33
I79
sbasg34
g22
(S'0'
tRp623
sg36
g22
(S'5'
tRp624
sbag1
(g13
g3
NtRp625
(dp626
g16
S'T(-6)./mid/Samples/Hip-Hop/HipHop_Chords\\KanyeWest_AllTheLights_CHORDS.mid'
p627
sg18
S'Am'
p628
sg20
I1920
sg21
g22
(S'0.25'
tRp629
sg24
(lp630
g1
(g26
g3
NtRp631
(dp632
g29
g22
(S'0.25'
tRp633
sg31
I30720
sg32
I2
sg33
I40
sbasg34
g22
(S'0'
tRp634
sg36
g22
(S'16'
p635
tRp636
sbag1
(g13
g3
NtRp637
(dp638
g16
S'T(-6)./mid/Samples/Hip-Hop/HipHop_Chords\\KanyeWest_AllTheLights_CHORDS.mid'
p639
sg18
S'F'
sg20
I1920
sg21
g22
(S'0.5'
tRp640
sg24
(lp641
g1
(g26
g3
NtRp642
(dp643
g29
g22
(S'0.5'
tRp644
sg31
I39360
sg32
I2
sg33
I36
sbasg34
g22
(S'0.5'
tRp645
sg36
g22
(S'20.5'
tRp646
sbag1
(g13
g3
NtRp647
(dp648
g16
S'T(5)./mid/Samples/Hip-Hop/HipHop_Chords\\KanyeWest_ThroughTheWire_CHORDS.mid'
p649
sg18
S'C'
sg20
I1920
sg21
g22
(S'0.5'
tRp650
sg24
(lp651
g1
(g26
g3
NtRp652
(dp653
g29
g22
(S'0.4973958333333333333333333333'
tRp654
sg31
I14400
sg32
I2
sg33
I64
sbag1
(g26
g3
NtRp655
(dp656
g29
g22
(S'0.4973958333333333333333333333'
tRp657
sg31
I14400
sg32
I2
sg33
I67
sbag1
(g26
g3
NtRp658
(dp659
g29
g22
(S'0.4973958333333333333333333333'
tRp660
sg31
I14400
sg32
I2
sg33
I72
sbag1
(g26
g3
NtRp661
(dp662
g29
g22
(S'0.4973958333333333333333333333'
tRp663
sg31
I14400
sg32
I2
sg33
I74
sbag1
(g26
g3
NtRp664
(dp665
g29
g22
(S'0.4973958333333333333333333333'
tRp666
sg31
I14400
sg32
I2
sg33
I76
sbasg34
g22
(S'0.5'
tRp667
sg36
g22
(S'7.5'
tRp668
sbag1
(g13
g3
NtRp669
(dp670
g16
S'T(-6)./mid/Samples/Hip-Hop/HipHop_Chords\\KanyeWest_AllTheLights_CHORDS.mid'
p671
sg18
S'F'
sg20
I1920
sg21
g22
(S'0.5'
tRp672
sg24
(lp673
g1
(g26
g3
NtRp674
(dp675
g29
g22
(S'0.5'
tRp676
sg31
I38400
sg32
I2
sg33
I35
sbasg34
g22
(S'0'
tRp677
sg36
g22
(S'20'
p678
tRp679
sbag1
(g13
g3
NtRp680
(dp681
g16
S'T(5)./mid/Samples/Hip-Hop/HipHop_Chords\\KanyeWest_ThroughTheWire_CHORDS.mid'
p682
sg18
S'F'
sg20
I1920
sg21
g22
(S'0.5'
tRp683
sg24
(lp684
g1
(g26
g3
NtRp685
(dp686
g29
g22
(S'0.4973958333333333333333333333'
tRp687
sg31
I8640
sg32
I2
sg33
I65
sbag1
(g26
g3
NtRp688
(dp689
g29
g22
(S'0.4973958333333333333333333333'
tRp690
sg31
I8640
sg32
I2
sg33
I69
sbag1
(g26
g3
NtRp691
(dp692
g29
g22
(S'0.4973958333333333333333333333'
tRp693
sg31
I8640
sg32
I2
sg33
I70
sbag1
(g26
g3
NtRp694
(dp695
g29
g22
(S'0.4973958333333333333333333333'
tRp696
sg31
I8640
sg32
I2
sg33
I74
sbag1
(g26
g3
NtRp697
(dp698
g29
g22
(S'0.4973958333333333333333333333'
tRp699
sg31
I8640
sg32
I2
sg33
I77
sbasg34
g22
(S'0.5'
tRp700
sg36
g22
(S'4.5'
tRp701
sbag1
(g13
g3
NtRp702
(dp703
g16
S'T(4)./mid/Samples/Hip-Hop/HipHop_Chords\\KanyeWest_Stronger_CHORDS.mid'
p704
sg18
S'F'
sg20
I1920
sg21
g22
(S'0.25'
tRp705
sg24
(lp706
g1
(g26
g3
NtRp707
(dp708
g29
g22
(S'0.9947916666666666666666666667'
tRp709
sg31
I11520
sg32
I0
sg33
I60
sbag1
(g26
g3
NtRp710
(dp711
g29
g22
(S'0.9947916666666666666666666667'
tRp712
sg31
I11520
sg32
I0
sg33
I65
sbag1
(g26
g3
NtRp713
(dp714
g29
g22
(S'0.9947916666666666666666666667'
tRp715
sg31
I11520
sg32
I0
sg33
I69
sbasg34
g22
(S'0'
tRp716
sg36
g22
(S'6'
tRp717
sbag1
(g13
g3
NtRp718
(dp719
g16
S'T(5)./mid/Samples/Hip-Hop/HipHop_Chords\\KanyeWest_ThroughTheWire_CHORDS.mid'
p720
sg18
S'C'
sg20
I1920
sg21
g22
(S'0.3125'
tRp721
sg24
(lp722
g1
(g26
g3
NtRp723
(dp724
g29
g22
(S'0.3098958333333333333333333333'
tRp725
sg31
I6720
sg32
I2
sg33
I67
sbag1
(g26
g3
NtRp726
(dp727
g29
g22
(S'0.3098958333333333333333333333'
tRp728
sg31
I6720
sg32
I2
sg33
I72
sbag1
(g26
g3
NtRp729
(dp730
g29
g22
(S'0.3098958333333333333333333333'
tRp731
sg31
I6720
sg32
I2
sg33
I74
sbag1
(g26
g3
NtRp732
(dp733
g29
g22
(S'0.3098958333333333333333333333'
tRp734
sg31
I6720
sg32
I2
sg33
I76
sbag1
(g26
g3
NtRp735
(dp736
g29
g22
(S'0.4973958333333333333333333333'
tRp737
sg31
I6720
sg32
I2
sg33
I64
sbasg34
g22
(S'0.5'
tRp738
sg36
g22
(S'3.5'
tRp739
sbag1
(g13
g3
NtRp740
(dp741
g16
S'T(-5)./mid/Samples/Hip-Hop/HipHop_Chords\\KanyeWest_GoodMorning_CHORDS.mid'
p742
sg18
S'Am'
p743
sg20
I1920
sg21
g22
(S'3.75'
tRp744
sg24
(lp745
g1
(g26
g3
NtRp746
(dp747
g29
g22
(S'2.849479166666666666666666667'
tRp748
sg31
I30720
sg32
I4
sg33
I33
sbag1
(g26
g3
NtRp749
(dp750
g29
g22
(S'2.849479166666666666666666667'
tRp751
sg31
I30720
sg32
I4
sg33
I40
sbag1
(g26
g3
NtRp752
(dp753
g29
g22
(S'2.849479166666666666666666667'
tRp754
sg31
I30720
sg32
I4
sg33
I45
sbasg34
g22
(S'0'
tRp755
sg36
g22
(S'16'
p756
tRp757
sbag1
(g13
g3
NtRp758
(dp759
g16
S'T(-5)./mid/Samples/Hip-Hop/HipHop_Chords\\KanyeWest_GoodMorning_CHORDS.mid'
p760
sg18
S'Am'
p761
sg20
I1920
sg21
g22
(S'2'
tRp762
sg24
(lp763
g1
(g26
g3
NtRp764
(dp765
g29
g22
(S'1.899479166666666666666666667'
tRp766
sg31
I3840
sg32
I4
sg33
I33
sbag1
(g26
g3
NtRp767
(dp768
g29
g22
(S'1.899479166666666666666666667'
tRp769
sg31
I3840
sg32
I4
sg33
I36
sbag1
(g26
g3
NtRp770
(dp771
g29
g22
(S'1.899479166666666666666666667'
tRp772
sg31
I3840
sg32
I4
sg33
I40
sbag1
(g26
g3
NtRp773
(dp774
g29
g22
(S'1.899479166666666666666666667'
tRp775
sg31
I3840
sg32
I4
sg33
I45
sbasg34
g22
(S'0'
tRp776
sg36
g22
(S'2'
tRp777
sbag1
(g13
g3
NtRp778
(dp779
g16
S'T(-5)./mid/Samples/Hip-Hop/HipHop_Chords\\KanyeWest_GoodMorning_CHORDS.mid'
p780
sg18
S'C'
sg20
I1920
sg21
g22
(S'0.75'
tRp781
sg24
(lp782
g1
(g26
g3
NtRp783
(dp784
g29
g22
(S'0.7119791666666666666666666667'
tRp785
sg31
I0
sg32
I4
sg33
I36
sbag1
(g26
g3
NtRp786
(dp787
g29
g22
(S'0.7119791666666666666666666667'
tRp788
sg31
I0
sg32
I4
sg33
I40
sbag1
(g26
g3
NtRp789
(dp790
g29
g22
(S'0.7119791666666666666666666667'
tRp791
sg31
I0
sg32
I4
sg33
I43
sbag1
(g26
g3
NtRp792
(dp793
g29
g22
(S'0.7119791666666666666666666667'
tRp794
sg31
I0
sg32
I4
sg33
I48
sbasg34
g22
(S'0'
tRp795
sg36
g22
(S'0'
tRp796
sbag1
(g13
g3
NtRp797
(dp798
g16
S'T(4)./mid/Samples/Hip-Hop/HipHop_Chords\\KanyeWest_Stronger_CHORDS.mid'
p799
sg18
S'Gm'
p800
sg20
I1920
sg21
g22
(S'1'
tRp801
sg24
(lp802
g1
(g26
g3
NtRp803
(dp804
g29
g22
(S'0.9947916666666666666666666667'
tRp805
sg31
I1920
sg32
I0
sg33
I62
sbag1
(g26
g3
NtRp806
(dp807
g29
g22
(S'0.9947916666666666666666666667'
tRp808
sg31
I1920
sg32
I0
sg33
I67
sbag1
(g26
g3
NtRp809
(dp810
g29
g22
(S'0.9947916666666666666666666667'
tRp811
sg31
I1920
sg32
I0
sg33
I70
sbasg34
g22
(S'0'
tRp812
sg36
g22
(S'1'
tRp813
sbag1
(g13
g3
NtRp814
(dp815
g16
S'T(5)./mid/Samples/Hip-Hop/HipHop_Chords\\KanyeWest_ThroughTheWire_CHORDS.mid'
p816
sg18
S'F'
sg20
I1920
sg21
g22
(S'0.1875'
tRp817
sg24
(lp818
g1
(g26
g3
NtRp819
(dp820
g29
g22
(S'0.1848958333333333333333333333'
tRp821
sg31
I1080
sg32
I2
sg33
I69
sbag1
(g26
g3
NtRp822
(dp823
g29
g22
(S'0.1848958333333333333333333333'
tRp824
sg31
I1080
sg32
I2
sg33
I72
sbasg34
g22
(S'0.5625'
tRp825
sg36
g22
(S'0.5625'
tRp826
sbag1
(g13
g3
NtRp827
(dp828
g16
S'T(4)./mid/Samples/Hip-Hop/HipHop_Chords\\KanyeWest_Stronger_CHORDS.mid'
p829
sg18
S'C'
sg20
I1920
sg21
g22
(S'1'
tRp830
sg24
(lp831
g1
(g26
g3
NtRp832
(dp833
g29
g22
(S'0.9947916666666666666666666667'
tRp834
sg31
I5760
sg32
I0
sg33
I60
sbag1
(g26
g3
NtRp835
(dp836
g29
g22
(S'0.9947916666666666666666666667'
tRp837
sg31
I5760
sg32
I0
sg33
I64
sbag1
(g26
g3
NtRp838
(dp839
g29
g22
(S'0.9947916666666666666666666667'
tRp840
sg31
I5760
sg32
I0
sg33
I67
sbasg34
g22
(S'0'
tRp841
sg36
g22
(S'3'
tRp842
sbag1
(g13
g3
NtRp843
(dp844
g16
S'T(-6)./mid/Samples/Hip-Hop/HipHop_Chords\\KanyeWest_AllTheLights_CHORDS.mid'
p845
sg18
g549
sg20
I1920
sg21
g22
(S'0.49479166666666666666666667'
tRp846
sg24
(lp847
g1
(g26
g3
NtRp848
(dp849
g29
g22
(S'0.5'
tRp850
sg31
I37450
sg32
I2
sg33
I38
sbasg34
g22
(S'0.5052083333333333333333333333'
tRp851
sg36
g22
(S'19.50520833333333333333333333'
tRp852
sbag1
(g13
g3
NtRp853
(dp854
g16
S'T(-5)./mid/Samples/Hip-Hop/HipHop_Chords\\KanyeWest_GoodMorning_CHORDS.mid'
p855
sg18
S'Am'
p856
sg20
I1920
sg21
g22
(S'1.75'
tRp857
sg24
(lp858
g1
(g26
g3
NtRp859
(dp860
g29
g22
(S'1.661979166666666666666666667'
tRp861
sg31
I26880
sg32
I4
sg33
I33
sbag1
(g26
g3
NtRp862
(dp863
g29
g22
(S'1.661979166666666666666666667'
tRp864
sg31
I26880
sg32
I4
sg33
I36
sbag1
(g26
g3
NtRp865
(dp866
g29
g22
(S'1.661979166666666666666666667'
tRp867
sg31
I26880
sg32
I4
sg33
I40
sbag1
(g26
g3
NtRp868
(dp869
g29
g22
(S'1.661979166666666666666666667'
tRp870
sg31
I26880
sg32
I4
sg33
I45
sbasg34
g22
(S'0'
tRp871
sg36
g22
(S'14'
p872
tRp873
sbag1
(g13
g3
NtRp874
(dp875
g16
S'T(5)./mid/Samples/Hip-Hop/HipHop_Chords\\KanyeWest_ThroughTheWire_CHORDS.mid'
p876
sg18
S'Dm'
p877
sg20
I1920
sg21
g22
(S'0.5'
tRp878
sg24
(lp879
g1
(g26
g3
NtRp880
(dp881
g29
g22
(S'0.4661458333333333333333333333'
tRp882
sg31
I4800
sg32
I2
sg33
I65
sbag1
(g26
g3
NtRp883
(dp884
g29
g22
(S'0.4661458333333333333333333333'
tRp885
sg31
I4800
sg32
I2
sg33
I70
sbag1
(g26
g3
NtRp886
(dp887
g29
g22
(S'0.4661458333333333333333333333'
tRp888
sg31
I4800
sg32
I2
sg33
I74
sbasg34
g22
(S'0.5'
tRp889
sg36
g22
(S'2.5'
tRp890
sbag1
(g13
g3
NtRp891
(dp892
g16
S'T(-6)./mid/Samples/Hip-Hop/HipHop_Chords\\KanyeWest_AllTheLights_CHORDS.mid'
p893
sg18
S'Am'
p894
sg20
I1920
sg21
g22
(S'0.125'
tRp895
sg24
(lp896
g1
(g26
g3
NtRp897
(dp898
g29
g22
(S'0.125'
tRp899
sg31
I31200
sg32
I2
sg33
I35
sbasg34
g22
(S'0.25'
tRp900
sg36
g22
(S'16.25'
tRp901
sbag1
(g13
g3
NtRp902
(dp903
g16
S'T(4)./mid/Samples/Hip-Hop/HipHop_Chords\\KanyeWest_Stronger_CHORDS.mid'
p904
sg18
S'D'
sg20
I1920
sg21
g22
(S'0.5'
tRp905
sg24
(lp906
g1
(g26
g3
NtRp907
(dp908
g29
g22
(S'0.4947916666666666666666666667'
tRp909
sg31
I7680
sg32
I0
sg33
I58
sbag1
(g26
g3
NtRp910
(dp911
g29
g22
(S'0.4947916666666666666666666667'
tRp912
sg31
I7680
sg32
I0
sg33
I63
sbag1
(g26
g3
NtRp913
(dp914
g29
g22
(S'0.4947916666666666666666666667'
tRp915
sg31
I7680
sg32
I0
sg33
I67
sbasg34
g22
(S'0'
tRp916
sg36
g22
(S'4'
tRp917
sbag1
(g13
g3
NtRp918
(dp919
g16
S'T(5)./mid/Samples/Hip-Hop/HipHop_Chords\\KanyeWest_ThroughTheWire_CHORDS.mid'
p920
sg18
S'Dm'
p921
sg20
I1920
sg21
g22
(S'0.1875'
tRp922
sg24
(lp923
g1
(g26
g3
NtRp924
(dp925
g29
g22
(S'0.1848958333333333333333333333'
tRp926
sg31
I3840
sg32
I2
sg33
I69
sbag1
(g26
g3
NtRp927
(dp928
g29
g22
(S'0.1848958333333333333333333333'
tRp929
sg31
I3840
sg32
I2
sg33
I74
sbag1
(g26
g3
NtRp930
(dp931
g29
g22
(S'0.1848958333333333333333333333'
tRp932
sg31
I3840
sg32
I2
sg33
I77
sbasg34
g22
(S'0'
tRp933
sg36
g22
(S'2'
tRp934
sbag1
(g13
g3
NtRp935
(dp936
g16
S'T(4)./mid/Samples/Hip-Hop/HipHop_Chords\\KanyeWest_Stronger_CHORDS.mid'
p937
sg18
S'D#/Eb'
p938
sg20
I1920
sg21
g22
(S'1'
tRp939
sg24
(lp940
g1
(g26
g3
NtRp941
(dp942
g29
g22
(S'0.1197916666666666666666666667'
tRp943
sg31
I15360
sg32
I0
sg33
I58
sbag1
(g26
g3
NtRp944
(dp945
g29
g22
(S'0.1197916666666666666666666667'
tRp946
sg31
I15360
sg32
I0
sg33
I63
sbag1
(g26
g3
NtRp947
(dp948
g29
g22
(S'0.1197916666666666666666666667'
tRp949
sg31
I15360
sg32
I0
sg33
I67
sbasg34
g22
(S'0'
tRp950
sg36
g22
(S'8'
tRp951
sbag1
(g13
g3
NtRp952
(dp953
g16
S'T(-6)./mid/Samples/Hip-Hop/HipHop_Chords\\KanyeWest_AllTheLights_CHORDS.mid'
p954
sg18
S'F'
sg20
I1920
sg21
g22
(S'0.5'
tRp955
sg24
(lp956
g1
(g26
g3
NtRp957
(dp958
g29
g22
(S'0.5'
tRp959
sg31
I41280
sg32
I2
sg33
I33
sbasg34
g22
(S'0.5'
tRp960
sg36
g22
(S'21.5'
tRp961
sbag1
(g13
g3
NtRp962
(dp963
g16
S'T(5)./mid/Samples/Hip-Hop/HipHop_Chords\\KanyeWest_ThroughTheWire_CHORDS.mid'
p964
sg18
g87
sg20
I1920
sg21
g22
(S'0.3125'
tRp965
sg24
(lp966
g1
(g26
g3
NtRp967
(dp968
g29
g22
(S'0.3098958333333333333333333333'
tRp969
sg31
I11880
sg32
I2
sg33
I67
sbag1
(g26
g3
NtRp970
(dp971
g29
g22
(S'0.3098958333333333333333333333'
tRp972
sg31
I11880
sg32
I2
sg33
I72
sbag1
(g26
g3
NtRp973
(dp974
g29
g22
(S'0.3098958333333333333333333333'
tRp975
sg31
I11880
sg32
I2
sg33
I76
sbasg34
g22
(S'0.1875'
tRp976
sg36
g22
(S'6.1875'
tRp977
sbag1
(g13
g3
NtRp978
(dp979
g16
S'T(5)./mid/Samples/Hip-Hop/HipHop_Chords\\KanyeWest_ThroughTheWire_CHORDS.mid'
p980
sg18
g87
sg20
I1920
sg21
g22
(S'0.5'
tRp981
sg24
(lp982
g1
(g26
g3
NtRp983
(dp984
g29
g22
(S'0.4973958333333333333333333333'
tRp985
sg31
I19200
sg32
I2
sg33
I65
sbag1
(g26
g3
NtRp986
(dp987
g29
g22
(S'0.4973958333333333333333333333'
tRp988
sg31
I19200
sg32
I2
sg33
I69
sbag1
(g26
g3
NtRp989
(dp990
g29
g22
(S'0.4973958333333333333333333333'
tRp991
sg31
I19200
sg32
I2
sg33
I70
sbag1
(g26
g3
NtRp992
(dp993
g29
g22
(S'0.4973958333333333333333333333'
tRp994
sg31
I19200
sg32
I2
sg33
I74
sbasg34
g22
(S'0'
tRp995
sg36
g22
(S'10'
p996
tRp997
sbag1
(g13
g3
NtRp998
(dp999
g16
S'T(4)./mid/Samples/Hip-Hop/HipHop_Chords\\KanyeWest_Stronger_CHORDS.mid'
p1000
sg18
S'Gm'
p1001
sg20
I1920
sg21
g22
(S'0.5'
tRp1002
sg24
(lp1003
g1
(g26
g3
NtRp1004
(dp1005
g29
g22
(S'0.4947916666666666666666666667'
tRp1006
sg31
I9600
sg32
I0
sg33
I70
sbag1
(g26
g3
NtRp1007
(dp1008
g29
g22
(S'0.9947916666666666666666666667'
tRp1009
sg31
I9600
sg32
I0
sg33
I62
sbag1
(g26
g3
NtRp1010
(dp1011
g29
g22
(S'0.9947916666666666666666666667'
tRp1012
sg31
I9600
sg32
I0
sg33
I67
sbasg34
g22
(S'0'
tRp1013
sg36
g22
(S'5'
tRp1014
sbag1
(g13
g3
NtRp1015
(dp1016
g16
S'T(5)./mid/Samples/Hip-Hop/HipHop_Chords\\KanyeWest_ThroughTheWire_CHORDS.mid'
p1017
sg18
S'F'
sg20
I1920
sg21
g22
(S'1.25'
tRp1018
sg24
(lp1019
g1
(g26
g3
NtRp1020
(dp1021
g29
g22
(S'1.247395833333333333333333333'
tRp1022
sg31
I1440
sg32
I2
sg33
I67
sbag1
(g26
g3
NtRp1023
(dp1024
g29
g22
(S'1.247395833333333333333333333'
tRp1025
sg31
I1440
sg32
I2
sg33
I72
sbag1
(g26
g3
NtRp1026
(dp1027
g29
g22
(S'1.247395833333333333333333333'
tRp1028
sg31
I1440
sg32
I2
sg33
I77
sbasg34
g22
(S'0.75'
tRp1029
sg36
g22
(S'0.75'
tRp1030
sbatRp1031
sS'markov'
p1032
(dp1033
(g250
tp1034
(lp1035
g428
as(g389
tp1036
(lp1037
S'stop_token'
p1038
as(g487
tp1039
(lp1040
g827
ag1
(g13
g3
NtRp1041
(dp1042
g16
S'T(4)./mid/Samples/Hip-Hop/HipHop_Chords\\KanyeWest_Stronger_CHORDS.mid'
p1043
sg18
S'C'
sg20
I1920
sg21
g22
(S'1'
tRp1044
sg24
(lp1045
g1
(g26
g3
NtRp1046
(dp1047
g29
g22
(S'0.9947916666666666666666666667'
tRp1048
sg31
I21120
sg32
I0
sg33
I60
sbag1
(g26
g3
NtRp1049
(dp1050
g29
g22
(S'0.9947916666666666666666666667'
tRp1051
sg31
I21120
sg32
I0
sg33
I64
sbag1
(g26
g3
NtRp1052
(dp1053
g29
g22
(S'0.9947916666666666666666666667'
tRp1054
sg31
I21120
sg32
I0
sg33
I67
sbasg34
g22
(S'0'
tRp1055
sg36
g22
(S'11'
p1056
tRp1057
sbas(g797
tp1058
(lp1059
g487
ag1
(g13
g3
NtRp1060
(dp1061
g16
S'T(4)./mid/Samples/Hip-Hop/HipHop_Chords\\KanyeWest_Stronger_CHORDS.mid'
p1062
sg18
S'F'
sg20
I1920
sg21
g22
(S'1'
tRp1063
sg24
(lp1064
g1
(g26
g3
NtRp1065
(dp1066
g29
g22
(S'0.9947916666666666666666666667'
tRp1067
sg31
I19200
sg32
I0
sg33
I60
sbag1
(g26
g3
NtRp1068
(dp1069
g29
g22
(S'0.9947916666666666666666666667'
tRp1070
sg31
I19200
sg32
I0
sg33
I65
sbag1
(g26
g3
NtRp1071
(dp1072
g29
g22
(S'0.9947916666666666666666666667'
tRp1073
sg31
I19200
sg32
I0
sg33
I69
sbasg34
g22
(S'0'
tRp1074
sg36
g22
(S'10'
p1075
tRp1076
sbas(g998
tp1077
(lp1078
g557
ag1
(g13
g3
NtRp1079
(dp1080
g16
S'T(4)./mid/Samples/Hip-Hop/HipHop_Chords\\KanyeWest_Stronger_CHORDS.mid'
p1081
sg18
S'Gm'
p1082
sg20
I1920
sg21
g22
(S'0.25'
tRp1083
sg24
(lp1084
g1
(g26
g3
NtRp1085
(dp1086
g29
g22
(S'0.4947916666666666666666666667'
tRp1087
sg31
I25920
sg32
I0
sg33
I70
sbasg34
g22
(S'0.5'
tRp1088
sg36
g22
(S'13.5'
tRp1089
sbas(g718
tp1090
(lp1091
g263
as(g853
tp1092
(lp1093
g353
as(g814
tp1094
(lp1095
g1015
as(g891
tp1096
(lp1097
g535
ag1
(g13
g3
NtRp1098
(dp1099
g16
S'T(-6)./mid/Samples/Hip-Hop/HipHop_Chords\\KanyeWest_AllTheLights_CHORDS.mid'
p1100
sg18
S'Am'
p1101
sg20
I1920
sg21
g22
(S'1.125'
tRp1102
sg24
(lp1103
g1
(g26
g3
NtRp1104
(dp1105
g29
g22
(S'1.125'
tRp1106
sg31
I77520
sg32
I2
sg33
I36
sbasg34
g22
(S'0.375'
tRp1107
sg36
g22
(S'40.375'
tRp1108
sbag1
(g13
g3
NtRp1109
(dp1110
g16
S'T(-6)./mid/Samples/Hip-Hop/HipHop_Chords\\KanyeWest_AllTheLights_CHORDS.mid'
p1111
sg18
S'Am'
p1112
sg20
I1920
sg21
g22
(S'1.125'
tRp1113
sg24
(lp1114
g1
(g26
g3
NtRp1115
(dp1116
g29
g22
(S'1.125'
tRp1117
sg31
I123600
sg32
I2
sg33
I36
sbasg34
g22
(S'0.375'
tRp1118
sg36
g22
(S'64.375'
tRp1119
sbas(g1015
tp1120
(lp1121
g918
as(g263
tp1122
(lp1123
g441
as(g588
tp1124
(lp1125
g874
as(g827
tp1126
(lp1127
g902
ag1
(g13
g3
NtRp1128
(dp1129
g16
S'T(4)./mid/Samples/Hip-Hop/HipHop_Chords\\KanyeWest_Stronger_CHORDS.mid'
p1130
sg18
S'D'
sg20
I1920
sg21
g22
(S'0.5'
tRp1131
sg24
(lp1132
g1
(g26
g3
NtRp1133
(dp1134
g29
g22
(S'0.4947916666666666666666666667'
tRp1135
sg31
I23040
sg32
I0
sg33
I58
sbag1
(g26
g3
NtRp1136
(dp1137
g29
g22
(S'0.4947916666666666666666666667'
tRp1138
sg31
I23040
sg32
I0
sg33
I63
sbag1
(g26
g3
NtRp1139
(dp1140
g29
g22
(S'0.4947916666666666666666666667'
tRp1141
sg31
I23040
sg32
I0
sg33
I67
sbasg34
g22
(S'0'
tRp1142
sg36
g22
(S'12'
p1143
tRp1144
sbas(g457
tp1145
(lp1146
g718
as(g194
tp1147
(lp1148
g370
ag1
(g13
g3
NtRp1149
(dp1150
g16
S'T(-5)./mid/Samples/Hip-Hop/HipHop_Chords\\KanyeWest_GoodMorning_CHORDS.mid'
p1151
sg18
S'G'
sg20
I1920
sg21
g22
(S'0.75'
tRp1152
sg24
(lp1153
g1
(g26
g3
NtRp1154
(dp1155
g29
g22
(S'0.7119791666666666666666666667'
tRp1156
sg31
I9600
sg32
I4
sg33
I31
sbag1
(g26
g3
NtRp1157
(dp1158
g29
g22
(S'0.7119791666666666666666666667'
tRp1159
sg31
I9600
sg32
I4
sg33
I35
sbag1
(g26
g3
NtRp1160
(dp1161
g29
g22
(S'0.7119791666666666666666666667'
tRp1162
sg31
I9600
sg32
I4
sg33
I38
sbag1
(g26
g3
NtRp1163
(dp1164
g29
g22
(S'0.7119791666666666666666666667'
tRp1165
sg31
I9600
sg32
I4
sg33
I43
sbasg34
g22
(S'0'
tRp1166
sg36
g22
(S'5'
tRp1167
sbag1
(g13
g3
NtRp1168
(dp1169
g16
S'T(-5)./mid/Samples/Hip-Hop/HipHop_Chords\\KanyeWest_GoodMorning_CHORDS.mid'
p1170
sg18
S'G'
sg20
I1920
sg21
g22
(S'0.75'
tRp1171
sg24
(lp1172
g1
(g26
g3
NtRp1173
(dp1174
g29
g22
(S'0.7119791666666666666666666667'
tRp1175
sg31
I17280
sg32
I4
sg33
I31
sbag1
(g26
g3
NtRp1176
(dp1177
g29
g22
(S'0.7119791666666666666666666667'
tRp1178
sg31
I17280
sg32
I4
sg33
I35
sbag1
(g26
g3
NtRp1179
(dp1180
g29
g22
(S'0.7119791666666666666666666667'
tRp1181
sg31
I17280
sg32
I4
sg33
I38
sbag1
(g26
g3
NtRp1182
(dp1183
g29
g22
(S'0.7119791666666666666666666667'
tRp1184
sg31
I17280
sg32
I4
sg33
I43
sbasg34
g22
(S'0'
tRp1185
sg36
g22
(S'9'
tRp1186
sbag1
(g13
g3
NtRp1187
(dp1188
g16
S'T(-5)./mid/Samples/Hip-Hop/HipHop_Chords\\KanyeWest_GoodMorning_CHORDS.mid'
p1189
sg18
S'G'
sg20
I1920
sg21
g22
(S'0.75'
tRp1190
sg24
(lp1191
g1
(g26
g3
NtRp1192
(dp1193
g29
g22
(S'0.7119791666666666666666666667'
tRp1194
sg31
I24960
sg32
I4
sg33
I31
sbag1
(g26
g3
NtRp1195
(dp1196
g29
g22
(S'0.7119791666666666666666666667'
tRp1197
sg31
I24960
sg32
I4
sg33
I35
sbag1
(g26
g3
NtRp1198
(dp1199
g29
g22
(S'0.7119791666666666666666666667'
tRp1200
sg31
I24960
sg32
I4
sg33
I38
sbag1
(g26
g3
NtRp1201
(dp1202
g29
g22
(S'0.7119791666666666666666666667'
tRp1203
sg31
I24960
sg32
I4
sg33
I43
sbasg34
g22
(S'0'
tRp1204
sg36
g22
(S'13'
p1205
tRp1206
sbag1
(g13
g3
NtRp1207
(dp1208
g16
S'T(-5)./mid/Samples/Hip-Hop/HipHop_Chords\\KanyeWest_GoodMorning_CHORDS.mid'
p1209
sg18
S'G'
sg20
I1920
sg21
g22
(S'0.75'
tRp1210
sg24
(lp1211
g1
(g26
g3
NtRp1212
(dp1213
g29
g22
(S'0.7119791666666666666666666667'
tRp1214
sg31
I63360
sg32
I4
sg33
I31
sbag1
(g26
g3
NtRp1215
(dp1216
g29
g22
(S'0.7119791666666666666666666667'
tRp1217
sg31
I63360
sg32
I4
sg33
I35
sbag1
(g26
g3
NtRp1218
(dp1219
g29
g22
(S'0.7119791666666666666666666667'
tRp1220
sg31
I63360
sg32
I4
sg33
I38
sbag1
(g26
g3
NtRp1221
(dp1222
g29
g22
(S'0.7119791666666666666666666667'
tRp1223
sg31
I63360
sg32
I4
sg33
I43
sbasg34
g22
(S'0'
tRp1224
sg36
g22
(S'33'
p1225
tRp1226
sbag1
(g13
g3
NtRp1227
(dp1228
g16
S'T(-5)./mid/Samples/Hip-Hop/HipHop_Chords\\KanyeWest_GoodMorning_CHORDS.mid'
p1229
sg18
S'G'
sg20
I1920
sg21
g22
(S'0.75'
tRp1230
sg24
(lp1231
g1
(g26
g3
NtRp1232
(dp1233
g29
g22
(S'0.7119791666666666666666666667'
tRp1234
sg31
I71040
sg32
I4
sg33
I31
sbag1
(g26
g3
NtRp1235
(dp1236
g29
g22
(S'0.7119791666666666666666666667'
tRp1237
sg31
I71040
sg32
I4
sg33
I35
sbag1
(g26
g3
NtRp1238
(dp1239
g29
g22
(S'0.7119791666666666666666666667'
tRp1240
sg31
I71040
sg32
I4
sg33
I38
sbag1
(g26
g3
NtRp1241
(dp1242
g29
g22
(S'0.7119791666666666666666666667'
tRp1243
sg31
I71040
sg32
I4
sg33
I43
sbasg34
g22
(S'0'
tRp1244
sg36
g22
(S'37'
p1245
tRp1246
sbag1
(g13
g3
NtRp1247
(dp1248
g16
S'T(-5)./mid/Samples/Hip-Hop/HipHop_Chords\\KanyeWest_GoodMorning_CHORDS.mid'
p1249
sg18
S'G'
sg20
I1920
sg21
g22
(S'0.75'
tRp1250
sg24
(lp1251
g1
(g26
g3
NtRp1252
(dp1253
g29
g22
(S'0.7119791666666666666666666667'
tRp1254
sg31
I78720
sg32
I4
sg33
I31
sbag1
(g26
g3
NtRp1255
(dp1256
g29
g22
(S'0.7119791666666666666666666667'
tRp1257
sg31
I78720
sg32
I4
sg33
I35
sbag1
(g26
g3
NtRp1258
(dp1259
g29
g22
(S'0.7119791666666666666666666667'
tRp1260
sg31
I78720
sg32
I4
sg33
I38
sbag1
(g26
g3
NtRp1261
(dp1262
g29
g22
(S'0.7119791666666666666666666667'
tRp1263
sg31
I78720
sg32
I4
sg33
I43
sbasg34
g22
(S'0'
tRp1264
sg36
g22
(S'41'
p1265
tRp1266
sbag1
(g13
g3
NtRp1267
(dp1268
g16
S'T(-5)./mid/Samples/Hip-Hop/HipHop_Chords\\KanyeWest_GoodMorning_CHORDS.mid'
p1269
sg18
S'G'
sg20
I1920
sg21
g22
(S'0.75'
tRp1270
sg24
(lp1271
g1
(g26
g3
NtRp1272
(dp1273
g29
g22
(S'0.7119791666666666666666666667'
tRp1274
sg31
I86400
sg32
I4
sg33
I31
sbag1
(g26
g3
NtRp1275
(dp1276
g29
g22
(S'0.7119791666666666666666666667'
tRp1277
sg31
I86400
sg32
I4
sg33
I35
sbag1
(g26
g3
NtRp1278
(dp1279
g29
g22
(S'0.7119791666666666666666666667'
tRp1280
sg31
I86400
sg32
I4
sg33
I38
sbag1
(g26
g3
NtRp1281
(dp1282
g29
g22
(S'0.7119791666666666666666666667'
tRp1283
sg31
I86400
sg32
I4
sg33
I43
sbasg34
g22
(S'0'
tRp1284
sg36
g22
(S'45'
p1285
tRp1286
sbag1
(g13
g3
NtRp1287
(dp1288
g16
S'T(-5)./mid/Samples/Hip-Hop/HipHop_Chords\\KanyeWest_GoodMorning_CHORDS.mid'
p1289
sg18
S'G'
sg20
I1920
sg21
g22
(S'0.75'
tRp1290
sg24
(lp1291
g1
(g26
g3
NtRp1292
(dp1293
g29
g22
(S'0.7119791666666666666666666667'
tRp1294
sg31
I124800
sg32
I4
sg33
I31
sbag1
(g26
g3
NtRp1295
(dp1296
g29
g22
(S'0.7119791666666666666666666667'
tRp1297
sg31
I124800
sg32
I4
sg33
I35
sbag1
(g26
g3
NtRp1298
(dp1299
g29
g22
(S'0.7119791666666666666666666667'
tRp1300
sg31
I124800
sg32
I4
sg33
I38
sbag1
(g26
g3
NtRp1301
(dp1302
g29
g22
(S'0.7119791666666666666666666667'
tRp1303
sg31
I124800
sg32
I4
sg33
I43
sbasg34
g22
(S'0'
tRp1304
sg36
g22
(S'65'
p1305
tRp1306
sbag1
(g13
g3
NtRp1307
(dp1308
g16
S'T(-5)./mid/Samples/Hip-Hop/HipHop_Chords\\KanyeWest_GoodMorning_CHORDS.mid'
p1309
sg18
S'G'
sg20
I1920
sg21
g22
(S'0.75'
tRp1310
sg24
(lp1311
g1
(g26
g3
NtRp1312
(dp1313
g29
g22
(S'0.7119791666666666666666666667'
tRp1314
sg31
I132480
sg32
I4
sg33
I31
sbag1
(g26
g3
NtRp1315
(dp1316
g29
g22
(S'0.7119791666666666666666666667'
tRp1317
sg31
I132480
sg32
I4
sg33
I35
sbag1
(g26
g3
NtRp1318
(dp1319
g29
g22
(S'0.7119791666666666666666666667'
tRp1320
sg31
I132480
sg32
I4
sg33
I38
sbag1
(g26
g3
NtRp1321
(dp1322
g29
g22
(S'0.7119791666666666666666666667'
tRp1323
sg31
I132480
sg32
I4
sg33
I43
sbasg34
g22
(S'0'
tRp1324
sg36
g22
(S'69'
p1325
tRp1326
sbag1
(g13
g3
NtRp1327
(dp1328
g16
S'T(-5)./mid/Samples/Hip-Hop/HipHop_Chords\\KanyeWest_GoodMorning_CHORDS.mid'
p1329
sg18
S'G'
sg20
I1920
sg21
g22
(S'0.75'
tRp1330
sg24
(lp1331
g1
(g26
g3
NtRp1332
(dp1333
g29
g22
(S'0.7119791666666666666666666667'
tRp1334
sg31
I140160
sg32
I4
sg33
I31
sbag1
(g26
g3
NtRp1335
(dp1336
g29
g22
(S'0.7119791666666666666666666667'
tRp1337
sg31
I140160
sg32
I4
sg33
I35
sbag1
(g26
g3
NtRp1338
(dp1339
g29
g22
(S'0.7119791666666666666666666667'
tRp1340
sg31
I140160
sg32
I4
sg33
I38
sbag1
(g26
g3
NtRp1341
(dp1342
g29
g22
(S'0.7119791666666666666666666667'
tRp1343
sg31
I140160
sg32
I4
sg33
I43
sbasg34
g22
(S'0'
tRp1344
sg36
g22
(S'73'
p1345
tRp1346
sbag1
(g13
g3
NtRp1347
(dp1348
g16
S'T(-5)./mid/Samples/Hip-Hop/HipHop_Chords\\KanyeWest_GoodMorning_CHORDS.mid'
p1349
sg18
S'G'
sg20
I1920
sg21
g22
(S'0.75'
tRp1350
sg24
(lp1351
g1
(g26
g3
NtRp1352
(dp1353
g29
g22
(S'0.7119791666666666666666666667'
tRp1354
sg31
I147840
sg32
I4
sg33
I31
sbag1
(g26
g3
NtRp1355
(dp1356
g29
g22
(S'0.7119791666666666666666666667'
tRp1357
sg31
I147840
sg32
I4
sg33
I35
sbag1
(g26
g3
NtRp1358
(dp1359
g29
g22
(S'0.7119791666666666666666666667'
tRp1360
sg31
I147840
sg32
I4
sg33
I38
sbag1
(g26
g3
NtRp1361
(dp1362
g29
g22
(S'0.7119791666666666666666666667'
tRp1363
sg31
I147840
sg32
I4
sg33
I43
sbasg34
g22
(S'0'
tRp1364
sg36
g22
(S'77'
p1365
tRp1366
sbag1
(g13
g3
NtRp1367
(dp1368
g16
S'T(-5)./mid/Samples/Hip-Hop/HipHop_Chords\\KanyeWest_GoodMorning_CHORDS.mid'
p1369
sg18
S'G'
sg20
I1920
sg21
g22
(S'0.75'
tRp1370
sg24
(lp1371
g1
(g26
g3
NtRp1372
(dp1373
g29
g22
(S'0.7119791666666666666666666667'
tRp1374
sg31
I186240
sg32
I4
sg33
I31
sbag1
(g26
g3
NtRp1375
(dp1376
g29
g22
(S'0.7119791666666666666666666667'
tRp1377
sg31
I186240
sg32
I4
sg33
I35
sbag1
(g26
g3
NtRp1378
(dp1379
g29
g22
(S'0.7119791666666666666666666667'
tRp1380
sg31
I186240
sg32
I4
sg33
I38
sbag1
(g26
g3
NtRp1381
(dp1382
g29
g22
(S'0.7119791666666666666666666667'
tRp1383
sg31
I186240
sg32
I4
sg33
I43
sbasg34
g22
(S'0'
tRp1384
sg36
g22
(S'97'
p1385
tRp1386
sbag1
(g13
g3
NtRp1387
(dp1388
g16
S'T(-5)./mid/Samples/Hip-Hop/HipHop_Chords\\KanyeWest_GoodMorning_CHORDS.mid'
p1389
sg18
S'G'
sg20
I1920
sg21
g22
(S'0.75'
tRp1390
sg24
(lp1391
g1
(g26
g3
NtRp1392
(dp1393
g29
g22
(S'0.7119791666666666666666666667'
tRp1394
sg31
I193920
sg32
I4
sg33
I31
sbag1
(g26
g3
NtRp1395
(dp1396
g29
g22
(S'0.7119791666666666666666666667'
tRp1397
sg31
I193920
sg32
I4
sg33
I35
sbag1
(g26
g3
NtRp1398
(dp1399
g29
g22
(S'0.7119791666666666666666666667'
tRp1400
sg31
I193920
sg32
I4
sg33
I38
sbag1
(g26
g3
NtRp1401
(dp1402
g29
g22
(S'0.7119791666666666666666666667'
tRp1403
sg31
I193920
sg32
I4
sg33
I43
sbasg34
g22
(S'0'
tRp1404
sg36
g22
(S'101'
p1405
tRp1406
sbag1
(g13
g3
NtRp1407
(dp1408
g16
S'T(-5)./mid/Samples/Hip-Hop/HipHop_Chords\\KanyeWest_GoodMorning_CHORDS.mid'
p1409
sg18
S'G'
sg20
I1920
sg21
g22
(S'0.75'
tRp1410
sg24
(lp1411
g1
(g26
g3
NtRp1412
(dp1413
g29
g22
(S'0.7119791666666666666666666667'
tRp1414
sg31
I201600
sg32
I4
sg33
I31
sbag1
(g26
g3
NtRp1415
(dp1416
g29
g22
(S'0.7119791666666666666666666667'
tRp1417
sg31
I201600
sg32
I4
sg33
I35
sbag1
(g26
g3
NtRp1418
(dp1419
g29
g22
(S'0.7119791666666666666666666667'
tRp1420
sg31
I201600
sg32
I4
sg33
I38
sbag1
(g26
g3
NtRp1421
(dp1422
g29
g22
(S'0.7119791666666666666666666667'
tRp1423
sg31
I201600
sg32
I4
sg33
I43
sbasg34
g22
(S'0'
tRp1424
sg36
g22
(S'105'
p1425
tRp1426
sbag1
(g13
g3
NtRp1427
(dp1428
g16
S'T(-5)./mid/Samples/Hip-Hop/HipHop_Chords\\KanyeWest_GoodMorning_CHORDS.mid'
p1429
sg18
S'G'
sg20
I1920
sg21
g22
(S'0.75'
tRp1430
sg24
(lp1431
g1
(g26
g3
NtRp1432
(dp1433
g29
g22
(S'0.7119791666666666666666666667'
tRp1434
sg31
I209280
sg32
I4
sg33
I31
sbag1
(g26
g3
NtRp1435
(dp1436
g29
g22
(S'0.7119791666666666666666666667'
tRp1437
sg31
I209280
sg32
I4
sg33
I35
sbag1
(g26
g3
NtRp1438
(dp1439
g29
g22
(S'0.7119791666666666666666666667'
tRp1440
sg31
I209280
sg32
I4
sg33
I38
sbag1
(g26
g3
NtRp1441
(dp1442
g29
g22
(S'0.7119791666666666666666666667'
tRp1443
sg31
I209280
sg32
I4
sg33
I43
sbasg34
g22
(S'0'
tRp1444
sg36
g22
(S'109'
p1445
tRp1446
sbas(g300
tp1447
(lp1448
g140
ag1
(g13
g3
NtRp1449
(dp1450
g16
S'T(4)./mid/Samples/Hip-Hop/HipHop_Chords\\KanyeWest_Stronger_CHORDS.mid'
p1451
sg18
S'C'
sg20
I1920
sg21
g22
(S'0.5'
tRp1452
sg24
(lp1453
g1
(g26
g3
NtRp1454
(dp1455
g29
g22
(S'0.4947916666666666666666666667'
tRp1456
sg31
I29760
sg32
I0
sg33
I72
sbasg34
g22
(S'0.5'
tRp1457
sg36
g22
(S'15.5'
tRp1458
sbas(g902
tp1459
(lp1460
g204
ag1
(g13
g3
NtRp1461
(dp1462
g16
S'T(4)./mid/Samples/Hip-Hop/HipHop_Chords\\KanyeWest_Stronger_CHORDS.mid'
p1463
sg18
S'D'
sg20
I1920
sg21
g22
(S'0.5'
tRp1464
sg24
(lp1465
g1
(g26
g3
NtRp1466
(dp1467
g29
g22
(S'0.4947916666666666666666666667'
tRp1468
sg31
I24000
sg32
I0
sg33
I60
sbag1
(g26
g3
NtRp1469
(dp1470
g29
g22
(S'0.4947916666666666666666666667'
tRp1471
sg31
I24000
sg32
I0
sg33
I62
sbag1
(g26
g3
NtRp1472
(dp1473
g29
g22
(S'0.4947916666666666666666666667'
tRp1474
sg31
I24000
sg32
I0
sg33
I66
sbag1
(g26
g3
NtRp1475
(dp1476
g29
g22
(S'0.4947916666666666666666666667'
tRp1477
sg31
I24000
sg32
I0
sg33
I69
sbasg34
g22
(S'0.5'
tRp1478
sg36
g22
(S'12.5'
tRp1479
sbas(g140
tp1480
(lp1481
g935
ag1
(g13
g3
NtRp1482
(dp1483
g16
S'T(4)./mid/Samples/Hip-Hop/HipHop_Chords\\KanyeWest_Stronger_CHORDS.mid'
p1484
sg18
g938
sg20
I1920
sg21
g22
(S'1'
tRp1485
sg24
(lp1486
g1
(g26
g3
NtRp1487
(dp1488
g29
g22
(S'0.2447916666666666666666666667'
tRp1489
sg31
I30720
sg32
I0
sg33
I58
sbag1
(g26
g3
NtRp1490
(dp1491
g29
g22
(S'0.2447916666666666666666666667'
tRp1492
sg31
I30720
sg32
I0
sg33
I63
sbag1
(g26
g3
NtRp1493
(dp1494
g29
g22
(S'0.2447916666666666666666666667'
tRp1495
sg31
I30720
sg32
I0
sg33
I67
sbasg34
g22
(S'0'
tRp1496
sg36
g22
(S'16'
p1497
tRp1498
sbas(g408
tp1499
(lp1500
g1
(g13
g3
NtRp1501
(dp1502
g16
S'T(5)./mid/Samples/Hip-Hop/HipHop_Chords\\KanyeWest_ThroughTheWire_CHORDS.mid'
p1503
sg18
S'Em'
p1504
sg20
I1920
sg21
g22
(S'0.5'
tRp1505
sg24
(lp1506
g1
(g26
g3
NtRp1507
(dp1508
g29
g22
(S'0.4973958333333333333333333333'
tRp1509
sg31
I17280
sg32
I2
sg33
I71
sbag1
(g26
g3
NtRp1510
(dp1511
g29
g22
(S'0.4973958333333333333333333333'
tRp1512
sg31
I17280
sg32
I2
sg33
I74
sbag1
(g26
g3
NtRp1513
(dp1514
g29
g22
(S'0.4973958333333333333333333333'
tRp1515
sg31
I17280
sg32
I2
sg33
I76
sbag1
(g26
g3
NtRp1516
(dp1517
g29
g22
(S'0.4973958333333333333333333333'
tRp1518
sg31
I17280
sg32
I2
sg33
I79
sbasg34
g22
(S'0'
tRp1519
sg36
g22
(S'9'
tRp1520
sbas(g740
tp1521
(lp1522
g223
ag1
(g13
g3
NtRp1523
(dp1524
g16
S'T(-5)./mid/Samples/Hip-Hop/HipHop_Chords\\KanyeWest_GoodMorning_CHORDS.mid'
p1525
sg18
S'Gm'
p1526
sg20
I1920
sg21
g22
(S'0.25'
tRp1527
sg24
(lp1528
g1
(g26
g3
NtRp1529
(dp1530
g29
g22
(S'0.2369791666666666666666666667'
tRp1531
sg31
I45600
sg32
I4
sg33
I31
sbag1
(g26
g3
NtRp1532
(dp1533
g29
g22
(S'0.2369791666666666666666666667'
tRp1534
sg31
I45600
sg32
I4
sg33
I38
sbag1
(g26
g3
NtRp1535
(dp1536
g29
g22
(S'0.2369791666666666666666666667'
tRp1537
sg31
I45600
sg32
I4
sg33
I43
sbasg34
g22
(S'0.75'
tRp1538
sg36
g22
(S'23.75'
tRp1539
sbag1
(g13
g3
NtRp1540
(dp1541
g16
S'T(-5)./mid/Samples/Hip-Hop/HipHop_Chords\\KanyeWest_GoodMorning_CHORDS.mid'
p1542
sg18
S'Gm'
p1543
sg20
I1920
sg21
g22
(S'0.25'
tRp1544
sg24
(lp1545
g1
(g26
g3
NtRp1546
(dp1547
g29
g22
(S'0.2369791666666666666666666667'
tRp1548
sg31
I53280
sg32
I4
sg33
I31
sbag1
(g26
g3
NtRp1549
(dp1550
g29
g22
(S'0.2369791666666666666666666667'
tRp1551
sg31
I53280
sg32
I4
sg33
I38
sbag1
(g26
g3
NtRp1552
(dp1553
g29
g22
(S'0.2369791666666666666666666667'
tRp1554
sg31
I53280
sg32
I4
sg33
I43
sbasg34
g22
(S'0.75'
tRp1555
sg36
g22
(S'27.75'
tRp1556
sbag1
(g13
g3
NtRp1557
(dp1558
g16
S'T(-5)./mid/Samples/Hip-Hop/HipHop_Chords\\KanyeWest_GoodMorning_CHORDS.mid'
p1559
sg18
S'Gm'
p1560
sg20
I1920
sg21
g22
(S'0.25'
tRp1561
sg24
(lp1562
g1
(g26
g3
NtRp1563
(dp1564
g29
g22
(S'0.2369791666666666666666666667'
tRp1565
sg31
I99360
sg32
I4
sg33
I31
sbag1
(g26
g3
NtRp1566
(dp1567
g29
g22
(S'0.2369791666666666666666666667'
tRp1568
sg31
I99360
sg32
I4
sg33
I38
sbag1
(g26
g3
NtRp1569
(dp1570
g29
g22
(S'0.2369791666666666666666666667'
tRp1571
sg31
I99360
sg32
I4
sg33
I43
sbasg34
g22
(S'0.75'
tRp1572
sg36
g22
(S'51.75'
tRp1573
sbag1
(g13
g3
NtRp1574
(dp1575
g16
S'T(-5)./mid/Samples/Hip-Hop/HipHop_Chords\\KanyeWest_GoodMorning_CHORDS.mid'
p1576
sg18
S'Gm'
p1577
sg20
I1920
sg21
g22
(S'0.25'
tRp1578
sg24
(lp1579
g1
(g26
g3
NtRp1580
(dp1581
g29
g22
(S'0.2369791666666666666666666667'
tRp1582
sg31
I107040
sg32
I4
sg33
I31
sbag1
(g26
g3
NtRp1583
(dp1584
g29
g22
(S'0.2369791666666666666666666667'
tRp1585
sg31
I107040
sg32
I4
sg33
I38
sbag1
(g26
g3
NtRp1586
(dp1587
g29
g22
(S'0.2369791666666666666666666667'
tRp1588
sg31
I107040
sg32
I4
sg33
I43
sbasg34
g22
(S'0.75'
tRp1589
sg36
g22
(S'55.75'
tRp1590
sbag1
(g13
g3
NtRp1591
(dp1592
g16
S'T(-5)./mid/Samples/Hip-Hop/HipHop_Chords\\KanyeWest_GoodMorning_CHORDS.mid'
p1593
sg18
S'Gm'
p1594
sg20
I1920
sg21
g22
(S'0.25'
tRp1595
sg24
(lp1596
g1
(g26
g3
NtRp1597
(dp1598
g29
g22
(S'0.2369791666666666666666666667'
tRp1599
sg31
I114720
sg32
I4
sg33
I31
sbag1
(g26
g3
NtRp1600
(dp1601
g29
g22
(S'0.2369791666666666666666666667'
tRp1602
sg31
I114720
sg32
I4
sg33
I38
sbag1
(g26
g3
NtRp1603
(dp1604
g29
g22
(S'0.2369791666666666666666666667'
tRp1605
sg31
I114720
sg32
I4
sg33
I43
sbasg34
g22
(S'0.75'
tRp1606
sg36
g22
(S'59.75'
tRp1607
sbag1
(g13
g3
NtRp1608
(dp1609
g16
S'T(-5)./mid/Samples/Hip-Hop/HipHop_Chords\\KanyeWest_GoodMorning_CHORDS.mid'
p1610
sg18
S'Gm'
p1611
sg20
I1920
sg21
g22
(S'0.25'
tRp1612
sg24
(lp1613
g1
(g26
g3
NtRp1614
(dp1615
g29
g22
(S'0.2369791666666666666666666667'
tRp1616
sg31
I160800
sg32
I4
sg33
I31
sbag1
(g26
g3
NtRp1617
(dp1618
g29
g22
(S'0.2369791666666666666666666667'
tRp1619
sg31
I160800
sg32
I4
sg33
I38
sbag1
(g26
g3
NtRp1620
(dp1621
g29
g22
(S'0.2369791666666666666666666667'
tRp1622
sg31
I160800
sg32
I4
sg33
I43
sbasg34
g22
(S'0.75'
tRp1623
sg36
g22
(S'83.75'
tRp1624
sbag1
(g13
g3
NtRp1625
(dp1626
g16
S'T(-5)./mid/Samples/Hip-Hop/HipHop_Chords\\KanyeWest_GoodMorning_CHORDS.mid'
p1627
sg18
S'Gm'
p1628
sg20
I1920
sg21
g22
(S'0.25'
tRp1629
sg24
(lp1630
g1
(g26
g3
NtRp1631
(dp1632
g29
g22
(S'0.2369791666666666666666666667'
tRp1633
sg31
I168480
sg32
I4
sg33
I31
sbag1
(g26
g3
NtRp1634
(dp1635
g29
g22
(S'0.2369791666666666666666666667'
tRp1636
sg31
I168480
sg32
I4
sg33
I38
sbag1
(g26
g3
NtRp1637
(dp1638
g29
g22
(S'0.2369791666666666666666666667'
tRp1639
sg31
I168480
sg32
I4
sg33
I43
sbasg34
g22
(S'0.75'
tRp1640
sg36
g22
(S'87.75'
tRp1641
sbag1
(g13
g3
NtRp1642
(dp1643
g16
S'T(-5)./mid/Samples/Hip-Hop/HipHop_Chords\\KanyeWest_GoodMorning_CHORDS.mid'
p1644
sg18
S'Gm'
p1645
sg20
I1920
sg21
g22
(S'0.25'
tRp1646
sg24
(lp1647
g1
(g26
g3
NtRp1648
(dp1649
g29
g22
(S'0.2369791666666666666666666667'
tRp1650
sg31
I176160
sg32
I4
sg33
I31
sbag1
(g26
g3
NtRp1651
(dp1652
g29
g22
(S'0.2369791666666666666666666667'
tRp1653
sg31
I176160
sg32
I4
sg33
I38
sbag1
(g26
g3
NtRp1654
(dp1655
g29
g22
(S'0.2369791666666666666666666667'
tRp1656
sg31
I176160
sg32
I4
sg33
I43
sbasg34
g22
(S'0.75'
tRp1657
sg36
g22
(S'91.75'
tRp1658
sbas(g935
tp1659
(lp1660
g1
(g13
g3
NtRp1661
(dp1662
g16
S'T(4)./mid/Samples/Hip-Hop/HipHop_Chords\\KanyeWest_Stronger_CHORDS.mid'
p1663
sg18
S'Gm'
p1664
sg20
I1920
sg21
g22
(S'1'
tRp1665
sg24
(lp1666
g1
(g26
g3
NtRp1667
(dp1668
g29
g22
(S'0.9947916666666666666666666667'
tRp1669
sg31
I17280
sg32
I0
sg33
I62
sbag1
(g26
g3
NtRp1670
(dp1671
g29
g22
(S'0.9947916666666666666666666667'
tRp1672
sg31
I17280
sg32
I0
sg33
I67
sbag1
(g26
g3
NtRp1673
(dp1674
g29
g22
(S'0.9947916666666666666666666667'
tRp1675
sg31
I17280
sg32
I0
sg33
I70
sbasg34
g22
(S'0'
tRp1676
sg36
g22
(S'9'
tRp1677
sbag332
as(g223
tp1678
(lp1679
g1
(g13
g3
NtRp1680
(dp1681
g16
S'T(-5)./mid/Samples/Hip-Hop/HipHop_Chords\\KanyeWest_GoodMorning_CHORDS.mid'
p1682
sg18
S'Am'
p1683
sg20
I1920
sg21
g22
(S'3.75'
tRp1684
sg24
(lp1685
g1
(g26
g3
NtRp1686
(dp1687
g29
g22
(S'2.849479166666666666666666667'
tRp1688
sg31
I38400
sg32
I4
sg33
I33
sbag1
(g26
g3
NtRp1689
(dp1690
g29
g22
(S'2.849479166666666666666666667'
tRp1691
sg31
I38400
sg32
I4
sg33
I40
sbag1
(g26
g3
NtRp1692
(dp1693
g29
g22
(S'2.849479166666666666666666667'
tRp1694
sg31
I38400
sg32
I4
sg33
I45
sbasg34
g22
(S'0'
tRp1695
sg36
g22
(S'20'
p1696
tRp1697
sbag1
(g13
g3
NtRp1698
(dp1699
g16
S'T(-5)./mid/Samples/Hip-Hop/HipHop_Chords\\KanyeWest_GoodMorning_CHORDS.mid'
p1700
sg18
S'Am'
p1701
sg20
I1920
sg21
g22
(S'3.75'
tRp1702
sg24
(lp1703
g1
(g26
g3
NtRp1704
(dp1705
g29
g22
(S'2.849479166666666666666666667'
tRp1706
sg31
I46080
sg32
I4
sg33
I33
sbag1
(g26
g3
NtRp1707
(dp1708
g29
g22
(S'2.849479166666666666666666667'
tRp1709
sg31
I46080
sg32
I4
sg33
I40
sbag1
(g26
g3
NtRp1710
(dp1711
g29
g22
(S'2.849479166666666666666666667'
tRp1712
sg31
I46080
sg32
I4
sg33
I45
sbasg34
g22
(S'0'
tRp1713
sg36
g22
(S'24'
p1714
tRp1715
sbag66
ag1
(g13
g3
NtRp1716
(dp1717
g16
S'T(-5)./mid/Samples/Hip-Hop/HipHop_Chords\\KanyeWest_GoodMorning_CHORDS.mid'
p1718
sg18
S'Am'
p1719
sg20
I1920
sg21
g22
(S'3.75'
tRp1720
sg24
(lp1721
g1
(g26
g3
NtRp1722
(dp1723
g29
g22
(S'2.849479166666666666666666667'
tRp1724
sg31
I99840
sg32
I4
sg33
I33
sbag1
(g26
g3
NtRp1725
(dp1726
g29
g22
(S'2.849479166666666666666666667'
tRp1727
sg31
I99840
sg32
I4
sg33
I40
sbag1
(g26
g3
NtRp1728
(dp1729
g29
g22
(S'2.849479166666666666666666667'
tRp1730
sg31
I99840
sg32
I4
sg33
I45
sbasg34
g22
(S'0'
tRp1731
sg36
g22
(S'52'
p1732
tRp1733
sbag1
(g13
g3
NtRp1734
(dp1735
g16
S'T(-5)./mid/Samples/Hip-Hop/HipHop_Chords\\KanyeWest_GoodMorning_CHORDS.mid'
p1736
sg18
S'Am'
p1737
sg20
I1920
sg21
g22
(S'3.75'
tRp1738
sg24
(lp1739
g1
(g26
g3
NtRp1740
(dp1741
g29
g22
(S'2.849479166666666666666666667'
tRp1742
sg31
I107520
sg32
I4
sg33
I33
sbag1
(g26
g3
NtRp1743
(dp1744
g29
g22
(S'2.849479166666666666666666667'
tRp1745
sg31
I107520
sg32
I4
sg33
I40
sbag1
(g26
g3
NtRp1746
(dp1747
g29
g22
(S'2.849479166666666666666666667'
tRp1748
sg31
I107520
sg32
I4
sg33
I45
sbasg34
g22
(S'0'
tRp1749
sg36
g22
(S'56'
p1750
tRp1751
sbag1
(g13
g3
NtRp1752
(dp1753
g16
S'T(-5)./mid/Samples/Hip-Hop/HipHop_Chords\\KanyeWest_GoodMorning_CHORDS.mid'
p1754
sg18
S'Am'
p1755
sg20
I1920
sg21
g22
(S'4'
tRp1756
sg24
(lp1757
g1
(g26
g3
NtRp1758
(dp1759
g29
g22
(S'2.849479166666666666666666667'
tRp1760
sg31
I115200
sg32
I4
sg33
I33
sbag1
(g26
g3
NtRp1761
(dp1762
g29
g22
(S'2.849479166666666666666666667'
tRp1763
sg31
I115200
sg32
I4
sg33
I40
sbag1
(g26
g3
NtRp1764
(dp1765
g29
g22
(S'2.849479166666666666666666667'
tRp1766
sg31
I115200
sg32
I4
sg33
I45
sbasg34
g22
(S'0'
tRp1767
sg36
g22
(S'60'
p1768
tRp1769
sbag1
(g13
g3
NtRp1770
(dp1771
g16
S'T(-5)./mid/Samples/Hip-Hop/HipHop_Chords\\KanyeWest_GoodMorning_CHORDS.mid'
p1772
sg18
S'Am'
p1773
sg20
I1920
sg21
g22
(S'3.75'
tRp1774
sg24
(lp1775
g1
(g26
g3
NtRp1776
(dp1777
g29
g22
(S'2.849479166666666666666666667'
tRp1778
sg31
I161280
sg32
I4
sg33
I33
sbag1
(g26
g3
NtRp1779
(dp1780
g29
g22
(S'2.849479166666666666666666667'
tRp1781
sg31
I161280
sg32
I4
sg33
I40
sbag1
(g26
g3
NtRp1782
(dp1783
g29
g22
(S'2.849479166666666666666666667'
tRp1784
sg31
I161280
sg32
I4
sg33
I45
sbasg34
g22
(S'0'
tRp1785
sg36
g22
(S'84'
p1786
tRp1787
sbag1
(g13
g3
NtRp1788
(dp1789
g16
S'T(-5)./mid/Samples/Hip-Hop/HipHop_Chords\\KanyeWest_GoodMorning_CHORDS.mid'
p1790
sg18
S'Am'
p1791
sg20
I1920
sg21
g22
(S'3.75'
tRp1792
sg24
(lp1793
g1
(g26
g3
NtRp1794
(dp1795
g29
g22
(S'2.849479166666666666666666667'
tRp1796
sg31
I168960
sg32
I4
sg33
I33
sbag1
(g26
g3
NtRp1797
(dp1798
g29
g22
(S'2.849479166666666666666666667'
tRp1799
sg31
I168960
sg32
I4
sg33
I40
sbag1
(g26
g3
NtRp1800
(dp1801
g29
g22
(S'2.849479166666666666666666667'
tRp1802
sg31
I168960
sg32
I4
sg33
I45
sbasg34
g22
(S'0'
tRp1803
sg36
g22
(S'88'
p1804
tRp1805
sbag1
(g13
g3
NtRp1806
(dp1807
g16
S'T(-5)./mid/Samples/Hip-Hop/HipHop_Chords\\KanyeWest_GoodMorning_CHORDS.mid'
p1808
sg18
S'Am'
p1809
sg20
I1920
sg21
g22
(S'4'
tRp1810
sg24
(lp1811
g1
(g26
g3
NtRp1812
(dp1813
g29
g22
(S'2.849479166666666666666666667'
tRp1814
sg31
I176640
sg32
I4
sg33
I33
sbag1
(g26
g3
NtRp1815
(dp1816
g29
g22
(S'2.849479166666666666666666667'
tRp1817
sg31
I176640
sg32
I4
sg33
I40
sbag1
(g26
g3
NtRp1818
(dp1819
g29
g22
(S'2.849479166666666666666666667'
tRp1820
sg31
I176640
sg32
I4
sg33
I45
sbasg34
g22
(S'0'
tRp1821
sg36
g22
(S'92'
p1822
tRp1823
sbag38
as(g428
tp1824
(lp1825
g181
as(g758
tp1826
(lp1827
g1
(g13
g3
NtRp1828
(dp1829
g16
S'T(-5)./mid/Samples/Hip-Hop/HipHop_Chords\\KanyeWest_GoodMorning_CHORDS.mid'
p1830
sg18
S'C'
sg20
I1920
sg21
g22
(S'0.75'
tRp1831
sg24
(lp1832
g1
(g26
g3
NtRp1833
(dp1834
g29
g22
(S'0.7119791666666666666666666667'
tRp1835
sg31
I7680
sg32
I4
sg33
I36
sbag1
(g26
g3
NtRp1836
(dp1837
g29
g22
(S'0.7119791666666666666666666667'
tRp1838
sg31
I7680
sg32
I4
sg33
I40
sbag1
(g26
g3
NtRp1839
(dp1840
g29
g22
(S'0.7119791666666666666666666667'
tRp1841
sg31
I7680
sg32
I4
sg33
I43
sbag1
(g26
g3
NtRp1842
(dp1843
g29
g22
(S'0.7119791666666666666666666667'
tRp1844
sg31
I7680
sg32
I4
sg33
I48
sbasg34
g22
(S'0'
tRp1845
sg36
g22
(S'4'
tRp1846
sbag1
(g13
g3
NtRp1847
(dp1848
g16
S'T(-5)./mid/Samples/Hip-Hop/HipHop_Chords\\KanyeWest_GoodMorning_CHORDS.mid'
p1849
sg18
S'C'
sg20
I1920
sg21
g22
(S'0.75'
tRp1850
sg24
(lp1851
g1
(g26
g3
NtRp1852
(dp1853
g29
g22
(S'0.7119791666666666666666666667'
tRp1854
sg31
I15360
sg32
I4
sg33
I36
sbag1
(g26
g3
NtRp1855
(dp1856
g29
g22
(S'0.7119791666666666666666666667'
tRp1857
sg31
I15360
sg32
I4
sg33
I40
sbag1
(g26
g3
NtRp1858
(dp1859
g29
g22
(S'0.7119791666666666666666666667'
tRp1860
sg31
I15360
sg32
I4
sg33
I43
sbag1
(g26
g3
NtRp1861
(dp1862
g29
g22
(S'0.7119791666666666666666666667'
tRp1863
sg31
I15360
sg32
I4
sg33
I48
sbasg34
g22
(S'0'
tRp1864
sg36
g22
(S'8'
tRp1865
sbag1
(g13
g3
NtRp1866
(dp1867
g16
S'T(-5)./mid/Samples/Hip-Hop/HipHop_Chords\\KanyeWest_GoodMorning_CHORDS.mid'
p1868
sg18
S'C'
sg20
I1920
sg21
g22
(S'0.75'
tRp1869
sg24
(lp1870
g1
(g26
g3
NtRp1871
(dp1872
g29
g22
(S'0.7119791666666666666666666667'
tRp1873
sg31
I23040
sg32
I4
sg33
I36
sbag1
(g26
g3
NtRp1874
(dp1875
g29
g22
(S'0.7119791666666666666666666667'
tRp1876
sg31
I23040
sg32
I4
sg33
I40
sbag1
(g26
g3
NtRp1877
(dp1878
g29
g22
(S'0.7119791666666666666666666667'
tRp1879
sg31
I23040
sg32
I4
sg33
I43
sbag1
(g26
g3
NtRp1880
(dp1881
g29
g22
(S'0.7119791666666666666666666667'
tRp1882
sg31
I23040
sg32
I4
sg33
I48
sbasg34
g22
(S'0'
tRp1883
sg36
g22
(S'12'
p1884
tRp1885
sbag1
(g13
g3
NtRp1886
(dp1887
g16
S'T(-5)./mid/Samples/Hip-Hop/HipHop_Chords\\KanyeWest_GoodMorning_CHORDS.mid'
p1888
sg18
S'C'
sg20
I1920
sg21
g22
(S'0.75'
tRp1889
sg24
(lp1890
g1
(g26
g3
NtRp1891
(dp1892
g29
g22
(S'0.7119791666666666666666666667'
tRp1893
sg31
I69120
sg32
I4
sg33
I36
sbag1
(g26
g3
NtRp1894
(dp1895
g29
g22
(S'0.7119791666666666666666666667'
tRp1896
sg31
I69120
sg32
I4
sg33
I40
sbag1
(g26
g3
NtRp1897
(dp1898
g29
g22
(S'0.7119791666666666666666666667'
tRp1899
sg31
I69120
sg32
I4
sg33
I43
sbag1
(g26
g3
NtRp1900
(dp1901
g29
g22
(S'0.7119791666666666666666666667'
tRp1902
sg31
I69120
sg32
I4
sg33
I48
sbasg34
g22
(S'0'
tRp1903
sg36
g22
(S'36'
p1904
tRp1905
sbag1
(g13
g3
NtRp1906
(dp1907
g16
S'T(-5)./mid/Samples/Hip-Hop/HipHop_Chords\\KanyeWest_GoodMorning_CHORDS.mid'
p1908
sg18
S'C'
sg20
I1920
sg21
g22
(S'0.75'
tRp1909
sg24
(lp1910
g1
(g26
g3
NtRp1911
(dp1912
g29
g22
(S'0.7119791666666666666666666667'
tRp1913
sg31
I76800
sg32
I4
sg33
I36
sbag1
(g26
g3
NtRp1914
(dp1915
g29
g22
(S'0.7119791666666666666666666667'
tRp1916
sg31
I76800
sg32
I4
sg33
I40
sbag1
(g26
g3
NtRp1917
(dp1918
g29
g22
(S'0.7119791666666666666666666667'
tRp1919
sg31
I76800
sg32
I4
sg33
I43
sbag1
(g26
g3
NtRp1920
(dp1921
g29
g22
(S'0.7119791666666666666666666667'
tRp1922
sg31
I76800
sg32
I4
sg33
I48
sbasg34
g22
(S'0'
tRp1923
sg36
g22
(S'40'
p1924
tRp1925
sbag1
(g13
g3
NtRp1926
(dp1927
g16
S'T(-5)./mid/Samples/Hip-Hop/HipHop_Chords\\KanyeWest_GoodMorning_CHORDS.mid'
p1928
sg18
S'C'
sg20
I1920
sg21
g22
(S'0.75'
tRp1929
sg24
(lp1930
g1
(g26
g3
NtRp1931
(dp1932
g29
g22
(S'0.7119791666666666666666666667'
tRp1933
sg31
I84480
sg32
I4
sg33
I36
sbag1
(g26
g3
NtRp1934
(dp1935
g29
g22
(S'0.7119791666666666666666666667'
tRp1936
sg31
I84480
sg32
I4
sg33
I40
sbag1
(g26
g3
NtRp1937
(dp1938
g29
g22
(S'0.7119791666666666666666666667'
tRp1939
sg31
I84480
sg32
I4
sg33
I43
sbag1
(g26
g3
NtRp1940
(dp1941
g29
g22
(S'0.7119791666666666666666666667'
tRp1942
sg31
I84480
sg32
I4
sg33
I48
sbasg34
g22
(S'0'
tRp1943
sg36
g22
(S'44'
p1944
tRp1945
sbag1
(g13
g3
NtRp1946
(dp1947
g16
S'T(-5)./mid/Samples/Hip-Hop/HipHop_Chords\\KanyeWest_GoodMorning_CHORDS.mid'
p1948
sg18
S'Am'
p1949
sg20
I1920
sg21
g22
(S'3.75'
tRp1950
sg24
(lp1951
g1
(g26
g3
NtRp1952
(dp1953
g29
g22
(S'2.849479166666666666666666667'
tRp1954
sg31
I92160
sg32
I4
sg33
I33
sbag1
(g26
g3
NtRp1955
(dp1956
g29
g22
(S'2.849479166666666666666666667'
tRp1957
sg31
I92160
sg32
I4
sg33
I40
sbag1
(g26
g3
NtRp1958
(dp1959
g29
g22
(S'2.849479166666666666666666667'
tRp1960
sg31
I92160
sg32
I4
sg33
I45
sbasg34
g22
(S'0'
tRp1961
sg36
g22
(S'48'
p1962
tRp1963
sbag1
(g13
g3
NtRp1964
(dp1965
g16
S'T(-5)./mid/Samples/Hip-Hop/HipHop_Chords\\KanyeWest_GoodMorning_CHORDS.mid'
p1966
sg18
S'C'
sg20
I1920
sg21
g22
(S'0.75'
tRp1967
sg24
(lp1968
g1
(g26
g3
NtRp1969
(dp1970
g29
g22
(S'0.7119791666666666666666666667'
tRp1971
sg31
I130560
sg32
I4
sg33
I36
sbag1
(g26
g3
NtRp1972
(dp1973
g29
g22
(S'0.7119791666666666666666666667'
tRp1974
sg31
I130560
sg32
I4
sg33
I40
sbag1
(g26
g3
NtRp1975
(dp1976
g29
g22
(S'0.7119791666666666666666666667'
tRp1977
sg31
I130560
sg32
I4
sg33
I43
sbag1
(g26
g3
NtRp1978
(dp1979
g29
g22
(S'0.7119791666666666666666666667'
tRp1980
sg31
I130560
sg32
I4
sg33
I48
sbasg34
g22
(S'0'
tRp1981
sg36
g22
(S'68'
p1982
tRp1983
sbag1
(g13
g3
NtRp1984
(dp1985
g16
S'T(-5)./mid/Samples/Hip-Hop/HipHop_Chords\\KanyeWest_GoodMorning_CHORDS.mid'
p1986
sg18
S'C'
sg20
I1920
sg21
g22
(S'0.75'
tRp1987
sg24
(lp1988
g1
(g26
g3
NtRp1989
(dp1990
g29
g22
(S'0.7119791666666666666666666667'
tRp1991
sg31
I138240
sg32
I4
sg33
I36
sbag1
(g26
g3
NtRp1992
(dp1993
g29
g22
(S'0.7119791666666666666666666667'
tRp1994
sg31
I138240
sg32
I4
sg33
I40
sbag1
(g26
g3
NtRp1995
(dp1996
g29
g22
(S'0.7119791666666666666666666667'
tRp1997
sg31
I138240
sg32
I4
sg33
I43
sbag1
(g26
g3
NtRp1998
(dp1999
g29
g22
(S'0.7119791666666666666666666667'
tRp2000
sg31
I138240
sg32
I4
sg33
I48
sbasg34
g22
(S'0'
tRp2001
sg36
g22
(S'72'
p2002
tRp2003
sbag1
(g13
g3
NtRp2004
(dp2005
g16
S'T(-5)./mid/Samples/Hip-Hop/HipHop_Chords\\KanyeWest_GoodMorning_CHORDS.mid'
p2006
sg18
S'C'
sg20
I1920
sg21
g22
(S'0.75'
tRp2007
sg24
(lp2008
g1
(g26
g3
NtRp2009
(dp2010
g29
g22
(S'0.7119791666666666666666666667'
tRp2011
sg31
I145920
sg32
I4
sg33
I36
sbag1
(g26
g3
NtRp2012
(dp2013
g29
g22
(S'0.7119791666666666666666666667'
tRp2014
sg31
I145920
sg32
I4
sg33
I40
sbag1
(g26
g3
NtRp2015
(dp2016
g29
g22
(S'0.7119791666666666666666666667'
tRp2017
sg31
I145920
sg32
I4
sg33
I43
sbag1
(g26
g3
NtRp2018
(dp2019
g29
g22
(S'0.7119791666666666666666666667'
tRp2020
sg31
I145920
sg32
I4
sg33
I48
sbasg34
g22
(S'0'
tRp2021
sg36
g22
(S'76'
p2022
tRp2023
sbag1
(g13
g3
NtRp2024
(dp2025
g16
S'T(-5)./mid/Samples/Hip-Hop/HipHop_Chords\\KanyeWest_GoodMorning_CHORDS.mid'
p2026
sg18
S'Am'
p2027
sg20
I1920
sg21
g22
(S'3.75'
tRp2028
sg24
(lp2029
g1
(g26
g3
NtRp2030
(dp2031
g29
g22
(S'2.849479166666666666666666667'
tRp2032
sg31
I153600
sg32
I4
sg33
I33
sbag1
(g26
g3
NtRp2033
(dp2034
g29
g22
(S'2.849479166666666666666666667'
tRp2035
sg31
I153600
sg32
I4
sg33
I40
sbag1
(g26
g3
NtRp2036
(dp2037
g29
g22
(S'2.849479166666666666666666667'
tRp2038
sg31
I153600
sg32
I4
sg33
I45
sbasg34
g22
(S'0'
tRp2039
sg36
g22
(S'80'
p2040
tRp2041
sbag1
(g13
g3
NtRp2042
(dp2043
g16
S'T(-5)./mid/Samples/Hip-Hop/HipHop_Chords\\KanyeWest_GoodMorning_CHORDS.mid'
p2044
sg18
S'C'
sg20
I1920
sg21
g22
(S'0.75'
tRp2045
sg24
(lp2046
g1
(g26
g3
NtRp2047
(dp2048
g29
g22
(S'0.7119791666666666666666666667'
tRp2049
sg31
I192000
sg32
I4
sg33
I36
sbag1
(g26
g3
NtRp2050
(dp2051
g29
g22
(S'0.7119791666666666666666666667'
tRp2052
sg31
I192000
sg32
I4
sg33
I40
sbag1
(g26
g3
NtRp2053
(dp2054
g29
g22
(S'0.7119791666666666666666666667'
tRp2055
sg31
I192000
sg32
I4
sg33
I43
sbag1
(g26
g3
NtRp2056
(dp2057
g29
g22
(S'0.7119791666666666666666666667'
tRp2058
sg31
I192000
sg32
I4
sg33
I48
sbasg34
g22
(S'0'
tRp2059
sg36
g22
(S'100'
p2060
tRp2061
sbag1
(g13
g3
NtRp2062
(dp2063
g16
S'T(-5)./mid/Samples/Hip-Hop/HipHop_Chords\\KanyeWest_GoodMorning_CHORDS.mid'
p2064
sg18
S'C'
sg20
I1920
sg21
g22
(S'0.75'
tRp2065
sg24
(lp2066
g1
(g26
g3
NtRp2067
(dp2068
g29
g22
(S'0.7119791666666666666666666667'
tRp2069
sg31
I199680
sg32
I4
sg33
I36
sbag1
(g26
g3
NtRp2070
(dp2071
g29
g22
(S'0.7119791666666666666666666667'
tRp2072
sg31
I199680
sg32
I4
sg33
I40
sbag1
(g26
g3
NtRp2073
(dp2074
g29
g22
(S'0.7119791666666666666666666667'
tRp2075
sg31
I199680
sg32
I4
sg33
I43
sbag1
(g26
g3
NtRp2076
(dp2077
g29
g22
(S'0.7119791666666666666666666667'
tRp2078
sg31
I199680
sg32
I4
sg33
I48
sbasg34
g22
(S'0'
tRp2079
sg36
g22
(S'104'
p2080
tRp2081
sbag1
(g13
g3
NtRp2082
(dp2083
g16
S'T(-5)./mid/Samples/Hip-Hop/HipHop_Chords\\KanyeWest_GoodMorning_CHORDS.mid'
p2084
sg18
S'C'
sg20
I1920
sg21
g22
(S'0.75'
tRp2085
sg24
(lp2086
g1
(g26
g3
NtRp2087
(dp2088
g29
g22
(S'0.7119791666666666666666666667'
tRp2089
sg31
I207360
sg32
I4
sg33
I36
sbag1
(g26
g3
NtRp2090
(dp2091
g29
g22
(S'0.7119791666666666666666666667'
tRp2092
sg31
I207360
sg32
I4
sg33
I40
sbag1
(g26
g3
NtRp2093
(dp2094
g29
g22
(S'0.7119791666666666666666666667'
tRp2095
sg31
I207360
sg32
I4
sg33
I43
sbag1
(g26
g3
NtRp2096
(dp2097
g29
g22
(S'0.7119791666666666666666666667'
tRp2098
sg31
I207360
sg32
I4
sg33
I48
sbasg34
g22
(S'0'
tRp2099
sg36
g22
(S'108'
p2100
tRp2101
sbas(g38
tp2102
(lp2103
g1038
as(g525
tp2104
(lp2105
g568
as(g843
tp2106
(lp2107
g669
ag1
(g13
g3
NtRp2108
(dp2109
g16
S'T(-6)./mid/Samples/Hip-Hop/HipHop_Chords\\KanyeWest_AllTheLights_CHORDS.mid'
p2110
sg18
S'F'
sg20
I1920
sg21
g22
(S'0.5'
tRp2111
sg24
(lp2112
g1
(g26
g3
NtRp2113
(dp2114
g29
g22
(S'0.5'
tRp2115
sg31
I84480
sg32
I2
sg33
I35
sbasg34
g22
(S'0'
tRp2116
sg36
g22
(S'44'
p2117
tRp2118
sbag1
(g13
g3
NtRp2119
(dp2120
g16
S'T(-6)./mid/Samples/Hip-Hop/HipHop_Chords\\KanyeWest_AllTheLights_CHORDS.mid'
p2121
sg18
S'F'
sg20
I1920
sg21
g22
(S'0.5'
tRp2122
sg24
(lp2123
g1
(g26
g3
NtRp2124
(dp2125
g29
g22
(S'0.5'
tRp2126
sg31
I130560
sg32
I2
sg33
I35
sbasg34
g22
(S'0'
tRp2127
sg36
g22
(S'68'
p2128
tRp2129
sbas(g150
tp2130
(lp2131
g101
as(g316
tp2132
(lp2133
g962
as(g625
tp2134
(lp2135
g891
ag170
ag1
(g13
g3
NtRp2136
(dp2137
g16
S'T(-6)./mid/Samples/Hip-Hop/HipHop_Chords\\KanyeWest_AllTheLights_CHORDS.mid'
p2138
sg18
S'Am'
p2139
sg20
I1920
sg21
g22
(S'0.125'
tRp2140
sg24
(lp2141
g1
(g26
g3
NtRp2142
(dp2143
g29
g22
(S'0.125'
tRp2144
sg31
I77280
sg32
I2
sg33
I35
sbasg34
g22
(S'0.25'
tRp2145
sg36
g22
(S'40.25'
tRp2146
sbag1
(g13
g3
NtRp2147
(dp2148
g16
S'T(-6)./mid/Samples/Hip-Hop/HipHop_Chords\\KanyeWest_AllTheLights_CHORDS.mid'
p2149
sg18
S'Am'
p2150
sg20
I1920
sg21
g22
(S'0.12500000000000000000000000'
tRp2151
sg24
(lp2152
g1
(g26
g3
NtRp2153
(dp2154
g29
g22
(S'0.125'
tRp2155
sg31
I81130
sg32
I2
sg33
I35
sbasg34
g22
(S'0.2552083333333333333333333333'
tRp2156
sg36
g22
(S'42.25520833333333333333333333'
tRp2157
sbag1
(g13
g3
NtRp2158
(dp2159
g16
S'T(-6)./mid/Samples/Hip-Hop/HipHop_Chords\\KanyeWest_AllTheLights_CHORDS.mid'
p2160
sg18
S'Am'
p2161
sg20
I1920
sg21
g22
(S'0.125'
tRp2162
sg24
(lp2163
g1
(g26
g3
NtRp2164
(dp2165
g29
g22
(S'0.125'
tRp2166
sg31
I123360
sg32
I2
sg33
I35
sbasg34
g22
(S'0.25'
tRp2167
sg36
g22
(S'64.25'
tRp2168
sbag1
(g13
g3
NtRp2169
(dp2170
g16
S'T(-6)./mid/Samples/Hip-Hop/HipHop_Chords\\KanyeWest_AllTheLights_CHORDS.mid'
p2171
sg18
S'Am'
p2172
sg20
I1920
sg21
g22
(S'0.12500000000000000000000000'
tRp2173
sg24
(lp2174
g1
(g26
g3
NtRp2175
(dp2176
g29
g22
(S'0.125'
tRp2177
sg31
I127210
sg32
I2
sg33
I35
sbasg34
g22
(S'0.2552083333333333333333333333'
tRp2178
sg36
g22
(S'66.25520833333333333333333333'
tRp2179
sbas(g66
tp2180
(lp2181
g1
(g13
g3
NtRp2182
(dp2183
g16
S'T(-5)./mid/Samples/Hip-Hop/HipHop_Chords\\KanyeWest_GoodMorning_CHORDS.mid'
p2184
sg18
S'C'
sg20
I1920
sg21
g22
(S'0.75'
tRp2185
sg24
(lp2186
g1
(g26
g3
NtRp2187
(dp2188
g29
g22
(S'0.7119791666666666666666666667'
tRp2189
sg31
I61440
sg32
I4
sg33
I36
sbag1
(g26
g3
NtRp2190
(dp2191
g29
g22
(S'0.7119791666666666666666666667'
tRp2192
sg31
I61440
sg32
I4
sg33
I40
sbag1
(g26
g3
NtRp2193
(dp2194
g29
g22
(S'0.7119791666666666666666666667'
tRp2195
sg31
I61440
sg32
I4
sg33
I43
sbag1
(g26
g3
NtRp2196
(dp2197
g29
g22
(S'0.7119791666666666666666666667'
tRp2198
sg31
I61440
sg32
I4
sg33
I48
sbasg34
g22
(S'0'
tRp2199
sg36
g22
(S'32'
p2200
tRp2201
sbag1
(g13
g3
NtRp2202
(dp2203
g16
S'T(-5)./mid/Samples/Hip-Hop/HipHop_Chords\\KanyeWest_GoodMorning_CHORDS.mid'
p2204
sg18
S'C'
sg20
I1920
sg21
g22
(S'0.75'
tRp2205
sg24
(lp2206
g1
(g26
g3
NtRp2207
(dp2208
g29
g22
(S'0.7119791666666666666666666667'
tRp2209
sg31
I122880
sg32
I4
sg33
I36
sbag1
(g26
g3
NtRp2210
(dp2211
g29
g22
(S'0.7119791666666666666666666667'
tRp2212
sg31
I122880
sg32
I4
sg33
I40
sbag1
(g26
g3
NtRp2213
(dp2214
g29
g22
(S'0.7119791666666666666666666667'
tRp2215
sg31
I122880
sg32
I4
sg33
I43
sbag1
(g26
g3
NtRp2216
(dp2217
g29
g22
(S'0.7119791666666666666666666667'
tRp2218
sg31
I122880
sg32
I4
sg33
I48
sbasg34
g22
(S'0'
tRp2219
sg36
g22
(S'64'
p2220
tRp2221
sbag1
(g13
g3
NtRp2222
(dp2223
g16
S'T(-5)./mid/Samples/Hip-Hop/HipHop_Chords\\KanyeWest_GoodMorning_CHORDS.mid'
p2224
sg18
S'C'
sg20
I1920
sg21
g22
(S'0.75'
tRp2225
sg24
(lp2226
g1
(g26
g3
NtRp2227
(dp2228
g29
g22
(S'0.7119791666666666666666666667'
tRp2229
sg31
I184320
sg32
I4
sg33
I36
sbag1
(g26
g3
NtRp2230
(dp2231
g29
g22
(S'0.7119791666666666666666666667'
tRp2232
sg31
I184320
sg32
I4
sg33
I40
sbag1
(g26
g3
NtRp2233
(dp2234
g29
g22
(S'0.7119791666666666666666666667'
tRp2235
sg31
I184320
sg32
I4
sg33
I43
sbag1
(g26
g3
NtRp2236
(dp2237
g29
g22
(S'0.7119791666666666666666666667'
tRp2238
sg31
I184320
sg32
I4
sg33
I48
sbasg34
g22
(S'0'
tRp2239
sg36
g22
(S'96'
p2240
tRp2241
sbas(g441
tp2242
(lp2243
g680
as(g978
tp2244
(lp2245
g389
as(g669
tp2246
(lp2247
g637
ag952
ag1
(g13
g3
NtRp2248
(dp2249
g16
S'T(-6)./mid/Samples/Hip-Hop/HipHop_Chords\\KanyeWest_AllTheLights_CHORDS.mid'
p2250
sg18
S'F'
sg20
I1920
sg21
g22
(S'0.5'
tRp2251
sg24
(lp2252
g1
(g26
g3
NtRp2253
(dp2254
g29
g22
(S'0.5'
tRp2255
sg31
I43200
sg32
I2
sg33
I36
sbasg34
g22
(S'0.5'
tRp2256
sg36
g22
(S'22.5'
tRp2257
sbag578
ag1
(g13
g3
NtRp2258
(dp2259
g16
S'T(-6)./mid/Samples/Hip-Hop/HipHop_Chords\\KanyeWest_AllTheLights_CHORDS.mid'
p2260
sg18
S'F'
sg20
I1920
sg21
g22
(S'0.5'
tRp2261
sg24
(lp2262
g1
(g26
g3
NtRp2263
(dp2264
g29
g22
(S'0.5'
tRp2265
sg31
I85440
sg32
I2
sg33
I36
sbasg34
g22
(S'0.5'
tRp2266
sg36
g22
(S'44.5'
tRp2267
sbag1
(g13
g3
NtRp2268
(dp2269
g16
S'T(-6)./mid/Samples/Hip-Hop/HipHop_Chords\\KanyeWest_AllTheLights_CHORDS.mid'
p2270
sg18
S'F'
sg20
I1920
sg21
g22
(S'0.5'
tRp2271
sg24
(lp2272
g1
(g26
g3
NtRp2273
(dp2274
g29
g22
(S'0.5'
tRp2275
sg31
I87360
sg32
I2
sg33
I33
sbasg34
g22
(S'0.5'
tRp2276
sg36
g22
(S'45.5'
tRp2277
sbag1
(g13
g3
NtRp2278
(dp2279
g16
S'T(-6)./mid/Samples/Hip-Hop/HipHop_Chords\\KanyeWest_AllTheLights_CHORDS.mid'
p2280
sg18
S'F'
sg20
I1920
sg21
g22
(S'0.5'
tRp2281
sg24
(lp2282
g1
(g26
g3
NtRp2283
(dp2284
g29
g22
(S'0.5'
tRp2285
sg31
I89280
sg32
I2
sg33
I36
sbasg34
g22
(S'0.5'
tRp2286
sg36
g22
(S'46.5'
tRp2287
sbag1
(g13
g3
NtRp2288
(dp2289
g16
S'T(-6)./mid/Samples/Hip-Hop/HipHop_Chords\\KanyeWest_AllTheLights_CHORDS.mid'
p2290
sg18
S'F'
sg20
I1920
sg21
g22
(S'16.5'
tRp2291
sg24
(lp2292
g1
(g26
g3
NtRp2293
(dp2294
g29
g22
(S'0.5'
tRp2295
sg31
I91200
sg32
I2
sg33
I33
sbasg34
g22
(S'0.5'
tRp2296
sg36
g22
(S'47.5'
tRp2297
sbag1
(g13
g3
NtRp2298
(dp2299
g16
S'T(-6)./mid/Samples/Hip-Hop/HipHop_Chords\\KanyeWest_AllTheLights_CHORDS.mid'
p2300
sg18
S'F'
sg20
I1920
sg21
g22
(S'0.5'
tRp2301
sg24
(lp2302
g1
(g26
g3
NtRp2303
(dp2304
g29
g22
(S'0.5'
tRp2305
sg31
I131520
sg32
I2
sg33
I36
sbasg34
g22
(S'0.5'
tRp2306
sg36
g22
(S'68.5'
tRp2307
sbag1
(g13
g3
NtRp2308
(dp2309
g16
S'T(-6)./mid/Samples/Hip-Hop/HipHop_Chords\\KanyeWest_AllTheLights_CHORDS.mid'
p2310
sg18
S'F'
sg20
I1920
sg21
g22
(S'0.5'
tRp2311
sg24
(lp2312
g1
(g26
g3
NtRp2313
(dp2314
g29
g22
(S'0.5'
tRp2315
sg31
I133440
sg32
I2
sg33
I33
sbasg34
g22
(S'0.5'
tRp2316
sg36
g22
(S'69.5'
tRp2317
sbag1
(g13
g3
NtRp2318
(dp2319
g16
S'T(-6)./mid/Samples/Hip-Hop/HipHop_Chords\\KanyeWest_AllTheLights_CHORDS.mid'
p2320
sg18
S'F'
sg20
I1920
sg21
g22
(S'0.5'
tRp2321
sg24
(lp2322
g1
(g26
g3
NtRp2323
(dp2324
g29
g22
(S'0.5'
tRp2325
sg31
I135360
sg32
I2
sg33
I36
sbasg34
g22
(S'0.5'
tRp2326
sg36
g22
(S'70.5'
tRp2327
sbag1
(g13
g3
NtRp2328
(dp2329
g16
S'T(-6)./mid/Samples/Hip-Hop/HipHop_Chords\\KanyeWest_AllTheLights_CHORDS.mid'
p2330
sg18
S'F'
sg20
I1920
sg21
g22
(S'0.5'
tRp2331
sg24
(lp2332
g1
(g26
g3
NtRp2333
(dp2334
g29
g22
(S'0.5'
tRp2335
sg31
I137280
sg32
I2
sg33
I33
sbasg34
g22
(S'0.5'
tRp2336
sg36
g22
(S'71.5'
tRp2337
sbas(g467
tp2338
(lp2339
g316
ag978
as(g680
tp2340
(lp2341
g605
as(g778
tp2342
(lp2343
g194
ag1
(g13
g3
NtRp2344
(dp2345
g16
S'T(-5)./mid/Samples/Hip-Hop/HipHop_Chords\\KanyeWest_GoodMorning_CHORDS.mid'
p2346
sg18
S'C'
sg20
I1920
sg21
g22
(S'0.25'
tRp2347
sg24
(lp2348
g1
(g26
g3
NtRp2349
(dp2350
g29
g22
(S'0.2369791666666666666666666667'
tRp2351
sg31
I9120
sg32
I4
sg33
I48
sbasg34
g22
(S'0.75'
tRp2352
sg36
g22
(S'4.75'
tRp2353
sbag1
(g13
g3
NtRp2354
(dp2355
g16
S'T(-5)./mid/Samples/Hip-Hop/HipHop_Chords\\KanyeWest_GoodMorning_CHORDS.mid'
p2356
sg18
S'C'
sg20
I1920
sg21
g22
(S'0.25'
tRp2357
sg24
(lp2358
g1
(g26
g3
NtRp2359
(dp2360
g29
g22
(S'0.2369791666666666666666666667'
tRp2361
sg31
I16800
sg32
I4
sg33
I48
sbasg34
g22
(S'0.75'
tRp2362
sg36
g22
(S'8.75'
tRp2363
sbag1
(g13
g3
NtRp2364
(dp2365
g16
S'T(-5)./mid/Samples/Hip-Hop/HipHop_Chords\\KanyeWest_GoodMorning_CHORDS.mid'
p2366
sg18
S'C'
sg20
I1920
sg21
g22
(S'0.25'
tRp2367
sg24
(lp2368
g1
(g26
g3
NtRp2369
(dp2370
g29
g22
(S'0.2369791666666666666666666667'
tRp2371
sg31
I24480
sg32
I4
sg33
I48
sbasg34
g22
(S'0.75'
tRp2372
sg36
g22
(S'12.75'
tRp2373
sbag1
(g13
g3
NtRp2374
(dp2375
g16
S'T(-5)./mid/Samples/Hip-Hop/HipHop_Chords\\KanyeWest_GoodMorning_CHORDS.mid'
p2376
sg18
S'C'
sg20
I1920
sg21
g22
(S'0.25'
tRp2377
sg24
(lp2378
g1
(g26
g3
NtRp2379
(dp2380
g29
g22
(S'0.2369791666666666666666666667'
tRp2381
sg31
I62880
sg32
I4
sg33
I48
sbasg34
g22
(S'0.75'
tRp2382
sg36
g22
(S'32.75'
tRp2383
sbag1
(g13
g3
NtRp2384
(dp2385
g16
S'T(-5)./mid/Samples/Hip-Hop/HipHop_Chords\\KanyeWest_GoodMorning_CHORDS.mid'
p2386
sg18
S'C'
sg20
I1920
sg21
g22
(S'0.25'
tRp2387
sg24
(lp2388
g1
(g26
g3
NtRp2389
(dp2390
g29
g22
(S'0.2369791666666666666666666667'
tRp2391
sg31
I70560
sg32
I4
sg33
I48
sbasg34
g22
(S'0.75'
tRp2392
sg36
g22
(S'36.75'
tRp2393
sbag1
(g13
g3
NtRp2394
(dp2395
g16
S'T(-5)./mid/Samples/Hip-Hop/HipHop_Chords\\KanyeWest_GoodMorning_CHORDS.mid'
p2396
sg18
S'C'
sg20
I1920
sg21
g22
(S'0.25'
tRp2397
sg24
(lp2398
g1
(g26
g3
NtRp2399
(dp2400
g29
g22
(S'0.2369791666666666666666666667'
tRp2401
sg31
I78240
sg32
I4
sg33
I48
sbasg34
g22
(S'0.75'
tRp2402
sg36
g22
(S'40.75'
tRp2403
sbag1
(g13
g3
NtRp2404
(dp2405
g16
S'T(-5)./mid/Samples/Hip-Hop/HipHop_Chords\\KanyeWest_GoodMorning_CHORDS.mid'
p2406
sg18
S'C'
sg20
I1920
sg21
g22
(S'0.25'
tRp2407
sg24
(lp2408
g1
(g26
g3
NtRp2409
(dp2410
g29
g22
(S'0.2369791666666666666666666667'
tRp2411
sg31
I85920
sg32
I4
sg33
I48
sbasg34
g22
(S'0.75'
tRp2412
sg36
g22
(S'44.75'
tRp2413
sbag1
(g13
g3
NtRp2414
(dp2415
g16
S'T(-5)./mid/Samples/Hip-Hop/HipHop_Chords\\KanyeWest_GoodMorning_CHORDS.mid'
p2416
sg18
S'C'
sg20
I1920
sg21
g22
(S'0.25'
tRp2417
sg24
(lp2418
g1
(g26
g3
NtRp2419
(dp2420
g29
g22
(S'0.2369791666666666666666666667'
tRp2421
sg31
I124320
sg32
I4
sg33
I48
sbasg34
g22
(S'0.75'
tRp2422
sg36
g22
(S'64.75'
tRp2423
sbag1
(g13
g3
NtRp2424
(dp2425
g16
S'T(-5)./mid/Samples/Hip-Hop/HipHop_Chords\\KanyeWest_GoodMorning_CHORDS.mid'
p2426
sg18
S'C'
sg20
I1920
sg21
g22
(S'0.25'
tRp2427
sg24
(lp2428
g1
(g26
g3
NtRp2429
(dp2430
g29
g22
(S'0.2369791666666666666666666667'
tRp2431
sg31
I132000
sg32
I4
sg33
I48
sbasg34
g22
(S'0.75'
tRp2432
sg36
g22
(S'68.75'
tRp2433
sbag1
(g13
g3
NtRp2434
(dp2435
g16
S'T(-5)./mid/Samples/Hip-Hop/HipHop_Chords\\KanyeWest_GoodMorning_CHORDS.mid'
p2436
sg18
S'C'
sg20
I1920
sg21
g22
(S'0.25'
tRp2437
sg24
(lp2438
g1
(g26
g3
NtRp2439
(dp2440
g29
g22
(S'0.2369791666666666666666666667'
tRp2441
sg31
I139680
sg32
I4
sg33
I48
sbasg34
g22
(S'0.75'
tRp2442
sg36
g22
(S'72.75'
tRp2443
sbag1
(g13
g3
NtRp2444
(dp2445
g16
S'T(-5)./mid/Samples/Hip-Hop/HipHop_Chords\\KanyeWest_GoodMorning_CHORDS.mid'
p2446
sg18
S'C'
sg20
I1920
sg21
g22
(S'0.25'
tRp2447
sg24
(lp2448
g1
(g26
g3
NtRp2449
(dp2450
g29
g22
(S'0.2369791666666666666666666667'
tRp2451
sg31
I147360
sg32
I4
sg33
I48
sbasg34
g22
(S'0.75'
tRp2452
sg36
g22
(S'76.75'
tRp2453
sbag1
(g13
g3
NtRp2454
(dp2455
g16
S'T(-5)./mid/Samples/Hip-Hop/HipHop_Chords\\KanyeWest_GoodMorning_CHORDS.mid'
p2456
sg18
S'C'
sg20
I1920
sg21
g22
(S'0.25'
tRp2457
sg24
(lp2458
g1
(g26
g3
NtRp2459
(dp2460
g29
g22
(S'0.2369791666666666666666666667'
tRp2461
sg31
I185760
sg32
I4
sg33
I48
sbasg34
g22
(S'0.75'
tRp2462
sg36
g22
(S'96.75'
tRp2463
sbag1
(g13
g3
NtRp2464
(dp2465
g16
S'T(-5)./mid/Samples/Hip-Hop/HipHop_Chords\\KanyeWest_GoodMorning_CHORDS.mid'
p2466
sg18
S'C'
sg20
I1920
sg21
g22
(S'0.25'
tRp2467
sg24
(lp2468
g1
(g26
g3
NtRp2469
(dp2470
g29
g22
(S'0.2369791666666666666666666667'
tRp2471
sg31
I193440
sg32
I4
sg33
I48
sbasg34
g22
(S'0.75'
tRp2472
sg36
g22
(S'100.75'
tRp2473
sbag1
(g13
g3
NtRp2474
(dp2475
g16
S'T(-5)./mid/Samples/Hip-Hop/HipHop_Chords\\KanyeWest_GoodMorning_CHORDS.mid'
p2476
sg18
S'C'
sg20
I1920
sg21
g22
(S'0.25'
tRp2477
sg24
(lp2478
g1
(g26
g3
NtRp2479
(dp2480
g29
g22
(S'0.2369791666666666666666666667'
tRp2481
sg31
I201120
sg32
I4
sg33
I48
sbasg34
g22
(S'0.75'
tRp2482
sg36
g22
(S'104.75'
tRp2483
sbag1
(g13
g3
NtRp2484
(dp2485
g16
S'T(-5)./mid/Samples/Hip-Hop/HipHop_Chords\\KanyeWest_GoodMorning_CHORDS.mid'
p2486
sg18
S'C'
sg20
I1920
sg21
g22
(S'0.25'
tRp2487
sg24
(lp2488
g1
(g26
g3
NtRp2489
(dp2490
g29
g22
(S'0.2369791666666666666666666667'
tRp2491
sg31
I208800
sg32
I4
sg33
I48
sbasg34
g22
(S'0.75'
tRp2492
sg36
g22
(S'108.75'
tRp2493
sbas(g84
tp2494
(lp2495
g503
as(g557
tp2496
(lp2497
g14
ag1
(g13
g3
NtRp2498
(dp2499
g16
S'T(4)./mid/Samples/Hip-Hop/HipHop_Chords\\KanyeWest_Stronger_CHORDS.mid'
p2500
sg18
S'Gm'
p2501
sg20
I1920
sg21
g22
(S'0.25'
tRp2502
sg24
(lp2503
g1
(g26
g3
NtRp2504
(dp2505
g29
g22
(S'0.2447916666666666666666666667'
tRp2506
sg31
I26400
sg32
I0
sg33
I74
sbasg34
g22
(S'0.75'
tRp2507
sg36
g22
(S'13.75'
tRp2508
sbas(g918
tp2509
(lp2510
g588
as(g647
tp2511
(lp2512
g150
as(g332
tp2513
(lp2514
g1038
as(g503
tp2515
(lp2516
g647
as(g101
tp2517
(lp2518
g408
as(g279
tp2519
(lp2520
g1
(g13
g3
NtRp2521
(dp2522
g16
S'T(-5)./mid/Samples/Hip-Hop/HipHop_Chords\\KanyeWest_GoodMorning_CHORDS.mid'
p2523
sg18
S'Gm'
p2524
sg20
I1920
sg21
g22
(S'0.25'
tRp2525
sg24
(lp2526
g1
(g26
g3
NtRp2527
(dp2528
g29
g22
(S'0.2369791666666666666666666667'
tRp2529
sg31
I245280
sg32
I4
sg33
I31
sbag1
(g26
g3
NtRp2530
(dp2531
g29
g22
(S'0.2369791666666666666666666667'
tRp2532
sg31
I245280
sg32
I4
sg33
I38
sbag1
(g26
g3
NtRp2533
(dp2534
g29
g22
(S'0.2369791666666666666666666667'
tRp2535
sg31
I245280
sg32
I4
sg33
I43
sbasg34
g22
(S'0.75'
tRp2536
sg36
g22
(S'127.75'
tRp2537
sbas(g353
tp2538
(lp2539
g740
as(g605
tp2540
(lp2541
g467
ag1
(g13
g3
NtRp2542
(dp2543
g16
S'T(5)./mid/Samples/Hip-Hop/HipHop_Chords\\KanyeWest_ThroughTheWire_CHORDS.mid'
p2544
sg18
S'Em'
p2545
sg20
I1920
sg21
g22
(S'0.5'
tRp2546
sg24
(lp2547
g1
(g26
g3
NtRp2548
(dp2549
g29
g22
(S'0.4973958333333333333333333333'
tRp2550
sg31
I18240
sg32
I2
sg33
I67
sbag1
(g26
g3
NtRp2551
(dp2552
g29
g22
(S'0.4973958333333333333333333333'
tRp2553
sg31
I18240
sg32
I2
sg33
I73
sbag1
(g26
g3
NtRp2554
(dp2555
g29
g22
(S'0.4973958333333333333333333333'
tRp2556
sg31
I18240
sg32
I2
sg33
I76
sbag1
(g26
g3
NtRp2557
(dp2558
g29
g22
(S'0.4973958333333333333333333333'
tRp2559
sg31
I18240
sg32
I2
sg33
I77
sbasg34
g22
(S'0.5'
tRp2560
sg36
g22
(S'9.5'
tRp2561
sbas(g702
tp2562
(lp2563
g56
ag1
(g13
g3
NtRp2564
(dp2565
g16
S'T(4)./mid/Samples/Hip-Hop/HipHop_Chords\\KanyeWest_Stronger_CHORDS.mid'
p2566
sg18
S'F'
sg20
I1920
sg21
g22
(S'0.75'
tRp2567
sg24
(lp2568
g1
(g26
g3
NtRp2569
(dp2570
g29
g22
(S'0.7447916666666666666666666667'
tRp2571
sg31
I27360
sg32
I0
sg33
I72
sbasg34
g22
(S'0.25'
tRp2572
sg36
g22
(S'14.25'
tRp2573
sbas(g370
tp2574
(lp2575
g240
ag1
(g13
g3
NtRp2576
(dp2577
g16
S'T(-5)./mid/Samples/Hip-Hop/HipHop_Chords\\KanyeWest_GoodMorning_CHORDS.mid'
p2578
sg18
S'G'
sg20
I1920
sg21
g22
(S'0.25'
tRp2579
sg24
(lp2580
g1
(g26
g3
NtRp2581
(dp2582
g29
g22
(S'0.2369791666666666666666666667'
tRp2583
sg31
I11040
sg32
I4
sg33
I43
sbasg34
g22
(S'0.75'
tRp2584
sg36
g22
(S'5.75'
tRp2585
sbag1
(g13
g3
NtRp2586
(dp2587
g16
S'T(-5)./mid/Samples/Hip-Hop/HipHop_Chords\\KanyeWest_GoodMorning_CHORDS.mid'
p2588
sg18
S'G'
sg20
I1920
sg21
g22
(S'0.25'
tRp2589
sg24
(lp2590
g1
(g26
g3
NtRp2591
(dp2592
g29
g22
(S'0.2369791666666666666666666667'
tRp2593
sg31
I18720
sg32
I4
sg33
I43
sbasg34
g22
(S'0.75'
tRp2594
sg36
g22
(S'9.75'
tRp2595
sbag1
(g13
g3
NtRp2596
(dp2597
g16
S'T(-5)./mid/Samples/Hip-Hop/HipHop_Chords\\KanyeWest_GoodMorning_CHORDS.mid'
p2598
sg18
S'G'
sg20
I1920
sg21
g22
(S'0.25'
tRp2599
sg24
(lp2600
g1
(g26
g3
NtRp2601
(dp2602
g29
g22
(S'0.2369791666666666666666666667'
tRp2603
sg31
I26400
sg32
I4
sg33
I43
sbasg34
g22
(S'0.75'
tRp2604
sg36
g22
(S'13.75'
tRp2605
sbag1
(g13
g3
NtRp2606
(dp2607
g16
S'T(-5)./mid/Samples/Hip-Hop/HipHop_Chords\\KanyeWest_GoodMorning_CHORDS.mid'
p2608
sg18
S'G'
sg20
I1920
sg21
g22
(S'0.25'
tRp2609
sg24
(lp2610
g1
(g26
g3
NtRp2611
(dp2612
g29
g22
(S'0.2369791666666666666666666667'
tRp2613
sg31
I64800
sg32
I4
sg33
I43
sbasg34
g22
(S'0.75'
tRp2614
sg36
g22
(S'33.75'
tRp2615
sbag1
(g13
g3
NtRp2616
(dp2617
g16
S'T(-5)./mid/Samples/Hip-Hop/HipHop_Chords\\KanyeWest_GoodMorning_CHORDS.mid'
p2618
sg18
S'G'
sg20
I1920
sg21
g22
(S'0.25'
tRp2619
sg24
(lp2620
g1
(g26
g3
NtRp2621
(dp2622
g29
g22
(S'0.2369791666666666666666666667'
tRp2623
sg31
I72480
sg32
I4
sg33
I43
sbasg34
g22
(S'0.75'
tRp2624
sg36
g22
(S'37.75'
tRp2625
sbag1
(g13
g3
NtRp2626
(dp2627
g16
S'T(-5)./mid/Samples/Hip-Hop/HipHop_Chords\\KanyeWest_GoodMorning_CHORDS.mid'
p2628
sg18
S'G'
sg20
I1920
sg21
g22
(S'0.25'
tRp2629
sg24
(lp2630
g1
(g26
g3
NtRp2631
(dp2632
g29
g22
(S'0.2369791666666666666666666667'
tRp2633
sg31
I80160
sg32
I4
sg33
I43
sbasg34
g22
(S'0.75'
tRp2634
sg36
g22
(S'41.75'
tRp2635
sbag1
(g13
g3
NtRp2636
(dp2637
g16
S'T(-5)./mid/Samples/Hip-Hop/HipHop_Chords\\KanyeWest_GoodMorning_CHORDS.mid'
p2638
sg18
S'G'
sg20
I1920
sg21
g22
(S'0.25'
tRp2639
sg24
(lp2640
g1
(g26
g3
NtRp2641
(dp2642
g29
g22
(S'0.2369791666666666666666666667'
tRp2643
sg31
I87840
sg32
I4
sg33
I43
sbasg34
g22
(S'0.75'
tRp2644
sg36
g22
(S'45.75'
tRp2645
sbag1
(g13
g3
NtRp2646
(dp2647
g16
S'T(-5)./mid/Samples/Hip-Hop/HipHop_Chords\\KanyeWest_GoodMorning_CHORDS.mid'
p2648
sg18
S'G'
sg20
I1920
sg21
g22
(S'0.25'
tRp2649
sg24
(lp2650
g1
(g26
g3
NtRp2651
(dp2652
g29
g22
(S'0.2369791666666666666666666667'
tRp2653
sg31
I126240
sg32
I4
sg33
I43
sbasg34
g22
(S'0.75'
tRp2654
sg36
g22
(S'65.75'
tRp2655
sbag1
(g13
g3
NtRp2656
(dp2657
g16
S'T(-5)./mid/Samples/Hip-Hop/HipHop_Chords\\KanyeWest_GoodMorning_CHORDS.mid'
p2658
sg18
S'G'
sg20
I1920
sg21
g22
(S'0.25'
tRp2659
sg24
(lp2660
g1
(g26
g3
NtRp2661
(dp2662
g29
g22
(S'0.2369791666666666666666666667'
tRp2663
sg31
I133920
sg32
I4
sg33
I43
sbasg34
g22
(S'0.75'
tRp2664
sg36
g22
(S'69.75'
tRp2665
sbag1
(g13
g3
NtRp2666
(dp2667
g16
S'T(-5)./mid/Samples/Hip-Hop/HipHop_Chords\\KanyeWest_GoodMorning_CHORDS.mid'
p2668
sg18
S'G'
sg20
I1920
sg21
g22
(S'0.25'
tRp2669
sg24
(lp2670
g1
(g26
g3
NtRp2671
(dp2672
g29
g22
(S'0.2369791666666666666666666667'
tRp2673
sg31
I141600
sg32
I4
sg33
I43
sbasg34
g22
(S'0.75'
tRp2674
sg36
g22
(S'73.75'
tRp2675
sbag1
(g13
g3
NtRp2676
(dp2677
g16
S'T(-5)./mid/Samples/Hip-Hop/HipHop_Chords\\KanyeWest_GoodMorning_CHORDS.mid'
p2678
sg18
S'G'
sg20
I1920
sg21
g22
(S'0.25'
tRp2679
sg24
(lp2680
g1
(g26
g3
NtRp2681
(dp2682
g29
g22
(S'0.2369791666666666666666666667'
tRp2683
sg31
I149280
sg32
I4
sg33
I43
sbasg34
g22
(S'0.75'
tRp2684
sg36
g22
(S'77.75'
tRp2685
sbag1
(g13
g3
NtRp2686
(dp2687
g16
S'T(-5)./mid/Samples/Hip-Hop/HipHop_Chords\\KanyeWest_GoodMorning_CHORDS.mid'
p2688
sg18
S'G'
sg20
I1920
sg21
g22
(S'0.25'
tRp2689
sg24
(lp2690
g1
(g26
g3
NtRp2691
(dp2692
g29
g22
(S'0.2369791666666666666666666667'
tRp2693
sg31
I187680
sg32
I4
sg33
I43
sbasg34
g22
(S'0.75'
tRp2694
sg36
g22
(S'97.75'
tRp2695
sbag1
(g13
g3
NtRp2696
(dp2697
g16
S'T(-5)./mid/Samples/Hip-Hop/HipHop_Chords\\KanyeWest_GoodMorning_CHORDS.mid'
p2698
sg18
S'G'
sg20
I1920
sg21
g22
(S'0.25'
tRp2699
sg24
(lp2700
g1
(g26
g3
NtRp2701
(dp2702
g29
g22
(S'0.2369791666666666666666666667'
tRp2703
sg31
I195360
sg32
I4
sg33
I43
sbasg34
g22
(S'0.75'
tRp2704
sg36
g22
(S'101.75'
tRp2705
sbag1
(g13
g3
NtRp2706
(dp2707
g16
S'T(-5)./mid/Samples/Hip-Hop/HipHop_Chords\\KanyeWest_GoodMorning_CHORDS.mid'
p2708
sg18
S'G'
sg20
I1920
sg21
g22
(S'0.25'
tRp2709
sg24
(lp2710
g1
(g26
g3
NtRp2711
(dp2712
g29
g22
(S'0.2369791666666666666666666667'
tRp2713
sg31
I203040
sg32
I4
sg33
I43
sbasg34
g22
(S'0.75'
tRp2714
sg36
g22
(S'105.75'
tRp2715
sbag1
(g13
g3
NtRp2716
(dp2717
g16
S'T(-5)./mid/Samples/Hip-Hop/HipHop_Chords\\KanyeWest_GoodMorning_CHORDS.mid'
p2718
sg18
S'G'
sg20
I1920
sg21
g22
(S'0.25'
tRp2719
sg24
(lp2720
g1
(g26
g3
NtRp2721
(dp2722
g29
g22
(S'0.2369791666666666666666666667'
tRp2723
sg31
I210720
sg32
I4
sg33
I43
sbasg34
g22
(S'0.75'
tRp2724
sg36
g22
(S'109.75'
tRp2725
sbas(g204
tp2726
(lp2727
g998
ag1
(g13
g3
NtRp2728
(dp2729
g16
S'T(4)./mid/Samples/Hip-Hop/HipHop_Chords\\KanyeWest_Stronger_CHORDS.mid'
p2730
sg18
S'Gm'
p2731
sg20
I1920
sg21
g22
(S'0.5'
tRp2732
sg24
(lp2733
g1
(g26
g3
NtRp2734
(dp2735
g29
g22
(S'0.4947916666666666666666666667'
tRp2736
sg31
I24960
sg32
I0
sg33
I70
sbag1
(g26
g3
NtRp2737
(dp2738
g29
g22
(S'0.9947916666666666666666666667'
tRp2739
sg31
I24960
sg32
I0
sg33
I62
sbag1
(g26
g3
NtRp2740
(dp2741
g29
g22
(S'0.9947916666666666666666666667'
tRp2742
sg31
I24960
sg32
I0
sg33
I67
sbasg34
g22
(S'0'
tRp2743
sg36
g22
(S'13'
p2744
tRp2745
sbas(S'start_token'
p2746
tp2747
(lp2748
g1038
ag797
ag1038
ag625
ag1038
ag778
ag1038
ag250
as(g568
tp2749
(lp2750
g457
as(g578
tp2751
(lp2752
g1
(g13
g3
NtRp2753
(dp2754
g16
S'T(-6)./mid/Samples/Hip-Hop/HipHop_Chords\\KanyeWest_AllTheLights_CHORDS.mid'
p2755
sg18
S'Am'
p2756
sg20
I1920
sg21
g22
(S'0.25'
tRp2757
sg24
(lp2758
g1
(g26
g3
NtRp2759
(dp2760
g29
g22
(S'0.25'
tRp2761
sg31
I76800
sg32
I2
sg33
I40
sbasg34
g22
(S'0'
tRp2762
sg36
g22
(S'40'
p2763
tRp2764
sbag1
(g13
g3
NtRp2765
(dp2766
g16
S'T(-6)./mid/Samples/Hip-Hop/HipHop_Chords\\KanyeWest_AllTheLights_CHORDS.mid'
p2767
sg18
S'Am'
p2768
sg20
I1920
sg21
g22
(S'0.25'
tRp2769
sg24
(lp2770
g1
(g26
g3
NtRp2771
(dp2772
g29
g22
(S'0.25'
tRp2773
sg31
I122880
sg32
I2
sg33
I40
sbasg34
g22
(S'0'
tRp2774
sg36
g22
(S'64'
p2775
tRp2776
sbas(g14
tp2777
(lp2778
g702
ag1
(g13
g3
NtRp2779
(dp2780
g16
S'T(4)./mid/Samples/Hip-Hop/HipHop_Chords\\KanyeWest_Stronger_CHORDS.mid'
p2781
sg18
S'F'
sg20
I1920
sg21
g22
(S'0.25'
tRp2782
sg24
(lp2783
g1
(g26
g3
NtRp2784
(dp2785
g29
g22
(S'0.9947916666666666666666666667'
tRp2786
sg31
I26880
sg32
I0
sg33
I60
sbag1
(g26
g3
NtRp2787
(dp2788
g29
g22
(S'0.9947916666666666666666666667'
tRp2789
sg31
I26880
sg32
I0
sg33
I65
sbag1
(g26
g3
NtRp2790
(dp2791
g29
g22
(S'0.9947916666666666666666666667'
tRp2792
sg31
I26880
sg32
I0
sg33
I69
sbasg34
g22
(S'0'
tRp2793
sg36
g22
(S'14'
p2794
tRp2795
sbas(g56
tp2796
(lp2797
g300
ag1
(g13
g3
NtRp2798
(dp2799
g16
S'T(4)./mid/Samples/Hip-Hop/HipHop_Chords\\KanyeWest_Stronger_CHORDS.mid'
p2800
sg18
S'C'
sg20
I1920
sg21
g22
(S'0.5'
tRp2801
sg24
(lp2802
g1
(g26
g3
NtRp2803
(dp2804
g29
g22
(S'0.9947916666666666666666666667'
tRp2805
sg31
I28800
sg32
I0
sg33
I60
sbag1
(g26
g3
NtRp2806
(dp2807
g29
g22
(S'0.9947916666666666666666666667'
tRp2808
sg31
I28800
sg32
I0
sg33
I64
sbag1
(g26
g3
NtRp2809
(dp2810
g29
g22
(S'0.9947916666666666666666666667'
tRp2811
sg31
I28800
sg32
I0
sg33
I67
sbasg34
g22
(S'0'
tRp2812
sg36
g22
(S'15'
p2813
tRp2814
sbas(g240
tp2815
(lp2816
g758
ag1
(g13
g3
NtRp2817
(dp2818
g16
S'T(-5)./mid/Samples/Hip-Hop/HipHop_Chords\\KanyeWest_GoodMorning_CHORDS.mid'
p2819
sg18
S'Am'
p2820
sg20
I1920
sg21
g22
(S'2'
tRp2821
sg24
(lp2822
g1
(g26
g3
NtRp2823
(dp2824
g29
g22
(S'1.899479166666666666666666667'
tRp2825
sg31
I11520
sg32
I4
sg33
I33
sbag1
(g26
g3
NtRp2826
(dp2827
g29
g22
(S'1.899479166666666666666666667'
tRp2828
sg31
I11520
sg32
I4
sg33
I36
sbag1
(g26
g3
NtRp2829
(dp2830
g29
g22
(S'1.899479166666666666666666667'
tRp2831
sg31
I11520
sg32
I4
sg33
I40
sbag1
(g26
g3
NtRp2832
(dp2833
g29
g22
(S'1.899479166666666666666666667'
tRp2834
sg31
I11520
sg32
I4
sg33
I45
sbasg34
g22
(S'0'
tRp2835
sg36
g22
(S'6'
tRp2836
sbag1
(g13
g3
NtRp2837
(dp2838
g16
S'T(-5)./mid/Samples/Hip-Hop/HipHop_Chords\\KanyeWest_GoodMorning_CHORDS.mid'
p2839
sg18
S'Am'
p2840
sg20
I1920
sg21
g22
(S'2'
tRp2841
sg24
(lp2842
g1
(g26
g3
NtRp2843
(dp2844
g29
g22
(S'1.899479166666666666666666667'
tRp2845
sg31
I19200
sg32
I4
sg33
I33
sbag1
(g26
g3
NtRp2846
(dp2847
g29
g22
(S'1.899479166666666666666666667'
tRp2848
sg31
I19200
sg32
I4
sg33
I36
sbag1
(g26
g3
NtRp2849
(dp2850
g29
g22
(S'1.899479166666666666666666667'
tRp2851
sg31
I19200
sg32
I4
sg33
I40
sbag1
(g26
g3
NtRp2852
(dp2853
g29
g22
(S'1.899479166666666666666666667'
tRp2854
sg31
I19200
sg32
I4
sg33
I45
sbasg34
g22
(S'0'
tRp2855
sg36
g22
(S'10'
p2856
tRp2857
sbag853
ag1
(g13
g3
NtRp2858
(dp2859
g16
S'T(-5)./mid/Samples/Hip-Hop/HipHop_Chords\\KanyeWest_GoodMorning_CHORDS.mid'
p2860
sg18
S'Am'
p2861
sg20
I1920
sg21
g22
(S'2'
tRp2862
sg24
(lp2863
g1
(g26
g3
NtRp2864
(dp2865
g29
g22
(S'1.899479166666666666666666667'
tRp2866
sg31
I65280
sg32
I4
sg33
I33
sbag1
(g26
g3
NtRp2867
(dp2868
g29
g22
(S'1.899479166666666666666666667'
tRp2869
sg31
I65280
sg32
I4
sg33
I36
sbag1
(g26
g3
NtRp2870
(dp2871
g29
g22
(S'1.899479166666666666666666667'
tRp2872
sg31
I65280
sg32
I4
sg33
I40
sbag1
(g26
g3
NtRp2873
(dp2874
g29
g22
(S'1.899479166666666666666666667'
tRp2875
sg31
I65280
sg32
I4
sg33
I45
sbasg34
g22
(S'0'
tRp2876
sg36
g22
(S'34'
p2877
tRp2878
sbag1
(g13
g3
NtRp2879
(dp2880
g16
S'T(-5)./mid/Samples/Hip-Hop/HipHop_Chords\\KanyeWest_GoodMorning_CHORDS.mid'
p2881
sg18
S'Am'
p2882
sg20
I1920
sg21
g22
(S'2'
tRp2883
sg24
(lp2884
g1
(g26
g3
NtRp2885
(dp2886
g29
g22
(S'1.899479166666666666666666667'
tRp2887
sg31
I72960
sg32
I4
sg33
I33
sbag1
(g26
g3
NtRp2888
(dp2889
g29
g22
(S'1.899479166666666666666666667'
tRp2890
sg31
I72960
sg32
I4
sg33
I36
sbag1
(g26
g3
NtRp2891
(dp2892
g29
g22
(S'1.899479166666666666666666667'
tRp2893
sg31
I72960
sg32
I4
sg33
I40
sbag1
(g26
g3
NtRp2894
(dp2895
g29
g22
(S'1.899479166666666666666666667'
tRp2896
sg31
I72960
sg32
I4
sg33
I45
sbasg34
g22
(S'0'
tRp2897
sg36
g22
(S'38'
p2898
tRp2899
sbag1
(g13
g3
NtRp2900
(dp2901
g16
S'T(-5)./mid/Samples/Hip-Hop/HipHop_Chords\\KanyeWest_GoodMorning_CHORDS.mid'
p2902
sg18
S'Am'
p2903
sg20
I1920
sg21
g22
(S'2'
tRp2904
sg24
(lp2905
g1
(g26
g3
NtRp2906
(dp2907
g29
g22
(S'1.899479166666666666666666667'
tRp2908
sg31
I80640
sg32
I4
sg33
I33
sbag1
(g26
g3
NtRp2909
(dp2910
g29
g22
(S'1.899479166666666666666666667'
tRp2911
sg31
I80640
sg32
I4
sg33
I36
sbag1
(g26
g3
NtRp2912
(dp2913
g29
g22
(S'1.899479166666666666666666667'
tRp2914
sg31
I80640
sg32
I4
sg33
I40
sbag1
(g26
g3
NtRp2915
(dp2916
g29
g22
(S'1.899479166666666666666666667'
tRp2917
sg31
I80640
sg32
I4
sg33
I45
sbasg34
g22
(S'0'
tRp2918
sg36
g22
(S'42'
p2919
tRp2920
sbag1
(g13
g3
NtRp2921
(dp2922
g16
S'T(-5)./mid/Samples/Hip-Hop/HipHop_Chords\\KanyeWest_GoodMorning_CHORDS.mid'
p2923
sg18
S'Am'
p2924
sg20
I1920
sg21
g22
(S'2'
tRp2925
sg24
(lp2926
g1
(g26
g3
NtRp2927
(dp2928
g29
g22
(S'1.899479166666666666666666667'
tRp2929
sg31
I88320
sg32
I4
sg33
I33
sbag1
(g26
g3
NtRp2930
(dp2931
g29
g22
(S'1.899479166666666666666666667'
tRp2932
sg31
I88320
sg32
I4
sg33
I36
sbag1
(g26
g3
NtRp2933
(dp2934
g29
g22
(S'1.899479166666666666666666667'
tRp2935
sg31
I88320
sg32
I4
sg33
I40
sbag1
(g26
g3
NtRp2936
(dp2937
g29
g22
(S'1.899479166666666666666666667'
tRp2938
sg31
I88320
sg32
I4
sg33
I45
sbasg34
g22
(S'0'
tRp2939
sg36
g22
(S'46'
p2940
tRp2941
sbag1
(g13
g3
NtRp2942
(dp2943
g16
S'T(-5)./mid/Samples/Hip-Hop/HipHop_Chords\\KanyeWest_GoodMorning_CHORDS.mid'
p2944
sg18
S'Am'
p2945
sg20
I1920
sg21
g22
(S'2'
tRp2946
sg24
(lp2947
g1
(g26
g3
NtRp2948
(dp2949
g29
g22
(S'1.899479166666666666666666667'
tRp2950
sg31
I126720
sg32
I4
sg33
I33
sbag1
(g26
g3
NtRp2951
(dp2952
g29
g22
(S'1.899479166666666666666666667'
tRp2953
sg31
I126720
sg32
I4
sg33
I36
sbag1
(g26
g3
NtRp2954
(dp2955
g29
g22
(S'1.899479166666666666666666667'
tRp2956
sg31
I126720
sg32
I4
sg33
I40
sbag1
(g26
g3
NtRp2957
(dp2958
g29
g22
(S'1.899479166666666666666666667'
tRp2959
sg31
I126720
sg32
I4
sg33
I45
sbasg34
g22
(S'0'
tRp2960
sg36
g22
(S'66'
p2961
tRp2962
sbag1
(g13
g3
NtRp2963
(dp2964
g16
S'T(-5)./mid/Samples/Hip-Hop/HipHop_Chords\\KanyeWest_GoodMorning_CHORDS.mid'
p2965
sg18
S'Am'
p2966
sg20
I1920
sg21
g22
(S'2'
tRp2967
sg24
(lp2968
g1
(g26
g3
NtRp2969
(dp2970
g29
g22
(S'1.899479166666666666666666667'
tRp2971
sg31
I134400
sg32
I4
sg33
I33
sbag1
(g26
g3
NtRp2972
(dp2973
g29
g22
(S'1.899479166666666666666666667'
tRp2974
sg31
I134400
sg32
I4
sg33
I36
sbag1
(g26
g3
NtRp2975
(dp2976
g29
g22
(S'1.899479166666666666666666667'
tRp2977
sg31
I134400
sg32
I4
sg33
I40
sbag1
(g26
g3
NtRp2978
(dp2979
g29
g22
(S'1.899479166666666666666666667'
tRp2980
sg31
I134400
sg32
I4
sg33
I45
sbasg34
g22
(S'0'
tRp2981
sg36
g22
(S'70'
p2982
tRp2983
sbag1
(g13
g3
NtRp2984
(dp2985
g16
S'T(-5)./mid/Samples/Hip-Hop/HipHop_Chords\\KanyeWest_GoodMorning_CHORDS.mid'
p2986
sg18
S'Am'
p2987
sg20
I1920
sg21
g22
(S'2'
tRp2988
sg24
(lp2989
g1
(g26
g3
NtRp2990
(dp2991
g29
g22
(S'1.899479166666666666666666667'
tRp2992
sg31
I142080
sg32
I4
sg33
I33
sbag1
(g26
g3
NtRp2993
(dp2994
g29
g22
(S'1.899479166666666666666666667'
tRp2995
sg31
I142080
sg32
I4
sg33
I36
sbag1
(g26
g3
NtRp2996
(dp2997
g29
g22
(S'1.899479166666666666666666667'
tRp2998
sg31
I142080
sg32
I4
sg33
I40
sbag1
(g26
g3
NtRp2999
(dp3000
g29
g22
(S'1.899479166666666666666666667'
tRp3001
sg31
I142080
sg32
I4
sg33
I45
sbasg34
g22
(S'0'
tRp3002
sg36
g22
(S'74'
p3003
tRp3004
sbag1
(g13
g3
NtRp3005
(dp3006
g16
S'T(-5)./mid/Samples/Hip-Hop/HipHop_Chords\\KanyeWest_GoodMorning_CHORDS.mid'
p3007
sg18
S'Am'
p3008
sg20
I1920
sg21
g22
(S'2'
tRp3009
sg24
(lp3010
g1
(g26
g3
NtRp3011
(dp3012
g29
g22
(S'1.899479166666666666666666667'
tRp3013
sg31
I149760
sg32
I4
sg33
I33
sbag1
(g26
g3
NtRp3014
(dp3015
g29
g22
(S'1.899479166666666666666666667'
tRp3016
sg31
I149760
sg32
I4
sg33
I36
sbag1
(g26
g3
NtRp3017
(dp3018
g29
g22
(S'1.899479166666666666666666667'
tRp3019
sg31
I149760
sg32
I4
sg33
I40
sbag1
(g26
g3
NtRp3020
(dp3021
g29
g22
(S'1.899479166666666666666666667'
tRp3022
sg31
I149760
sg32
I4
sg33
I45
sbasg34
g22
(S'0'
tRp3023
sg36
g22
(S'78'
p3024
tRp3025
sbag1
(g13
g3
NtRp3026
(dp3027
g16
S'T(-5)./mid/Samples/Hip-Hop/HipHop_Chords\\KanyeWest_GoodMorning_CHORDS.mid'
p3028
sg18
S'Am'
p3029
sg20
I1920
sg21
g22
(S'2'
tRp3030
sg24
(lp3031
g1
(g26
g3
NtRp3032
(dp3033
g29
g22
(S'1.899479166666666666666666667'
tRp3034
sg31
I188160
sg32
I4
sg33
I33
sbag1
(g26
g3
NtRp3035
(dp3036
g29
g22
(S'1.899479166666666666666666667'
tRp3037
sg31
I188160
sg32
I4
sg33
I36
sbag1
(g26
g3
NtRp3038
(dp3039
g29
g22
(S'1.899479166666666666666666667'
tRp3040
sg31
I188160
sg32
I4
sg33
I40
sbag1
(g26
g3
NtRp3041
(dp3042
g29
g22
(S'1.899479166666666666666666667'
tRp3043
sg31
I188160
sg32
I4
sg33
I45
sbasg34
g22
(S'0'
tRp3044
sg36
g22
(S'98'
p3045
tRp3046
sbag1
(g13
g3
NtRp3047
(dp3048
g16
S'T(-5)./mid/Samples/Hip-Hop/HipHop_Chords\\KanyeWest_GoodMorning_CHORDS.mid'
p3049
sg18
S'Am'
p3050
sg20
I1920
sg21
g22
(S'2'
tRp3051
sg24
(lp3052
g1
(g26
g3
NtRp3053
(dp3054
g29
g22
(S'1.899479166666666666666666667'
tRp3055
sg31
I195840
sg32
I4
sg33
I33
sbag1
(g26
g3
NtRp3056
(dp3057
g29
g22
(S'1.899479166666666666666666667'
tRp3058
sg31
I195840
sg32
I4
sg33
I36
sbag1
(g26
g3
NtRp3059
(dp3060
g29
g22
(S'1.899479166666666666666666667'
tRp3061
sg31
I195840
sg32
I4
sg33
I40
sbag1
(g26
g3
NtRp3062
(dp3063
g29
g22
(S'1.899479166666666666666666667'
tRp3064
sg31
I195840
sg32
I4
sg33
I45
sbasg34
g22
(S'0'
tRp3065
sg36
g22
(S'102'
p3066
tRp3067
sbag1
(g13
g3
NtRp3068
(dp3069
g16
S'T(-5)./mid/Samples/Hip-Hop/HipHop_Chords\\KanyeWest_GoodMorning_CHORDS.mid'
p3070
sg18
S'Am'
p3071
sg20
I1920
sg21
g22
(S'2'
tRp3072
sg24
(lp3073
g1
(g26
g3
NtRp3074
(dp3075
g29
g22
(S'1.899479166666666666666666667'
tRp3076
sg31
I203520
sg32
I4
sg33
I33
sbag1
(g26
g3
NtRp3077
(dp3078
g29
g22
(S'1.899479166666666666666666667'
tRp3079
sg31
I203520
sg32
I4
sg33
I36
sbag1
(g26
g3
NtRp3080
(dp3081
g29
g22
(S'1.899479166666666666666666667'
tRp3082
sg31
I203520
sg32
I4
sg33
I40
sbag1
(g26
g3
NtRp3083
(dp3084
g29
g22
(S'1.899479166666666666666666667'
tRp3085
sg31
I203520
sg32
I4
sg33
I45
sbasg34
g22
(S'0'
tRp3086
sg36
g22
(S'106'
p3087
tRp3088
sbag279
as(g952
tp3089
(lp3090
g1
(g13
g3
NtRp3091
(dp3092
g16
S'T(-6)./mid/Samples/Hip-Hop/HipHop_Chords\\KanyeWest_AllTheLights_CHORDS.mid'
p3093
sg18
S'F'
sg20
I1920
sg21
g22
(S'0.5'
tRp3094
sg24
(lp3095
g1
(g26
g3
NtRp3096
(dp3097
g29
g22
(S'0.5'
tRp3098
sg31
I42240
sg32
I2
sg33
I35
sbasg34
g22
(S'0'
tRp3099
sg36
g22
(S'22'
p3100
tRp3101
sbag1
(g13
g3
NtRp3102
(dp3103
g16
S'T(-6)./mid/Samples/Hip-Hop/HipHop_Chords\\KanyeWest_AllTheLights_CHORDS.mid'
p3104
sg18
S'F'
sg20
I1920
sg21
g22
(S'0.5'
tRp3105
sg24
(lp3106
g1
(g26
g3
NtRp3107
(dp3108
g29
g22
(S'0.5'
tRp3109
sg31
I88320
sg32
I2
sg33
I35
sbasg34
g22
(S'0'
tRp3110
sg36
g22
(S'46'
p3111
tRp3112
sbag1
(g13
g3
NtRp3113
(dp3114
g16
S'T(-6)./mid/Samples/Hip-Hop/HipHop_Chords\\KanyeWest_AllTheLights_CHORDS.mid'
p3115
sg18
S'F'
sg20
I1920
sg21
g22
(S'0.5'
tRp3116
sg24
(lp3117
g1
(g26
g3
NtRp3118
(dp3119
g29
g22
(S'0.5'
tRp3120
sg31
I134400
sg32
I2
sg33
I35
sbasg34
g22
(S'0'
tRp3121
sg36
g22
(S'70'
p3122
tRp3123
sbag1038
as(g535
tp3124
(lp3125
g546
ag843
ag1
(g13
g3
NtRp3126
(dp3127
g16
S'T(-6)./mid/Samples/Hip-Hop/HipHop_Chords\\KanyeWest_AllTheLights_CHORDS.mid'
p3128
sg18
g549
sg20
I1920
sg21
g22
(S'0.50520833333333333333333333'
tRp3129
sg24
(lp3130
g1
(g26
g3
NtRp3131
(dp3132
g29
g22
(S'0.5'
tRp3133
sg31
I79680
sg32
I2
sg33
I38
sbasg34
g22
(S'0.5'
tRp3134
sg36
g22
(S'41.5'
tRp3135
sbag1
(g13
g3
NtRp3136
(dp3137
g16
S'T(-6)./mid/Samples/Hip-Hop/HipHop_Chords\\KanyeWest_AllTheLights_CHORDS.mid'
p3138
sg18
g549
sg20
I1920
sg21
g22
(S'0.49479166666666666666666667'
tRp3139
sg24
(lp3140
g1
(g26
g3
NtRp3141
(dp3142
g29
g22
(S'0.5'
tRp3143
sg31
I83530
sg32
I2
sg33
I38
sbasg34
g22
(S'0.5052083333333333333333333333'
tRp3144
sg36
g22
(S'43.50520833333333333333333333'
tRp3145
sbag1
(g13
g3
NtRp3146
(dp3147
g16
S'T(-6)./mid/Samples/Hip-Hop/HipHop_Chords\\KanyeWest_AllTheLights_CHORDS.mid'
p3148
sg18
g549
sg20
I1920
sg21
g22
(S'0.50520833333333333333333333'
tRp3149
sg24
(lp3150
g1
(g26
g3
NtRp3151
(dp3152
g29
g22
(S'0.5'
tRp3153
sg31
I125760
sg32
I2
sg33
I38
sbasg34
g22
(S'0.5'
tRp3154
sg36
g22
(S'65.5'
tRp3155
sbag1
(g13
g3
NtRp3156
(dp3157
g16
S'T(-6)./mid/Samples/Hip-Hop/HipHop_Chords\\KanyeWest_AllTheLights_CHORDS.mid'
p3158
sg18
g549
sg20
I1920
sg21
g22
(S'0.49479166666666666666666667'
tRp3159
sg24
(lp3160
g1
(g26
g3
NtRp3161
(dp3162
g29
g22
(S'0.5'
tRp3163
sg31
I129610
sg32
I2
sg33
I38
sbasg34
g22
(S'0.5052083333333333333333333333'
tRp3164
sg36
g22
(S'67.50520833333333333333333333'
tRp3165
sbas(g181
tp3166
(lp3167
g814
as(g170
tp3168
(lp3169
g1
(g13
g3
NtRp3170
(dp3171
g16
S'T(-6)./mid/Samples/Hip-Hop/HipHop_Chords\\KanyeWest_AllTheLights_CHORDS.mid'
p3172
sg18
S'Am'
p3173
sg20
I1920
sg21
g22
(S'1.12500000000000000000000000'
tRp3174
sg24
(lp3175
g1
(g26
g3
NtRp3176
(dp3177
g29
g22
(S'1.125'
tRp3178
sg31
I35290
sg32
I2
sg33
I36
sbasg34
g22
(S'0.3802083333333333333333333333'
tRp3179
sg36
g22
(S'18.38020833333333333333333333'
tRp3180
sbag1
(g13
g3
NtRp3181
(dp3182
g16
S'T(-6)./mid/Samples/Hip-Hop/HipHop_Chords\\KanyeWest_AllTheLights_CHORDS.mid'
p3183
sg18
S'Am'
p3184
sg20
I1920
sg21
g22
(S'1.12500000000000000000000000'
tRp3185
sg24
(lp3186
g1
(g26
g3
NtRp3187
(dp3188
g29
g22
(S'1.125'
tRp3189
sg31
I81370
sg32
I2
sg33
I36
sbasg34
g22
(S'0.3802083333333333333333333333'
tRp3190
sg36
g22
(S'42.38020833333333333333333333'
tRp3191
sbag1
(g13
g3
NtRp3192
(dp3193
g16
S'T(-6)./mid/Samples/Hip-Hop/HipHop_Chords\\KanyeWest_AllTheLights_CHORDS.mid'
p3194
sg18
S'Am'
p3195
sg20
I1920
sg21
g22
(S'1.12500000000000000000000000'
tRp3196
sg24
(lp3197
g1
(g26
g3
NtRp3198
(dp3199
g29
g22
(S'1.125'
tRp3200
sg31
I127450
sg32
I2
sg33
I36
sbasg34
g22
(S'0.3802083333333333333333333333'
tRp3201
sg36
g22
(S'66.38020833333333333333333333'
tRp3202
sbas(g118
tp3203
(lp3204
g525
as(g546
tp3205
(lp3206
g1
(g13
g3
NtRp3207
(dp3208
g16
S'T(-6)./mid/Samples/Hip-Hop/HipHop_Chords\\KanyeWest_AllTheLights_CHORDS.mid'
p3209
sg18
S'Am'
p3210
sg20
I1920
sg21
g22
(S'0.25000000000000000000000000'
tRp3211
sg24
(lp3212
g1
(g26
g3
NtRp3213
(dp3214
g29
g22
(S'0.25'
tRp3215
sg31
I34570
sg32
I2
sg33
I40
sbasg34
g22
(S'0.005208333333333333333333333333'
tRp3216
sg36
g22
(S'18.00520833333333333333333333'
tRp3217
sbag1
(g13
g3
NtRp3218
(dp3219
g16
S'T(-6)./mid/Samples/Hip-Hop/HipHop_Chords\\KanyeWest_AllTheLights_CHORDS.mid'
p3220
sg18
S'Am'
p3221
sg20
I1920
sg21
g22
(S'0.25000000000000000000000000'
tRp3222
sg24
(lp3223
g1
(g26
g3
NtRp3224
(dp3225
g29
g22
(S'0.25'
tRp3226
sg31
I80650
sg32
I2
sg33
I40
sbasg34
g22
(S'0.005208333333333333333333333333'
tRp3227
sg36
g22
(S'42.00520833333333333333333333'
tRp3228
sbag1
(g13
g3
NtRp3229
(dp3230
g16
S'T(-6)./mid/Samples/Hip-Hop/HipHop_Chords\\KanyeWest_AllTheLights_CHORDS.mid'
p3231
sg18
S'Am'
p3232
sg20
I1920
sg21
g22
(S'0.25000000000000000000000000'
tRp3233
sg24
(lp3234
g1
(g26
g3
NtRp3235
(dp3236
g29
g22
(S'0.25'
tRp3237
sg31
I126730
sg32
I2
sg33
I40
sbasg34
g22
(S'0.005208333333333333333333333333'
tRp3238
sg36
g22
(S'66.00520833333333333333333333'
tRp3239
sbas(g637
tp3240
(lp3241
g1
(g13
g3
NtRp3242
(dp3243
g16
S'T(-6)./mid/Samples/Hip-Hop/HipHop_Chords\\KanyeWest_AllTheLights_CHORDS.mid'
p3244
sg18
S'F'
sg20
I1920
sg21
g22
(S'0.5'
tRp3245
sg24
(lp3246
g1
(g26
g3
NtRp3247
(dp3248
g29
g22
(S'0.5'
tRp3249
sg31
I40320
sg32
I2
sg33
I35
sbasg34
g22
(S'0'
tRp3250
sg36
g22
(S'21'
p3251
tRp3252
sbag1
(g13
g3
NtRp3253
(dp3254
g16
S'T(-6)./mid/Samples/Hip-Hop/HipHop_Chords\\KanyeWest_AllTheLights_CHORDS.mid'
p3255
sg18
S'F'
sg20
I1920
sg21
g22
(S'0.5'
tRp3256
sg24
(lp3257
g1
(g26
g3
NtRp3258
(dp3259
g29
g22
(S'0.5'
tRp3260
sg31
I44160
sg32
I2
sg33
I35
sbasg34
g22
(S'0'
tRp3261
sg36
g22
(S'23'
p3262
tRp3263
sbag1
(g13
g3
NtRp3264
(dp3265
g16
S'T(-6)./mid/Samples/Hip-Hop/HipHop_Chords\\KanyeWest_AllTheLights_CHORDS.mid'
p3266
sg18
S'F'
sg20
I1920
sg21
g22
(S'0.5'
tRp3267
sg24
(lp3268
g1
(g26
g3
NtRp3269
(dp3270
g29
g22
(S'0.5'
tRp3271
sg31
I86400
sg32
I2
sg33
I35
sbasg34
g22
(S'0'
tRp3272
sg36
g22
(S'45'
p3273
tRp3274
sbag1
(g13
g3
NtRp3275
(dp3276
g16
S'T(-6)./mid/Samples/Hip-Hop/HipHop_Chords\\KanyeWest_AllTheLights_CHORDS.mid'
p3277
sg18
S'F'
sg20
I1920
sg21
g22
(S'0.5'
tRp3278
sg24
(lp3279
g1
(g26
g3
NtRp3280
(dp3281
g29
g22
(S'0.5'
tRp3282
sg31
I90240
sg32
I2
sg33
I35
sbasg34
g22
(S'0'
tRp3283
sg36
g22
(S'47'
p3284
tRp3285
sbag1
(g13
g3
NtRp3286
(dp3287
g16
S'T(-6)./mid/Samples/Hip-Hop/HipHop_Chords\\KanyeWest_AllTheLights_CHORDS.mid'
p3288
sg18
S'F'
sg20
I1920
sg21
g22
(S'0.5'
tRp3289
sg24
(lp3290
g1
(g26
g3
NtRp3291
(dp3292
g29
g22
(S'0.5'
tRp3293
sg31
I132480
sg32
I2
sg33
I35
sbasg34
g22
(S'0'
tRp3294
sg36
g22
(S'69'
p3295
tRp3296
sbag1
(g13
g3
NtRp3297
(dp3298
g16
S'T(-6)./mid/Samples/Hip-Hop/HipHop_Chords\\KanyeWest_AllTheLights_CHORDS.mid'
p3299
sg18
S'F'
sg20
I1920
sg21
g22
(S'0.5'
tRp3300
sg24
(lp3301
g1
(g26
g3
NtRp3302
(dp3303
g29
g22
(S'0.5'
tRp3304
sg31
I136320
sg32
I2
sg33
I35
sbasg34
g22
(S'0'
tRp3305
sg36
g22
(S'71'
p3306
tRp3307
sbas(g874
tp3308
(lp3309
g118
as(g962
tp3310
(lp3311
g84
assS'state_chains'
p3312
(lp3313
(lp3314
a(lp3315
a(lp3316
g797
ag487
ag827
ag902
ag204
ag998
ag557
ag14
ag702
ag56
ag300
ag140
ag935
ag1661
ag1060
ag1041
ag1128
ag1461
ag2728
ag1079
ag2498
ag2779
ag2564
ag2798
ag1449
ag1482
ag332
aa(lp3317
a(lp3318
g625
ag891
ag535
ag546
ag3207
ag170
ag3170
ag843
ag669
ag637
ag3242
ag952
ag3091
ag2248
ag3253
ag578
ag2753
ag2136
ag1098
ag3126
ag3218
ag2147
ag3181
ag3136
ag2108
ag2258
ag3264
ag2268
ag3102
ag2278
ag3275
ag2288
ag2765
ag2158
ag1109
ag3146
ag3229
ag2169
ag3192
ag3156
ag2119
ag2298
ag3286
ag2308
ag3113
ag2318
ag3297
ag2328
aa(lp3319
a(lp3320
g778
ag194
ag370
ag240
ag758
ag1828
ag2344
ag1149
ag2576
ag2817
ag1847
ag2354
ag1168
ag2586
ag2837
ag1866
ag2364
ag1187
ag2596
ag853
ag353
ag740
ag223
ag1680
ag1523
ag1698
ag1540
ag66
ag2182
ag2374
ag1207
ag2606
ag2858
ag1886
ag2384
ag1227
ag2616
ag2879
ag1906
ag2394
ag1247
ag2626
ag2900
ag1926
ag2404
ag1267
ag2636
ag2921
ag1946
ag1557
ag1716
ag1574
ag1734
ag1591
ag1752
ag2202
ag2414
ag1287
ag2646
ag2942
ag1964
ag2424
ag1307
ag2656
ag2963
ag1984
ag2434
ag1327
ag2666
ag2984
ag2004
ag2444
ag1347
ag2676
ag3005
ag2024
ag1608
ag1770
ag1625
ag1788
ag1642
ag1806
ag2222
ag2454
ag1367
ag2686
ag3026
ag2042
ag2464
ag1387
ag2696
ag3047
ag2062
ag2474
ag1407
ag2706
ag3068
ag2082
ag2484
ag1427
ag2716
ag279
ag2521
ag38
aa(lp3321
a(lp3322
g250
ag428
ag181
ag814
ag1015
ag918
ag588
ag874
ag118
ag525
ag568
ag457
ag718
ag263
ag441
ag680
ag605
ag467
ag316
ag962
ag84
ag503
ag647
ag150
ag101
ag408
ag1501
ag2542
ag978
ag389
aasS'chain_length'
p3323
I1
sbsS'type'
p3324
S'Kanye'
p3325
sS'pieces'
p3326
g11
((lp3327
S'./mid/Samples/Hip-Hop/HipHop_Chords\\KanyeWest_Stronger_CHORDS.mid'
p3328
aS'./mid/Samples/Hip-Hop/HipHop_Chords\\KanyeWest_AllTheLights_CHORDS.mid'
p3329
aS'./mid/Samples/Hip-Hop/HipHop_Chords\\KanyeWest_GoodMorning_CHORDS.mid'
p3330
aS'./mid/Samples/Hip-Hop/HipHop_Chords\\KanyeWest_ThroughTheWire_CHORDS.mid'
p3331
atRp3332
sb.