((dp0
(I18
I11
I6
tp1
cnumpy.core.multiarray
scalar
p2
(cnumpy
dtype
p3
(S'f8'
p4
I0
I1
tp5
Rp6
(I3
S'<'
p7
NNNI-1
I-1
I0
tp8
bS'\x8e\x15\xf3\xe8jR\xa8?'
p9
tp10
Rp11
s(I10
I3
I3
tp12
g2
(g6
S'\x95\xc6\xb6?\xec\xee\xd2?'
p13
tp14
Rp15
s(I16
I16
I2
tp16
F1.0
s(I22
I12
I4
tp17
g2
(g6
S'\x19a\xa1\xab\x81\x11\xa8?'
p18
tp19
Rp20
s(I7
I1
I3
tp21
g2
(g6
S'\xe0\xe7\x9e\xa0y\xe0\xc3?'
p22
tp23
Rp24
s(I0
I0
I8
tp25
F1.0
s(I7
I12
I4
tp26
g2
(g6
S'QCo[I\xc2\xc0?'
p27
tp28
Rp29
s(I12
I5
I1
tp30
g2
(g6
S'\x9e\xb1A\x83\xde\xea\xa7?'
p31
tp32
Rp33
s(I6
I6
I11
tp34
F1.0
s(I20
I20
I3
tp35
F1.0
s(I11
I0
I9
tp36
g2
(g6
S'g\x97CO+N\xc1?'
p37
tp38
Rp39
s(I5
I12
I5
tp40
g2
(g6
S'\x08`\xeb>N\xaa\xdf?'
p41
tp42
Rp43
s(I25
I14
I1
tp44
g2
(g6
S'\xbc\x06X\xb1g\xea\x97?'
p45
tp46
Rp47
s(I1
I7
I2
tp48
g2
(g6
S'\xbc\x06X\xb1g\xea\x97?'
p49
tp50
Rp51
s(I19
I4
I4
tp52
g2
(g6
S'~?\\\xd9n\x18\xa1?'
p53
tp54
Rp55
s(I1
I10
I5
tp56
g2
(g6
S'\x10nPn\x11\xf0\xd8?'
p57
tp58
Rp59
s(I22
I3
I2
tp60
g2
(g6
S'Afj\xd1\xcc(\xa8?'
p61
tp62
Rp63
s(I10
I21
I3
tp64
g2
(g6
S'\xf0$\x83\x9c\xfd\xac\xbd?'
p65
tp66
Rp67
s(I15
I19
I1
tp68
g2
(g6
S'`\xb1\x1d\xf6\xed\xca\xe3?'
p69
tp70
Rp71
s(I8
I8
I7
tp72
F1.0
s(I3
I20
I3
tp73
g2
(g6
S'\x9be\xecPS\xd1\x95?'
p74
tp75
Rp76
s(I5
I20
I6
tp77
g2
(g6
S'\xe8W\x10\xc6\xa9i\xbd?'
p78
tp79
Rp80
s(I11
I5
I1
tp81
g2
(g6
S'\xbc\x06X\xb1g\xea\x97?'
p82
tp83
Rp84
s(I14
I9
I2
tp85
g2
(g6
S'\x95\xc6\xb6?\xec\xee\xd2?'
p86
tp87
Rp88
s(I16
I1
I3
tp89
g2
(g6
S';\x18\xc7f\x19\x87\x84?'
p90
tp91
Rp92
s(I10
I10
I9
tp93
F1.0
s(I23
I15
I1
tp94
g2
(g6
S'`\xb1\x1d\xf6\xed\xca\xe3?'
p95
tp96
Rp97
s(I24
I16
I1
tp98
g2
(g6
S'\x9e\xb1A\x83\xde\xea\xa7?'
p99
tp100
Rp101
s(I0
I7
I4
tp102
g2
(g6
S'\x06\xce\xe7\xc7\x8b!\xc4?'
p103
tp104
Rp105
s(I17
I4
I3
tp106
g2
(g6
S'\x9e\xb1A\x83\xde\xea\xa7?'
p107
tp108
Rp109
s(I0
I12
I5
tp110
g2
(g6
S'P\xe4\x12(\xefL\xd6?'
p111
tp112
Rp113
s(I18
I3
I1
tp114
g2
(g6
S'\xbc\x06X\xb1g\xea\x97?'
p115
tp116
Rp117
s(I16
I7
I3
tp118
g2
(g6
S'\xca10kX3\xcd?'
p119
tp120
Rp121
s(I8
I11
I3
tp122
g2
(g6
S'\x9e\xb1A\x83\xde\xea\xa7?'
p123
tp124
Rp125
s(I17
I6
I9
tp126
g2
(g6
S'\xff\xbd\n\xc6\xd8\xef\x97?'
p127
tp128
Rp129
s(I1
I22
I3
tp130
g2
(g6
S'W\x96\xbf\xb8\xc0\xb4\xa0?'
p131
tp132
Rp133
s(I19
I23
I3
tp134
g2
(g6
S'\xd4\xf5d\xdd\xf6|\xde?'
p135
tp136
Rp137
s(I3
I16
I8
tp138
g2
(g6
S'q\xb2\x8c\x7f\xb0S\x83?'
p139
tp140
Rp141
s(I10
I2
I4
tp142
g2
(g6
S'\x88\x9e,\xfdjh\xeb?'
p143
tp144
Rp145
s(I4
I24
I1
tp146
g2
(g6
S'\x9e\xb1A\x83\xde\xea\xa7?'
p147
tp148
Rp149
s(I0
I15
I9
tp150
g2
(g6
S'\xe0\xe7\x9e\xa0y\xe0\xc3?'
p151
tp152
Rp153
s(I15
I9
I5
tp154
g2
(g6
S'\x85\xeb\xf2\xe7\x80\x05\xad?'
p155
tp156
Rp157
s(I1
I1
I25
tp158
F1.0
s(I11
I20
I6
tp159
g2
(g6
S'\x1c\xce\x04\xea\xfc*\x9a?'
p160
tp161
Rp162
s(I15
I2
I1
tp163
g2
(g6
S'\xbc\x06X\xb1g\xea\x97?'
p164
tp165
Rp166
s(I20
I11
I2
tp167
g2
(g6
S'\x1b\xbcqZ\xd3\xf1\x9f?'
p168
tp169
Rp170
s(I11
I1
I6
tp171
g2
(g6
S'g\x97CO+N\xc1?'
p172
tp173
Rp174
s(I5
I13
I6
tp175
g2
(g6
S'\xed\x14B\xd5N\xbe\xe3?'
p176
tp177
Rp178
s(I11
I20
I1
tp179
g2
(g6
S'\xebUf/fe\xe4?'
p180
tp181
Rp182
s(I19
I5
I3
tp183
g2
(g6
S'\xc9}(\xf2!X\xa3?'
p184
tp185
Rp186
s(I13
I3
I8
tp187
g2
(g6
S'\x85\xeb\xf2\xe7\x80\x05\xad?'
p188
tp189
Rp190
s(I24
I1
I1
tp191
g2
(g6
S'\xbc\x06X\xb1g\xea\x97?'
p192
tp193
Rp194
s(I0
I8
I2
tp195
g2
(g6
S'?\x1e\xc4\x12Y\x13\xa0?'
p196
tp197
Rp198
s(I6
I6
I6
tp199
F1.0
s(I21
I15
I5
tp200
g2
(g6
S'{;!\xa8\x8cF\x90?'
p201
tp202
Rp203
s(I3
I21
I4
tp204
g2
(g6
S'{;!\xa8\x8cF\x90?'
p205
tp206
Rp207
s(I15
I5
I10
tp208
g2
(g6
S'\x85\xeb\xf2\xe7\x80\x05\xad?'
p209
tp210
Rp211
s(I14
I8
I1
tp212
g2
(g6
S'\xbc\x06X\xb1g\xea\x97?'
p213
tp214
Rp215
s(I10
I6
I1
tp216
g2
(g6
S'\x9e\xb1A\x83\xde\xea\xa7?'
p217
tp218
Rp219
s(I13
I0
I2
tp220
g2
(g6
S'4\xe4\xf6fV\xc9f?'
p221
tp222
Rp223
s(I3
I12
I4
tp224
g2
(g6
S'Eh\xdc\x14$\xb7\xa4?'
p225
tp226
Rp227
s(I0
I11
I4
tp228
g39
s(I18
I2
I6
tp229
g2
(g6
S'_R\xd8\x9ev[\xb0?'
p230
tp231
Rp232
s(I3
I3
I5
tp233
F1.0
s(I21
I12
I1
tp234
g2
(g6
S'\xbc\x06X\xb1g\xea\x97?'
p235
tp236
Rp237
s(I12
I8
I3
tp238
g2
(g6
S'\xdc\xfb\xd5\xd0\xa8\xcc\xeb?'
p239
tp240
Rp241
s(I12
I21
I4
tp242
g2
(g6
S"\xf7c8y\x1a'\x9d?"
p243
tp244
Rp245
s(I12
I12
I14
tp246
F1.0
s(I17
I10
I1
tp247
g2
(g6
S'\x8a\xde#\x1b\xf4z\xbd?'
p248
tp249
Rp250
s(I5
I1
I3
tp251
g2
(g6
S'\x10nPn\x11\xf0\xd8?'
p252
tp253
Rp254
s(I23
I2
I3
tp255
g2
(g6
S"\x95T3\xc20'\xbd?"
p256
tp257
Rp258
s(I1
I12
I6
tp259
g2
(g6
S'P\xe4\x12(\xefL\xd6?'
p260
tp261
Rp262
s(I10
I5
I5
tp263
g2
(g6
S'\x12\xe2%B}\xcf\xc5?'
p264
tp265
Rp266
s(I22
I14
I2
tp267
g2
(g6
S'\xec\x86vo\x8b\xae\xca?'
p268
tp269
Rp270
s(I7
I7
I1
tp271
F1.0
s(I0
I14
I10
tp272
g2
(g6
S'\x10nPn\x11\xf0\xd8?'
p273
tp274
Rp275
s(I5
I17
I5
tp276
g2
(g6
S'\x0e\xca\xb2\x8c\xce\xe5\xda?'
p277
tp278
Rp279
s(I13
I3
I6
tp280
g190
s(I15
I3
I2
tp281
g2
(g6
S'\x08\r>V\xf1\x03\xee?'
p282
tp283
Rp284
s(I3
I17
I1
tp285
g2
(g6
S'\x8a\xde#\x1b\xf4z\xbd?'
p286
tp287
Rp288
s(I20
I10
I1
tp289
g2
(g6
S'\xbc\x06X\xb1g\xea\x97?'
p290
tp291
Rp292
s(I5
I14
I7
tp293
g2
(g6
S'\x12\xe2%B}\xcf\xc5?'
p294
tp295
Rp296
s(I16
I7
I8
tp297
g2
(g6
S'\x19a\xa1\xab\x81\x11\xa8?'
p298
tp299
Rp300
s(I16
I12
I1
tp301
g2
(g6
S'\x08\r>V\xf1\x03\xee?'
p302
tp303
Rp304
s(I19
I2
I2
tp305
g2
(g6
S'S\xc9\xfeb\xd9\xa5\xc4?'
p306
tp307
Rp308
s(I13
I4
I9
tp309
g2
(g6
S'\xdf\xd3e\xd6\x95\x18\xdf?'
p310
tp311
Rp312
s(I10
I23
I1
tp313
g2
(g6
S'`\xb1\x1d\xf6\xed\xca\xe3?'
p314
tp315
Rp316
s(I18
I6
I3
tp317
g2
(g6
S'\xec\x86vo\x8b\xae\xca?'
p318
tp319
Rp320
s(I21
I0
I4
tp321
g2
(g6
S' {"r\x08]\x94?'
p322
tp323
Rp324
s(I20
I24
I2
tp325
g2
(g6
S'\xcb<\x87\xec(\xe9\xd4?'
p326
tp327
Rp328
s(I3
I18
I5
tp329
g2
(g6
S' {"r\x08]\x94?'
p330
tp331
Rp332
s(I11
I3
I3
tp333
g2
(g6
S'\xdc\xfb\xd5\xd0\xa8\xcc\xeb?'
p334
tp335
Rp336
s(I17
I22
I4
tp337
g2
(g6
S'QCo[I\xc2\xc0?'
p338
tp339
Rp340
s(I1
I19
I1
tp341
g2
(g6
S'\x9e\xb1A\x83\xde\xea\xa7?'
p342
tp343
Rp344
s(I13
I1
I1
tp345
g2
(g6
S'\x9e\xb1A\x83\xde\xea\xa7?'
p346
tp347
Rp348
s(I4
I19
I7
tp349
g55
s(I3
I13
I3
tp350
g2
(g6
S'\x85\xeb\xf2\xe7\x80\x05\xad?'
p351
tp352
Rp353
s(I19
I7
I6
tp354
g2
(g6
S'[\x92\x1a\xf0\x07\x88\xb8?'
p355
tp356
Rp357
s(I0
I10
I7
tp358
g2
(g6
S'\x10nPn\x11\xf0\xd8?'
p359
tp360
Rp361
s(I18
I5
I7
tp362
g2
(g6
S'\x1c\xce\x04\xea\xfc*\x9a?'
p363
tp364
Rp365
s(I12
I2
I9
tp366
g2
(g6
S'QCo[I\xc2\xc0?'
p367
tp368
Rp369
s(I7
I22
I1
tp370
g2
(g6
S'\r\xd5T^\x86\xc0\xb0?'
p371
tp372
Rp373
s(I9
I23
I1
tp374
g2
(g6
S'\x8a\xde#\x1b\xf4z\xbd?'
p375
tp376
Rp377
s(I8
I9
I1
tp378
g2
(g6
S'\x9e\xb1A\x83\xde\xea\xa7?'
p379
tp380
Rp381
s(I12
I15
I2
tp382
g2
(g6
S'\x8a\xde#\x1b\xf4z\xbd?'
p383
tp384
Rp385
s(I14
I21
I3
tp386
g2
(g6
S'\xf0$\x83\x9c\xfd\xac\xbd?'
p387
tp388
Rp389
s(I6
I17
I9
tp390
g129
s(I1
I16
I5
tp391
g2
(g6
S'W\x96\xbf\xb8\xc0\xb4\xa0?'
p392
tp393
Rp394
s(I5
I2
I2
tp395
g2
(g6
S'\x05\xdcR\xf5\xc4\xbe\x90?'
p396
tp397
Rp398
s(I11
I17
I3
tp399
g2
(g6
S'q\xb2\x8c\x7f\xb0S\x83?'
p400
tp401
Rp402
s(I16
I8
I6
tp403
g2
(g6
S'\xf7Wu\x93]\\\xc3?'
p404
tp405
Rp406
s(I1
I13
I5
tp407
g2
(g6
S'\x10nPn\x11\xf0\xd8?'
p408
tp409
Rp410
s(I10
I4
I6
tp411
g2
(g6
S'\x12\xe2%B}\xcf\xc5?'
p412
tp413
Rp414
s(I13
I13
I13
tp415
F1.0
s(I22
I9
I3
tp416
g2
(g6
S'\x9be\xecPS\xd1\x95?'
p417
tp418
Rp419
s(I0
I13
I11
tp420
g2
(g6
S'\x10nPn\x11\xf0\xd8?'
p421
tp422
Rp423
s(I15
I21
I4
tp424
g203
s(I13
I13
I12
tp425
F1.0
s(I2
I17
I7
tp426
g2
(g6
S'\xff\xbd\n\xc6\xd8\xef\x97?'
p427
tp428
Rp429
s(I15
I0
I3
tp430
g2
(g6
S'4\xe4\xf6fV\xc9f?'
p431
tp432
Rp433
s(I17
I5
I3
tp434
g2
(g6
S'\x0e\xca\xb2\x8c\xce\xe5\xda?'
p435
tp436
Rp437
s(I6
I20
I1
tp438
g2
(g6
S'\xebUf/fe\xe4?'
p439
tp440
Rp441
s(I23
I17
I1
tp442
g2
(g6
S'\x8a\xde#\x1b\xf4z\xbd?'
p443
tp444
Rp445
s(I11
I15
I4
tp446
g2
(g6
S'\x10nPn\x11\xf0\xd8?'
p447
tp448
Rp449
s(I5
I15
I8
tp450
g211
s(I11
I18
I7
tp451
g11
s(I6
I14
I6
tp452
g2
(g6
S'6\xcfF\xa9\xdcA\xd7?'
p453
tp454
Rp455
s(I1
I2
I1
tp456
g2
(g6
S'\x1d\xe1@\xf5\xb5\x0c\xea?'
p457
tp458
Rp459
s(I19
I3
I1
tp460
g2
(g6
S'`\xb1\x1d\xf6\xed\xca\xe3?'
p461
tp462
Rp463
s(I16
I16
I9
tp464
F1.0
s(I13
I16
I1
tp465
g2
(g6
S'\x9e\xb1A\x83\xde\xea\xa7?'
p466
tp467
Rp468
s(I18
I9
I2
tp469
g2
(g6
S"\x95T3\xc20'\xbd?"
p470
tp471
Rp472
s(I6
I6
I2
tp473
F1.0
s(I3
I19
I6
tp474
g2
(g6
S'\x81\xbb\xc9>"\x90\x9b?'
p475
tp476
Rp477
s(I6
I11
I5
tp478
g2
(g6
S'QCo[I\xc2\xc0?'
p479
tp480
Rp481
s(I11
I0
I2
tp482
g2
(g6
S'(\xca@\x95z\xe4\x8f?'
p483
tp484
Rp485
s(I17
I23
I3
tp486
g2
(g6
S'\x12a\x1f\xed\x90n\x8b?'
p487
tp488
Rp489
s(I19
I17
I2
tp490
g2
(g6
S'\x8a\xde#\x1b\xf4z\xbd?'
p491
tp492
Rp493
s(I24
I13
I2
tp494
g2
(g6
S'\x0eO\xbeTU@\xb3?'
p495
tp496
Rp497
s(I4
I4
I19
tp498
F1.0
s(I13
I0
I7
tp499
g423
s(I0
I4
I1
tp500
g2
(g6
S'4\xe4\xf6fV\xc9f?'
p501
tp502
Rp503
s(I7
I11
I3
tp504
g2
(g6
S'\xdc\xfb\xd5\xd0\xa8\xcc\xeb?'
p505
tp506
Rp507
s(I3
I10
I2
tp508
g2
(g6
S'\xebUf/fe\xe4?'
p509
tp510
Rp511
s(I0
I9
I6
tp512
g2
(g6
S'\x10nPn\x11\xf0\xd8?'
p513
tp514
Rp515
s(I18
I4
I4
tp516
g2
(g6
S'\x1c\xce\x04\xea\xfc*\x9a?'
p517
tp518
Rp519
s(I12
I1
I8
tp520
g262
s(I7
I23
I2
tp521
g2
(g6
S'\x0eO\xbeTU@\xb3?'
p522
tp523
Rp524
s(I8
I8
I14
tp525
F1.0
s(I12
I14
I1
tp526
g2
(g6
S'\xbc\x06X\xb1g\xea\x97?'
p527
tp528
Rp529
s(I6
I16
I10
tp530
g2
(g6
S'\xff\xbd\n\xc6\xd8\xef\x97?'
p531
tp532
Rp533
s(I1
I17
I6
tp534
g2
(g6
S'\x82\xd7T\x85T\xd1\xa3?'
p535
tp536
Rp537
s(I23
I0
I1
tp538
g2
(g6
S'4\xe4\xf6fV\xc9f?'
p539
tp540
Rp541
s(I25
I5
I1
tp542
g2
(g6
S'\xbc\x06X\xb1g\xea\x97?'
p543
tp544
Rp545
s(I1
I14
I4
tp546
g2
(g6
S'\x10nPn\x11\xf0\xd8?'
p547
tp548
Rp549
s(I0
I12
I12
tp550
g113
s(I15
I10
I5
tp551
g2
(g6
S'\xd4\xf5d\xdd\xf6|\xde?'
p552
tp553
Rp554
s(I2
I16
I4
tp555
g2
(g6
S'\xff\xbd\n\xc6\xd8\xef\x97?'
p556
tp557
Rp558
s(I15
I1
I4
tp559
g2
(g6
S'\xe0\xe7\x9e\xa0y\xe0\xc3?'
p560
tp561
Rp562
s(I17
I6
I2
tp563
g2
(g6
S'\x05\xdcR\xf5\xc4\xbe\x90?'
p564
tp565
Rp566
s(I17
I11
I4
tp567
g2
(g6
S'\x19a\xa1\xab\x81\x11\xa8?'
p568
tp569
Rp570
s(I16
I5
I10
tp571
g2
(g6
S'^->)\xc47\xd6?'
p572
tp573
Rp574
s(I7
I17
I3
tp575
g2
(g6
S'\x12a\x1f\xed\x90n\x8b?'
p576
tp577
Rp578
s(I16
I10
I3
tp579
g2
(g6
S';\x18\xc7f\x19\x87\x84?'
p580
tp581
Rp582
s(I5
I21
I1
tp583
g2
(g6
S':f-\r\xa8\xae\xd1?'
p584
tp585
Rp586
s(I4
I3
I1
tp587
g2
(g6
S'\x9e\xb1A\x83\xde\xea\xa7?'
p588
tp589
Rp590
s(I9
I12
I2
tp591
g2
(g6
S'\xca10kX3\xcd?'
p592
tp593
Rp594
s(I11
I11
I8
tp595
F1.0
s(I0
I0
I6
tp596
F1.0
s(I13
I17
I2
tp597
g2
(g6
S'\xcb<\x87\xec(\xe9\xd4?'
p598
tp599
Rp600
s(I18
I8
I1
tp601
g2
(g6
S'\xebUf/fe\xe4?'
p602
tp603
Rp604
s(I6
I1
I3
tp605
g2
(g6
S'\x1d\xe1@\xf5\xb5\x0c\xea?'
p606
tp607
Rp608
s(I8
I4
I3
tp609
g2
(g6
S'\xca10kX3\xcd?'
p610
tp611
Rp612
s(I3
I16
I7
tp613
g141
s(I2
I2
I8
tp614
F1.0
s(I5
I7
I2
tp615
g2
(g6
S'\x8a\xde#\x1b\xf4z\xbd?'
p616
tp617
Rp618
s(I4
I4
I10
tp619
F1.0
s(I13
I3
I7
tp620
g190
s(I4
I17
I5
tp621
g2
(g6
S'\x0e\xca\xb2\x8c\xce\xe5\xda?'
p622
tp623
Rp624
s(I3
I11
I1
tp625
g2
(g6
S'\x9e\xb1A\x83\xde\xea\xa7?'
p626
tp627
Rp628
s(I18
I7
I5
tp629
g2
(g6
S'\x8e\x15\xf3\xe8jR\xa8?'
p630
tp631
Rp632
s(I7
I20
I3
tp633
g2
(g6
S'\x9be\xecPS\xd1\x95?'
p634
tp635
Rp636
s(I9
I17
I3
tp637
g2
(g6
S'\x91\xf0Mem\xec\xc9?'
p638
tp639
Rp640
s(I15
I5
I1
tp641
g2
(g6
S'\x8a\xde#\x1b\xf4z\xbd?'
p642
tp643
Rp644
s(I14
I23
I1
tp645
g2
(g6
S'`\xb1\x1d\xf6\xed\xca\xe3?'
p646
tp647
Rp648
s(I20
I12
I4
tp649
g2
(g6
S'\xe8W\x10\xc6\xa9i\xbd?'
p650
tp651
Rp652
s(I1
I18
I7
tp653
g2
(g6
S' {"r\x08]\x94?'
p654
tp655
Rp656
s(I19
I19
I7
tp657
F1.0
s(I10
I13
I1
tp658
g2
(g6
S'\x8a\xde#\x1b\xf4z\xbd?'
p659
tp660
Rp661
s(I16
I22
I4
tp662
g2
(g6
S'QCo[I\xc2\xc0?'
p663
tp664
Rp665
s(I1
I15
I3
tp666
g2
(g6
S'\xe0\xe7\x9e\xa0y\xe0\xc3?'
p667
tp668
Rp669
s(I22
I11
I1
tp670
g2
(g6
S'\xbc\x06X\xb1g\xea\x97?'
p671
tp672
Rp673
s(I12
I3
I3
tp674
g2
(g6
S'\x9e\xb1A\x83\xde\xea\xa7?'
p675
tp676
Rp677
s(I2
I19
I5
tp678
g2
(g6
S'-\x0f\xb7\xf6a\xc8\xa4?'
p679
tp680
Rp681
s(I6
I13
I6
tp682
g2
(g6
S'QCo[I\xc2\xc0?'
p683
tp684
Rp685
s(I18
I25
I1
tp686
g2
(g6
S'\xebUf/fe\xe4?'
p687
tp688
Rp689
s(I17
I7
I5
tp690
g2
(g6
S'|\xe6\xc7\xe4\x91!\xb0?'
p691
tp692
Rp693
s(I14
I14
I12
tp694
F1.0
s(I23
I23
I3
tp695
F1.0
s(I11
I13
I2
tp696
g2
(g6
S'\xf0\xc5\xcf\xaek<\xb3?'
p697
tp698
Rp699
s(I11
I16
I5
tp700
g2
(g6
S'\x19a\xa1\xab\x81\x11\xa8?'
p701
tp702
Rp703
s(I16
I9
I2
tp704
g2
(g6
S'\xca10kX3\xcd?'
p705
tp706
Rp707
s(I4
I2
I2
tp708
g2
(g6
S';\x18\xc7f\x19\x87\x84?'
p709
tp710
Rp711
s(I24
I8
I2
tp712
g2
(g6
S'`\xb1\x1d\xf6\xed\xca\xe3?'
p713
tp714
Rp715
s(I9
I13
I1
tp716
g2
(g6
S'\x08\r>V\xf1\x03\xee?'
p717
tp718
Rp719
s(I13
I7
I4
tp720
g2
(g6
S'\x12\xe2%B}\xcf\xc5?'
p721
tp722
Rp723
s(I0
I15
I7
tp724
g153
s(I13
I18
I3
tp725
g2
(g6
S'\x82\xd7T\x85T\xd1\xa3?'
p726
tp727
Rp728
s(I15
I20
I4
tp729
g2
(g6
S'\xb7\xe6\xc1\xa0%iw?'
p730
tp731
Rp732
s(I21
I3
I1
tp733
g2
(g6
S'8!\xe6\xe6S\xc8\xd6?'
p734
tp735
Rp736
s(I8
I3
I2
tp737
g2
(g6
S'\r\xd5T^\x86\xc0\xb0?'
p738
tp739
Rp740
s(I7
I19
I3
tp741
g2
(g6
S'\xf0$\x83\x9c\xfd\xac\xbd?'
p742
tp743
Rp744
s(I17
I17
I1
tp745
F1.0
s(I16
I7
I1
tp746
g2
(g6
S'\x9e\xb1A\x83\xde\xea\xa7?'
p747
tp748
Rp749
s(I0
I19
I6
tp750
g2
(g6
S'\x92\x96\xd5\x0cI\xfa\x87?'
p751
tp752
Rp753
s(I23
I5
I3
tp754
g2
(g6
S'\x9a\xc3<K\xf7\xcf\x9e?'
p755
tp756
Rp757
s(I10
I1
I4
tp758
g59
s(I19
I2
I3
tp759
g2
(g6
S'\x85\xab\x91\x14\x86C\xa8?'
p760
tp761
Rp762
s(I13
I4
I6
tp763
g2
(g6
S'~MyU\x8b\x17\xec?'
p764
tp765
Rp766
s(I4
I16
I2
tp767
g2
(g6
S'M\xde\x15\x82m\x7f\xec?'
p768
tp769
Rp770
s(I9
I18
I2
tp771
g472
s(I18
I8
I7
tp772
g2
(g6
S'\x92\x96\xd5\x0cI\xfa\x87?'
p773
tp774
Rp775
s(I17
I3
I2
tp776
g2
(g6
S'\x8a\xde#\x1b\xf4z\xbd?'
p777
tp778
Rp779
s(I2
I0
I1
tp780
g2
(g6
S'4\xe4\xf6fV\xc9f?'
p781
tp782
Rp783
s(I6
I18
I4
tp784
g2
(g6
S'_R\xd8\x9ev[\xb0?'
p785
tp786
Rp787
s(I2
I13
I10
tp788
g2
(g6
S'QCo[I\xc2\xc0?'
p789
tp790
Rp791
s(I5
I5
I7
tp792
F1.0
s(I17
I5
I5
tp793
g279
s(I10
I12
I2
tp794
g2
(g6
S'\r\xd5T^\x86\xc0\xb0?'
p795
tp796
Rp797
s(I16
I21
I5
tp798
g2
(g6
S'\xcb@\xe0\xd1=\xb7\xc9?'
p799
tp800
Rp801
s(I1
I8
I2
tp802
g2
(g6
S'?\x1e\xc4\x12Y\x13\xa0?'
p803
tp804
Rp805
s(I9
I9
I10
tp806
F1.0
s(I3
I3
I23
tp807
F1.0
s(I15
I8
I7
tp808
g2
(g6
S'\x97\t,A\xfa\xa7\xb1?'
p809
tp810
Rp811
s(I3
I22
I4
tp812
g2
(g6
S'\x85\xab\x91\x14\x86C\xa8?'
p813
tp814
Rp815
s(I2
I18
I2
tp816
g2
(g6
S'\xec\x86vo\x8b\xae\xca?'
p817
tp818
Rp819
s(I6
I12
I5
tp820
g2
(g6
S'QCo[I\xc2\xc0?'
p821
tp822
Rp823
s(I18
I24
I2
tp824
g2
(g6
S'\x05\xdcR\xf5\xc4\xbe\x90?'
p825
tp826
Rp827
s(I17
I0
I4
tp828
g2
(g6
S'\x82\xd7T\x85T\xd1\xa3?'
p829
tp830
Rp831
s(I20
I14
I5
tp832
g2
(g6
S'\x9f\xc9\x19;~\xdb\x8b?'
p833
tp834
Rp835
s(I23
I20
I2
tp836
g2
(g6
S'\x9e\xb1A\x83\xde\xea\xa7?'
p837
tp838
Rp839
s(I1
I13
I12
tp840
g410
s(I4
I1
I3
tp841
g2
(g6
S';\x18\xc7f\x19\x87\x84?'
p842
tp843
Rp844
s(I22
I4
I3
tp845
g2
(g6
S'{m\x81\xa0\xd9\xbe}?'
p846
tp847
Rp848
s(I13
I8
I5
tp849
g2
(g6
S'\xd4\xf5d\xdd\xf6|\xde?'
p850
tp851
Rp852
s(I7
I7
I19
tp853
F1.0
s(I0
I14
I4
tp854
g275
s(I18
I1
I6
tp855
g656
s(I13
I19
I4
tp856
g2
(g6
S'~?\\\xd9n\x18\xa1?'
p857
tp858
Rp859
s(I7
I18
I8
tp860
g632
s(I18
I10
I7
tp861
g2
(g6
S'_R\xd8\x9ev[\xb0?'
p862
tp863
Rp864
s(I7
I25
I1
tp865
g2
(g6
S'\xbc\x06X\xb1g\xea\x97?'
p866
tp867
Rp868
s(I6
I3
I1
tp869
g2
(g6
S'\xbc\x06X\xb1g\xea\x97?'
p870
tp871
Rp872
s(I8
I2
I1
tp873
g2
(g6
S'\xebUf/fe\xe4?'
p874
tp875
Rp876
s(I5
I21
I5
tp877
g2
(g6
S"\xf7c8y\x1a'\x9d?"
p878
tp879
Rp880
s(I14
I18
I3
tp881
g2
(g6
S'\xec\x86vo\x8b\xae\xca?'
p882
tp883
Rp884
s(I1
I20
I4
tp885
g2
(g6
S' {"r\x08]\x94?'
p886
tp887
Rp888
s(I5
I14
I9
tp889
g296
s(I16
I6
I2
tp890
g2
(g6
S';\x18\xc7f\x19\x87\x84?'
p891
tp892
Rp893
s(I19
I12
I1
tp894
g2
(g6
S'\x9e\xb1A\x83\xde\xea\xa7?'
p895
tp896
Rp897
s(I23
I10
I2
tp898
g2
(g6
S'\x0eO\xbeTU@\xb3?'
p899
tp900
Rp901
s(I15
I20
I5
tp902
g732
s(I10
I0
I7
tp903
g361
s(I13
I5
I5
tp904
g2
(g6
S'~MyU\x8b\x17\xec?'
p905
tp906
Rp907
s(I4
I23
I3
tp908
g2
(g6
S'\x0eO\xbeTU@\xb3?'
p909
tp910
Rp911
s(I17
I12
I3
tp912
g2
(g6
S'\x91\xf0Mem\xec\xc9?'
p913
tp914
Rp915
s(I20
I2
I6
tp916
g2
(g6
S'\x9f\xc9\x19;~\xdb\x8b?'
p917
tp918
Rp919
s(I5
I11
I1
tp920
g84
s(I2
I12
I9
tp921
g369
s(I10
I15
I3
tp922
g2
(g6
S'\x95\xc6\xb6?\xec\xee\xd2?'
p923
tp924
Rp925
s(I16
I20
I2
tp926
g2
(g6
S'o\x1b\x03\xc0\xd3\xd7\xba?'
p927
tp928
Rp929
s(I1
I9
I1
tp930
g2
(g6
S'\x9e\xb1A\x83\xde\xea\xa7?'
p931
tp932
Rp933
s(I21
I24
I2
tp934
g2
(g6
S'\x05\xdcR\xf5\xc4\xbe\x90?'
p935
tp936
Rp937
s(I13
I23
I1
tp938
g2
(g6
S'\x8a\xde#\x1b\xf4z\xbd?'
p939
tp940
Rp941
s(I12
I1
I1
tp942
g2
(g6
S"&'m\x90\xe6\x94\xd5?"
p943
tp944
Rp945
s(I18
I14
I4
tp946
g2
(g6
S'_R\xd8\x9ev[\xb0?'
p947
tp948
Rp949
s(I2
I21
I3
tp950
g2
(g6
S's\x8d\x8dB\xf0\x91\xb5?'
p951
tp952
Rp953
s(I20
I16
I3
tp954
g2
(g6
S'\xf9\x995\x18\t?\x8e?'
p955
tp956
Rp957
s(I19
I3
I6
tp958
g477
s(I17
I1
I7
tp959
g537
s(I20
I13
I4
tp960
g2
(g6
S'\xe8W\x10\xc6\xa9i\xbd?'
p961
tp962
Rp963
s(I8
I19
I1
tp964
g2
(g6
S'\x9e\xb1A\x83\xde\xea\xa7?'
p965
tp966
Rp967
s(I25
I18
I1
tp968
g689
s(I4
I11
I5
tp969
g2
(g6
S'QCo[I\xc2\xc0?'
p970
tp971
Rp972
s(I4
I0
I4
tp973
g2
(g6
S'P\xe4\x12(\xefL\xd6?'
p974
tp975
Rp976
s(I22
I7
I2
tp977
g2
(g6
S'Afj\xd1\xcc(\xa8?'
p978
tp979
Rp980
s(I6
I10
I3
tp981
g2
(g6
S'\xdc\xfb\xd5\xd0\xa8\xcc\xeb?'
p982
tp983
Rp984
s(I21
I0
I5
tp985
g324
s(I0
I13
I5
tp986
g423
s(I18
I0
I5
tp987
g2
(g6
S' {"r\x08]\x94?'
p988
tp989
Rp990
s(I13
I20
I5
tp991
g963
s(I10
I0
I8
tp992
g361
s(I21
I5
I3
tp993
g2
(g6
S'\x84\xe3\xd1F\xc0p\xba?'
p994
tp995
Rp996
s(I5
I15
I6
tp997
g211
s(I16
I5
I3
tp998
g2
(g6
S'?\x1e\xc4\x12Y\x13\xa0?'
p999
tp1000
Rp1001
s(I19
I13
I6
tp1002
g859
s(I23
I11
I1
tp1003
g2
(g6
S'\xbc\x06X\xb1g\xea\x97?'
p1004
tp1005
Rp1006
s(I22
I17
I1
tp1007
g2
(g6
S'\x12\xe2%B}\xcf\xc5?'
p1008
tp1009
Rp1010
s(I24
I20
I1
tp1011
g2
(g6
S'\x9e\xb1A\x83\xde\xea\xa7?'
p1012
tp1013
Rp1014
s(I16
I16
I7
tp1015
F1.0
s(I13
I6
I4
tp1016
g685
s(I0
I0
I13
tp1017
F1.0
s(I8
I15
I3
tp1018
g2
(g6
S'\x97\t,A\xfa\xa7\xb1?'
p1019
tp1020
Rp1021
s(I6
I6
I16
tp1022
F1.0
s(I2
I2
I7
tp1023
F1.0
s(I24
I0
I1
tp1024
g2
(g6
S'4\xe4\xf6fV\xc9f?'
p1025
tp1026
Rp1027
s(I2
I15
I8
tp1028
g2
(g6
S'\xd4\xf5d\xdd\xf6|\xde?'
p1029
tp1030
Rp1031
s(I4
I15
I8
tp1032
g2
(g6
S'\x85\xeb\xf2\xe7\x80\x05\xad?'
p1033
tp1034
Rp1035
s(I16
I19
I3
tp1036
g2
(g6
S'\x9c!K\x06\xbe\xb0\x96?'
p1037
tp1038
Rp1039
s(I4
I4
I1
tp1040
F1.0
s(I7
I2
I2
tp1041
g2
(g6
S'\xcb<\x87\xec(\xe9\xd4?'
p1042
tp1043
Rp1044
s(I5
I18
I4
tp1045
g365
s(I15
I14
I1
tp1046
g2
(g6
S'\xebUf/fe\xe4?'
p1047
tp1048
Rp1049
s(I3
I20
I6
tp1050
g2
(g6
S'\xb7\xe6\xc1\xa0%iw?'
p1051
tp1052
Rp1053
s(I20
I23
I2
tp1054
g839
s(I17
I2
I6
tp1055
g429
s(I6
I19
I4
tp1056
g2
(g6
S'-\x0f\xb7\xf6a\xc8\xa4?'
p1057
tp1058
Rp1059
s(I8
I18
I2
tp1060
g2
(g6
S'\xf47\x8d\xa8\xccf\x8f?'
p1061
tp1062
Rp1063
s(I11
I8
I1
tp1064
g2
(g6
S'\xebUf/fe\xe4?'
p1065
tp1066
Rp1067
s(I1
I4
I3
tp1068
g844
s(I19
I9
I3
tp1069
g2
(g6
S'\xcbJ\x9c$~\xf2\xb0?'
p1070
tp1071
Rp1072
s(I4
I10
I6
tp1073
g414
s(I1
I15
I10
tp1074
g562
s(I24
I5
I1
tp1075
g2
(g6
S'`\xb1\x1d\xf6\xed\xca\xe3?'
p1076
tp1077
Rp1078
s(I0
I12
I2
tp1079
g2
(g6
S'?\x1e\xc4\x12Y\x13\xa0?'
p1080
tp1081
Rp1082
s(I18
I3
I4
tp1083
g332
s(I17
I12
I5
tp1084
g2
(g6
S'\x0e\xca\xb2\x8c\xce\xe5\xda?'
p1085
tp1086
Rp1087
s(I7
I14
I2
tp1088
g2
(g6
S'\xcb<\x87\xec(\xe9\xd4?'
p1089
tp1090
Rp1091
s(I18
I12
I5
tp1092
g2
(g6
S'\x1c\xce\x04\xea\xfc*\x9a?'
p1093
tp1094
Rp1095
s(I21
I6
I2
tp1096
g2
(g6
S'_\xaf\xf0T$7\xae?'
p1097
tp1098
Rp1099
s(I12
I12
I11
tp1100
F1.0
s(I14
I12
I1
tp1101
g529
s(I2
I6
I4
tp1102
g2
(g6
S'\x88\x9e,\xfdjh\xeb?'
p1103
tp1104
Rp1105
s(I14
I1
I10
tp1106
g549
s(I16
I4
I4
tp1107
g2
(g6
S'^->)\xc47\xd6?'
p1108
tp1109
Rp1110
s(I8
I16
I7
tp1111
g406
s(I22
I16
I2
tp1112
g2
(g6
S'\xf47\x8d\xa8\xccf\x8f?'
p1113
tp1114
Rp1115
s(I10
I2
I1
tp1116
g2
(g6
S'\x9e\xb1A\x83\xde\xea\xa7?'
p1117
tp1118
Rp1119
s(I20
I11
I5
tp1120
g162
s(I4
I21
I1
tp1121
g2
(g6
S'\xbc\x06X\xb1g\xea\x97?'
p1122
tp1123
Rp1124
s(I21
I8
I1
tp1125
g2
(g6
S'\xbc\x06X\xb1g\xea\x97?'
p1126
tp1127
Rp1128
s(I12
I4
I3
tp1129
g2
(g6
S'\xca10kX3\xcd?'
p1130
tp1131
Rp1132
s(I15
I2
I4
tp1133
g1031
s(I17
I14
I1
tp1134
g2
(g6
S'\x8a\xde#\x1b\xf4z\xbd?'
p1135
tp1136
Rp1137
s(I19
I24
I2
tp1138
g2
(g6
S'\x8a\xde#\x1b\xf4z\xbd?'
p1139
tp1140
Rp1141
s(I11
I20
I4
tp1142
g162
s(I1
I1
I18
tp1143
F1.0
s(I22
I2
I2
tp1144
g2
(g6
S'\xec\x86vo\x8b\xae\xca?'
p1145
tp1146
Rp1147
s(I7
I3
I1
tp1148
g2
(g6
S'\x08\r>V\xf1\x03\xee?'
p1149
tp1150
Rp1151
s(I9
I4
I5
tp1152
g2
(g6
S'\xa0\xb3\x06\x9f\x92\x06\xe2?'
p1153
tp1154
Rp1155
s(I4
I16
I9
tp1156
g1110
s(I0
I8
I7
tp1157
g2
(g6
S'\xe0\xe7\x9e\xa0y\xe0\xc3?'
p1158
tp1159
Rp1160
s(I15
I15
I2
tp1161
F1.0
s(I3
I21
I1
tp1162
g736
s(I2
I23
I1
tp1163
g2
(g6
S'\x9e\xb1A\x83\xde\xea\xa7?'
p1164
tp1165
Rp1166
s(I20
I22
I1
tp1167
g2
(g6
S'\xbc\x06X\xb1g\xea\x97?'
p1168
tp1169
Rp1170
s(I17
I3
I9
tp1171
g2
(g6
S'\x12a\x1f\xed\x90n\x8b?'
p1172
tp1173
Rp1174
s(I6
I18
I3
tp1175
g320
s(I8
I17
I3
tp1176
g2
(g6
S'\x91\xf0Mem\xec\xc9?'
p1177
tp1178
Rp1179
s(I5
I5
I14
tp1180
F1.0
s(I16
I0
I1
tp1181
g2
(g6
S'4\xe4\xf6fV\xc9f?'
p1182
tp1183
Rp1184
s(I19
I6
I2
tp1185
g2
(g6
S'S\xc9\xfeb\xd9\xa5\xc4?'
p1186
tp1187
Rp1188
s(I13
I0
I9
tp1189
g423
s(I22
I1
I4
tp1190
g2
(g6
S'W\x96\xbf\xb8\xc0\xb4\xa0?'
p1191
tp1192
Rp1193
s(I10
I19
I1
tp1194
g2
(g6
S'`\xb1\x1d\xf6\xed\xca\xe3?'
p1195
tp1196
Rp1197
s(I9
I9
I5
tp1198
F1.0
s(I0
I11
I3
tp1199
g2
(g6
S'4\xe4\xf6fV\xc9f?'
p1200
tp1201
Rp1202
s(I18
I2
I3
tp1203
g2
(g6
S'\xec\x86vo\x8b\xae\xca?'
p1204
tp1205
Rp1206
s(I11
I7
I3
tp1207
g507
s(I2
I9
I5
tp1208
g2
(g6
S'QCo[I\xc2\xc0?'
p1209
tp1210
Rp1211
s(I1
I23
I1
tp1212
g2
(g6
S'\x9e\xb1A\x83\xde\xea\xa7?'
p1213
tp1214
Rp1215
s(I5
I1
I4
tp1216
g2
(g6
S'\x10nPn\x11\xf0\xd8?'
p1217
tp1218
Rp1219
s(I14
I0
I9
tp1220
g275
s(I16
I3
I5
tp1221
g141
s(I19
I11
I4
tp1222
g2
(g6
S'\xbam\xb4Da\x10\xb3?'
p1223
tp1224
Rp1225
s(I22
I19
I3
tp1226
g2
(g6
S'QCo[I\xc2\xc0?'
p1227
tp1228
Rp1229
s(I16
I7
I7
tp1230
g300
s(I7
I7
I10
tp1231
F1.0
s(I7
I18
I1
tp1232
g2
(g6
S'\xbc\x06X\xb1g\xea\x97?'
p1233
tp1234
Rp1235
s(I8
I13
I1
tp1236
g2
(g6
S'\x9e\xb1A\x83\xde\xea\xa7?'
p1237
tp1238
Rp1239
s(I15
I3
I7
tp1240
g2
(g6
S'\xf0\xda\x9e\xea\xf9R\xcd?'
p1241
tp1242
Rp1243
s(I3
I17
I6
tp1244
g1174
s(I20
I7
I1
tp1245
g2
(g6
S'\x9e\xb1A\x83\xde\xea\xa7?'
p1246
tp1247
Rp1248
s(I5
I14
I2
tp1249
g2
(g6
S'\x05\xdcR\xf5\xc4\xbe\x90?'
p1250
tp1251
Rp1252
s(I11
I21
I3
tp1253
g2
(g6
S'\x9be\xecPS\xd1\x95?'
p1254
tp1255
Rp1256
s(I12
I1
I7
tp1257
g262
s(I1
I1
I13
tp1258
F1.0
s(I16
I17
I1
tp1259
g2
(g6
S'\x9e\xb1A\x83\xde\xea\xa7?'
p1260
tp1261
Rp1262
s(I22
I13
I3
tp1263
g2
(g6
S'\x19a\xa1\xab\x81\x11\xa8?'
p1264
tp1265
Rp1266
s(I12
I6
I4
tp1267
g823
s(I15
I12
I3
tp1268
g2
(g6
S'\x97\t,A\xfa\xa7\xb1?'
p1269
tp1270
Rp1271
s(I12
I12
I13
tp1272
F1.0
s(I6
I8
I1
tp1273
g2
(g6
S'\xebUf/fe\xe4?'
p1274
tp1275
Rp1276
s(I1
I19
I6
tp1277
g2
(g6
S'\x92\x96\xd5\x0cI\xfa\x87?'
p1278
tp1279
Rp1280
s(I1
I6
I1
tp1281
g2
(g6
S'\x1d\xe1@\xf5\xb5\x0c\xea?'
p1282
tp1283
Rp1284
s(I5
I16
I2
tp1285
g2
(g6
S'M\xde\x15\x82m\x7f\xec?'
p1286
tp1287
Rp1288
s(I1
I9
I8
tp1289
g2
(g6
S'\x10nPn\x11\xf0\xd8?'
p1290
tp1291
Rp1292
s(I13
I1
I10
tp1293
g410
s(I10
I18
I6
tp1294
g864
s(I13
I12
I1
tp1295
g2
(g6
S'\x9e\xb1A\x83\xde\xea\xa7?'
p1296
tp1297
Rp1298
s(I18
I5
I2
tp1299
g2
(g6
S'\xf47\x8d\xa8\xccf\x8f?'
p1300
tp1301
Rp1302
s(I6
I16
I3
tp1303
g2
(g6
S';\x18\xc7f\x19\x87\x84?'
p1304
tp1305
Rp1306
s(I3
I3
I22
tp1307
F1.0
s(I11
I4
I2
tp1308
g2
(g6
S'\r\xd5T^\x86\xc0\xb0?'
p1309
tp1310
Rp1311
s(I17
I11
I3
tp1312
g402
s(I2
I8
I6
tp1313
g2
(g6
S'Eh\xdc\x14$\xb7\xa4?'
p1314
tp1315
Rp1316
s(I11
I11
I11
tp1317
F1.0
s(I19
I21
I2
tp1318
g2
(g6
S'\x0eO\xbeTU@\xb3?'
p1319
tp1320
Rp1321
s(I14
I3
I8
tp1322
g2
(g6
S'\xd4\xf5d\xdd\xf6|\xde?'
p1323
tp1324
Rp1325
s(I16
I2
I6
tp1326
g558
s(I19
I8
I5
tp1327
g2
(g6
S'\x81\xbb\xc9>"\x90\x9b?'
p1328
tp1329
Rp1330
s(I24
I17
I2
tp1331
g2
(g6
S'`\xb1\x1d\xf6\xed\xca\xe3?'
p1332
tp1333
Rp1334
s(I17
I0
I8
tp1335
g831
s(I0
I24
I1
tp1336
g1027
s(I3
I14
I2
tp1337
g2
(g6
S'\xcb<\x87\xec(\xe9\xd4?'
p1338
tp1339
Rp1340
s(I7
I19
I2
tp1341
g2
(g6
S'`\xb1\x1d\xf6\xed\xca\xe3?'
p1342
tp1343
Rp1344
s(I12
I10
I1
tp1345
g2
(g6
S'\xbc\x06X\xb1g\xea\x97?'
p1346
tp1347
Rp1348
s(I15
I0
I6
tp1349
g153
s(I17
I5
I4
tp1350
g279
s(I17
I8
I7
tp1351
g2
(g6
S'\x91\xf0Mem\xec\xc9?'
p1352
tp1353
Rp1354
s(I2
I7
I4
tp1355
g2
(g6
S'QCo[I\xc2\xc0?'
p1356
tp1357
Rp1358
s(I20
I6
I2
tp1359
g2
(g6
S'_\xaf\xf0T$7\xae?'
p1360
tp1361
Rp1362
s(I14
I14
I5
tp1363
F1.0
s(I11
I18
I2
tp1364
g2
(g6
S'Afj\xd1\xcc(\xa8?'
p1365
tp1366
Rp1367
s(I4
I12
I5
tp1368
g2
(g6
S'\x88\x9e,\xfdjh\xeb?'
p1369
tp1370
Rp1371
s(I11
I11
I13
tp1372
F1.0
s(I10
I22
I3
tp1373
g2
(g6
S'\x82\xd7T\x85T\xd1\xa3?'
p1374
tp1375
Rp1376
s(I0
I0
I20
tp1377
F1.0
s(I12
I5
I5
tp1378
g43
s(I6
I6
I15
tp1379
F1.0
s(I6
I17
I7
tp1380
g129
s(I3
I19
I3
tp1381
g2
(g6
S'\xf0$\x83\x9c\xfd\xac\xbd?'
p1382
tp1383
Rp1384
s(I14
I10
I4
tp1385
g2
(g6
S'M\xde\x15\x82m\x7f\xec?'
p1386
tp1387
Rp1388
s(I7
I19
I5
tp1389
g357
s(I0
I18
I7
tp1390
g990
s(I1
I7
I6
tp1391
g2
(g6
S'\x06\xce\xe7\xc7\x8b!\xc4?'
p1392
tp1393
Rp1394
s(I5
I17
I1
tp1395
g2
(g6
S'\x08\r>V\xf1\x03\xee?'
p1396
tp1397
Rp1398
s(I4
I15
I1
tp1399
g2
(g6
S'\x9e\xb1A\x83\xde\xea\xa7?'
p1400
tp1401
Rp1402
s(I1
I10
I9
tp1403
g59
s(I13
I2
I11
tp1404
g791
s(I13
I13
I2
tp1405
F1.0
s(I0
I9
I1
tp1406
g2
(g6
S'4\xe4\xf6fV\xc9f?'
p1407
tp1408
Rp1409
s(I18
I4
I1
tp1410
g2
(g6
S'\xebUf/fe\xe4?'
p1411
tp1412
Rp1413
s(I8
I8
I3
tp1414
F1.0
s(I15
I15
I10
tp1415
F1.0
s(I14
I20
I5
tp1416
g835
s(I11
I5
I5
tp1417
g2
(g6
S'QCo[I\xc2\xc0?'
p1418
tp1419
Rp1420
s(I20
I18
I1
tp1421
g2
(g6
S'\xebUf/fe\xe4?'
p1422
tp1423
Rp1424
s(I17
I20
I2
tp1425
g2
(g6
S'o\x1b\x03\xc0\xd3\xd7\xba?'
p1426
tp1427
Rp1428
s(I2
I11
I7
tp1429
g2
(g6
S'QCo[I\xc2\xc0?'
p1430
tp1431
Rp1432
s(I1
I17
I3
tp1433
g2
(g6
S'\x82\xd7T\x85T\xd1\xa3?'
p1434
tp1435
Rp1436
s(I5
I3
I2
tp1437
g2
(g6
S'\x8a\xde#\x1b\xf4z\xbd?'
p1438
tp1439
Rp1440
s(I16
I1
I7
tp1441
g394
s(I10
I10
I13
tp1442
F1.0
s(I10
I7
I2
tp1443
g2
(g6
S'\xebUf/fe\xe4?'
p1444
tp1445
Rp1446
s(I3
I15
I1
tp1447
g2
(g6
S'\x08\r>V\xf1\x03\xee?'
p1448
tp1449
Rp1450
s(I21
I16
I5
tp1451
g801
s(I0
I12
I9
tp1452
g113
s(I7
I16
I3
tp1453
g121
s(I9
I21
I3
tp1454
g2
(g6
S'\x9a\xc3<K\xf7\xcf\x9e?'
p1455
tp1456
Rp1457
s(I2
I16
I9
tp1458
g558
s(I14
I0
I12
tp1459
g275
s(I15
I1
I1
tp1460
g2
(g6
S'\xbc\x06X\xb1g\xea\x97?'
p1461
tp1462
Rp1463
s(I17
I6
I5
tp1464
g129
s(I17
I9
I4
tp1465
g2
(g6
S'\x0e\xca\xb2\x8c\xce\xe5\xda?'
p1466
tp1467
Rp1468
s(I6
I24
I2
tp1469
g2
(g6
S'\x05\xdcR\xf5\xc4\xbe\x90?'
p1470
tp1471
Rp1472
s(I11
I19
I1
tp1473
g2
(g6
S'\xbc\x06X\xb1g\xea\x97?'
p1474
tp1475
Rp1476
s(I10
I9
I1
tp1477
g2
(g6
S'\x8a\xde#\x1b\xf4z\xbd?'
p1478
tp1479
Rp1480
s(I15
I1
I7
tp1481
g562
s(I10
I2
I8
tp1482
g2
(g6
S'\x08`\xeb>N\xaa\xdf?'
p1483
tp1484
Rp1485
s(I22
I15
I1
tp1486
g2
(g6
S'\r\xd5T^\x86\xc0\xb0?'
p1487
tp1488
Rp1489
s(I20
I17
I3
tp1490
g2
(g6
S'>\x19c\xff^\xf1\xb3?'
p1491
tp1492
Rp1493
s(I19
I2
I7
tp1494
g681
s(I18
I21
I1
tp1495
g2
(g6
S'\x9e\xb1A\x83\xde\xea\xa7?'
p1496
tp1497
Rp1498
s(I3
I16
I2
tp1499
g2
(g6
S'\r\xd5T^\x86\xc0\xb0?'
p1500
tp1501
Rp1502
s(I23
I19
I3
tp1503
g137
s(I11
I1
I2
tp1504
g2
(g6
S'(\xca@\x95z\xe4\x8f?'
p1505
tp1506
Rp1507
s(I14
I5
I5
tp1508
g296
s(I7
I7
I18
tp1509
F1.0
s(I16
I13
I2
tp1510
g2
(g6
S'\xca10kX3\xcd?'
p1511
tp1512
Rp1513
s(I19
I5
I7
tp1514
g2
(g6
S'~?\\\xd9n\x18\xa1?'
p1515
tp1516
Rp1517
s(I4
I14
I2
tp1518
g2
(g6
S'\x05\xdcR\xf5\xc4\xbe\x90?'
p1519
tp1520
Rp1521
s(I24
I12
I2
tp1522
g2
(g6
S'`\xb1\x1d\xf6\xed\xca\xe3?'
p1523
tp1524
Rp1525
s(I4
I4
I15
tp1526
F1.0
s(I10
I20
I4
tp1527
g2
(g6
S'\x9f\xc9\x19;~\xdb\x8b?'
p1528
tp1529
Rp1530
s(I18
I1
I7
tp1531
g656
s(I21
I15
I1
tp1532
g2
(g6
S'8!\xe6\xe6S\xc8\xd6?'
p1533
tp1534
Rp1535
s(I20
I25
I1
tp1536
g2
(g6
S'\xebUf/fe\xe4?'
p1537
tp1538
Rp1539
s(I15
I5
I6
tp1540
g211
s(I17
I2
I8
tp1541
g429
s(I11
I2
I4
tp1542
g1432
s(I17
I21
I1
tp1543
g2
(g6
S':f-\r\xa8\xae\xd1?'
p1544
tp1545
Rp1546
s(I1
I18
I2
tp1547
g2
(g6
S'4\xe4\xf6fV\xc9f?'
p1548
tp1549
Rp1550
s(I23
I1
I3
tp1551
g2
(g6
S'_&Pc\xd5\x0e\xb4?'
p1552
tp1553
Rp1554
s(I17
I5
I6
tp1555
g279
s(I0
I6
I3
tp1556
g2
(g6
S'4\xe4\xf6fV\xc9f?'
p1557
tp1558
Rp1559
s(I6
I20
I4
tp1560
g2
(g6
S'\x9f\xc9\x19;~\xdb\x8b?'
p1561
tp1562
Rp1563
s(I9
I3
I5
tp1564
g2
(g6
S'\x85\xeb\xf2\xe7\x80\x05\xad?'
p1565
tp1566
Rp1567
s(I14
I6
I5
tp1568
g2
(g6
S'\xa0\xb3\x06\x9f\x92\x06\xe2?'
p1569
tp1570
Rp1571
s(I12
I3
I6
tp1572
g227
s(I7
I17
I4
tp1573
g693
s(I9
I22
I2
tp1574
g2
(g6
S"\x95T3\xc20'\xbd?"
p1575
tp1576
Rp1577
s(I17
I7
I2
tp1578
g2
(g6
S'\x8a\xde#\x1b\xf4z\xbd?'
p1579
tp1580
Rp1581
s(I17
I10
I5
tp1582
g2
(g6
S'!dG\x8e\xfa-\xa0?'
p1583
tp1584
Rp1585
s(I16
I7
I5
tp1586
g300
s(I16
I4
I10
tp1587
g1110
s(I10
I8
I2
tp1588
g2
(g6
S'\x8a\xde#\x1b\xf4z\xbd?'
p1589
tp1590
Rp1591
s(I1
I12
I2
tp1592
g2
(g6
S'?\x1e\xc4\x12Y\x13\xa0?'
p1593
tp1594
Rp1595
s(I19
I1
I4
tp1596
g1280
s(I7
I7
I5
tp1597
F1.0
s(I9
I0
I1
tp1598
g1409
s(I18
I20
I2
tp1599
g2
(g6
S'_\xaf\xf0T$7\xae?'
p1600
tp1601
Rp1602
s(I7
I13
I5
tp1603
g723
s(I23
I16
I2
tp1604
g2
(g6
S'\x0eO\xbeTU@\xb3?'
p1605
tp1606
Rp1607
s(I11
I14
I3
tp1608
g2
(g6
S'\x9dC\xa2\xe1\x12\xd6\xcb?'
p1609
tp1610
Rp1611
s(I14
I4
I6
tp1612
g2
(g6
S'\x12\xe2%B}\xcf\xc5?'
p1613
tp1614
Rp1615
s(I16
I7
I4
tp1616
g300
s(I14
I14
I7
tp1617
F1.0
s(I1
I1
I4
tp1618
F1.0
s(I19
I2
I6
tp1619
g681
s(I4
I13
I3
tp1620
g2
(g6
S'\x9e\xb1A\x83\xde\xea\xa7?'
p1621
tp1622
Rp1623
s(I6
I21
I2
tp1624
g1099
s(I21
I3
I5
tp1625
g207
s(I7
I21
I1
tp1626
g2
(g6
S'8!\xe6\xe6S\xc8\xd6?'
p1627
tp1628
Rp1629
s(I6
I7
I1
tp1630
g2
(g6
S'\xbc\x06X\xb1g\xea\x97?'
p1631
tp1632
Rp1633
s(I8
I6
I1
tp1634
g1276
s(I12
I12
I4
tp1635
F1.0
s(I14
I22
I3
tp1636
g2
(g6
S'\x82\xd7T\x85T\xd1\xa3?'
p1637
tp1638
Rp1639
s(I11
I3
I7
tp1640
g2
(g6
S'\x10nPn\x11\xf0\xd8?'
p1641
tp1642
Rp1643
s(I2
I13
I1
tp1644
g2
(g6
S'\x9e\xb1A\x83\xde\xea\xa7?'
p1645
tp1646
Rp1647
s(I19
I16
I1
tp1648
g2
(g6
S'\x9e\xb1A\x83\xde\xea\xa7?'
p1649
tp1650
Rp1651
s(I23
I6
I2
tp1652
g2
(g6
S"\x95T3\xc20'\xbd?"
p1653
tp1654
Rp1655
s(I0
I16
I5
tp1656
g2
(g6
S'W\x96\xbf\xb8\xc0\xb4\xa0?'
p1657
tp1658
Rp1659
s(I0
I5
I2
tp1660
g2
(g6
S'\x9e\xb1A\x83\xde\xea\xa7?'
p1661
tp1662
Rp1663
s(I4
I19
I3
tp1664
g2
(g6
S'\x9c!K\x06\xbe\xb0\x96?'
p1665
tp1666
Rp1667
s(I22
I10
I3
tp1668
g1376
s(I2
I14
I9
tp1669
g2
(g6
S'\x82&\x13O\x01\xf6\xd0?'
p1670
tp1671
Rp1672
s(I21
I18
I3
tp1673
g2
(g6
S'\x10nPn\x11\xf0\xd8?'
p1674
tp1675
Rp1676
s(I15
I7
I3
tp1677
g2
(g6
S'\xf1\x83\x10\xf0\x95\x17\xed?'
p1678
tp1679
Rp1680
s(I17
I0
I3
tp1681
g2
(g6
S'4\xe4\xf6fV\xc9f?'
p1682
tp1683
Rp1684
s(I7
I1
I5
tp1685
g1394
s(I16
I8
I2
tp1686
g2
(g6
S'M\xde\x15\x82m\x7f\xec?'
p1687
tp1688
Rp1689
s(I1
I13
I1
tp1690
g348
s(I0
I19
I1
tp1691
g2
(g6
S'4\xe4\xf6fV\xc9f?'
p1692
tp1693
Rp1694
s(I22
I4
I4
tp1695
g2
(g6
S'\x19a\xa1\xab\x81\x11\xa8?'
p1696
tp1697
Rp1698
s(I14
I4
I9
tp1699
g1615
s(I9
I1
I2
tp1700
g2
(g6
S'4\xe4\xf6fV\xc9f?'
p1701
tp1702
Rp1703
s(I13
I19
I1
tp1704
g2
(g6
S'\x8a\xde#\x1b\xf4z\xbd?'
p1705
tp1706
Rp1707
s(I2
I17
I3
tp1708
g2
(g6
S'\x82\xd7T\x85T\xd1\xa3?'
p1709
tp1710
Rp1711
s(I18
I23
I3
tp1712
g2
(g6
S'\x9e\xb1A\x83\xde\xea\xa7?'
p1713
tp1714
Rp1715
s(I8
I23
I1
tp1716
g2
(g6
S'\x9e\xb1A\x83\xde\xea\xa7?'
p1717
tp1718
Rp1719
s(I25
I22
I1
tp1720
g2
(g6
S'\xbc\x06X\xb1g\xea\x97?'
p1721
tp1722
Rp1723
s(I14
I7
I7
tp1724
g2
(g6
S'\x12\xe2%B}\xcf\xc5?'
p1725
tp1726
Rp1727
s(I16
I6
I7
tp1728
g533
s(I19
I12
I4
tp1729
g2
(g6
S'~?\\\xd9n\x18\xa1?'
p1730
tp1731
Rp1732
s(I16
I11
I4
tp1733
g703
s(I19
I3
I5
tp1734
g477
s(I3
I9
I4
tp1735
g1567
s(I21
I1
I3
tp1736
g2
(g6
S's\x8d\x8dB\xf0\x91\xb5?'
p1737
tp1738
Rp1739
s(I9
I19
I2
tp1740
g2
(g6
S'\x0eO\xbeTU@\xb3?'
p1741
tp1742
Rp1743
s(I12
I19
I5
tp1744
g1732
s(I14
I17
I2
tp1745
g2
(g6
S'\x05\xdcR\xf5\xc4\xbe\x90?'
p1746
tp1747
Rp1748
s(I11
I0
I6
tp1749
g39
s(I2
I12
I2
tp1750
g2
(g6
S';\x18\xc7f\x19\x87\x84?'
p1751
tp1752
Rp1753
s(I5
I6
I1
tp1754
g2
(g6
S'\x9e\xb1A\x83\xde\xea\xa7?'
p1755
tp1756
Rp1757
s(I23
I7
I1
tp1758
g2
(g6
S'`\xb1\x1d\xf6\xed\xca\xe3?'
p1759
tp1760
Rp1761
s(I22
I21
I1
tp1762
g2
(g6
S'\x12\xe2%B}\xcf\xc5?'
p1763
tp1764
Rp1765
s(I24
I24
I1
tp1766
F1.0
s(I5
I17
I8
tp1767
g279
s(I3
I10
I6
tp1768
g2
(g6
S'\xd4\xf5d\xdd\xf6|\xde?'
p1769
tp1770
Rp1771
s(I12
I1
I4
tp1772
g262
s(I9
I16
I4
tp1773
g2
(g6
S'^->)\xc47\xd6?'
p1774
tp1775
Rp1776
s(I8
I8
I10
tp1777
F1.0
s(I15
I4
I2
tp1778
g2
(g6
S'\x8a\xde#\x1b\xf4z\xbd?'
p1779
tp1780
Rp1781
s(I23
I21
I2
tp1782
g2
(g6
S'\xdd\xb4k\xcbI+\xb6?'
p1783
tp1784
Rp1785
s(I2
I11
I8
tp1786
g1432
s(I16
I2
I8
tp1787
g558
s(I10
I10
I4
tp1788
F1.0
s(I16
I23
I3
tp1789
g2
(g6
S'\x0eO\xbeTU@\xb3?'
p1790
tp1791
Rp1792
s(I0
I18
I2
tp1793
g2
(g6
S'4\xe4\xf6fV\xc9f?'
p1794
tp1795
Rp1796
s(I4
I0
I1
tp1797
g503
s(I7
I21
I5
tp1798
g2
(g6
S'~?\\\xd9n\x18\xa1?'
p1799
tp1800
Rp1801
s(I10
I17
I6
tp1802
g1585
s(I22
I8
I4
tp1803
g2
(g6
S'\x9be\xecPS\xd1\x95?'
p1804
tp1805
Rp1806
s(I9
I2
I3
tp1807
g2
(g6
S'\x9dC\xa2\xe1\x12\xd6\xcb?'
p1808
tp1809
Rp1810
s(I15
I10
I1
tp1811
g2
(g6
S'\xebUf/fe\xe4?'
p1812
tp1813
Rp1814
s(I6
I2
I3
tp1815
g2
(g6
S'\xdc\xfb\xd5\xd0\xa8\xcc\xeb?'
p1816
tp1817
Rp1818
s(I15
I1
I8
tp1819
g562
s(I15
I1
I5
tp1820
g562
s(I8
I22
I2
tp1821
g2
(g6
S'\xf47\x8d\xa8\xccf\x8f?'
p1822
tp1823
Rp1824
s(I11
I12
I1
tp1825
g2
(g6
S'\xebUf/fe\xe4?'
p1826
tp1827
Rp1828
s(I16
I5
I6
tp1829
g574
s(I19
I13
I3
tp1830
g2
(g6
S'\xc9}(\xf2!X\xa3?'
p1831
tp1832
Rp1833
s(I19
I0
I4
tp1834
g753
s(I19
I2
I5
tp1835
g681
s(I24
I9
I1
tp1836
g2
(g6
S'`\xb1\x1d\xf6\xed\xca\xe3?'
p1837
tp1838
Rp1839
s(I0
I0
I2
tp1840
F1.0
s(I5
I17
I3
tp1841
g437
s(I8
I15
I6
tp1842
g811
s(I21
I2
I2
tp1843
g2
(g6
S'_\xaf\xf0T$7\xae?'
p1844
tp1845
Rp1846
s(I12
I18
I6
tp1847
g1095
s(I14
I16
I1
tp1848
g2
(g6
S'\xbc\x06X\xb1g\xea\x97?'
p1849
tp1850
Rp1851
s(I2
I2
I12
tp1852
F1.0
s(I11
I1
I9
tp1853
g174
s(I2
I15
I3
tp1854
g2
(g6
S'\x9dC\xa2\xe1\x12\xd6\xcb?'
p1855
tp1856
Rp1857
s(I22
I20
I2
tp1858
g2
(g6
S'_\xaf\xf0T$7\xae?'
p1859
tp1860
Rp1861
s(I10
I14
I1
tp1862
g2
(g6
S'\x08\r>V\xf1\x03\xee?'
p1863
tp1864
Rp1865
s(I4
I4
I6
tp1866
F1.0
s(I3
I11
I6
tp1867
g1643
s(I4
I17
I1
tp1868
g2
(g6
S'\x9e\xb1A\x83\xde\xea\xa7?'
p1869
tp1870
Rp1871
s(I3
I11
I5
tp1872
g1643
s(I21
I20
I1
tp1873
g2
(g6
S'\xbc\x06X\xb1g\xea\x97?'
p1874
tp1875
Rp1876
s(I12
I0
I3
tp1877
g2
(g6
S'4\xe4\xf6fV\xc9f?'
p1878
tp1879
Rp1880
s(I9
I17
I7
tp1881
g1468
s(I17
I2
I1
tp1882
g2
(g6
S'\x9e\xb1A\x83\xde\xea\xa7?'
p1883
tp1884
Rp1885
s(I5
I9
I3
tp1886
g2
(g6
S'\xd4\xf5d\xdd\xf6|\xde?'
p1887
tp1888
Rp1889
s(I14
I2
I5
tp1890
g2
(g6
S'\x88\x9e,\xfdjh\xeb?'
p1891
tp1892
Rp1893
s(I16
I1
I9
tp1894
g394
s(I1
I15
I7
tp1895
g562
s(I0
I17
I3
tp1896
g1684
s(I22
I6
I2
tp1897
g2
(g6
S'\xec\x86vo\x8b\xae\xca?'
p1898
tp1899
Rp1900
s(I10
I16
I5
tp1901
g2
(g6
S'\xff\xbd\n\xc6\xd8\xef\x97?'
p1902
tp1903
Rp1904
s(I13
I21
I3
tp1905
g2
(g6
S'\x84\xe3\xd1F\xc0p\xba?'
p1906
tp1907
Rp1908
s(I15
I11
I2
tp1909
g2
(g6
S'M\xde\x15\x82m\x7f\xec?'
p1910
tp1911
Rp1912
s(I3
I25
I1
tp1913
g2
(g6
S'\xbc\x06X\xb1g\xea\x97?'
p1914
tp1915
Rp1916
s(I2
I19
I1
tp1917
g2
(g6
S'\x9e\xb1A\x83\xde\xea\xa7?'
p1918
tp1919
Rp1920
s(I6
I13
I2
tp1921
g2
(g6
S'\x9dC\xa2\xe1\x12\xd6\xcb?'
p1922
tp1923
Rp1924
s(I8
I0
I4
tp1925
g1160
s(I1
I1
I23
tp1926
F1.0
s(I8
I21
I3
tp1927
g2
(g6
S'\x9a\xc3<K\xf7\xcf\x9e?'
p1928
tp1929
Rp1930
s(I14
I1
I1
tp1931
g2
(g6
S'\x9e\xb1A\x83\xde\xea\xa7?'
p1932
tp1933
Rp1934
s(I16
I4
I1
tp1935
g2
(g6
S'\x08\r>V\xf1\x03\xee?'
p1936
tp1937
Rp1938
s(I19
I10
I2
tp1939
g2
(g6
S'`\xb1\x1d\xf6\xed\xca\xe3?'
p1940
tp1941
Rp1942
s(I16
I9
I6
tp1943
g1776
s(I1
I12
I11
tp1944
g262
s(I5
I22
I4
tp1945
g2
(g6
S'\x19a\xa1\xab\x81\x11\xa8?'
p1946
tp1947
Rp1948
s(I0
I15
I3
tp1949
g433
s(I21
I8
I4
tp1950
g2
(g6
S'E\x87.\xf7\xbd\xd9\x7f?'
p1951
tp1952
Rp1953
s(I8
I14
I5
tp1954
g2
(g6
S'\x85\xeb\xf2\xe7\x80\x05\xad?'
p1955
tp1956
Rp1957
s(I7
I24
I2
tp1958
g2
(g6
S'\x8a\xde#\x1b\xf4z\xbd?'
p1959
tp1960
Rp1961
s(I6
I0
I4
tp1962
g2
(g6
S'P\xe4\x12(\xefL\xd6?'
p1963
tp1964
Rp1965
s(I17
I17
I5
tp1966
F1.0
s(I1
I11
I4
tp1967
g174
s(I4
I16
I6
tp1968
g1110
s(I3
I8
I4
tp1969
g2
(g6
S'\x9e\xb1A\x83\xde\xea\xa7?'
p1970
tp1971
Rp1972
s(I7
I14
I1
tp1973
g2
(g6
S'\xebUf/fe\xe4?'
p1974
tp1975
Rp1976
s(I12
I7
I2
tp1977
g2
(g6
S'\r\xd5T^\x86\xc0\xb0?'
p1978
tp1979
Rp1980
s(I9
I18
I6
tp1981
g2
(g6
S'\x1c\xce\x04\xea\xfc*\x9a?'
p1982
tp1983
Rp1984
s(I20
I3
I1
tp1985
g2
(g6
S'\x9e\xb1A\x83\xde\xea\xa7?'
p1986
tp1987
Rp1988
s(I5
I10
I2
tp1989
g2
(g6
S'\x8a\xde#\x1b\xf4z\xbd?'
p1990
tp1991
Rp1992
s(I6
I15
I5
tp1993
g2
(g6
S'\xd4\xf5d\xdd\xf6|\xde?'
p1994
tp1995
Rp1996
s(I5
I5
I11
tp1997
F1.0
s(I16
I0
I6
tp1998
g1659
s(I21
I13
I2
tp1999
g2
(g6
S'\x97\t,A\xfa\xa7\xb1?'
p2000
tp2001
Rp2002
s(I16
I21
I1
tp2003
g2
(g6
S'\xbc\x06X\xb1g\xea\x97?'
p2004
tp2005
Rp2006
s(I1
I8
I6
tp2007
g2
(g6
S'\xe0\xe7\x9e\xa0y\xe0\xc3?'
p2008
tp2009
Rp2010
s(I13
I0
I12
tp2011
g423
s(I22
I1
I3
tp2012
g133
s(I10
I19
I4
tp2013
g2
(g6
S'$\xccfm\xda\x06\xab?'
p2014
tp2015
Rp2016
s(I9
I9
I14
tp2017
F1.0
s(I18
I2
I8
tp2018
g232
s(I13
I22
I2
tp2019
g2
(g6
S"\x95T3\xc20'\xbd?"
p2020
tp2021
Rp2022
s(I15
I8
I3
tp2023
g1021
s(I21
I7
I2
tp2024
g2
(g6
S'\x10W\x0bD\x0c\xb6\xa9?'
p2025
tp2026
Rp2027
s(I6
I12
I1
tp2028
g2
(g6
S'\xebUf/fe\xe4?'
p2029
tp2030
Rp2031
s(I20
I13
I5
tp2032
g963
s(I11
I7
I4
tp2033
g2
(g6
S'\x88\x9e,\xfdjh\xeb?'
p2034
tp2035
Rp2036
s(I8
I20
I4
tp2037
g2
(g6
S' {"r\x08]\x94?'
p2038
tp2039
Rp2040
s(I14
I0
I2
tp2041
g2
(g6
S'4\xe4\xf6fV\xc9f?'
p2042
tp2043
Rp2044
s(I19
I11
I1
tp2045
g1476
s(I1
I13
I8
tp2046
g410
s(I1
I16
I8
tp2047
g394
s(I13
I8
I1
tp2048
g1239
s(I18
I1
I2
tp2049
g1550
s(I0
I11
I11
tp2050
g39
s(I7
I18
I4
tp2051
g632
s(I8
I13
I4
tp2052
g852
s(I21
I4
I4
tp2053
g2
(g6
S"\xf7c8y\x1a'\x9d?"
p2054
tp2055
Rp2056
s(I8
I2
I5
tp2057
g1316
s(I2
I18
I6
tp2058
g232
s(I12
I3
I9
tp2059
g227
s(I7
I17
I5
tp2060
g693
s(I22
I22
I4
tp2061
F1.0
s(I24
I21
I2
tp2062
g937
s(I11
I11
I14
tp2063
F1.0
s(I7
I15
I2
tp2064
g2
(g6
S'\x08\r>V\xf1\x03\xee?'
p2065
tp2066
Rp2067
s(I12
I6
I1
tp2068
g2031
s(I2
I22
I3
tp2069
g2
(g6
S'\x82\xd7T\x85T\xd1\xa3?'
p2070
tp2071
Rp2072
s(I20
I2
I2
tp2073
g2
(g6
S'_\xaf\xf0T$7\xae?'
p2074
tp2075
Rp2076
s(I8
I16
I1
tp2077
g2
(g6
S'\x08\r>V\xf1\x03\xee?'
p2078
tp2079
Rp2080
s(I23
I24
I1
tp2081
g2
(g6
S'\x8a\xde#\x1b\xf4z\xbd?'
p2082
tp2083
Rp2084
s(I11
I22
I2
tp2085
g2
(g6
S'Afj\xd1\xcc(\xa8?'
p2086
tp2087
Rp2088
s(I5
I5
I18
tp2089
F1.0
s(I1
I6
I4
tp2090
g2
(g6
S'P\xe4\x12(\xefL\xd6?'
p2091
tp2092
Rp2093
s(I1
I17
I8
tp2094
g537
s(I1
I9
I5
tp2095
g1292
s(I21
I16
I3
tp2096
g2
(g6
S'^\xb9\xbd\x89\xe92q?'
p2097
tp2098
Rp2099
s(I24
I3
I2
tp2100
g2
(g6
S'\x8a\xde#\x1b\xf4z\xbd?'
p2101
tp2102
Rp2103
s(I15
I9
I4
tp2104
g157
s(I3
I23
I3
tp2105
g2
(g6
S'_\xa6\x89\xa1$\x9a\xd5?'
p2106
tp2107
Rp2108
s(I15
I4
I11
tp2109
g1035
s(I12
I20
I5
tp2110
g652
s(I11
I4
I5
tp2111
g972
s(I20
I18
I2
tp2112
g1602
s(I11
I11
I4
tp2113
F1.0
s(I16
I10
I6
tp2114
g1904
s(I14
I3
I3
tp2115
g2
(g6
S'\x95\xc6\xb6?\xec\xee\xd2?'
p2116
tp2117
Rp2118
s(I16
I2
I3
tp2119
g2
(g6
S';\x18\xc7f\x19\x87\x84?'
p2120
tp2121
Rp2122
s(I4
I11
I1
tp2123
g2
(g6
S'\xebUf/fe\xe4?'
p2124
tp2125
Rp2126
s(I22
I18
I1
tp2127
g2
(g6
S'\x9e\xb1A\x83\xde\xea\xa7?'
p2128
tp2129
Rp2130
s(I1
I14
I9
tp2131
g549
s(I13
I9
I2
tp2132
g2
(g6
S'\xf1\x83\x10\xf0\x95\x17\xed?'
p2133
tp2134
Rp2135
s(I0
I13
I1
tp2136
g2
(g6
S'4\xe4\xf6fV\xc9f?'
p2137
tp2138
Rp2139
s(I18
I0
I1
tp2140
g2
(g6
S'4\xe4\xf6fV\xc9f?'
p2141
tp2142
Rp2143
s(I7
I19
I7
tp2144
g357
s(I8
I12
I3
tp2145
g241
s(I8
I1
I4
tp2146
g2010
s(I12
I23
I1
tp2147
g2
(g6
S'\x9e\xb1A\x83\xde\xea\xa7?'
p2148
tp2149
Rp2150
s(I17
I8
I2
tp2151
g2
(g6
S'\x08\r>V\xf1\x03\xee?'
p2152
tp2153
Rp2154
s(I1
I21
I3
tp2155
g1739
s(I5
I15
I2
tp2156
g2
(g6
S'\x8a\xde#\x1b\xf4z\xbd?'
p2157
tp2158
Rp2159
s(I17
I6
I7
tp2160
g129
s(I10
I3
I2
tp2161
g511
s(I16
I16
I3
tp2162
F1.0
s(I0
I0
I9
tp2163
F1.0
s(I4
I22
I4
tp2164
g1698
s(I7
I12
I3
tp2165
g2
(g6
S'\x9e\xb1A\x83\xde\xea\xa7?'
p2166
tp2167
Rp2168
s(I6
I6
I20
tp2169
F1.0
s(I15
I13
I1
tp2170
g2
(g6
S'\x8a\xde#\x1b\xf4z\xbd?'
p2171
tp2172
Rp2173
s(I20
I20
I4
tp2174
F1.0
s(I19
I1
I5
tp2175
g1280
s(I11
I0
I8
tp2176
g39
s(I20
I1
I3
tp2177
g2
(g6
S'\x9d5\xbc\xb9k\x19\x8b?'
p2178
tp2179
Rp2180
s(I5
I12
I4
tp2181
g2
(g6
S'\x88\x9e,\xfdjh\xeb?'
p2182
tp2183
Rp2184
s(I11
I23
I1
tp2185
g1006
s(I1
I7
I3
tp2186
g24
s(I1
I10
I4
tp2187
g59
s(I20
I5
I5
tp2188
g80
s(I22
I3
I1
tp2189
g2
(g6
S'\r\xd5T^\x86\xc0\xb0?'
p2190
tp2191
Rp2192
s(I10
I21
I2
tp2193
g2
(g6
S'\x0eO\xbeTU@\xb3?'
p2194
tp2195
Rp2196
s(I4
I20
I3
tp2197
g2
(g6
S'\xf9\x995\x18\t?\x8e?'
p2198
tp2199
Rp2200
s(I18
I17
I1
tp2201
g2
(g6
S'\x9e\xb1A\x83\xde\xea\xa7?'
p2202
tp2203
Rp2204
s(I3
I20
I2
tp2205
g2
(g6
S'\x1b\xbcqZ\xd3\xf1\x9f?'
p2206
tp2207
Rp2208
s(I10
I2
I3
tp2209
g2
(g6
S'\xdc\xfb\xd5\xd0\xa8\xcc\xeb?'
p2210
tp2211
Rp2212
s(I6
I14
I7
tp2213
g455
s(I11
I5
I2
tp2214
g2
(g6
S'\r\xd5T^\x86\xc0\xb0?'
p2215
tp2216
Rp2217
s(I8
I18
I6
tp2218
g775
s(I16
I1
I2
tp2219
g2
(g6
S'?\x1e\xc4\x12Y\x13\xa0?'
p2220
tp2221
Rp2222
s(I10
I10
I10
tp2223
F1.0
s(I4
I10
I2
tp2224
g2
(g6
S'\x8a\xde#\x1b\xf4z\xbd?'
p2225
tp2226
Rp2227
s(I24
I16
I2
tp2228
g2
(g6
S'`\xb1\x1d\xf6\xed\xca\xe3?'
p2229
tp2230
Rp2231
s(I5
I13
I8
tp2232
g2
(g6
S'\xdf\xd3e\xd6\x95\x18\xdf?'
p2233
tp2234
Rp2235
s(I0
I7
I7
tp2236
g105
s(I13
I10
I3
tp2237
g2
(g6
S'\xd4\xf5d\xdd\xf6|\xde?'
p2238
tp2239
Rp2240
s(I0
I12
I6
tp2241
g113
s(I3
I2
I1
tp2242
g2
(g6
S'\xbc\x06X\xb1g\xea\x97?'
p2243
tp2244
Rp2245
s(I21
I11
I1
tp2246
g2
(g6
S'\xbc\x06X\xb1g\xea\x97?'
p2247
tp2248
Rp2249
s(I9
I21
I4
tp2250
g2
(g6
S"\xf7c8y\x1a'\x9d?"
p2251
tp2252
Rp2253
s(I8
I11
I2
tp2254
g2
(g6
S'\r\xd5T^\x86\xc0\xb0?'
p2255
tp2256
Rp2257
s(I17
I6
I8
tp2258
g129
s(I12
I22
I2
tp2259
g2
(g6
S'\xf47\x8d\xa8\xccf\x8f?'
p2260
tp2261
Rp2262
s(I17
I8
I8
tp2263
g1354
s(I17
I9
I1
tp2264
g2
(g6
S'\x08\r>V\xf1\x03\xee?'
p2265
tp2266
Rp2267
s(I1
I22
I2
tp2268
g2
(g6
S'4\xe4\xf6fV\xc9f?'
p2269
tp2270
Rp2271
s(I5
I0
I3
tp2272
g2
(g6
S'4\xe4\xf6fV\xc9f?'
p2273
tp2274
Rp2275
s(I20
I4
I6
tp2276
g2
(g6
S'\xe8W\x10\xc6\xa9i\xbd?'
p2277
tp2278
Rp2279
s(I10
I2
I5
tp2280
g1485
s(I4
I24
I2
tp2281
g2
(g6
S'`\xb1\x1d\xf6\xed\xca\xe3?'
p2282
tp2283
Rp2284
s(I22
I15
I4
tp2285
g2
(g6
S'\x85\xab\x91\x14\x86C\xa8?'
p2286
tp2287
Rp2288
s(I0
I15
I8
tp2289
g153
s(I4
I21
I5
tp2290
g2056
s(I2
I24
I1
tp2291
g2
(g6
S'\xbc\x06X\xb1g\xea\x97?'
p2292
tp2293
Rp2294
s(I21
I8
I3
tp2295
g1930
s(I11
I1
I7
tp2296
g174
s(I20
I0
I4
tp2297
g2
(g6
S' {"r\x08]\x94?'
p2298
tp2299
Rp2300
s(I5
I13
I7
tp2301
g2235
s(I10
I1
I9
tp2302
g59
s(I13
I3
I9
tp2303
g190
s(I10
I20
I1
tp2304
g292
s(I9
I4
I1
tp2305
g2
(g6
S'\x9e\xb1A\x83\xde\xea\xa7?'
p2306
tp2307
Rp2308
s(I0
I8
I3
tp2309
g2
(g6
S'4\xe4\xf6fV\xc9f?'
p2310
tp2311
Rp2312
s(I18
I16
I2
tp2313
g2
(g6
S'\xf47\x8d\xa8\xccf\x8f?'
p2314
tp2315
Rp2316
s(I3
I21
I5
tp2317
g207
s(I5
I20
I2
tp2318
g2
(g6
S'o\x1b\x03\xc0\xd3\xd7\xba?'
p2319
tp2320
Rp2321
s(I11
I2
I3
tp2322
g2
(g6
S'\x9dC\xa2\xe1\x12\xd6\xcb?'
p2323
tp2324
Rp2325
s(I8
I17
I7
tp2326
g1354
s(I25
I21
I1
tp2327
g2
(g6
S'\x9e\xb1A\x83\xde\xea\xa7?'
p2328
tp2329
Rp2330
s(I17
I24
I1
tp2331
g2
(g6
S'`\xb1\x1d\xf6\xed\xca\xe3?'
p2332
tp2333
Rp2334
s(I4
I9
I3
tp2335
g2
(g6
S'\xcb<\x87\xec(\xe9\xd4?'
p2336
tp2337
Rp2338
s(I10
I6
I2
tp2339
g2
(g6
S'\xcb<\x87\xec(\xe9\xd4?'
p2340
tp2341
Rp2342
s(I13
I0
I5
tp2343
g423
s(I0
I6
I4
tp2344
g1965
s(I0
I11
I7
tp2345
g39
s(I18
I2
I7
tp2346
g232
s(I3
I3
I2
tp2347
F1.0
s(I7
I17
I1
tp2348
g2
(g6
S'\x8a\xde#\x1b\xf4z\xbd?'
p2349
tp2350
Rp2351
s(I10
I0
I3
tp2352
g2
(g6
S'4\xe4\xf6fV\xc9f?'
p2353
tp2354
Rp2355
s(I8
I10
I1
tp2356
g2
(g6
S'\xbc\x06X\xb1g\xea\x97?'
p2357
tp2358
Rp2359
s(I12
I21
I3
tp2360
g2
(g6
S'\x9a\xc3<K\xf7\xcf\x9e?'
p2361
tp2362
Rp2363
s(I2
I9
I1
tp2364
g2
(g6
S'\x9e\xb1A\x83\xde\xea\xa7?'
p2365
tp2366
Rp2367
s(I20
I4
I1
tp2368
g2
(g6
S'\x08\r>V\xf1\x03\xee?'
p2369
tp2370
Rp2371
s(I19
I20
I1
tp2372
g2
(g6
S'\x9e\xb1A\x83\xde\xea\xa7?'
p2373
tp2374
Rp2375
s(I23
I2
I2
tp2376
g2
(g6
S"\x95T3\xc20'\xbd?"
p2377
tp2378
Rp2379
s(I10
I5
I4
tp2380
g266
s(I22
I14
I3
tp2381
g1639
s(I14
I4
I10
tp2382
g1615
s(I0
I14
I11
tp2383
g275
s(I15
I3
I3
tp2384
g2
(g6
S'\xf1\x83\x10\xf0\x95\x17\xed?'
p2385
tp2386
Rp2387
s(I3
I17
I2
tp2388
g779
s(I6
I21
I5
tp2389
g2
(g6
S'\xbam\xb4Da\x10\xb3?'
p2390
tp2391
Rp2392
s(I20
I7
I5
tp2393
g2
(g6
S'\x1c\xce\x04\xea\xfc*\x9a?'
p2394
tp2395
Rp2396
s(I5
I14
I6
tp2397
g296
s(I2
I14
I10
tp2398
g1672
s(I16
I12
I2
tp2399
g2
(g6
S'M\xde\x15\x82m\x7f\xec?'
p2400
tp2401
Rp2402
s(I1
I1
I1
tp2403
F1.0
s(I0
I23
I1
tp2404
g541
s(I16
I3
I7
tp2405
g141
s(I13
I4
I8
tp2406
g312
s(I9
I5
I2
tp2407
g2
(g6
S'\xcb<\x87\xec(\xe9\xd4?'
p2408
tp2409
Rp2410
s(I13
I15
I1
tp2411
g2173
s(I18
I6
I4
tp2412
g787
s(I3
I18
I4
tp2413
g332
s(I10
I0
I10
tp2414
g361
s(I1
I19
I2
tp2415
g2
(g6
S'\x9e\xb1A\x83\xde\xea\xa7?'
p2416
tp2417
Rp2418
s(I4
I8
I4
tp2419
g2
(g6
S'\x10nPn\x11\xf0\xd8?'
p2420
tp2421
Rp2422
s(I13
I1
I6
tp2423
g410
s(I0
I5
I5
tp2424
g2
(g6
S'\x10nPn\x11\xf0\xd8?'
p2425
tp2426
Rp2427
s(I4
I19
I6
tp2428
g55
s(I0
I10
I4
tp2429
g361
s(I18
I5
I6
tp2430
g365
s(I3
I0
I3
tp2431
g2
(g6
S'4\xe4\xf6fV\xc9f?'
p2432
tp2433
Rp2434
s(I21
I13
I3
tp2435
g1908
s(I9
I23
I2
tp2436
g2
(g6
S'\x9c)\x180\x05\xdd\xa1?'
p2437
tp2438
Rp2439
s(I6
I15
I9
tp2440
g1996
s(I14
I21
I2
tp2441
g2
(g6
S'\xdd\xb4k\xcbI+\xb6?'
p2442
tp2443
Rp2444
s(I6
I17
I8
tp2445
g129
s(I2
I2
I17
tp2446
F1.0
s(I2
I8
I2
tp2447
g2
(g6
S';\x18\xc7f\x19\x87\x84?'
p2448
tp2449
Rp2450
s(I1
I16
I4
tp2451
g394
s(I5
I2
I1
tp2452
g2
(g6
S'\x9e\xb1A\x83\xde\xea\xa7?'
p2453
tp2454
Rp2455
s(I23
I3
I1
tp2456
g2
(g6
S'`\xb1\x1d\xf6\xed\xca\xe3?'
p2457
tp2458
Rp2459
s(I11
I17
I4
tp2460
g570
s(I16
I8
I7
tp2461
g406
s(I21
I0
I3
tp2462
g2
(g6
S'4\xe4\xf6fV\xc9f?'
p2463
tp2464
Rp2465
s(I22
I9
I2
tp2466
g1577
s(I0
I13
I10
tp2467
g423
s(I15
I21
I5
tp2468
g203
s(I2
I17
I6
tp2469
g429
s(I15
I0
I2
tp2470
g2
(g6
S'\xbc\x06X\xb1g\xea\x97?'
p2471
tp2472
Rp2473
s(I6
I20
I6
tp2474
g1563
s(I23
I17
I2
tp2475
g2
(g6
S'\x0eO\xbeTU@\xb3?'
p2476
tp2477
Rp2478
s(I20
I6
I6
tp2479
g1563
s(I5
I15
I9
tp2480
g211
s(I16
I6
I8
tp2481
g533
s(I11
I18
I6
tp2482
g11
s(I16
I11
I3
tp2483
g2
(g6
S'\xca10kX3\xcd?'
p2484
tp2485
Rp2486
s(I0
I22
I2
tp2487
g2
(g6
S'4\xe4\xf6fV\xc9f?'
p2488
tp2489
Rp2490
s(I4
I12
I1
tp2491
g2
(g6
S'\x08\r>V\xf1\x03\xee?'
p2492
tp2493
Rp2494
s(I16
I16
I10
tp2495
F1.0
s(I9
I6
I3
tp2496
g2
(g6
S'\x9dC\xa2\xe1\x12\xd6\xcb?'
p2497
tp2498
Rp2499
s(I25
I13
I1
tp2500
g2
(g6
S'\xbc\x06X\xb1g\xea\x97?'
p2501
tp2502
Rp2503
s(I15
I22
I1
tp2504
g1489
s(I21
I1
I4
tp2505
g2
(g6
S' {"r\x08]\x94?'
p2506
tp2507
Rp2508
s(I6
I6
I3
tp2509
F1.0
s(I18
I18
I4
tp2510
F1.0
s(I3
I19
I7
tp2511
g477
s(I6
I11
I4
tp2512
g481
s(I12
I24
I1
tp2513
g2
(g6
S'\x9e\xb1A\x83\xde\xea\xa7?'
p2514
tp2515
Rp2516
s(I11
I0
I1
tp2517
g2
(g6
S'4\xe4\xf6fV\xc9f?'
p2518
tp2519
Rp2520
s(I12
I0
I10
tp2521
g113
s(I4
I15
I5
tp2522
g1035
s(I24
I13
I1
tp2523
g2
(g6
S'`\xb1\x1d\xf6\xed\xca\xe3?'
p2524
tp2525
Rp2526
s(I13
I2
I7
tp2527
g791
s(I0
I4
I2
tp2528
g2
(g6
S'?\x1e\xc4\x12Y\x13\xa0?'
p2529
tp2530
Rp2531
s(I4
I18
I5
tp2532
g519
s(I13
I13
I6
tp2533
F1.0
s(I0
I9
I5
tp2534
g515
s(I18
I4
I5
tp2535
g519
s(I21
I14
I2
tp2536
g2444
s(I9
I16
I3
tp2537
g2
(g6
S'\xca10kX3\xcd?'
p2538
tp2539
Rp2540
s(I8
I8
I15
tp2541
F1.0
s(I14
I20
I1
tp2542
g2
(g6
S'\xbc\x06X\xb1g\xea\x97?'
p2543
tp2544
Rp2545
s(I2
I11
I3
tp2546
g2325
s(I1
I17
I7
tp2547
g537
s(I4
I18
I4
tp2548
g519
s(I10
I10
I1
tp2549
F1.0
s(I13
I13
I9
tp2550
F1.0
s(I22
I8
I1
tp2551
g2
(g6
S'\xbc\x06X\xb1g\xea\x97?'
p2552
tp2553
Rp2554
s(I21
I16
I1
tp2555
g2006
s(I20
I10
I6
tp2556
g1530
s(I15
I10
I4
tp2557
g554
s(I20
I3
I5
tp2558
g1053
s(I2
I16
I5
tp2559
g558
s(I18
I22
I1
tp2560
g2130
s(I17
I6
I1
tp2561
g2
(g6
S'\x9e\xb1A\x83\xde\xea\xa7?'
p2562
tp2563
Rp2564
s(I5
I5
I12
tp2565
F1.0
s(I17
I9
I8
tp2566
g1468
s(I16
I5
I9
tp2567
g574
s(I11
I19
I5
tp2568
g1225
s(I20
I23
I3
tp2569
g2
(g6
S'\x9a\xc3<K\xf7\xcf\x9e?'
p2570
tp2571
Rp2572
s(I0
I21
I3
tp2573
g2465
s(I0
I0
I7
tp2574
F1.0
s(I13
I17
I3
tp2575
g2
(g6
S'\x0e\xca\xb2\x8c\xce\xe5\xda?'
p2576
tp2577
Rp2578
s(I15
I23
I2
tp2579
g2
(g6
S'\x0eO\xbeTU@\xb3?'
p2580
tp2581
Rp2582
s(I21
I2
I5
tp2583
g2
(g6
S'\xbam\xb4Da\x10\xb3?'
p2584
tp2585
Rp2586
s(I6
I1
I2
tp2587
g2
(g6
S'4\xe4\xf6fV\xc9f?'
p2588
tp2589
Rp2590
s(I5
I4
I1
tp2591
g2
(g6
S'\x9e\xb1A\x83\xde\xea\xa7?'
p2592
tp2593
Rp2594
s(I3
I16
I6
tp2595
g141
s(I2
I2
I9
tp2596
F1.0
s(I14
I5
I1
tp2597
g2
(g6
S'\x8a\xde#\x1b\xf4z\xbd?'
p2598
tp2599
Rp2600
s(I19
I14
I2
tp2601
g2
(g6
S'S\xc9\xfeb\xd9\xa5\xc4?'
p2602
tp2603
Rp2604
s(I4
I14
I6
tp2605
g1615
s(I4
I4
I11
tp2606
F1.0
s(I0
I3
I3
tp2607
g2434
s(I4
I17
I4
tp2608
g624
s(I18
I7
I4
tp2609
g632
s(I12
I0
I8
tp2610
g113
s(I7
I20
I2
tp2611
g2
(g6
S'\x1b\xbcqZ\xd3\xf1\x9f?'
p2612
tp2613
Rp2614
s(I10
I19
I7
tp2615
g2016
s(I15
I5
I2
tp2616
g2159
s(I20
I12
I5
tp2617
g652
s(I5
I9
I4
tp2618
g2
(g6
S'M\xde\x15\x82m\x7f\xec?'
p2619
tp2620
Rp2621
s(I2
I10
I4
tp2622
g145
s(I1
I18
I6
tp2623
g656
s(I19
I19
I4
tp2624
F1.0
s(I7
I10
I1
tp2625
g2
(g6
S'\xebUf/fe\xe4?'
p2626
tp2627
Rp2628
s(I9
I3
I1
tp2629
g2
(g6
S'\x8a\xde#\x1b\xf4z\xbd?'
p2630
tp2631
Rp2632
s(I12
I3
I2
tp2633
g2
(g6
S'\r\xd5T^\x86\xc0\xb0?'
p2634
tp2635
Rp2636
s(I2
I19
I4
tp2637
g681
s(I2
I18
I8
tp2638
g232
s(I15
I6
I4
tp2639
g1996
s(I17
I7
I6
tp2640
g693
s(I20
I15
I1
tp2641
g2
(g6
S'\x9e\xb1A\x83\xde\xea\xa7?'
p2642
tp2643
Rp2644
s(I8
I19
I5
tp2645
g1330
s(I11
I16
I4
tp2646
g703
s(I16
I9
I1
tp2647
g2
(g6
S'\x9e\xb1A\x83\xde\xea\xa7?'
p2648
tp2649
Rp2650
s(I0
I20
I4
tp2651
g2300
s(I22
I5
I3
tp2652
g2
(g6
S'\x19a\xa1\xab\x81\x11\xa8?'
p2653
tp2654
Rp2655
s(I13
I7
I5
tp2656
g723
s(I0
I15
I6
tp2657
g153
s(I9
I0
I5
tp2658
g515
s(I13
I18
I2
tp2659
g2
(g6
S"\x95T3\xc20'\xbd?"
p2660
tp2661
Rp2662
s(I15
I20
I3
tp2663
g2
(g6
S'\x9be\xecPS\xd1\x95?'
p2664
tp2665
Rp2666
s(I3
I14
I10
tp2667
g1325
s(I21
I3
I2
tp2668
g2
(g6
S'\x10W\x0bD\x0c\xb6\xa9?'
p2669
tp2670
Rp2671
s(I6
I0
I1
tp2672
g2
(g6
S'4\xe4\xf6fV\xc9f?'
p2673
tp2674
Rp2675
s(I15
I3
I10
tp2676
g1243
s(I3
I3
I11
tp2677
F1.0
s(I14
I4
I2
tp2678
g1521
s(I2
I14
I1
tp2679
g2
(g6
S'\x9e\xb1A\x83\xde\xea\xa7?'
p2680
tp2681
Rp2682
s(I19
I15
I1
tp2683
g71
s(I10
I1
I7
tp2684
g59
s(I4
I13
I7
tp2685
g312
s(I1
I11
I9
tp2686
g174
s(I13
I4
I1
tp2687
g2
(g6
S'\x9e\xb1A\x83\xde\xea\xa7?'
p2688
tp2689
Rp2690
s(I4
I16
I3
tp2691
g2
(g6
S'M\xde\x15\x82m\x7f\xec?'
p2692
tp2693
Rp2694
s(I9
I18
I1
tp2695
g2
(g6
S'\x9e\xb1A\x83\xde\xea\xa7?'
p2696
tp2697
Rp2698
s(I17
I3
I3
tp2699
g2
(g6
S'\x12a\x1f\xed\x90n\x8b?'
p2700
tp2701
Rp2702
s(I20
I3
I4
tp2703
g1053
s(I5
I10
I5
tp2704
g266
s(I2
I13
I5
tp2705
g791
s(I5
I5
I4
tp2706
F1.0
s(I16
I21
I4
tp2707
g801
s(I0
I16
I1
tp2708
g1184
s(I9
I9
I11
tp2709
F1.0
s(I7
I11
I2
tp2710
g2
(g6
S'M\xde\x15\x82m\x7f\xec?'
p2711
tp2712
Rp2713
s(I3
I3
I20
tp2714
F1.0
s(I12
I2
I1
tp2715
g2
(g6
S'\xebUf/fe\xe4?'
p2716
tp2717
Rp2718
s(I20
I15
I3
tp2719
g2666
s(I15
I8
I6
tp2720
g811
s(I2
I18
I3
tp2721
g1206
s(I15
I7
I7
tp2722
g2
(g6
S'\xd4\xf5d\xdd\xf6|\xde?'
p2723
tp2724
Rp2725
s(I17
I0
I7
tp2726
g831
s(I6
I17
I1
tp2727
g2564
s(I8
I20
I1
tp2728
g2
(g6
S'\x08\r>V\xf1\x03\xee?'
p2729
tp2730
Rp2731
s(I23
I20
I1
tp2732
g2
(g6
S'\x9e\xb1A\x83\xde\xea\xa7?'
p2733
tp2734
Rp2735
s(I25
I17
I1
tp2736
g2
(g6
S'\xbc\x06X\xb1g\xea\x97?'
p2737
tp2738
Rp2739
s(I3
I14
I9
tp2740
g1325
s(I0
I19
I5
tp2741
g753
s(I4
I1
I2
tp2742
g2
(g6
S'?\x1e\xc4\x12Y\x13\xa0?'
p2743
tp2744
Rp2745
s(I24
I7
I2
tp2746
g1961
s(I13
I8
I4
tp2747
g852
s(I7
I7
I16
tp2748
F1.0
s(I0
I14
I5
tp2749
g275
s(I9
I1
I6
tp2750
g1292
s(I13
I19
I5
tp2751
g859
s(I21
I4
I3
tp2752
g2
(g6
S'^\xb9\xbd\x89\xe92q?'
p2753
tp2754
Rp2755
s(I15
I0
I11
tp2756
g153
s(I24
I18
I1
tp2757
g2
(g6
S'\xbc\x06X\xb1g\xea\x97?'
p2758
tp2759
Rp2760
s(I14
I18
I4
tp2761
g949
s(I5
I14
I8
tp2762
g296
s(I14
I7
I3
tp2763
g2
(g6
S'\x95\xc6\xb6?\xec\xee\xd2?'
p2764
tp2765
Rp2766
s(I16
I6
I3
tp2767
g1306
s(I5
I25
I1
tp2768
g545
s(I22
I22
I1
tp2769
F1.0
s(I10
I0
I4
tp2770
g361
s(I7
I16
I4
tp2771
g300
s(I13
I5
I2
tp2772
g2
(g6
S'\xcb<\x87\xec(\xe9\xd4?'
p2773
tp2774
Rp2775
s(I0
I1
I1
tp2776
g2
(g6
S'4\xe4\xf6fV\xc9f?'
p2777
tp2778
Rp2779
s(I4
I23
I2
tp2780
g2
(g6
S'\x0eO\xbeTU@\xb3?'
p2781
tp2782
Rp2783
s(I12
I19
I1
tp2784
g897
s(I17
I12
I2
tp2785
g2
(g6
S'\x08\r>V\xf1\x03\xee?'
p2786
tp2787
Rp2788
s(I0
I20
I6
tp2789
g2300
s(I5
I11
I2
tp2790
g2217
s(I2
I12
I6
tp2791
g369
s(I17
I5
I9
tp2792
g279
s(I25
I0
I1
tp2793
g2
(g6
S'4\xe4\xf6fV\xc9f?'
p2794
tp2795
Rp2796
s(I10
I15
I2
tp2797
g2
(g6
S'\xebUf/fe\xe4?'
p2798
tp2799
Rp2800
s(I16
I20
I3
tp2801
g957
s(I13
I23
I2
tp2802
g2
(g6
S'\x9c)\x180\x05\xdd\xa1?'
p2803
tp2804
Rp2805
s(I15
I9
I1
tp2806
g2
(g6
S'\x8a\xde#\x1b\xf4z\xbd?'
p2807
tp2808
Rp2809
s(I2
I21
I2
tp2810
g1846
s(I1
I1
I22
tp2811
F1.0
s(I15
I4
I6
tp2812
g1035
s(I17
I1
I4
tp2813
g537
s(I6
I16
I2
tp2814
g893
s(I14
I14
I9
tp2815
F1.0
s(I11
I11
I1
tp2816
F1.0
s(I4
I11
I4
tp2817
g972
s(I1
I14
I12
tp2818
g549
s(I0
I18
I6
tp2819
g990
s(I22
I7
I1
tp2820
g373
s(I24
I6
I1
tp2821
g2
(g6
S'\xbc\x06X\xb1g\xea\x97?'
p2822
tp2823
Rp2824
s(I19
I22
I3
tp2825
g1229
s(I0
I13
I4
tp2826
g423
s(I20
I9
I3
tp2827
g2
(g6
S's\x8d\x8dB\xf0\x91\xb5?'
p2828
tp2829
Rp2830
s(I13
I20
I4
tp2831
g963
s(I18
I13
I1
tp2832
g2
(g6
S'\x9e\xb1A\x83\xde\xea\xa7?'
p2833
tp2834
Rp2835
s(I3
I24
I2
tp2836
g2103
s(I1
I21
I4
tp2837
g2508
s(I5
I15
I7
tp2838
g211
s(I14
I6
I4
tp2839
g2
(g6
S'\x88\x9e,\xfdjh\xeb?'
p2840
tp2841
Rp2842
s(I16
I5
I2
tp2843
g1288
s(I18
I11
I5
tp2844
g11
s(I24
I20
I2
tp2845
g328
s(I13
I6
I3
tp2846
g2
(g6
S'\x10nPn\x11\xf0\xd8?'
p2847
tp2848
Rp2849
s(I0
I0
I14
tp2850
F1.0
s(I4
I22
I1
tp2851
g2
(g6
S'\xbc\x06X\xb1g\xea\x97?'
p2852
tp2853
Rp2854
s(I3
I6
I1
tp2855
g872
s(I21
I23
I1
tp2856
g2
(g6
S'8!\xe6\xe6S\xc8\xd6?'
p2857
tp2858
Rp2859
s(I8
I15
I2
tp2860
g2
(g6
S'\x8a\xde#\x1b\xf4z\xbd?'
p2861
tp2862
Rp2863
s(I6
I6
I17
tp2864
F1.0
s(I12
I18
I2
tp2865
g2
(g6
S'\xf47\x8d\xa8\xccf\x8f?'
p2866
tp2867
Rp2868
s(I17
I13
I1
tp2869
g2
(g6
S'\x08\r>V\xf1\x03\xee?'
p2870
tp2871
Rp2872
s(I20
I1
I6
tp2873
g888
s(I5
I12
I3
tp2874
g2
(g6
S'\x10nPn\x11\xf0\xd8?'
p2875
tp2876
Rp2877
s(I2
I15
I7
tp2878
g1031
s(I4
I15
I11
tp2879
g1035
s(I16
I19
I2
tp2880
g2
(g6
S'\x8a\xde#\x1b\xf4z\xbd?'
p2881
tp2882
Rp2883
s(I4
I4
I2
tp2884
F1.0
s(I7
I2
I5
tp2885
g1358
s(I12
I0
I7
tp2886
g113
s(I3
I20
I5
tp2887
g1053
s(I2
I20
I1
tp2888
g2
(g6
S'\xebUf/fe\xe4?'
p2889
tp2890
Rp2891
s(I5
I20
I1
tp2892
g2
(g6
S'\x9e\xb1A\x83\xde\xea\xa7?'
p2893
tp2894
Rp2895
s(I17
I2
I5
tp2896
g429
s(I6
I19
I3
tp2897
g2
(g6
S'\x85\xab\x91\x14\x86C\xa8?'
p2898
tp2899
Rp2900
s(I8
I18
I3
tp2901
g2
(g6
S"\x95T3\xc20'\xbd?"
p2902
tp2903
Rp2904
s(I1
I17
I9
tp2905
g537
s(I14
I2
I1
tp2906
g2682
s(I1
I4
I2
tp2907
g2745
s(I19
I9
I4
tp2908
g2
(g6
S'~?\\\xd9n\x18\xa1?'
p2909
tp2910
Rp2911
s(I1
I15
I11
tp2912
g562
s(I0
I17
I7
tp2913
g831
s(I10
I16
I1
tp2914
g2
(g6
S'\xbc\x06X\xb1g\xea\x97?'
p2915
tp2916
Rp2917
s(I9
I8
I1
tp2918
g381
s(I1
I1
I11
tp2919
F1.0
s(I0
I12
I3
tp2920
g1880
s(I16
I7
I2
tp2921
g2
(g6
S'\r\xd5T^\x86\xc0\xb0?'
p2922
tp2923
Rp2924
s(I18
I12
I2
tp2925
g2868
s(I21
I6
I1
tp2926
g2
(g6
S'\x9e\xb1A\x83\xde\xea\xa7?'
p2927
tp2928
Rp2929
s(I11
I6
I3
tp2930
g2
(g6
S'\x9dC\xa2\xe1\x12\xd6\xcb?'
p2931
tp2932
Rp2933
s(I14
I1
I5
tp2934
g549
s(I16
I4
I5
tp2935
g1110
s(I19
I10
I6
tp2936
g2016
s(I22
I16
I3
tp2937
g2
(g6
S'{m\x81\xa0\xd9\xbe}?'
p2938
tp2939
Rp2940
s(I10
I2
I2
tp2941
g2
(g6
S'\xcb<\x87\xec(\xe9\xd4?'
p2942
tp2943
Rp2944
s(I3
I7
I2
tp2945
g2
(g6
S'\x08\r>V\xf1\x03\xee?'
p2946
tp2947
Rp2948
s(I7
I13
I1
tp2949
g2
(g6
S'\x8a\xde#\x1b\xf4z\xbd?'
p2950
tp2951
Rp2952
s(I8
I14
I1
tp2953
g215
s(I12
I4
I4
tp2954
g2
(g6
S'\x88\x9e,\xfdjh\xeb?'
p2955
tp2956
Rp2957
s(I5
I19
I5
tp2958
g1517
s(I12
I17
I3
tp2959
g915
s(I14
I19
I4
tp2960
g2
(g6
S'$\xccfm\xda\x06\xab?'
p2961
tp2962
Rp2963
s(I2
I5
I1
tp2964
g2455
s(I20
I0
I1
tp2965
g2
(g6
S'4\xe4\xf6fV\xc9f?'
p2966
tp2967
Rp2968
s(I19
I24
I1
tp2969
g2
(g6
S'\x8a\xde#\x1b\xf4z\xbd?'
p2970
tp2971
Rp2972
s(I1
I1
I19
tp2973
F1.0
s(I4
I14
I8
tp2974
g1615
s(I16
I18
I1
tp2975
g2
(g6
S'\xebUf/fe\xe4?'
p2976
tp2977
Rp2978
s(I22
I2
I3
tp2979
g2072
s(I9
I4
I4
tp2980
g2
(g6
S'M\xde\x15\x82m\x7f\xec?'
p2981
tp2982
Rp2983
s(I4
I16
I10
tp2984
g1110
s(I7
I14
I5
tp2985
g1727
s(I6
I6
I7
tp2986
F1.0
s(I15
I15
I3
tp2987
F1.0
s(I3
I21
I2
tp2988
g2671
s(I19
I14
I3
tp2989
g2
(g6
S'\xcbJ\x9c$~\xf2\xb0?'
p2990
tp2991
Rp2992
s(I8
I17
I2
tp2993
g2154
s(I1
I18
I8
tp2994
g656
s(I5
I5
I15
tp2995
F1.0
s(I16
I0
I2
tp2996
g2
(g6
S'?\x1e\xc4\x12Y\x13\xa0?'
p2997
tp2998
Rp2999
s(I1
I5
I1
tp3000
g2
(g6
S'\x9e\xb1A\x83\xde\xea\xa7?'
p3001
tp3002
Rp3003
s(I19
I6
I5
tp3004
g1059
s(I0
I16
I8
tp3005
g1659
s(I13
I0
I8
tp3006
g423
s(I9
I9
I2
tp3007
F1.0
s(I13
I11
I1
tp3008
g2
(g6
S'\xbc\x06X\xb1g\xea\x97?'
p3009
tp3010
Rp3011
s(I0
I11
I2
tp3012
g485
s(I18
I15
I3
tp3013
g2
(g6
S'\xbc\x06X\xb1g\xea\x97?'
p3014
tp3015
Rp3016
s(I9
I19
I6
tp3017
g2911
s(I2
I2
I22
tp3018
F1.0
s(I2
I9
I4
tp3019
g1211
s(I1
I23
I2
tp3020
g2
(g6
S'4\xe4\xf6fV\xc9f?'
p3021
tp3022
Rp3023
s(I14
I0
I6
tp3024
g275
s(I16
I3
I4
tp3025
g141
s(I19
I11
I5
tp3026
g1225
s(I22
I19
I2
tp3027
g2
(g6
S'\xca10kX3\xcd?'
p3028
tp3029
Rp3030
s(I10
I5
I3
tp3031
g2
(g6
S'\xd4\xf5d\xdd\xf6|\xde?'
p3032
tp3033
Rp3034
s(I4
I16
I8
tp3035
g1110
s(I7
I7
I11
tp3036
F1.0
s(I0
I14
I12
tp3037
g275
s(I21
I9
I3
tp3038
g1457
s(I15
I3
I4
tp3039
g2
(g6
S'\xf1\x83\x10\xf0\x95\x17\xed?'
p3040
tp3041
Rp3042
s(I17
I4
I6
tp3043
g624
s(I12
I16
I4
tp3044
g2
(g6
S'^->)\xc47\xd6?'
p3045
tp3046
Rp3047
s(I2
I4
I2
tp3048
g711
s(I7
I16
I6
tp3049
g300
s(I5
I14
I1
tp3050
g2600
s(I1
I1
I10
tp3051
F1.0
s(I4
I13
I9
tp3052
g312
s(I22
I13
I2
tp3053
g2022
s(I7
I0
I7
tp3054
g105
s(I17
I3
I5
tp3055
g1174
s(I7
I15
I6
tp3056
g2725
s(I15
I15
I5
tp3057
F1.0
s(I12
I6
I5
tp3058
g823
s(I15
I12
I2
tp3059
g385
s(I3
I18
I3
tp3060
g2
(g6
S'\xbc\x06X\xb1g\xea\x97?'
p3061
tp3062
Rp3063
s(I24
I2
I1
tp3064
g2294
s(I1
I19
I7
tp3065
g1280
s(I5
I16
I5
tp3066
g574
s(I4
I8
I1
tp3067
g2
(g6
S'\x08\r>V\xf1\x03\xee?'
p3068
tp3069
Rp3070
s(I13
I1
I11
tp3071
g410
s(I22
I0
I4
tp3072
g2
(g6
S'W\x96\xbf\xb8\xc0\xb4\xa0?'
p3073
tp3074
Rp3075
s(I10
I18
I7
tp3076
g864
s(I3
I13
I9
tp3077
g190
s(I19
I7
I7
tp3078
g357
s(I0
I10
I1
tp3079
g2
(g6
S'4\xe4\xf6fV\xc9f?'
p3080
tp3081
Rp3082
s(I15
I18
I1
tp3083
g2
(g6
S'\xbc\x06X\xb1g\xea\x97?'
p3084
tp3085
Rp3086
s(I19
I16
I3
tp3087
g1039
s(I12
I20
I1
tp3088
g2
(g6
S'\x08\r>V\xf1\x03\xee?'
p3089
tp3090
Rp3091
s(I11
I4
I1
tp3092
g2126
s(I20
I10
I2
tp3093
g2
(g6
S'\x1b\xbcqZ\xd3\xf1\x9f?'
p3094
tp3095
Rp3096
s(I1
I16
I3
tp3097
g92
s(I14
I3
I7
tp3098
g1325
s(I16
I2
I7
tp3099
g558
s(I19
I8
I4
tp3100
g1330
s(I23
I14
I1
tp3101
g648
s(I24
I17
I1
tp3102
g2334
s(I13
I13
I10
tp3103
F1.0
s(I0
I24
I2
tp3104
g2
(g6
S'\xbc\x06X\xb1g\xea\x97?'
p3105
tp3106
Rp3107
s(I3
I14
I5
tp3108
g1325
s(I0
I13
I13
tp3109
g423
s(I5
I16
I9
tp3110
g574
s(I21
I10
I2
tp3111
g2196
s(I9
I20
I3
tp3112
g2830
s(I15
I0
I5
tp3113
g153
s(I14
I24
I1
tp3114
g2
(g6
S'\x8a\xde#\x1b\xf4z\xbd?'
p3115
tp3116
Rp3117
s(I17
I8
I6
tp3118
g1354
s(I2
I7
I3
tp3119
g2
(g6
S'\x9dC\xa2\xe1\x12\xd6\xcb?'
p3120
tp3121
Rp3122
s(I20
I6
I3
tp3123
g2
(g6
S'\x82\x8b\xadt5"\x90?'
p3124
tp3125
Rp3126
s(I4
I12
I6
tp3127
g2
(g6
S'\x1b\xcc\x12i\x9d(\xeb?'
p3128
tp3129
Rp3130
s(I4
I25
I1
tp3131
g2
(g6
S'\xebUf/fe\xe4?'
p3132
tp3133
Rp3134
s(I22
I12
I1
tp3135
g2
(g6
S'\xbc\x06X\xb1g\xea\x97?'
p3136
tp3137
Rp3138
s(I10
I22
I4
tp3139
g2
(g6
S')\xb1I\xae$\xfb\xc2?'
p3140
tp3141
Rp3142
s(I0
I0
I21
tp3143
F1.0
s(I12
I5
I4
tp3144
g2184
s(I6
I6
I8
tp3145
F1.0
s(I18
I18
I1
tp3146
F1.0
s(I14
I2
I9
tp3147
g1672
s(I23
I18
I3
tp3148
g1715
s(I5
I17
I6
tp3149
g279
s(I3
I13
I5
tp3150
g190
s(I1
I10
I8
tp3151
g59
s(I13
I2
I10
tp3152
g791
s(I21
I18
I1
tp3153
g1498
s(I13
I13
I3
tp3154
F1.0
s(I15
I19
I2
tp3155
g2
(g6
S'`\xb1\x1d\xf6\xed\xca\xe3?'
p3156
tp3157
Rp3158
s(I3
I1
I1
tp3159
g2
(g6
S'\xbc\x06X\xb1g\xea\x97?'
p3160
tp3161
Rp3162
s(I8
I8
I4
tp3163
F1.0
s(I7
I16
I7
tp3164
g300
s(I11
I5
I6
tp3165
g1420
s(I14
I9
I1
tp3166
g2
(g6
S'\x8a\xde#\x1b\xf4z\xbd?'
p3167
tp3168
Rp3169
s(I2
I11
I6
tp3170
g1432
s(I20
I16
I4
tp3171
g2
(g6
S'0J\x95\xf8\x1f\xa3\xd7?'
p3172
tp3173
Rp3174
s(I16
I1
I6
tp3175
g394
s(I10
I10
I14
tp3176
F1.0
s(I23
I15
I2
tp3177
g2582
s(I10
I7
I1
tp3178
g2628
s(I0
I7
I3
tp3179
g2
(g6
S'4\xe4\xf6fV\xc9f?'
p3180
tp3181
Rp3182
s(I3
I15
I6
tp3183
g2
(g6
S'\x94\xce\xbeH\xd0M\xe0?'
p3184
tp3185
Rp3186
s(I21
I16
I4
tp3187
g801
s(I0
I12
I10
tp3188
g113
s(I7
I16
I2
tp3189
g2924
s(I15
I1
I2
tp3190
g2
(g6
S'\xbc\x06X\xb1g\xea\x97?'
p3191
tp3192
Rp3193
s(I17
I6
I4
tp3194
g129
s(I17
I9
I5
tp3195
g1468
s(I20
I5
I2
tp3196
g2321
s(I17
I11
I5
tp3197
g570
s(I15
I7
I5
tp3198
g2725
s(I11
I11
I9
tp3199
F1.0
s(I7
I6
I1
tp3200
g1633
s(I9
I7
I1
tp3201
g2
(g6
S'\x8a\xde#\x1b\xf4z\xbd?'
p3202
tp3203
Rp3204
s(I13
I17
I4
tp3205
g2
(g6
S'\x0e\xca\xb2\x8c\xce\xe5\xda?'
p3206
tp3207
Rp3208
s(I3
I16
I1
tp3209
g2
(g6
S'\x9e\xb1A\x83\xde\xea\xa7?'
p3210
tp3211
Rp3212
s(I20
I11
I1
tp3213
g182
s(I11
I1
I3
tp3214
g2
(g6
S'\xe0\xe7\x9e\xa0y\xe0\xc3?'
p3215
tp3216
Rp3217
s(I3
I3
I12
tp3218
F1.0
s(I14
I5
I4
tp3219
g296
s(I3
I15
I10
tp3220
g1243
s(I16
I13
I1
tp3221
g468
s(I5
I18
I7
tp3222
g365
s(I4
I14
I3
tp3223
g2
(g6
S'\x05\xdcR\xf5\xc4\xbe\x90?'
p3224
tp3225
Rp3226
s(I10
I20
I5
tp3227
g1530
s(I21
I15
I2
tp3228
g2
(g6
S'\x10W\x0bD\x0c\xb6\xa9?'
p3229
tp3230
Rp3231
s(I6
I4
I1
tp3232
g2
(g6
S'\xebUf/fe\xe4?'
p3233
tp3234
Rp3235
s(I15
I5
I7
tp3236
g211
s(I11
I2
I7
tp3237
g1432
s(I14
I8
I2
tp3238
g2
(g6
S'\x05\xdcR\xf5\xc4\xbe\x90?'
p3239
tp3240
Rp3241
s(I2
I10
I1
tp3242
g1119
s(I1
I18
I1
tp3243
g2
(g6
S'\x1d\xe1@\xf5\xb5\x0c\xea?'
p3244
tp3245
Rp3246
s(I19
I19
I1
tp3247
F1.0
s(I15
I6
I5
tp3248
g1996
s(I16
I0
I9
tp3249
g1659
s(I23
I12
I3
tp3250
g2
(g6
S'\x9c)\x180\x05\xdd\xa1?'
p3251
tp3252
Rp3253
s(I0
I17
I9
tp3254
g831
s(I13
I0
I1
tp3255
g2139
s(I2
I2
I20
tp3256
F1.0
s(I3
I12
I7
tp3257
g227
s(I9
I3
I6
tp3258
g1567
s(I3
I3
I6
tp3259
F1.0
s(I21
I12
I4
tp3260
g245
s(I9
I22
I1
tp3261
g2
(g6
S'\x12\xe2%B}\xcf\xc5?'
p3262
tp3263
Rp3264
s(I15
I6
I3
tp3265
g2
(g6
S'\x9dC\xa2\xe1\x12\xd6\xcb?'
p3266
tp3267
Rp3268
s(I17
I7
I3
tp3269
g578
s(I17
I10
I4
tp3270
g1585
s(I0
I19
I7
tp3271
g753
s(I1
I12
I5
tp3272
g262
s(I0
I20
I1
tp3273
g2968
s(I9
I0
I9
tp3274
g515
s(I7
I7
I2
tp3275
F1.0
s(I13
I18
I5
tp3276
g2
(g6
S'\x1c\xce\x04\xea\xfc*\x9a?'
p3277
tp3278
Rp3279
s(I6
I21
I1
tp3280
g2929
s(I8
I24
I1
tp3281
g2
(g6
S'\x9e\xb1A\x83\xde\xea\xa7?'
p3282
tp3283
Rp3284
s(I23
I16
I1
tp3285
g2
(g6
S'\x9e\xb1A\x83\xde\xea\xa7?'
p3286
tp3287
Rp3288
s(I11
I14
I2
tp3289
g2
(g6
S'\xca10kX3\xcd?'
p3290
tp3291
Rp3292
s(I14
I4
I7
tp3293
g1615
s(I2
I14
I6
tp3294
g2
(g6
S'\xc0\xfe\xa3\xc0\x9f\x91\xe0?'
p3295
tp3296
Rp3297
s(I1
I1
I5
tp3298
F1.0
s(I19
I2
I1
tp3299
g1920
s(I4
I13
I2
tp3300
g2
(g6
S'\xcb<\x87\xec(\xe9\xd4?'
p3301
tp3302
Rp3303
s(I24
I11
I2
tp3304
g2
(g6
S'\r\xd5T^\x86\xc0\xb0?'
p3305
tp3306
Rp3307
s(I20
I8
I4
tp3308
g2040
s(I7
I21
I2
tp3309
g2027
s(I12
I12
I5
tp3310
F1.0
s(I11
I3
I4
tp3311
g1643
s(I14
I11
I3
tp3312
g1611
s(I5
I5
I1
tp3313
F1.0
s(I5
I16
I10
tp3314
g574
s(I0
I16
I6
tp3315
g1659
s(I13
I1
I2
tp3316
g2
(g6
S'4\xe4\xf6fV\xc9f?'
p3317
tp3318
Rp3319
s(I0
I5
I1
tp3320
g2
(g6
S'4\xe4\xf6fV\xc9f?'
p3321
tp3322
Rp3323
s(I4
I19
I2
tp3324
g2
(g6
S'\x8a\xde#\x1b\xf4z\xbd?'
p3325
tp3326
Rp3327
s(I22
I10
I4
tp3328
g3142
s(I0
I10
I8
tp3329
g361
s(I3
I3
I17
tp3330
F1.0
s(I12
I2
I10
tp3331
g369
s(I7
I22
I4
tp3332
g2
(g6
S'E\xaa~\x98\x9e\xaa\x9c?'
p3333
tp3334
Rp3335
s(I12
I15
I1
tp3336
g2
(g6
S'\x9e\xb1A\x83\xde\xea\xa7?'
p3337
tp3338
Rp3339
s(I17
I0
I2
tp3340
g2
(g6
S'\x9e\xb1A\x83\xde\xea\xa7?'
p3341
tp3342
Rp3343
s(I16
I3
I10
tp3344
g141
s(I25
I4
I1
tp3345
g3134
s(I16
I8
I3
tp3346
g2
(g6
S'\xca10kX3\xcd?'
p3347
tp3348
Rp3349
s(I1
I13
I6
tp3350
g410
s(I7
I4
I3
tp3351
g2
(g6
S'\xcb<\x87\xec(\xe9\xd4?'
p3352
tp3353
Rp3354
s(I9
I1
I3
tp3355
g2
(g6
S'\xe0\xe7\x9e\xa0y\xe0\xc3?'
p3356
tp3357
Rp3358
s(I13
I19
I2
tp3359
g2
(g6
S'\x0eO\xbeTU@\xb3?'
p3360
tp3361
Rp3362
s(I15
I21
I1
tp3363
g1535
s(I2
I17
I2
tp3364
g2
(g6
S'\x05\xdcR\xf5\xc4\xbe\x90?'
p3365
tp3366
Rp3367
s(I18
I23
I2
tp3368
g2
(g6
S'\x9e\xb1A\x83\xde\xea\xa7?'
p3369
tp3370
Rp3371
s(I6
I20
I2
tp3372
g1362
s(I11
I15
I1
tp3373
g2
(g6
S'\x9e\xb1A\x83\xde\xea\xa7?'
p3374
tp3375
Rp3376
s(I14
I7
I6
tp3377
g1727
s(I16
I6
I4
tp3378
g533
s(I12
I12
I10
tp3379
F1.0
s(I19
I3
I2
tp3380
g2
(g6
S'`\xb1\x1d\xf6\xed\xca\xe3?'
p3381
tp3382
Rp3383
s(I24
I10
I1
tp3384
g2
(g6
S'\x8a\xde#\x1b\xf4z\xbd?'
p3385
tp3386
Rp3387
s(I2
I2
I23
tp3388
F1.0
s(I3
I9
I5
tp3389
g1567
s(I18
I9
I1
tp3390
g2698
s(I9
I19
I3
tp3391
g1072
s(I12
I19
I4
tp3392
g1732
s(I11
I0
I5
tp3393
g39
s(I2
I12
I3
tp3394
g2
(g6
S'\x9dC\xa2\xe1\x12\xd6\xcb?'
p3395
tp3396
Rp3397
s(I24
I24
I2
tp3398
F1.0
s(I5
I17
I9
tp3399
g279
s(I13
I2
I3
tp3400
g2
(g6
S'\x10nPn\x11\xf0\xd8?'
p3401
tp3402
Rp3403
s(I4
I18
I1
tp3404
g1413
s(I3
I10
I1
tp3405
g2
(g6
S'\xebUf/fe\xe4?'
p3406
tp3407
Rp3408
s(I21
I19
I1
tp3409
g2
(g6
S'8!\xe6\xe6S\xc8\xd6?'
p3410
tp3411
Rp3412
s(I0
I9
I9
tp3413
g515
s(I12
I1
I11
tp3414
g262
s(I9
I16
I7
tp3415
g1776
s(I8
I8
I11
tp3416
F1.0
s(I12
I14
I2
tp3417
g2
(g6
S'\x05\xdcR\xf5\xc4\xbe\x90?'
p3418
tp3419
Rp3420
s(I15
I4
I1
tp3421
g1402
s(I17
I1
I1
tp3422
g2
(g6
S'\x9e\xb1A\x83\xde\xea\xa7?'
p3423
tp3424
Rp3425
s(I5
I8
I3
tp3426
g2
(g6
S'\x10nPn\x11\xf0\xd8?'
p3427
tp3428
Rp3429
s(I16
I2
I9
tp3430
g558
s(I10
I10
I5
tp3431
F1.0
s(I20
I9
I5
tp3432
g2
(g6
S'\xe8W\x10\xc6\xa9i\xbd?'
p3433
tp3434
Rp3435
s(I16
I23
I2
tp3436
g1607
s(I1
I14
I7
tp3437
g549
s(I0
I18
I3
tp3438
g2
(g6
S'4\xe4\xf6fV\xc9f?'
p3439
tp3440
Rp3441
s(I4
I0
I2
tp3442
g2531
s(I22
I7
I4
tp3443
g3335
s(I6
I10
I4
tp3444
g2
(g6
S'\x88\x9e,\xfdjh\xeb?'
p3445
tp3446
Rp3447
s(I9
I2
I2
tp3448
g2
(g6
S'\x9dC\xa2\xe1\x12\xd6\xcb?'
p3449
tp3450
Rp3451
s(I13
I20
I3
tp3452
g2
(g6
S'\x1ez5\x05h\x9f\xb7?'
p3453
tp3454
Rp3455
s(I10
I0
I9
tp3456
g361
s(I2
I16
I1
tp3457
g2
(g6
S'\xebUf/fe\xe4?'
p3458
tp3459
Rp3460
s(I6
I2
I4
tp3461
g1105
s(I15
I1
I9
tp3462
g562
s(I6
I23
I3
tp3463
g2
(g6
S"\x95T3\xc20'\xbd?"
p3464
tp3465
Rp3466
s(I8
I22
I3
tp3467
g2
(g6
S'\x9be\xecPS\xd1\x95?'
p3468
tp3469
Rp3470
s(I14
I6
I1
tp3471
g2
(g6
S'\x9e\xb1A\x83\xde\xea\xa7?'
p3472
tp3473
Rp3474
s(I16
I5
I5
tp3475
g574
s(I1
I24
I2
tp3476
g2
(g6
S'\xbc\x06X\xb1g\xea\x97?'
p3477
tp3478
Rp3479
s(I16
I10
I4
tp3480
g1904
s(I5
I21
I2
tp3481
g2
(g6
S'\x9d\x9d\x87\xe1e\x87\x99?'
p3482
tp3483
Rp3484
s(I9
I12
I1
tp3485
g2
(g6
S'\x9e\xb1A\x83\xde\xea\xa7?'
p3486
tp3487
Rp3488
s(I0
I0
I3
tp3489
F1.0
s(I18
I8
I2
tp3490
g1063
s(I21
I2
I1
tp3491
g2
(g6
S'\x9e\xb1A\x83\xde\xea\xa7?'
p3492
tp3493
Rp3494
s(I3
I16
I10
tp3495
g141
s(I2
I2
I13
tp3496
F1.0
s(I11
I1
I10
tp3497
g174
s(I7
I0
I1
tp3498
g2
(g6
S'4\xe4\xf6fV\xc9f?'
p3499
tp3500
Rp3501
s(I2
I15
I2
tp3502
g2
(g6
S'\xcb<\x87\xec(\xe9\xd4?'
p3503
tp3504
Rp3505
s(I1
I11
I8
tp3506
g174
s(I10
I14
I2
tp3507
g2
(g6
S'\xcb<\x87\xec(\xe9\xd4?'
p3508
tp3509
Rp3510
s(I5
I18
I8
tp3511
g365
s(I4
I4
I7
tp3512
F1.0
s(I17
I16
I1
tp3513
g1262
s(I3
I11
I2
tp3514
g2
(g6
S'M\xde\x15\x82m\x7f\xec?'
p3515
tp3516
Rp3517
s(I7
I9
I1
tp3518
g3204
s(I12
I0
I12
tp3519
g113
s(I7
I20
I6
tp3520
g2396
s(I9
I17
I4
tp3521
g1468
s(I12
I12
I12
tp3522
F1.0
s(I2
I1
I1
tp3523
g459
s(I20
I12
I1
tp3524
g3091
s(I12
I12
I9
tp3525
F1.0
s(I2
I10
I8
tp3526
g1485
s(I14
I2
I6
tp3527
g3297
s(I16
I1
I8
tp3528
g394
s(I16
I22
I1
tp3529
g2
(g6
S'\xbc\x06X\xb1g\xea\x97?'
p3530
tp3531
Rp3532
s(I0
I17
I2
tp3533
g3343
s(I4
I7
I3
tp3534
g3354
s(I22
I6
I3
tp3535
g2
(g6
S'\x82\xd7T\x85T\xd1\xa3?'
p3536
tp3537
Rp3538
s(I22
I11
I4
tp3539
g2
(g6
S'E\xaa~\x98\x9e\xaa\x9c?'
p3540
tp3541
Rp3542
s(I18
I8
I8
tp3543
g775
s(I15
I11
I3
tp3544
g2
(g6
S'\xdc\xfb\xd5\xd0\xa8\xcc\xeb?'
p3545
tp3546
Rp3547
s(I6
I13
I5
tp3548
g685
s(I8
I0
I5
tp3549
g1160
s(I6
I22
I4
tp3550
g2
(g6
S')\xb1I\xae$\xfb\xc2?'
p3551
tp3552
Rp3553
s(I8
I21
I2
tp3554
g2
(g6
S'\x9d\x9d\x87\xe1e\x87\x99?'
p3555
tp3556
Rp3557
s(I10
I16
I3
tp3558
g582
s(I16
I4
I2
tp3559
g770
s(I1
I25
I1
tp3560
g2
(g6
S"&'m\x90\xe6\x94\xd5?"
p3561
tp3562
Rp3563
s(I16
I9
I5
tp3564
g1776
s(I1
I12
I10
tp3565
g262
s(I5
I22
I3
tp3566
g2655
s(I19
I1
I6
tp3567
g1280
s(I9
I13
I2
tp3568
g2135
s(I13
I7
I1
tp3569
g2952
s(I0
I15
I2
tp3570
g2473
s(I2
I12
I4
tp3571
g369
s(I7
I13
I6
tp3572
g723
s(I18
I11
I3
tp3573
g2
(g6
S'\xbc\x06X\xb1g\xea\x97?'
p3574
tp3575
Rp3576
s(I7
I24
I1
tp3577
g2
(g6
S'\x8a\xde#\x1b\xf4z\xbd?'
p3578
tp3579
Rp3580
s(I6
I0
I5
tp3581
g1965
s(I8
I3
I1
tp3582
g2
(g6
S'\x9e\xb1A\x83\xde\xea\xa7?'
p3583
tp3584
Rp3585
s(I17
I17
I2
tp3586
F1.0
s(I10
I1
I3
tp3587
g2
(g6
S'\x1d\xe1@\xf5\xb5\x0c\xea?'
p3588
tp3589
Rp3590
s(I1
I11
I5
tp3591
g174
s(I13
I4
I5
tp3592
g2
(g6
S'\xa0\xb3\x06\x9f\x92\x06\xe2?'
p3593
tp3594
Rp3595
s(I4
I16
I7
tp3596
g1110
s(I3
I8
I3
tp3597
g2
(g6
S'\x9e\xb1A\x83\xde\xea\xa7?'
p3598
tp3599
Rp3600
s(I21
I21
I3
tp3601
F1.0
s(I15
I15
I6
tp3602
F1.0
s(I9
I18
I5
tp3603
g1984
s(I24
I2
I2
tp3604
g2
(g6
S'\x05\xdcR\xf5\xc4\xbe\x90?'
p3605
tp3606
Rp3607
s(I6
I18
I1
tp3608
g2
(g6
S'\x08\r>V\xf1\x03\xee?'
p3609
tp3610
Rp3611
s(I5
I10
I1
tp3612
g2
(g6
S'\x8a\xde#\x1b\xf4z\xbd?'
p3613
tp3614
Rp3615
s(I13
I3
I5
tp3616
g190
s(I2
I13
I9
tp3617
g791
s(I5
I5
I8
tp3618
F1.0
s(I16
I0
I7
tp3619
g1659
s(I1
I8
I1
tp3620
g2
(g6
S"&'m\x90\xe6\x94\xd5?"
p3621
tp3622
Rp3623
s(I22
I1
I2
tp3624
g2271
s(I9
I9
I15
tp3625
F1.0
s(I15
I6
I8
tp3626
g1996
s(I8
I8
I18
tp3627
F1.0
s(I13
I22
I1
tp3628
g2
(g6
S'\x12\xe2%B}\xcf\xc5?'
p3629
tp3630
Rp3631
s(I15
I8
I2
tp3632
g2863
s(I3
I22
I3
tp3633
g2
(g6
S'\x85\xab\x91\x14\x86C\xa8?'
p3634
tp3635
Rp3636
s(I21
I7
I3
tp3637
g2
(g6
S'\x9a\xc3<K\xf7\xcf\x9e?'
p3638
tp3639
Rp3640
s(I6
I12
I6
tp3641
g823
s(I6
I17
I5
tp3642
g129
s(I8
I20
I5
tp3643
g2040
s(I14
I0
I3
tp3644
g2
(g6
S'4\xe4\xf6fV\xc9f?'
p3645
tp3646
Rp3647
s(I16
I3
I3
tp3648
g2
(g6
S'\xca10kX3\xcd?'
p3649
tp3650
Rp3651
s(I1
I13
I9
tp3652
g410
s(I9
I14
I3
tp3653
g2
(g6
S'\x95\xc6\xb6?\xec\xee\xd2?'
p3654
tp3655
Rp3656
s(I0
I14
I1
tp3657
g2
(g6
S'4\xe4\xf6fV\xc9f?'
p3658
tp3659
Rp3660
s(I4
I20
I4
tp3661
g2279
s(I21
I9
I4
tp3662
g2253
s(I18
I10
I4
tp3663
g864
s(I8
I2
I2
tp3664
g2450
s(I12
I16
I1
tp3665
g304
s(I1
I20
I3
tp3666
g2180
s(I23
I10
I1
tp3667
g316
s(I25
I3
I1
tp3668
g1916
s(I24
I21
I1
tp3669
g2
(g6
S'\x8a\xde#\x1b\xf4z\xbd?'
p3670
tp3671
Rp3672
s(I6
I20
I3
tp3673
g3126
s(I13
I5
I6
tp3674
g178
s(I18
I4
I8
tp3675
g519
s(I7
I15
I3
tp3676
g1680
s(I2
I22
I4
tp3677
g2
(g6
S')\xb1I\xae$\xfb\xc2?'
p3678
tp3679
Rp3680
s(I20
I2
I3
tp3681
g2
(g6
S'\x82\x8b\xadt5"\x90?'
p3682
tp3683
Rp3684
s(I8
I16
I2
tp3685
g1689
s(I2
I12
I10
tp3686
g369
s(I5
I5
I19
tp3687
F1.0
s(I1
I9
I2
tp3688
g1703
s(I4
I5
I1
tp3689
g2594
s(I22
I0
I1
tp3690
g2
(g6
S'4\xe4\xf6fV\xc9f?'
p3691
tp3692
Rp3693
s(I21
I24
I1
tp3694
g3672
s(I4
I18
I8
tp3695
g519
s(I18
I5
I8
tp3696
g365
s(I18
I14
I1
tp3697
g2
(g6
S'\x9e\xb1A\x83\xde\xea\xa7?'
p3698
tp3699
Rp3700
s(I6
I15
I7
tp3701
g1996
s(I15
I4
I10
tp3702
g1035
s(I12
I20
I6
tp3703
g652
s(I11
I4
I4
tp3704
g972
s(I6
I16
I6
tp3705
g533
s(I8
I19
I4
tp3706
g1330
s(I14
I14
I11
tp3707
F1.0
s(I11
I11
I5
tp3708
F1.0
s(I14
I3
I2
tp3709
g1340
s(I22
I18
I2
tp3710
g2
(g6
S'\xdc\xfb\xd5\xd0\xa8\xcc\xeb?'
p3711
tp3712
Rp3713
s(I1
I14
I8
tp3714
g549
s(I9
I15
I4
tp3715
g157
s(I13
I9
I3
tp3716
g2
(g6
S'\xd4\xf5d\xdd\xf6|\xde?'
p3717
tp3718
Rp3719
s(I19
I0
I3
tp3720
g2
(g6
S'4\xe4\xf6fV\xc9f?'
p3721
tp3722
Rp3723
s(I18
I0
I6
tp3724
g990
s(I3
I5
I1
tp3725
g2
(g6
S'\x8a\xde#\x1b\xf4z\xbd?'
p3726
tp3727
Rp3728
s(I7
I19
I4
tp3729
g357
s(I9
I20
I6
tp3730
g3435
s(I18
I13
I5
tp3731
g3279
s(I21
I5
I4
tp3732
g880
s(I8
I1
I3
tp3733
g2
(g6
S'\xe0\xe7\x9e\xa0y\xe0\xc3?'
p3734
tp3735
Rp3736
s(I14
I13
I1
tp3737
g2
(g6
S'\x8a\xde#\x1b\xf4z\xbd?'
p3738
tp3739
Rp3740
s(I19
I22
I2
tp3741
g3030
s(I14
I14
I6
tp3742
F1.0
s(I23
I11
I2
tp3743
g2
(g6
S'Afj\xd1\xcc(\xa8?'
p3744
tp3745
Rp3746
s(I11
I25
I1
tp3747
g2
(g6
S'\xebUf/fe\xe4?'
p3748
tp3749
Rp3750
s(I10
I3
I1
tp3751
g3408
s(I16
I16
I4
tp3752
F1.0
s(I15
I6
I9
tp3753
g1996
s(I13
I6
I7
tp3754
g685
s(I0
I0
I10
tp3755
F1.0
s(I7
I12
I2
tp3756
g1980
s(I15
I13
I2
tp3757
g2
(g6
S'\xcc:\xba\xe4\xa6!\xbe?'
p3758
tp3759
Rp3760
s(I20
I20
I5
tp3761
F1.0
s(I2
I2
I4
tp3762
F1.0
s(I20
I1
I2
tp3763
g2
(g6
S'4\xe4\xf6fV\xc9f?'
p3764
tp3765
Rp3766
s(I5
I12
I7
tp3767
g43
s(I2
I15
I11
tp3768
g1031
s(I1
I10
I3
tp3769
g3590
s(I7
I2
I1
tp3770
g2
(g6
S'\xbc\x06X\xb1g\xea\x97?'
p3771
tp3772
Rp3773
s(I9
I11
I1
tp3774
g2
(g6
S'\xbc\x06X\xb1g\xea\x97?'
p3775
tp3776
Rp3777
s(I4
I17
I9
tp3778
g624
s(I7
I7
I14
tp3779
F1.0
s(I3
I20
I1
tp3780
g1988
s(I2
I20
I5
tp3781
g919
s(I20
I23
I1
tp3782
g2735
s(I11
I5
I3
tp3783
g2
(g6
S'Eh\xdc\x14$\xb7\xa4?'
p3784
tp3785
Rp3786
s(I6
I19
I7
tp3787
g1059
s(I8
I18
I7
tp3788
g775
s(I16
I1
I1
tp3789
g2
(g6
S"&'m\x90\xe6\x94\xd5?"
p3790
tp3791
Rp3792
s(I10
I10
I11
tp3793
F1.0
s(I4
I10
I3
tp3794
g2
(g6
S'\x05\xdcR\xf5\xc4\xbe\x90?'
p3795
tp3796
Rp3797
s(I0
I7
I6
tp3798
g105
s(I13
I10
I2
tp3799
g2
(g6
S'\xcb<\x87\xec(\xe9\xd4?'
p3800
tp3801
Rp3802
s(I0
I12
I7
tp3803
g113
s(I18
I3
I7
tp3804
g332
s(I21
I11
I2
tp3805
g2
(g6
S'\x1b\xbcqZ\xd3\xf1\x9f?'
p3806
tp3807
Rp3808
s(I9
I21
I5
tp3809
g2253
s(I20
I15
I5
tp3810
g732
s(I21
I6
I5
tp3811
g2392
s(I12
I22
I3
tp3812
g2
(g6
S'\x9be\xecPS\xd1\x95?'
p3813
tp3814
Rp3815
s(I14
I12
I2
tp3816
g3420
s(I2
I6
I1
tp3817
g2
(g6
S'\x08\r>V\xf1\x03\xee?'
p3818
tp3819
Rp3820
s(I1
I22
I1
tp3821
g2
(g6
S'?\x1e\xc4\x12Y\x13\xa0?'
p3822
tp3823
Rp3824
s(I5
I0
I2
tp3825
g1663
s(I14
I1
I9
tp3826
g549
s(I23
I8
I3
tp3827
g2
(g6
S'\x9c)\x180\x05\xdd\xa1?'
p3828
tp3829
Rp3830
s(I10
I2
I6
tp3831
g1485
s(I0
I15
I11
tp3832
g153
s(I4
I21
I4
tp3833
g2056
s(I15
I2
I3
tp3834
g1857
s(I20
I11
I4
tp3835
g162
s(I20
I0
I5
tp3836
g2300
s(I5
I13
I4
tp3837
g2
(g6
S'M\xde\x15\x82m\x7f\xec?'
p3838
tp3839
Rp3840
s(I10
I1
I8
tp3841
g59
s(I13
I3
I10
tp3842
g190
s(I7
I3
I2
tp3843
g2948
s(I0
I8
I4
tp3844
g1160
s(I15
I15
I7
tp3845
F1.0
s(I2
I20
I4
tp3846
g919
s(I20
I22
I2
tp3847
g1861
s(I25
I25
I1
tp3848
F1.0
s(I6
I18
I8
tp3849
g787
s(I8
I17
I6
tp3850
g1354
s(I19
I6
I1
tp3851
g2
(g6
S'\x9e\xb1A\x83\xde\xea\xa7?'
p3852
tp3853
Rp3854
s(I4
I9
I2
tp3855
g2
(g6
S'\xcb<\x87\xec(\xe9\xd4?'
p3856
tp3857
Rp3858
s(I24
I15
I2
tp3859
g2
(g6
S'\x8a\xde#\x1b\xf4z\xbd?'
p3860
tp3861
Rp3862
s(I13
I0
I4
tp3863
g423
s(I0
I6
I5
tp3864
g1965
s(I9
I9
I6
tp3865
F1.0
s(I6
I20
I5
tp3866
g1563
s(I0
I11
I6
tp3867
g39
s(I14
I6
I6
tp3868
g455
s(I3
I3
I3
tp3869
F1.0
s(I7
I17
I2
tp3870
g1581
s(I9
I22
I4
tp3871
g2
(g6
S'\x19a\xa1\xab\x81\x11\xa8?'
p3872
tp3873
Rp3874
s(I0
I21
I5
tp3875
g324
s(I12
I21
I2
tp3876
g2
(g6
S'\x9d\x9d\x87\xe1e\x87\x99?'
p3877
tp3878
Rp3879
s(I20
I4
I2
tp3880
g2
(g6
S'o\x1b\x03\xc0\xd3\xd7\xba?'
p3881
tp3882
Rp3883
s(I5
I1
I1
tp3884
g3003
s(I14
I0
I10
tp3885
g275
s(I5
I24
I1
tp3886
g1078
s(I0
I25
I1
tp3887
g2796
s(I4
I12
I8
tp3888
g2
(g6
S'\xcc0\xfe\xb5l\x10\xdc?'
p3889
tp3890
Rp3891
s(I7
I7
I15
tp3892
F1.0
s(I0
I14
I8
tp3893
g275
s(I12
I11
I1
tp3894
g1828
s(I3
I17
I3
tp3895
g2702
s(I6
I21
I4
tp3896
g2392
s(I20
I7
I4
tp3897
g2396
s(I5
I14
I5
tp3898
g296
s(I2
I14
I11
tp3899
g1672
s(I25
I8
I1
tp3900
g2
(g6
S'\xebUf/fe\xe4?'
p3901
tp3902
Rp3903
s(I16
I12
I3
tp3904
g2
(g6
S'\xca10kX3\xcd?'
p3905
tp3906
Rp3907
s(I1
I1
I14
tp3908
F1.0
s(I7
I0
I3
tp3909
g3182
s(I9
I5
I3
tp3910
g1889
s(I13
I15
I2
tp3911
g3760
s(I15
I17
I1
tp3912
g2
(g6
S'\x8a\xde#\x1b\xf4z\xbd?'
p3913
tp3914
Rp3915
s(I3
I18
I7
tp3916
g332
s(I6
I8
I2
tp3917
g2
(g6
S';\x18\xc7f\x19\x87\x84?'
p3918
tp3919
Rp3920
s(I11
I3
I1
tp3921
g628
s(I1
I19
I3
tp3922
g2
(g6
S'\x85\xab\x91\x14\x86C\xa8?'
p3923
tp3924
Rp3925
s(I21
I14
I3
tp3926
g389
s(I19
I7
I2
tp3927
g1344
s(I23
I13
I1
tp3928
g941
s(I24
I14
I1
tp3929
g3117
s(I13
I1
I7
tp3930
g410
s(I0
I5
I4
tp3931
g2427
s(I0
I10
I5
tp3932
g361
s(I18
I5
I1
tp3933
g2
(g6
S'\x9e\xb1A\x83\xde\xea\xa7?'
p3934
tp3935
Rp3936
s(I3
I0
I2
tp3937
g2
(g6
S'\xbc\x06X\xb1g\xea\x97?'
p3938
tp3939
Rp3940
s(I7
I22
I3
tp3941
g2
(g6
S'\x85\xab\x91\x14\x86C\xa8?'
p3942
tp3943
Rp3944
s(I9
I23
I3
tp3945
g2
(g6
S'\x9c)\x180\x05\xdd\xa1?'
p3946
tp3947
Rp3948
s(I6
I15
I8
tp3949
g1996
s(I14
I21
I5
tp3950
g2
(g6
S'[\x92\x1a\xf0\x07\x88\xb8?'
p3951
tp3952
Rp3953
s(I14
I14
I4
tp3954
F1.0
s(I2
I8
I3
tp3955
g2
(g6
S'\x9dC\xa2\xe1\x12\xd6\xcb?'
p3956
tp3957
Rp3958
s(I1
I16
I7
tp3959
g394
s(I7
I1
I6
tp3960
g1394
s(I11
I17
I5
tp3961
g570
s(I16
I8
I8
tp3962
g406
s(I10
I4
I4
tp3963
g414
s(I21
I11
I5
tp3964
g2
(g6
S'\x1c\xce\x04\xea\xfc*\x9a?'
p3965
tp3966
Rp3967
s(I3
I14
I1
tp3968
g2
(g6
S'\xebUf/fe\xe4?'
p3969
tp3970
Rp3971
s(I0
I13
I9
tp3972
g423
s(I12
I10
I2
tp3973
g797
s(I15
I0
I1
tp3974
g2
(g6
S'4\xe4\xf6fV\xc9f?'
p3975
tp3976
Rp3977
s(I17
I5
I1
tp3978
g1398
s(I20
I9
I6
tp3979
g3435
s(I23
I17
I3
tp3980
g489
s(I18
I9
I6
tp3981
g1984
s(I16
I6
I9
tp3982
g533
s(I11
I18
I1
tp3983
g2
(g6
S'\xebUf/fe\xe4?'
p3984
tp3985
Rp3986
s(I16
I11
I2
tp3987
g2
(g6
S'\r\xd5T^\x86\xc0\xb0?'
p3988
tp3989
Rp3990
s(I0
I22
I3
tp3991
g2
(g6
S'4\xe4\xf6fV\xc9f?'
p3992
tp3993
Rp3994
s(I4
I12
I2
tp3995
g2
(g6
S'M\xde\x15\x82m\x7f\xec?'
p3996
tp3997
Rp3998
s(I13
I5
I8
tp3999
g2235
s(I7
I1
I4
tp4000
g1394
s(I9
I6
I2
tp4001
g2
(g6
S'\x9dC\xa2\xe1\x12\xd6\xcb?'
p4002
tp4003
Rp4004
s(I13
I16
I3
tp4005
g2
(g6
S'?\x1e\xc4\x12Y\x13\xa0?'
p4006
tp4007
Rp4008
s(I18
I9
I4
tp4009
g1984
s(I21
I1
I5
tp4010
g2508
s(I6
I6
I12
tp4011
F1.0
s(I18
I18
I5
tp4012
F1.0
s(I3
I19
I4
tp4013
g477
s(I6
I11
I3
tp4014
g2933
s(I12
I24
I2
tp4015
g1525
s(I2
I2
I19
tp4016
F1.0
s(I14
I10
I1
tp4017
g1865
s(I5
I17
I2
tp4018
g2
(g6
S'\x08\r>V\xf1\x03\xee?'
p4019
tp4020
Rp4021
s(I4
I15
I4
tp4022
g1035
s(I10
I24
I1
tp4023
g3387
s(I13
I2
I6
tp4024
g791
s(I0
I4
I3
tp4025
g2
(g6
S'?\x1e\xc4\x12Y\x13\xa0?'
p4026
tp4027
Rp4028
s(I13
I13
I7
tp4029
F1.0
s(I0
I9
I4
tp4030
g515
s(I18
I4
I2
tp4031
g2
(g6
S'\xf47\x8d\xa8\xccf\x8f?'
p4032
tp4033
Rp4034
s(I21
I14
I1
tp4035
g2
(g6
S'8!\xe6\xe6S\xc8\xd6?'
p4036
tp4037
Rp4038
s(I9
I16
I2
tp4039
g707
s(I14
I20
I6
tp4040
g835
s(I6
I16
I8
tp4041
g533
s(I17
I20
I1
tp4042
g2
(g6
S'\x9e\xb1A\x83\xde\xea\xa7?'
p4043
tp4044
Rp4045
s(I2
I11
I2
tp4046
g2
(g6
S'\xca10kX3\xcd?'
p4047
tp4048
Rp4049
s(I1
I17
I4
tp4050
g537
s(I10
I10
I2
tp4051
F1.0
s(I3
I15
I2
tp4052
g284
s(I7
I5
I1
tp4053
g2
(g6
S'\x8a\xde#\x1b\xf4z\xbd?'
p4054
tp4055
Rp4056
s(I14
I8
I5
tp4057
g1957
s(I12
I9
I3
tp4058
g2
(g6
S'\xdc\xfb\xd5\xd0\xa8\xcc\xeb?'
p4059
tp4060
Rp4061
s(I18
I22
I2
tp4062
g3713
s(I20
I8
I1
tp4063
g2731
s(I8
I22
I4
tp4064
g1806
s(I20
I5
I6
tp4065
g80
s(I16
I5
I8
tp4066
g574
s(I11
I19
I2
tp4067
g2
(g6
S'5\xe2\xe2\xbfc\xd1\xdd?'
p4068
tp4069
Rp4070
s(I8
I16
I5
tp4071
g406
s(I16
I10
I1
tp4072
g2917
s(I0
I21
I2
tp4073
g2
(g6
S'4\xe4\xf6fV\xc9f?'
p4074
tp4075
Rp4076
s(I3
I11
I8
tp4077
g1643
s(I15
I23
I3
tp4078
g2
(g6
S'_\xa6\x89\xa1$\x9a\xd5?'
p4079
tp4080
Rp4081
s(I21
I2
I4
tp4082
g2586
s(I15
I2
I8
tp4083
g1031
s(I3
I16
I5
tp4084
g141
s(I2
I2
I10
tp4085
F1.0
s(I19
I14
I5
tp4086
g2963
s(I5
I18
I3
tp4087
g2
(g6
S'\x82\xd7T\x85T\xd1\xa3?'
p4088
tp4089
Rp4090
s(I4
I14
I7
tp4091
g1615
s(I4
I4
I12
tp4092
F1.0
s(I13
I3
I1
tp4093
g2
(g6
S'\x8a\xde#\x1b\xf4z\xbd?'
p4094
tp4095
Rp4096
s(I0
I3
I2
tp4097
g3940
s(I18
I7
I3
tp4098
g2
(g6
S'\xbc\x06X\xb1g\xea\x97?'
p4099
tp4100
Rp4101
s(I12
I0
I9
tp4102
g113
s(I7
I20
I1
tp4103
g1248
s(I9
I17
I1
tp4104
g2267
s(I2
I0
I2
tp4105
g2
(g6
S'4\xe4\xf6fV\xc9f?'
p4106
tp4107
Rp4108
s(I15
I5
I3
tp4109
g2
(g6
S'\x85\xeb\xf2\xe7\x80\x05\xad?'
p4110
tp4111
Rp4112
s(I20
I12
I6
tp4113
g652
s(I17
I21
I2
tp4114
g2
(g6
S'\x9d\x9d\x87\xe1e\x87\x99?'
p4115
tp4116
Rp4117
s(I2
I10
I5
tp4118
g1485
s(I1
I18
I5
tp4119
g656
s(I19
I19
I5
tp4120
F1.0
s(I10
I13
I3
tp4121
g2240
s(I3
I12
I3
tp4122
g677
s(I21
I17
I3
tp4123
g2
(g6
S'\xa6XT\xba\x0b\x0b\xe2?'
p4124
tp4125
Rp4126
s(I9
I3
I2
tp4127
g2
(g6
S'\xcc:\xba\xe4\xa6!\xbe?'
p4128
tp4129
Rp4130
s(I12
I3
I5
tp4131
g227
s(I15
I11
I4
tp4132
g449
s(I12
I8
I4
tp4133
g2
(g6
S'\x10nPn\x11\xf0\xd8?'
p4134
tp4135
Rp4136
s(I15
I6
I7
tp4137
g1996
s(I17
I7
I7
tp4138
g693
s(I6
I22
I1
tp4139
g2
(g6
S'\x9e\xb1A\x83\xde\xea\xa7?'
p4140
tp4141
Rp4142
s(I8
I21
I5
tp4143
g1953
s(I23
I23
I1
tp4144
F1.0
s(I11
I16
I3
tp4145
g2486
s(I1
I12
I1
tp4146
g945
s(I19
I1
I1
tp4147
g344
s(I22
I5
I2
tp4148
g2
(g6
S'\xf47\x8d\xa8\xccf\x8f?'
p4149
tp4150
Rp4151
s(I13
I7
I6
tp4152
g723
s(I7
I7
I6
tp4153
F1.0
s(I9
I0
I4
tp4154
g515
s(I13
I18
I1
tp4155
g2835
s(I15
I20
I2
tp4156
g2
(g6
S'\x1b\xbcqZ\xd3\xf1\x9f?'
p4157
tp4158
Rp4159
s(I21
I3
I3
tp4160
g2
(g6
S'\x9a\xc3<K\xf7\xcf\x9e?'
p4161
tp4162
Rp4163
s(I15
I3
I11
tp4164
g1243
s(I9
I9
I16
tp4165
F1.0
s(I14
I4
I3
tp4166
g3226
s(I2
I14
I2
tp4167
g2
(g6
S'\xdc\xfb\xd5\xd0\xa8\xcc\xeb?'
p4168
tp4169
Rp4170
s(I10
I1
I6
tp4171
g59
s(I5
I19
I4
tp4172
g1517
s(I4
I13
I6
tp4173
g766
s(I1
I11
I10
tp4174
g174
s(I17
I1
I8
tp4175
g537
s(I0
I2
I1
tp4176
g783
s(I15
I15
I9
tp4177
F1.0
s(I8
I6
I2
tp4178
g3920
s(I12
I12
I1
tp4179
F1.0
s(I17
I3
I4
tp4180
g1174
s(I6
I18
I6
tp4181
g787
s(I5
I10
I4
tp4182
g266
s(I17
I22
I3
tp4183
g2
(g6
S'QCo[I\xc2\xc0?'
p4184
tp4185
Rp4186
s(I2
I13
I4
tp4187
g791
s(I6
I15
I4
tp4188
g1996
s(I5
I5
I5
tp4189
F1.0
s(I23
I6
I1
tp4190
g2
(g6
S'\x9e\xb1A\x83\xde\xea\xa7?'
p4191
tp4192
Rp4193
s(I25
I7
I1
tp4194
g868
s(I24
I25
I1
tp4195
g2
(g6
S'\x9e\xb1A\x83\xde\xea\xa7?'
p4196
tp4197
Rp4198
s(I15
I4
I7
tp4199
g1035
s(I0
I16
I2
tp4200
g2999
s(I9
I9
I8
tp4201
F1.0
s(I3
I13
I4
tp4202
g190
s(I21
I18
I2
tp4203
g2
(g6
S'\x9e\xb1A\x83\xde\xea\xa7?'
p4204
tp4205
Rp4206
s(I3
I3
I21
tp4207
F1.0
s(I12
I2
I6
tp4208
g369
s(I15
I8
I5
tp4209
g811
s(I15
I7
I4
tp4210
g2725
s(I17
I0
I6
tp4211
g831
s(I20
I14
I3
tp4212
g2
(g6
S'\x82\x8b\xadt5"\x90?'
p4213
tp4214
Rp4215
s(I8
I20
I2
tp4216
g2
(g6
S'o\x1b\x03\xc0\xd3\xd7\xba?'
p4217
tp4218
Rp4219
s(I14
I14
I8
tp4220
F1.0
s(I1
I13
I2
tp4221
g3319
s(I5
I23
I1
tp4222
g2
(g6
S'\x8a\xde#\x1b\xf4z\xbd?'
p4223
tp4224
Rp4225
s(I4
I1
I1
tp4226
g2
(g6
S"&'m\x90\xe6\x94\xd5?"
p4227
tp4228
Rp4229
s(I22
I4
I1
tp4230
g2854
s(I7
I7
I17
tp4231
F1.0
s(I9
I1
I7
tp4232
g1292
s(I13
I19
I6
tp4233
g859
s(I18
I10
I1
tp4234
g2
(g6
S'\x9e\xb1A\x83\xde\xea\xa7?'
p4235
tp4236
Rp4237
s(I21
I4
I2
tp4238
g2
(g6
S'\x9d\x9d\x87\xe1e\x87\x99?'
p4239
tp4240
Rp4241
s(I15
I0
I10
tp4242
g153
s(I2
I18
I7
tp4243
g232
s(I12
I3
I8
tp4244
g227
s(I1
I20
I6
tp4245
g888
s(I14
I7
I2
tp4246
g1091
s(I19
I12
I7
tp4247
g1732
s(I22
I22
I2
tp4248
F1.0
s(I10
I0
I5
tp4249
g361
s(I5
I20
I5
tp4250
g80
s(I13
I5
I3
tp4251
g2
(g6
S'M\xde\x15\x82m\x7f\xec?'
p4252
tp4253
Rp4254
s(I11
I11
I15
tp4255
F1.0
s(I0
I0
I24
tp4256
F1.0
s(I3
I9
I1
tp4257
g2632
s(I8
I5
I3
tp4258
g3429
s(I14
I17
I1
tp4259
g1137
s(I20
I2
I4
tp4260
g919
s(I5
I11
I3
tp4261
g3786
s(I2
I12
I7
tp4262
g369
s(I23
I7
I2
tp4263
g524
s(I10
I15
I1
tp4264
g1814
s(I8
I8
I17
tp4265
F1.0
s(I3
I10
I5
tp4266
g1771
s(I13
I23
I3
tp4267
g2
(g6
S'\x9a\xc3<K\xf7\xcf\x9e?'
p4268
tp4269
Rp4270
s(I10
I17
I3
tp4271
g2
(g6
S'\xa06\x91%\xc2\xc8\xab?'
p4272
tp4273
Rp4274
s(I15
I9
I2
tp4275
g2
(g6
S'\xcc:\xba\xe4\xa6!\xbe?'
p4276
tp4277
Rp4278
s(I15
I4
I5
tp4279
g1035
s(I17
I1
I5
tp4280
g537
s(I20
I13
I2
tp4281
g2
(g6
S'\xc02\x7f8\x11"\xd0?'
p4282
tp4283
Rp4284
s(I8
I19
I3
tp4285
g2
(g6
S'\xcbJ\x9c$~\xf2\xb0?'
p4286
tp4287
Rp4288
s(I3
I17
I8
tp4289
g1174
s(I4
I11
I7
tp4290
g972
s(I1
I14
I3
tp4291
g2
(g6
S'\x1d\xe1@\xf5\xb5\x0c\xea?'
p4292
tp4293
Rp4294
s(I3
I15
I5
tp4295
g2
(g6
S'\x94\xce\xbeH\xd0M\xe0?'
p4296
tp4297
Rp4298
s(I10
I17
I5
tp4299
g1585
s(I9
I15
I1
tp4300
g2809
s(I13
I9
I4
tp4301
g2
(g6
S'M\xde\x15\x82m\x7f\xec?'
p4302
tp4303
Rp4304
s(I9
I2
I6
tp4305
g1211
s(I2
I16
I8
tp4306
g558
s(I3
I24
I1
tp4307
g2
(g6
S'\x8a\xde#\x1b\xf4z\xbd?'
p4308
tp4309
Rp4310
s(I21
I5
I1
tp4311
g586
s(I20
I19
I1
tp4312
g2375
s(I1
I21
I5
tp4313
g2508
s(I17
I19
I1
tp4314
g2
(g6
S'\x8a\xde#\x1b\xf4z\xbd?'
p4315
tp4316
Rp4317
s(I16
I5
I1
tp4318
g2
(g6
S'\x9e\xb1A\x83\xde\xea\xa7?'
p4319
tp4320
Rp4321
s(I22
I17
I3
tp4322
g4186
s(I10
I3
I4
tp4323
g1771
s(I19
I0
I7
tp4324
g753
s(I13
I6
I2
tp4325
g1924
s(I0
I0
I15
tp4326
F1.0
s(I21
I23
I2
tp4327
g1785
s(I8
I15
I5
tp4328
g811
s(I6
I6
I18
tp4329
F1.0
s(I8
I4
I4
tp4330
g2422
s(I12
I18
I3
tp4331
g2
(g6
S"\x95T3\xc20'\xbd?"
p4332
tp4333
Rp4334
s(I14
I16
I2
tp4335
g2
(g6
S';\x18\xc7f\x19\x87\x84?'
p4336
tp4337
Rp4338
s(I2
I2
I1
tp4339
F1.0
s(I20
I1
I5
tp4340
g888
s(I5
I12
I2
tp4341
g2
(g6
S'M\xde\x15\x82m\x7f\xec?'
p4342
tp4343
Rp4344
s(I14
I5
I9
tp4345
g296
s(I2
I15
I6
tp4346
g1031
s(I23
I4
I3
tp4347
g911
s(I4
I15
I10
tp4348
g1035
s(I4
I4
I3
tp4349
F1.0
s(I7
I2
I4
tp4350
g1358
s(I18
I1
I5
tp4351
g656
s(I13
I24
I2
tp4352
g497
s(I9
I17
I8
tp4353
g1468
s(I3
I20
I4
tp4354
g1053
s(I17
I2
I4
tp4355
g429
s(I7
I18
I7
tp4356
g632
s(I6
I19
I2
tp4357
g1188
s(I14
I2
I2
tp4358
g4170
s(I10
I10
I16
tp4359
F1.0
s(I19
I9
I5
tp4360
g2911
s(I4
I10
I4
tp4361
g414
s(I1
I15
I4
tp4362
g562
s(I0
I17
I6
tp4363
g831
s(I10
I16
I6
tp4364
g1904
s(I13
I21
I4
tp4365
g2
(g6
S"\xf7c8y\x1a'\x9d?"
p4366
tp4367
Rp4368
s(I7
I16
I8
tp4369
g300
s(I18
I12
I3
tp4370
g4334
s(I6
I13
I1
tp4371
g2
(g6
S'\x9e\xb1A\x83\xde\xea\xa7?'
p4372
tp4373
Rp4374
s(I8
I0
I1
tp4375
g2
(g6
S'4\xe4\xf6fV\xc9f?'
p4376
tp4377
Rp4378
s(I11
I6
I2
tp4379
g2
(g6
S'\xca10kX3\xcd?'
p4380
tp4381
Rp4382
s(I1
I22
I4
tp4383
g1193
s(I14
I1
I4
tp4384
g549
s(I16
I4
I6
tp4385
g1110
s(I19
I10
I1
tp4386
g1197
s(I24
I19
I2
tp4387
g1141
s(I3
I7
I3
tp4388
g2
(g6
S'\xf1\x83\x10\xf0\x95\x17\xed?'
p4389
tp4390
Rp4391
s(I7
I13
I2
tp4392
g2
(g6
S'\xcc:\xba\xe4\xa6!\xbe?'
p4393
tp4394
Rp4395
s(I8
I14
I6
tp4396
g1957
s(I12
I4
I5
tp4397
g1371
s(I10
I3
I6
tp4398
g1771
s(I15
I2
I6
tp4399
g1031
s(I8
I3
I5
tp4400
g1972
s(I12
I17
I2
tp4401
g2788
s(I7
I13
I3
tp4402
g2
(g6
S'\x85\xeb\xf2\xe7\x80\x05\xad?'
p4403
tp4404
Rp4405
s(I14
I19
I3
tp4406
g2992
s(I20
I0
I2
tp4407
g2
(g6
S'4\xe4\xf6fV\xc9f?'
p4408
tp4409
Rp4410
s(I5
I13
I1
tp4411
g2
(g6
S'\x08\r>V\xf1\x03\xee?'
p4412
tp4413
Rp4414
s(I17
I17
I6
tp4415
F1.0
s(I1
I1
I16
tp4416
F1.0
s(I4
I14
I9
tp4417
g1615
s(I1
I11
I1
tp4418
g2
(g6
S"&'m\x90\xe6\x94\xd5?"
p4419
tp4420
Rp4421
s(I22
I2
I4
tp4422
g3680
s(I21
I12
I3
tp4423
g2363
s(I7
I14
I4
tp4424
g1727
s(I13
I25
I1
tp4425
g2503
s(I12
I7
I1
tp4426
g2
(g6
S'\x9e\xb1A\x83\xde\xea\xa7?'
p4427
tp4428
Rp4429
s(I3
I21
I3
tp4430
g4163
s(I11
I2
I9
tp4431
g1432
s(I8
I17
I1
tp4432
g2
(g6
S'\x9e\xb1A\x83\xde\xea\xa7?'
p4433
tp4434
Rp4435
s(I25
I12
I1
tp4436
g2
(g6
S'\xebUf/fe\xe4?'
p4437
tp4438
Rp4439
s(I18
I8
I5
tp4440
g775
s(I16
I0
I3
tp4441
g2
(g6
S'?\x1e\xc4\x12Y\x13\xa0?'
p4442
tp4443
Rp4444
s(I19
I6
I4
tp4445
g1059
s(I4
I9
I5
tp4446
g1155
s(I1
I8
I5
tp4447
g2010
s(I0
I16
I9
tp4448
g1659
s(I13
I0
I11
tp4449
g423
s(I14
I4
I4
tp4450
g1615
s(I9
I9
I3
tp4451
F1.0
s(I13
I11
I2
tp4452
g699
s(I2
I14
I7
tp4453
g2
(g6
S'\xc0\xfe\xa3\xc0\x9f\x91\xe0?'
p4454
tp4455
Rp4456
s(I18
I15
I2
tp4457
g2
(g6
S'Afj\xd1\xcc(\xa8?'
p4458
tp4459
Rp4460
s(I6
I12
I2
tp4461
g2
(g6
S';\x18\xc7f\x19\x87\x84?'
p4462
tp4463
Rp4464
s(I11
I7
I1
tp4465
g2
(g6
S'\x9e\xb1A\x83\xde\xea\xa7?'
p4466
tp4467
Rp4468
s(I2
I9
I7
tp4469
g1211
s(I1
I23
I3
tp4470
g1554
s(I14
I0
I7
tp4471
g275
s(I6
I17
I6
tp4472
g129
s(I19
I11
I2
tp4473
g4070
s(I23
I9
I1
tp4474
g377
s(I22
I19
I1
tp4475
g2
(g6
S'\x12\xe2%B}\xcf\xc5?'
p4476
tp4477
Rp4478
s(I10
I5
I2
tp4479
g1992
s(I0
I0
I16
tp4480
F1.0
s(I7
I7
I8
tp4481
F1.0
s(I18
I1
I1
tp4482
g3246
s(I7
I18
I3
tp4483
g4101
s(I18
I10
I8
tp4484
g864
s(I15
I3
I5
tp4485
g4298
s(I8
I2
I6
tp4486
g1316
s(I20
I7
I3
tp4487
g636
s(I18
I9
I5
tp4488
g1984
s(I11
I24
I2
tp4489
g3307
s(I4
I13
I8
tp4490
g312
s(I7
I0
I6
tp4491
g105
s(I9
I5
I4
tp4492
g2621
s(I7
I15
I7
tp4493
g2725
s(I9
I19
I7
tp4494
g2911
s(I7
I14
I7
tp4495
g1727
s(I12
I6
I2
tp4496
g4464
s(I15
I12
I1
tp4497
g3339
s(I3
I18
I2
tp4498
g2
(g6
S'Afj\xd1\xcc(\xa8?'
p4499
tp4500
Rp4501
s(I11
I22
I1
tp4502
g673
s(I5
I16
I4
tp4503
g574
s(I4
I8
I2
tp4504
g2
(g6
S'M\xde\x15\x82m\x7f\xec?'
p4505
tp4506
Rp4507
s(I1
I9
I6
tp4508
g1292
s(I13
I1
I8
tp4509
g410
s(I24
I3
I1
tp4510
g4310
s(I3
I13
I10
tp4511
g190
s(I19
I5
I6
tp4512
g1517
s(I6
I15
I3
tp4513
g3268
s(I12
I20
I2
tp4514
g2
(g6
S'o\x1b\x03\xc0\xd3\xd7\xba?'
p4515
tp4516
Rp4517
s(I2
I2
I18
tp4518
F1.0
s(I14
I14
I1
tp4519
F1.0
s(I2
I8
I4
tp4520
g1316
s(I1
I16
I2
tp4521
g2222
s(I14
I3
I6
tp4522
g1325
s(I16
I2
I4
tp4523
g558
s(I19
I8
I3
tp4524
g4288
s(I10
I4
I1
tp4525
g2
(g6
S'\xbc\x06X\xb1g\xea\x97?'
p4526
tp4527
Rp4528
s(I4
I16
I4
tp4529
g1110
s(I7
I21
I3
tp4530
g3640
s(I3
I14
I4
tp4531
g1325
s(I0
I13
I12
tp4532
g423
s(I18
I0
I2
tp4533
g1796
s(I21
I10
I1
tp4534
g2
(g6
S'8!\xe6\xe6S\xc8\xd6?'
p4535
tp4536
Rp4537
s(I9
I20
I2
tp4538
g2
(g6
S'\xc02\x7f8\x11"\xd0?'
p4539
tp4540
Rp4541
s(I17
I4
I5
tp4542
g624
s(I15
I0
I4
tp4543
g153
s(I8
I1
I7
tp4544
g2010
s(I17
I8
I1
tp4545
g4435
s(I2
I7
I2
tp4546
g1044
s(I5
I11
I6
tp4547
g1420
s(I0
I22
I4
tp4548
g3075
s(I4
I12
I7
tp4549
g2
(g6
S'AI\x08p\x10\x00\xe2?'
p4550
tp4551
Rp4552
s(I7
I1
I1
tp4553
g2
(g6
S'\xbc\x06X\xb1g\xea\x97?'
p4554
tp4555
Rp4556
s(I0
I0
I22
tp4557
F1.0
s(I9
I18
I8
tp4558
g1984
s(I12
I5
I3
tp4559
g2877
s(I6
I6
I9
tp4560
F1.0
s(I18
I18
I2
tp4561
F1.0
s(I3
I19
I1
tp4562
g463
s(I2
I25
I1
tp4563
g2
(g6
S'\xebUf/fe\xe4?'
p4564
tp4565
Rp4566
s(I20
I20
I1
tp4567
F1.0
s(I21
I25
I1
tp4568
g2330
s(I23
I18
I2
tp4569
g3371
s(I11
I0
I11
tp4570
g39
s(I2
I2
I24
tp4571
F1.0
s(I11
I23
I2
tp4572
g3746
s(I16
I14
I1
tp4573
g1851
s(I19
I4
I6
tp4574
g55
s(I4
I15
I3
tp4575
g2
(g6
S'\xcb<\x87\xec(\xe9\xd4?'
p4576
tp4577
Rp4578
s(I1
I10
I7
tp4579
g59
s(I13
I2
I9
tp4580
g791
s(I22
I3
I4
tp4581
g815
s(I10
I21
I1
tp4582
g4537
s(I4
I4
I20
tp4583
F1.0
s(I15
I19
I3
tp4584
g2
(g6
S'\xf0$\x83\x9c\xfd\xac\xbd?'
p4585
tp4586
Rp4587
s(I3
I1
I2
tp4588
g2
(g6
S'\xbc\x06X\xb1g\xea\x97?'
p4589
tp4590
Rp4591
s(I8
I8
I5
tp4592
F1.0
s(I3
I3
I13
tp4593
F1.0
s(I6
I14
I4
tp4594
g2842
s(I2
I11
I5
tp4595
g1432
s(I1
I17
I1
tp4596
g3425
s(I16
I1
I5
tp4597
g394
s(I10
I10
I15
tp4598
F1.0
s(I12
I0
I6
tp4599
g113
s(I23
I15
I3
tp4600
g4081
s(I0
I7
I2
tp4601
g2
(g6
S'\xbc\x06X\xb1g\xea\x97?'
p4602
tp4603
Rp4604
s(I13
I1
I12
tp4605
g410
s(I3
I15
I7
tp4606
g1243
s(I0
I12
I11
tp4607
g113
s(I18
I3
I3
tp4608
g3063
s(I7
I16
I1
tp4609
g749
s(I9
I21
I1
tp4610
g2
(g6
S':f-\r\xa8\xae\xd1?'
p4611
tp4612
Rp4613
s(I8
I11
I1
tp4614
g1067
s(I15
I1
I3
tp4615
g669
s(I17
I9
I2
tp4616
g2
(g6
S'\xcb<\x87\xec(\xe9\xd4?'
p4617
tp4618
Rp4619
s(I20
I5
I1
tp4620
g2895
s(I6
I14
I3
tp4621
g2
(g6
S'\xdc\xfb\xd5\xd0\xa8\xcc\xeb?'
p4622
tp4623
Rp4624
s(I7
I23
I3
tp4625
g2
(g6
S'_\xa6\x89\xa1$\x9a\xd5?'
p4626
tp4627
Rp4628
s(I9
I7
I2
tp4629
g2
(g6
S'\xcc:\xba\xe4\xa6!\xbe?'
p4630
tp4631
Rp4632
s(I24
I18
I2
tp4633
g827
s(I18
I21
I3
tp4634
g1676
s(I2
I24
I2
tp4635
g3607
s(I6
I10
I1
tp4636
g219
s(I23
I19
I1
tp4637
g2
(g6
S'\x08\r>V\xf1\x03\xee?'
p4638
tp4639
Rp4640
s(I11
I1
I4
tp4641
g174
s(I14
I5
I7
tp4642
g296
s(I21
I21
I2
tp4643
F1.0
s(I11
I20
I3
tp4644
g2
(g6
S'\x9be\xecPS\xd1\x95?'
p4645
tp4646
Rp4647
s(I1
I0
I1
tp4648
g2779
s(I19
I5
I1
tp4649
g2
(g6
S'\x8a\xde#\x1b\xf4z\xbd?'
p4650
tp4651
Rp4652
s(I10
I20
I2
tp4653
g3096
s(I13
I14
I1
tp4654
g3740
s(I21
I15
I3
tp4655
g2
(g6
S'\x9a\xc3<K\xf7\xcf\x9e?'
p4656
tp4657
Rp4658
s(I10
I19
I6
tp4659
g2016
s(I15
I5
I8
tp4660
g211
s(I11
I2
I6
tp4661
g1432
s(I14
I8
I3
tp4662
g2
(g6
S'\x95\xc6\xb6?\xec\xee\xd2?'
p4663
tp4664
Rp4665
s(I2
I10
I2
tp4666
g2944
s(I16
I0
I10
tp4667
g1659
s(I21
I13
I4
tp4668
g4368
s(I23
I12
I2
tp4669
g2
(g6
S'\x0eO\xbeTU@\xb3?'
p4670
tp4671
Rp4672
s(I0
I17
I8
tp4673
g831
s(I0
I6
I1
tp4674
g2675
s(I3
I12
I6
tp4675
g227
s(I21
I17
I4
tp4676
g2
(g6
S'\xcb@\xe0\xd1=\xb7\xc9?'
p4677
tp4678
Rp4679
s(I0
I11
I10
tp4680
g39
s(I18
I2
I4
tp4681
g232
s(I3
I3
I7
tp4682
F1.0
s(I7
I17
I6
tp4683
g693
s(I8
I10
I2
tp4684
g1591
s(I12
I8
I1
tp4685
g2
(g6
S'\x08\r>V\xf1\x03\xee?'
p4686
tp4687
Rp4688
s(I15
I6
I2
tp4689
g2
(g6
S'\xcb<\x87\xec(\xe9\xd4?'
p4690
tp4691
Rp4692
s(I17
I10
I3
tp4693
g4274
s(I8
I8
I16
tp4694
F1.0
s(I23
I2
I1
tp4695
g1166
s(I25
I11
I1
tp4696
g3750
s(I0
I18
I8
tp4697
g990
s(I1
I12
I4
tp4698
g262
s(I0
I20
I2
tp4699
g4410
s(I21
I17
I1
tp4700
g1546
s(I7
I7
I3
tp4701
F1.0
s(I9
I0
I3
tp4702
g2
(g6
S'4\xe4\xf6fV\xc9f?'
p4703
tp4704
Rp4705
s(I13
I18
I4
tp4706
g3279
s(I0
I11
I9
tp4707
g39
s(I20
I10
I3
tp4708
g2
(g6
S'\x82\x8b\xadt5"\x90?'
p4709
tp4710
Rp4711
s(I8
I24
I2
tp4712
g715
s(I12
I3
I7
tp4713
g227
s(I6
I12
I3
tp4714
g2
(g6
S'\x9dC\xa2\xe1\x12\xd6\xcb?'
p4715
tp4716
Rp4717
s(I16
I7
I6
tp4718
g300
s(I11
I21
I4
tp4719
g3967
s(I1
I1
I2
tp4720
F1.0
s(I5
I19
I1
tp4721
g4652
s(I4
I13
I1
tp4722
g2690
s(I22
I24
I1
tp4723
g2
(g6
S'\r\xd5T^\x86\xc0\xb0?'
p4724
tp4725
Rp4726
s(I10
I23
I3
tp4727
g2
(g6
S'(\x1f7)}\xd2\xc4?'
p4728
tp4729
Rp4730
s(I18
I6
I1
tp4731
g3611
s(I21
I0
I2
tp4732
g4076
s(I17
I3
I8
tp4733
g1174
s(I12
I12
I6
tp4734
F1.0
s(I12
I25
I1
tp4735
g4439
s(I11
I3
I5
tp4736
g1643
s(I14
I11
I2
tp4737
g3292
s(I2
I13
I3
tp4738
g3403
s(I0
I16
I7
tp4739
g1659
s(I13
I1
I3
tp4740
g2
(g6
S'\x10nPn\x11\xf0\xd8?'
p4741
tp4742
Rp4743
s(I4
I19
I5
tp4744
g55
s(I3
I13
I1
tp4745
g4096
s(I7
I11
I4
tp4746
g2036
s(I0
I10
I9
tp4747
g361
s(I18
I5
I5
tp4748
g365
s(I6
I22
I3
tp4749
g3538
s(I15
I7
I1
tp4750
g2
(g6
S'\x08\r>V\xf1\x03\xee?'
p4751
tp4752
Rp4753
s(I14
I21
I1
tp4754
g4038
s(I3
I14
I8
tp4755
g1325
s(I23
I3
I2
tp4756
g2
(g6
S'\x0eO\xbeTU@\xb3?'
p4757
tp4758
Rp4759
s(I11
I17
I1
tp4760
g2
(g6
S'\xbc\x06X\xb1g\xea\x97?'
p4761
tp4762
Rp4763
s(I10
I11
I1
tp4764
g2
(g6
S'\x9e\xb1A\x83\xde\xea\xa7?'
p4765
tp4766
Rp4767
s(I16
I8
I4
tp4768
g406
s(I1
I13
I7
tp4769
g410
s(I0
I19
I3
tp4770
g3723
s(I22
I9
I1
tp4771
g3264
s(I7
I4
I2
tp4772
g2
(g6
S'\x8a\xde#\x1b\xf4z\xbd?'
p4773
tp4774
Rp4775
s(I13
I19
I3
tp4776
g1833
s(I15
I21
I2
tp4777
g3231
s(I2
I17
I5
tp4778
g429
s(I18
I23
I1
tp4779
g2
(g6
S'\x9e\xb1A\x83\xde\xea\xa7?'
p4780
tp4781
Rp4782
s(I1
I13
I10
tp4783
g410
s(I20
I9
I2
tp4784
g4541
s(I8
I23
I3
tp4785
g3830
s(I21
I10
I5
tp4786
g2
(g6
S'[\x92\x1a\xf0\x07\x88\xb8?'
p4787
tp4788
Rp4789
s(I14
I7
I5
tp4790
g1727
s(I16
I6
I5
tp4791
g533
s(I11
I18
I5
tp4792
g11
s(I19
I3
I3
tp4793
g1384
s(I5
I11
I5
tp4794
g1420
s(I3
I9
I6
tp4795
g1567
s(I15
I22
I4
tp4796
g2288
s(I21
I1
I1
tp4797
g2
(g6
S'\x9e\xb1A\x83\xde\xea\xa7?'
p4798
tp4799
Rp4800
s(I9
I19
I4
tp4801
g2911
s(I12
I19
I7
tp4802
g1732
s(I11
I0
I4
tp4803
g39
s(I17
I23
I1
tp4804
g445
s(I6
I1
I5
tp4805
g2093
s(I19
I10
I7
tp4806
g2016
s(I13
I2
I2
tp4807
g2
(g6
S'\x9dC\xa2\xe1\x12\xd6\xcb?'
p4808
tp4809
Rp4810
s(I4
I18
I6
tp4811
g519
s(I13
I13
I11
tp4812
F1.0
s(I21
I19
I2
tp4813
g1321
s(I0
I9
I8
tp4814
g515
s(I18
I4
I6
tp4815
g519
s(I12
I1
I10
tp4816
g262
s(I21
I14
I5
tp4817
g3953
s(I9
I16
I6
tp4818
g1776
s(I8
I8
I12
tp4819
F1.0
s(I14
I20
I2
tp4820
g2
(g6
S'_\xaf\xf0T$7\xae?'
p4821
tp4822
Rp4823
s(I7
I18
I2
tp4824
g2
(g6
S'Afj\xd1\xcc(\xa8?'
p4825
tp4826
Rp4827
s(I5
I8
I2
tp4828
g2
(g6
S'M\xde\x15\x82m\x7f\xec?'
p4829
tp4830
Rp4831
s(I23
I0
I3
tp4832
g2
(g6
S'4\xe4\xf6fV\xc9f?'
p4833
tp4834
Rp4835
s(I10
I10
I6
tp4836
F1.0
s(I1
I14
I6
tp4837
g549
s(I4
I0
I3
tp4838
g4028
s(I5
I15
I3
tp4839
g4112
s(I22
I8
I2
tp4840
g1824
s(I9
I2
I1
tp4841
g2367
s(I13
I20
I2
tp4842
g4284
s(I14
I6
I8
tp4843
g455
s(I15
I10
I3
tp4844
g925
s(I2
I16
I6
tp4845
g558
s(I15
I1
I10
tp4846
g562
s(I6
I23
I2
tp4847
g1655
s(I9
I9
I17
tp4848
F1.0
s(I14
I6
I2
tp4849
g2
(g6
S'\xdc\xfb\xd5\xd0\xa8\xcc\xeb?'
p4850
tp4851
Rp4852
s(I16
I5
I4
tp4853
g574
s(I11
I19
I6
tp4854
g1225
s(I18
I0
I8
tp4855
g990
s(I16
I10
I5
tp4856
g1904
s(I19
I0
I2
tp4857
g2
(g6
S'\x9e\xb1A\x83\xde\xea\xa7?'
p4858
tp4859
Rp4860
s(I0
I0
I4
tp4861
F1.0
s(I22
I17
I4
tp4862
g340
s(I18
I8
I3
tp4863
g2904
s(I6
I1
I1
tp4864
g1284
s(I8
I4
I1
tp4865
g3070
s(I12
I18
I4
tp4866
g1095
s(I2
I2
I14
tp4867
F1.0
s(I2
I15
I1
tp4868
g166
s(I19
I14
I1
tp4869
g2
(g6
S'`\xb1\x1d\xf6\xed\xca\xe3?'
p4870
tp4871
Rp4872
s(I10
I14
I3
tp4873
g2
(g6
S'\xf1\x83\x10\xf0\x95\x17\xed?'
p4874
tp4875
Rp4876
s(I4
I4
I8
tp4877
F1.0
s(I16
I24
I1
tp4878
g101
s(I4
I17
I7
tp4879
g624
s(I3
I11
I3
tp4880
g336
s(I7
I9
I2
tp4881
g4632
s(I18
I7
I7
tp4882
g632
s(I7
I20
I5
tp4883
g2396
s(I9
I17
I5
tp4884
g1468
s(I14
I23
I3
tp4885
g2
(g6
S'(\x1f7)}\xd2\xc4?'
p4886
tp4887
Rp4888
s(I20
I12
I2
tp4889
g4517
s(I5
I9
I1
tp4890
g2
(g6
S'\x08\r>V\xf1\x03\xee?'
p4891
tp4892
Rp4893
s(I14
I2
I7
tp4894
g4456
s(I18
I8
I6
tp4895
g775
s(I0
I0
I18
tp4896
F1.0
s(I1
I15
I1
tp4897
g1463
s(I0
I17
I1
tp4898
g2
(g6
S'4\xe4\xf6fV\xc9f?'
p4899
tp4900
Rp4901
s(I4
I7
I2
tp4902
g4775
s(I22
I11
I3
tp4903
g2
(g6
S'\x85\xab\x91\x14\x86C\xa8?'
p4904
tp4905
Rp4906
s(I10
I18
I3
tp4907
g2
(g6
S'\xec\x86vo\x8b\xae\xca?'
p4908
tp4909
Rp4910
s(I13
I21
I1
tp4911
g2
(g6
S':f-\r\xa8\xae\xd1?'
p4912
tp4913
Rp4914
s(I12
I3
I1
tp4915
g2
(g6
S'\x9e\xb1A\x83\xde\xea\xa7?'
p4916
tp4917
Rp4918
s(I14
I19
I5
tp4919
g2963
s(I6
I13
I4
tp4920
g685
s(I8
I0
I6
tp4921
g1160
s(I15
I2
I9
tp4922
g1031
s(I20
I15
I4
tp4923
g732
s(I8
I21
I1
tp4924
g1128
s(I25
I16
I1
tp4925
g2
(g6
S'\xebUf/fe\xe4?'
p4926
tp4927
Rp4928
s(I14
I1
I3
tp4929
g4294
s(I16
I4
I3
tp4930
g2694
s(I16
I9
I4
tp4931
g1776
s(I5
I22
I2
tp4932
g4151
s(I5
I13
I3
tp4933
g4254
s(I9
I13
I3
tp4934
g3719
s(I13
I7
I2
tp4935
g4395
s(I8
I17
I8
tp4936
g1354
s(I0
I15
I5
tp4937
g153
s(I15
I25
I1
tp4938
g2
(g6
S'\xbc\x06X\xb1g\xea\x97?'
p4939
tp4940
Rp4941
s(I3
I7
I4
tp4942
g2
(g6
S'\xd4\xf5d\xdd\xf6|\xde?'
p4943
tp4944
Rp4945
s(I18
I11
I2
tp4946
g1367
s(I6
I0
I2
tp4947
g2
(g6
S'4\xe4\xf6fV\xc9f?'
p4948
tp4949
Rp4950
s(I12
I17
I5
tp4951
g1087
s(I17
I17
I3
tp4952
F1.0
s(I19
I15
I2
tp4953
g3158
s(I23
I5
I1
tp4954
g4225
s(I22
I23
I1
tp4955
g2
(g6
S'\x12\xe2%B}\xcf\xc5?'
p4956
tp4957
Rp4958
s(I10
I1
I2
tp4959
g2
(g6
S'\x9e\xb1A\x83\xde\xea\xa7?'
p4960
tp4961
Rp4962
s(I1
I11
I6
tp4963
g174
s(I13
I4
I4
tp4964
g2
(g6
S'M\xde\x15\x82m\x7f\xec?'
p4965
tp4966
Rp4967
s(I3
I8
I2
tp4968
g740
s(I7
I14
I3
tp4969
g2766
s(I18
I6
I8
tp4970
g787
s(I9
I18
I4
tp4971
g1984
s(I20
I8
I6
tp4972
g2040
s(I14
I22
I4
tp4973
g2
(g6
S')\xb1I\xae$\xfb\xc2?'
p4974
tp4975
Rp4976
s(I6
I18
I2
tp4977
g2
(g6
S'\xec\x86vo\x8b\xae\xca?'
p4978
tp4979
Rp4980
s(I2
I13
I8
tp4981
g791
s(I5
I5
I9
tp4982
F1.0
s(I4
I6
I1
tp4983
g3235
s(I20
I14
I6
tp4984
g835
s(I9
I9
I12
tp4985
F1.0
s(I12
I2
I2
tp4986
g1753
s(I15
I8
I1
tp4987
g2
(g6
S'\x9e\xb1A\x83\xde\xea\xa7?'
p4988
tp4989
Rp4990
s(I3
I22
I2
tp4991
g63
s(I21
I7
I4
tp4992
g1801
s(I15
I7
I8
tp4993
g2725
s(I6
I17
I4
tp4994
g129
s(I8
I20
I6
tp4995
g2040
s(I11
I10
I1
tp4996
g4767
s(I16
I3
I2
tp4997
g1502
s(I24
I7
I1
tp4998
g3580
s(I9
I14
I2
tp4999
g88
s(I13
I8
I3
tp5000
g2
(g6
S'\xd4\xf5d\xdd\xf6|\xde?'
p5001
tp5002
Rp5003
s(I0
I14
I6
tp5004
g275
s(I18
I1
I4
tp5005
g656
s(I21
I9
I5
tp5006
g2253
s(I18
I10
I5
tp5007
g864
s(I6
I3
I3
tp5008
g2
(g6
S'\x9dC\xa2\xe1\x12\xd6\xcb?'
p5009
tp5010
Rp5011
s(I8
I2
I3
tp5012
g3958
s(I12
I16
I2
tp5013
g2402
s(I14
I18
I1
tp5014
g3700
s(I1
I20
I2
tp5015
g3766
s(I19
I12
I3
tp5016
g2
(g6
S'\xcbJ\x9c$~\xf2\xb0?'
p5017
tp5018
Rp5019
s(I10
I0
I1
tp5020
g3082
s(I13
I5
I7
tp5021
g2235
s(I4
I23
I1
tp5022
g2
(g6
S'\x9e\xb1A\x83\xde\xea\xa7?'
p5023
tp5024
Rp5025
s(I21
I22
I1
tp5026
g1765
s(I9
I24
I2
tp5027
g2
(g6
S'\x0eO\xbeTU@\xb3?'
p5028
tp5029
Rp5030
s(I17
I11
I6
tp5031
g570
s(I17
I12
I1
tp5032
g2
(g6
S'\x9e\xb1A\x83\xde\xea\xa7?'
p5033
tp5034
Rp5035
s(I8
I16
I3
tp5036
g3349
s(I11
I22
I4
tp5037
g3542
s(I5
I5
I16
tp5038
F1.0
s(I6
I9
I2
tp5039
g4004
s(I1
I9
I3
tp5040
g3358
s(I5
I16
I7
tp5041
g574
s(I4
I4
I17
tp5042
F1.0
s(I12
I1
I3
tp5043
g2
(g6
S'\xe0\xe7\x9e\xa0y\xe0\xc3?'
p5044
tp5045
Rp5046
s(I18
I14
I2
tp5047
g2
(g6
S'\xec\x86vo\x8b\xae\xca?'
p5048
tp5049
Rp5050
s(I3
I23
I1
tp5051
g2459
s(I2
I21
I1
tp5052
g3494
s(I20
I16
I1
tp5053
g2
(g6
S'\x08\r>V\xf1\x03\xee?'
p5054
tp5055
Rp5056
s(I19
I16
I2
tp5057
g2883
s(I20
I13
I6
tp5058
g963
s(I8
I19
I7
tp5059
g1330
s(I11
I11
I2
tp5060
F1.0
s(I14
I3
I1
tp5061
g3971
s(I16
I2
I1
tp5062
g3460
s(I4
I11
I3
tp5063
g2
(g6
S'\xca10kX3\xcd?'
p5064
tp5065
Rp5066
s(I22
I18
I3
tp5067
g2
(g6
S'\x10nPn\x11\xf0\xd8?'
p5068
tp5069
Rp5070
s(I11
I11
I10
tp5071
F1.0
s(I24
I6
I2
tp5072
g1472
s(I9
I15
I5
tp5073
g157
s(I3
I14
I11
tp5074
g1325
s(I0
I13
I7
tp5075
g423
s(I18
I0
I7
tp5076
g990
s(I3
I5
I2
tp5077
g1440
s(I21
I10
I4
tp5078
g4789
s(I20
I8
I5
tp5079
g2040
s(I18
I13
I4
tp5080
g3279
s(I21
I5
I5
tp5081
g880
s(I8
I1
I2
tp5082
g805
s(I12
I23
I3
tp5083
g3253
s(I1
I21
I1
tp5084
g4800
s(I5
I15
I4
tp5085
g211
s(I19
I13
I4
tp5086
g859
s(I23
I11
I3
tp5087
g2
(g6
S'\xc02\x7f8\x11"\xd0?'
p5088
tp5089
Rp5090
s(I16
I16
I5
tp5091
F1.0
s(I13
I6
I6
tp5092
g685
s(I0
I0
I11
tp5093
F1.0
s(I4
I22
I2
tp5094
g2
(g6
S'\xf47\x8d\xa8\xccf\x8f?'
p5095
tp5096
Rp5097
s(I7
I12
I1
tp5098
g4429
s(I9
I25
I1
tp5099
g2
(g6
S'\xbc\x06X\xb1g\xea\x97?'
p5100
tp5101
Rp5102
s(I8
I15
I1
tp5103
g4990
s(I14
I2
I10
tp5104
g1672
s(I20
I20
I6
tp5105
F1.0
s(I17
I13
I2
tp5106
g600
s(I2
I2
I5
tp5107
F1.0
s(I20
I1
I1
tp5108
g2
(g6
S"&'m\x90\xe6\x94\xd5?"
p5109
tp5110
Rp5111
s(I5
I12
I6
tp5112
g43
s(I2
I15
I10
tp5113
g1031
s(I14
I2
I12
tp5114
g1672
s(I16
I19
I1
tp5115
g1651
s(I1
I10
I2
tp5116
g4962
s(I9
I11
I2
tp5117
g2
(g6
S'\xf0\xc5\xcf\xaek<\xb3?'
p5118
tp5119
Rp5120
s(I4
I17
I8
tp5121
g624
s(I15
I19
I4
tp5122
g2
(g6
S'\x81\xbb\xc9>"\x90\x9b?'
p5123
tp5124
Rp5125
s(I12
I0
I4
tp5126
g113
s(I2
I20
I2
tp5127
g2076
s(I6
I14
I1
tp5128
g3474
s(I6
I19
I6
tp5129
g1059
s(I8
I18
I4
tp5130
g775
s(I10
I4
I3
tp5131
g3797
s(I11
I8
I3
tp5132
g125
s(I1
I4
I1
tp5133
g4229
s(I19
I9
I1
tp5134
g2
(g6
S'\x8a\xde#\x1b\xf4z\xbd?'
p5135
tp5136
Rp5137
s(I1
I15
I8
tp5138
g562
s(I10
I16
I2
tp5139
g2
(g6
S'\r\xd5T^\x86\xc0\xb0?'
p5140
tp5141
Rp5142
s(I13
I10
I1
tp5143
g661
s(I4
I4
I22
tp5144
F1.0
s(I18
I3
I6
tp5145
g332
s(I21
I11
I3
tp5146
g1256
s(I21
I6
I4
tp5147
g2392
s(I5
I18
I6
tp5148
g365
s(I2
I6
I2
tp5149
g2
(g6
S'\xdc\xfb\xd5\xd0\xa8\xcc\xeb?'
p5150
tp5151
Rp5152
s(I5
I0
I5
tp5153
g2427
s(I14
I1
I8
tp5154
g549
s(I19
I10
I5
tp5155
g2016
s(I23
I8
I2
tp5156
g2
(g6
S'\x0eO\xbeTU@\xb3?'
p5157
tp5158
Rp5159
s(I22
I16
I4
tp5160
g665
s(I10
I2
I7
tp5161
g1485
s(I21
I17
I2
tp5162
g4117
s(I0
I15
I10
tp5163
g153
s(I4
I21
I3
tp5164
g2755
s(I8
I14
I2
tp5165
g3241
s(I12
I4
I1
tp5166
g2494
s(I20
I14
I1
tp5167
g2545
s(I15
I2
I2
tp5168
g3505
s(I0
I19
I4
tp5169
g753
s(I17
I14
I3
tp5170
g2
(g6
S'\xa06\x91%\xc2\xc8\xab?'
p5171
tp5172
Rp5173
s(I20
I0
I6
tp5174
g2300
s(I5
I13
I5
tp5175
g907
s(I25
I15
I1
tp5176
g4941
s(I3
I15
I11
tp5177
g1243
s(I1
I1
I20
tp5178
F1.0
s(I16
I18
I2
tp5179
g2316
s(I7
I3
I3
tp5180
g4391
s(I9
I4
I3
tp5181
g2338
s(I0
I8
I5
tp5182
g1160
s(I12
I7
I5
tp5183
g29
s(I15
I15
I4
tp5184
F1.0
s(I2
I23
I3
tp5185
g258
s(I8
I17
I5
tp5186
g1354
s(I7
I16
I5
tp5187
g300
s(I1
I5
I2
tp5188
g2
(g6
S'\x9e\xb1A\x83\xde\xea\xa7?'
p5189
tp5190
Rp5191
s(I4
I9
I1
tp5192
g2308
s(I10
I6
I4
tp5193
g3447
s(I20
I4
I5
tp5194
g2279
s(I10
I19
I3
tp5195
g2
(g6
S'\xcbJ\x9c$~\xf2\xb0?'
p5196
tp5197
Rp5198
s(I9
I9
I7
tp5199
F1.0
s(I3
I12
I9
tp5200
g227
s(I0
I11
I1
tp5201
g2520
s(I18
I2
I1
tp5202
g2
(g6
S'\x08\r>V\xf1\x03\xee?'
p5203
tp5204
Rp5205
s(I21
I12
I2
tp5206
g3879
s(I17
I7
I9
tp5207
g693
s(I12
I21
I1
tp5208
g237
s(I2
I9
I3
tp5209
g1810
s(I20
I4
I3
tp5210
g2200
s(I14
I0
I11
tp5211
g275
s(I19
I11
I6
tp5212
g1225
s(I7
I7
I12
tp5213
F1.0
s(I0
I14
I9
tp5214
g275
s(I8
I13
I3
tp5215
g5003
s(I15
I3
I1
tp5216
g1450
s(I14
I25
I1
tp5217
g47
s(I20
I10
I4
tp5218
g1530
s(I5
I14
I4
tp5219
g296
s(I2
I14
I12
tp5220
g1672
s(I11
I21
I1
tp5221
g2249
s(I1
I1
I15
tp5222
F1.0
s(I0
I23
I3
tp5223
g4835
s(I22
I13
I1
tp5224
g3631
s(I7
I0
I2
tp5225
g4604
s(I19
I23
I1
tp5226
g4640
s(I15
I17
I2
tp5227
g2
(g6
S'\x8a\xde#\x1b\xf4z\xbd?'
p5228
tp5229
Rp5230
s(I12
I6
I6
tp5231
g823
s(I2
I16
I10
tp5232
g558
s(I18
I19
I1
tp5233
g2
(g6
S'\x9e\xb1A\x83\xde\xea\xa7?'
p5234
tp5235
Rp5236
s(I3
I18
I6
tp5237
g332
s(I1
I19
I4
tp5238
g1280
s(I1
I6
I3
tp5239
g608
s(I19
I7
I3
tp5240
g744
s(I23
I13
I2
tp5241
g2805
s(I13
I1
I4
tp5242
g410
s(I10
I18
I4
tp5243
g864
s(I0
I10
I2
tp5244
g2
(g6
S'\x9e\xb1A\x83\xde\xea\xa7?'
p5245
tp5246
Rp5247
s(I3
I0
I1
tp5248
g2
(g6
S'4\xe4\xf6fV\xc9f?'
p5249
tp5250
Rp5251
s(I7
I22
I2
tp5252
g980
s(I14
I21
I4
tp5253
g3953
s(I21
I13
I1
tp5254
g4914
s(I21
I9
I2
tp5255
g2
(g6
S'\x97\t,A\xfa\xa7\xb1?'
p5256
tp5257
Rp5258
s(I17
I11
I1
tp5259
g4763
s(I1
I16
I6
tp5260
g394
s(I14
I3
I10
tp5261
g1325
s(I11
I17
I6
tp5262
g570
s(I19
I8
I7
tp5263
g1330
s(I10
I4
I5
tp5264
g414
s(I0
I13
I8
tp5265
g423
s(I8
I12
I4
tp5266
g4136
s(I2
I17
I8
tp5267
g429
s(I14
I24
I2
tp5268
g2
(g6
S'\x05\xdcR\xf5\xc4\xbe\x90?'
p5269
tp5270
Rp5271
s(I5
I21
I3
tp5272
g996
s(I17
I8
I5
tp5273
g1354
s(I20
I6
I4
tp5274
g1563
s(I17
I4
I7
tp5275
g624
s(I18
I11
I7
tp5276
g11
s(I4
I12
I3
tp5277
g1132
s(I22
I12
I2
tp5278
g2262
s(I10
I22
I1
tp5279
g2
(g6
S'\x12\xe2%B}\xcf\xc5?'
p5280
tp5281
Rp5282
s(I9
I6
I1
tp5283
g2
(g6
S'\x9e\xb1A\x83\xde\xea\xa7?'
p5284
tp5285
Rp5286
s(I13
I16
I2
tp5287
g1513
s(I5
I17
I7
tp5288
g279
s(I15
I22
I3
tp5289
g2
(g6
S'\x85\xab\x91\x14\x86C\xa8?'
p5290
tp5291
Rp5292
s(I12
I5
I7
tp5293
g43
s(I6
I6
I13
tp5294
F1.0
s(I18
I18
I6
tp5295
F1.0
s(I3
I19
I5
tp5296
g477
s(I6
I11
I2
tp5297
g4382
s(I14
I10
I2
tp5298
g3510
s(I1
I7
I4
tp5299
g1394
s(I19
I4
I2
tp5300
g3327
s(I4
I15
I7
tp5301
g1035
s(I18
I1
I8
tp5302
g656
s(I13
I2
I5
tp5303
g791
s(I10
I21
I5
tp5304
g4789
s(I13
I13
I4
tp5305
F1.0
s(I3
I18
I8
tp5306
g332
s(I0
I9
I3
tp5307
g4705
s(I18
I4
I3
tp5308
g2
(g6
S'\xf47\x8d\xa8\xccf\x8f?'
p5309
tp5310
Rp5311
s(I7
I23
I1
tp5312
g1761
s(I6
I5
I1
tp5313
g1757
s(I8
I8
I1
tp5314
F1.0
s(I6
I14
I8
tp5315
g455
s(I6
I16
I9
tp5316
g533
s(I14
I9
I4
tp5317
g2
(g6
S'\x12\xe2%B}\xcf\xc5?'
p5318
tp5319
Rp5320
s(I2
I11
I1
tp5321
g2
(g6
S'\xebUf/fe\xe4?'
p5322
tp5323
Rp5324
s(I1
I17
I5
tp5325
g537
s(I19
I18
I1
tp5326
g5236
s(I10
I10
I3
tp5327
F1.0
s(I3
I15
I3
tp5328
g2387
s(I7
I5
I2
tp5329
g618
s(I11
I19
I4
tp5330
g1225
s(I12
I9
I2
tp5331
g594
s(I18
I22
I3
tp5332
g5070
s(I7
I12
I5
tp5333
g29
s(I20
I8
I2
tp5334
g4219
s(I17
I9
I6
tp5335
g1468
s(I5
I24
I2
tp5336
g2
(g6
S'`\xb1\x1d\xf6\xed\xca\xe3?'
p5337
tp5338
Rp5339
s(I3
I16
I9
tp5340
g141
s(I11
I19
I3
tp5341
g2
(g6
S's\x8d\x8dB\xf0\x91\xb5?'
p5342
tp5343
Rp5344
s(I1
I3
I1
tp5345
g3162
s(I0
I21
I1
tp5346
g2
(g6
S'4\xe4\xf6fV\xc9f?'
p5347
tp5348
Rp5349
s(I0
I0
I26
tp5350
F1.0
s(I22
I15
I3
tp5351
g5292
s(I13
I17
I1
tp5352
g2872
s(I1
I1
I24
tp5353
F1.0
s(I18
I8
I4
tp5354
g775
s(I12
I4
I8
tp5355
g3891
s(I15
I2
I11
tp5356
g1031
s(I3
I16
I4
tp5357
g141
s(I8
I25
I1
tp5358
g3903
s(I2
I2
I11
tp5359
F1.0
s(I25
I20
I1
tp5360
g1539
s(I15
I15
I11
tp5361
F1.0
s(I14
I5
I3
tp5362
g2
(g6
S'\xd4\xf5d\xdd\xf6|\xde?'
p5363
tp5364
Rp5365
s(I19
I14
I4
tp5366
g2963
s(I5
I18
I2
tp5367
g1302
s(I4
I14
I4
tp5368
g1615
s(I4
I4
I13
tp5369
F1.0
s(I13
I3
I2
tp5370
g2
(g6
S'\xcc:\xba\xe4\xa6!\xbe?'
p5371
tp5372
Rp5373
s(I10
I20
I6
tp5374
g1530
s(I18
I7
I2
tp5375
g4827
s(I6
I6
I5
tp5376
F1.0
s(I6
I4
I2
tp5377
g2
(g6
S';\x18\xc7f\x19\x87\x84?'
p5378
tp5379
Rp5380
s(I15
I5
I4
tp5381
g211
s(I17
I21
I3
tp5382
g4126
s(I2
I10
I6
tp5383
g1485
s(I1
I18
I4
tp5384
g656
s(I19
I19
I2
tp5385
F1.0
s(I23
I1
I1
tp5386
g1215
s(I10
I13
I2
tp5387
g3802
s(I3
I12
I2
tp5388
g2636
s(I7
I10
I3
tp5389
g2
(g6
S'\x95\xc6\xb6?\xec\xee\xd2?'
p5390
tp5391
Rp5392
s(I9
I3
I3
tp5393
g2
(g6
S'\x97\t,A\xfa\xa7\xb1?'
p5394
tp5395
Rp5396
s(I12
I3
I4
tp5397
g227
s(I15
I6
I6
tp5398
g1996
s(I6
I22
I2
tp5399
g1900
s(I8
I21
I4
tp5400
g1953
s(I17
I10
I7
tp5401
g1585
s(I16
I4
I8
tp5402
g1110
s(I11
I16
I2
tp5403
g3990
s(I19
I1
I2
tp5404
g2418
s(I4
I2
I1
tp5405
g2
(g6
S'\xebUf/fe\xe4?'
p5406
tp5407
Rp5408
s(I9
I13
I4
tp5409
g4304
s(I22
I14
I4
tp5410
g4976
s(I7
I7
I7
tp5411
F1.0
s(I9
I0
I7
tp5412
g515
s(I19
I4
I5
tp5413
g55
s(I15
I20
I1
tp5414
g2644
s(I15
I3
I8
tp5415
g1243
s(I11
I14
I1
tp5416
g2
(g6
S'\x9e\xb1A\x83\xde\xea\xa7?'
p5417
tp5418
Rp5419
s(I2
I14
I3
tp5420
g2
(g6
S'\xdc\xfb\xd5\xd0\xa8\xcc\xeb?'
p5421
tp5422
Rp5423
s(I1
I1
I6
tp5424
F1.0
s(I19
I2
I4
tp5425
g681
s(I4
I13
I5
tp5426
g3595
s(I24
I11
I1
tp5427
g2
(g6
S'\xbc\x06X\xb1g\xea\x97?'
p5428
tp5429
Rp5430
s(I13
I4
I3
tp5431
g1623
s(I13
I3
I4
tp5432
g190
s(I12
I12
I2
tp5433
F1.0
s(I14
I22
I1
tp5434
g2
(g6
S'\x12\xe2%B}\xcf\xc5?'
p5435
tp5436
Rp5437
s(I6
I18
I5
tp5438
g787
s(I20
I3
I6
tp5439
g1053
s(I17
I22
I2
tp5440
g2
(g6
S'\xf47\x8d\xa8\xccf\x8f?'
p5441
tp5442
Rp5443
s(I2
I13
I7
tp5444
g791
s(I5
I5
I2
tp5445
F1.0
s(I10
I12
I1
tp5446
g1348
s(I6
I9
I1
tp5447
g5286
s(I0
I16
I3
tp5448
g4444
s(I9
I9
I9
tp5449
F1.0
s(I4
I19
I1
tp5450
g2
(g6
S'\x9e\xb1A\x83\xde\xea\xa7?'
p5451
tp5452
Rp5453
s(I22
I10
I1
tp5454
g5282
s(I19
I7
I1
tp5455
g2
(g6
S'`\xb1\x1d\xf6\xed\xca\xe3?'
p5456
tp5457
Rp5458
s(I3
I3
I18
tp5459
F1.0
s(I12
I2
I7
tp5460
g369
s(I15
I8
I4
tp5461
g811
s(I11
I2
I2
tp5462
g4049
s(I18
I24
I1
tp5463
g2760
s(I17
I0
I1
tp5464
g4901
s(I6
I17
I3
tp5465
g2
(g6
S'\x82\xd7T\x85T\xd1\xa3?'
p5466
tp5467
Rp5468
s(I8
I20
I3
tp5469
g2
(g6
S's\x8d\x8dB\xf0\x91\xb5?'
p5470
tp5471
Rp5472
s(I16
I3
I9
tp5473
g141
s(I1
I13
I3
tp5474
g4743
s(I5
I23
I2
tp5475
g2
(g6
S'\x0eO\xbeTU@\xb3?'
p5476
tp5477
Rp5478
s(I3
I10
I7
tp5479
g1771
s(I9
I14
I5
tp5480
g5320
s(I9
I1
I4
tp5481
g1292
s(I18
I10
I2
tp5482
g2
(g6
S'Afj\xd1\xcc(\xa8?'
p5483
tp5484
Rp5485
s(I2
I17
I1
tp5486
g1885
s(I15
I0
I9
tp5487
g153
s(I11
I15
I2
tp5488
g1912
s(I14
I7
I1
tp5489
g1976
s(I16
I6
I1
tp5490
g2
(g6
S'\xebUf/fe\xe4?'
p5491
tp5492
Rp5493
s(I19
I12
I6
tp5494
g1732
s(I22
I22
I3
tp5495
F1.0
s(I3
I13
I8
tp5496
g190
s(I5
I20
I4
tp5497
g80
s(I24
I10
I2
tp5498
g2
(g6
S'\x8a\xde#\x1b\xf4z\xbd?'
p5499
tp5500
Rp5501
s(I9
I16
I5
tp5502
g1776
s(I0
I0
I25
tp5503
F1.0
s(I3
I9
I2
tp5504
g4130
s(I14
I2
I8
tp5505
g1672
s(I6
I6
I4
tp5506
F1.0
s(I8
I5
I2
tp5507
g4831
s(I12
I19
I3
tp5508
g5019
s(I17
I12
I4
tp5509
g1087
s(I20
I2
I5
tp5510
g919
s(I8
I16
I8
tp5511
g406
s(I10
I6
I3
tp5512
g984
s(I8
I18
I8
tp5513
g775
s(I23
I7
I3
tp5514
g4628
s(I4
I18
I2
tp5515
g4034
s(I3
I10
I4
tp5516
g1771
s(I7
I8
I1
tp5517
g2
(g6
S'\x9e\xb1A\x83\xde\xea\xa7?'
p5518
tp5519
Rp5520
s(I12
I1
I6
tp5521
g262
s(I1
I1
I8
tp5522
F1.0
s(I15
I9
I3
tp5523
g2
(g6
S'\x97\t,A\xfa\xa7\xb1?'
p5524
tp5525
Rp5526
s(I8
I8
I8
tp5527
F1.0
s(I15
I4
I4
tp5528
g1035
s(I17
I1
I2
tp5529
g2
(g6
S'\x9e\xb1A\x83\xde\xea\xa7?'
p5530
tp5531
Rp5532
s(I20
I13
I1
tp5533
g2
(g6
S'\x9e\xb1A\x83\xde\xea\xa7?'
p5534
tp5535
Rp5536
s(I8
I19
I2
tp5537
g2
(g6
S'\x8a\xde#\x1b\xf4z\xbd?'
p5538
tp5539
Rp5540
s(I16
I2
I10
tp5541
g558
s(I4
I11
I6
tp5542
g972
s(I16
I23
I1
tp5543
g3288
s(I1
I14
I2
tp5544
g2
(g6
S'4\xe4\xf6fV\xc9f?'
p5545
tp5546
Rp5547
s(I0
I18
I4
tp5548
g990
s(I10
I17
I4
tp5549
g1585
s(I9
I15
I2
tp5550
g4278
s(I9
I2
I5
tp5551
g1211
s(I13
I20
I6
tp5552
g963
s(I18
I13
I3
tp5553
g728
s(I2
I16
I2
tp5554
g2
(g6
S';\x18\xc7f\x19\x87\x84?'
p5555
tp5556
Rp5557
s(I6
I2
I1
tp5558
g3820
s(I17
I19
I2
tp5559
g493
s(I1
I24
I1
tp5560
g194
s(I19
I13
I1
tp5561
g1707
s(I22
I17
I2
tp5562
g5443
s(I19
I0
I6
tp5563
g753
s(I13
I6
I1
tp5564
g4374
s(I15
I24
I2
tp5565
g3862
s(I3
I6
I3
tp5566
g5011
s(I8
I15
I4
tp5567
g811
s(I6
I6
I19
tp5568
F1.0
s(I20
I14
I2
tp5569
g4823
s(I2
I2
I2
tp5570
F1.0
s(I20
I1
I4
tp5571
g888
s(I3
I3
I14
tp5572
F1.0
s(I14
I5
I8
tp5573
g296
s(I2
I15
I5
tp5574
g1031
s(I23
I4
I2
tp5575
g2783
s(I17
I7
I8
tp5576
g693
s(I4
I4
I4
tp5577
F1.0
s(I4
I17
I3
tp5578
g109
s(I3
I11
I7
tp5579
g1643
s(I12
I0
I1
tp5580
g2
(g6
S'4\xe4\xf6fV\xc9f?'
p5581
tp5582
Rp5583
s(I2
I19
I7
tp5584
g681
s(I17
I2
I3
tp5585
g1711
s(I6
I19
I1
tp5586
g3854
s(I8
I18
I1
tp5587
g604
s(I25
I19
I1
tp5588
g2
(g6
S'\xbc\x06X\xb1g\xea\x97?'
p5589
tp5590
Rp5591
s(I14
I2
I3
tp5592
g5423
s(I19
I9
I6
tp5593
g2911
s(I4
I10
I5
tp5594
g414
s(I16
I22
I2
tp5595
g1115
s(I1
I15
I5
tp5596
g562
s(I0
I17
I5
tp5597
g831
s(I19
I4
I7
tp5598
g55
s(I15
I15
I8
tp5599
F1.0
s(I13
I21
I5
tp5600
g4368
s(I2
I19
I3
tp5601
g762
s(I8
I0
I8
tp5602
g1160
s(I8
I0
I2
tp5603
g198
s(I11
I6
I5
tp5604
g481
s(I18
I6
I6
tp5605
g787
s(I14
I1
I7
tp5606
g549
s(I16
I4
I7
tp5607
g1110
s(I22
I16
I1
tp5608
g3532
s(I1
I12
I9
tp5609
g262
s(I0
I15
I1
tp5610
g3977
s(I21
I8
I2
tp5611
g3557
s(I12
I4
I6
tp5612
g3130
s(I6
I0
I6
tp5613
g1965
s(I8
I3
I4
tp5614
g1972
s(I12
I17
I1
tp5615
g5035
s(I14
I19
I2
tp5616
g2604
s(I2
I5
I3
tp5617
g2
(g6
S'\x10nPn\x11\xf0\xd8?'
p5618
tp5619
Rp5620
s(I20
I0
I3
tp5621
g2
(g6
S'4\xe4\xf6fV\xc9f?'
p5622
tp5623
Rp5624
s(I21
I10
I3
tp5625
g67
s(I17
I17
I7
tp5626
F1.0
s(I25
I2
I1
tp5627
g4566
s(I1
I1
I17
tp5628
F1.0
s(I1
I11
I2
tp5629
g1507
s(I7
I3
I4
tp5630
g4945
s(I19
I23
I2
tp5631
g2
(g6
S'\xcb<\x87\xec(\xe9\xd4?'
p5632
tp5633
Rp5634
s(I21
I21
I4
tp5635
F1.0
s(I15
I15
I1
tp5636
F1.0
s(I11
I2
I8
tp5637
g1432
s(I11
I9
I1
tp5638
g3777
s(I5
I5
I13
tp5639
F1.0
s(I16
I0
I4
tp5640
g1659
s(I19
I6
I7
tp5641
g1059
s(I4
I9
I4
tp5642
g2983
s(I16
I21
I3
tp5643
g2099
s(I1
I8
I4
tp5644
g2010
s(I0
I16
I10
tp5645
g1659
s(I13
I0
I10
tp5646
g423
s(I22
I1
I1
tp5647
g3824
s(I24
I4
I1
tp5648
g149
s(I15
I7
I6
tp5649
g2725
s(I13
I22
I4
tp5650
g2
(g6
S'\x19a\xa1\xab\x81\x11\xa8?'
p5651
tp5652
Rp5653
s(I7
I17
I8
tp5654
g693
s(I18
I15
I1
tp5655
g3086
s(I2
I18
I4
tp5656
g232
s(I20
I17
I2
tp5657
g1428
s(I2
I9
I6
tp5658
g1211
s(I14
I0
I4
tp5659
g275
s(I16
I3
I6
tp5660
g141
s(I19
I11
I3
tp5661
g5344
s(I23
I9
I2
tp5662
g2439
s(I6
I25
I1
tp5663
g2
(g6
S'\xebUf/fe\xe4?'
p5664
tp5665
Rp5666
s(I9
I0
I8
tp5667
g515
s(I7
I7
I9
tp5668
F1.0
s(I0
I14
I2
tp5669
g2044
s(I4
I20
I1
tp5670
g2371
s(I3
I4
I1
tp5671
g590
s(I21
I9
I1
tp5672
g4613
s(I17
I4
I8
tp5673
g624
s(I25
I9
I1
tp5674
g5102
s(I19
I0
I5
tp5675
g753
s(I17
I15
I1
tp5676
g3915
s(I20
I7
I2
tp5677
g2614
s(I17
I4
I2
tp5678
g2
(g6
S'\x08\r>V\xf1\x03\xee?'
p5679
tp5680
Rp5681
s(I11
I24
I1
tp5682
g5430
s(I22
I13
I4
tp5683
g5653
s(I7
I0
I5
tp5684
g105
s(I7
I15
I4
tp5685
g2725
s(I12
I6
I3
tp5686
g4717
s(I2
I22
I1
tp5687
g2
(g6
S'\x9e\xb1A\x83\xde\xea\xa7?'
p5688
tp5689
Rp5690
s(I18
I6
I5
tp5691
g787
s(I5
I5
I20
tp5692
F1.0
s(I19
I7
I4
tp5693
g357
s(I4
I8
I3
tp5694
g612
s(I16
I20
I4
tp5695
g3174
s(I1
I9
I7
tp5696
g1292
s(I13
I1
I9
tp5697
g410
s(I22
I0
I2
tp5698
g2490
s(I10
I18
I1
tp5699
g4237
s(I9
I10
I1
tp5700
g1480
s(I4
I4
I16
tp5701
F1.0
s(I15
I18
I3
tp5702
g3016
s(I2
I21
I5
tp5703
g2586
s(I6
I15
I2
tp5704
g4692
s(I12
I20
I3
tp5705
g2
(g6
S's\x8d\x8dB\xf0\x91\xb5?'
p5706
tp5707
Rp5708
s(I11
I4
I7
tp5709
g972
s(I14
I14
I2
tp5710
F1.0
s(I2
I8
I5
tp5711
g1316
s(I11
I11
I6
tp5712
F1.0
s(I14
I3
I5
tp5713
g1325
s(I16
I2
I5
tp5714
g558
s(I19
I8
I2
tp5715
g5540
s(I23
I14
I3
tp5716
g4888
s(I1
I14
I11
tp5717
g549
s(I20
I11
I3
tp5718
g4647
s(I3
I14
I7
tp5719
g1325
s(I0
I13
I3
tp5720
g2
(g6
S'4\xe4\xf6fV\xc9f?'
p5721
tp5722
Rp5723
s(I18
I0
I3
tp5724
g3441
s(I7
I19
I1
tp5725
g5458
s(I9
I20
I5
tp5726
g3435
s(I8
I12
I1
tp5727
g4688
s(I8
I1
I6
tp5728
g2010
s(I2
I7
I1
tp5729
g3773
s(I20
I6
I1
tp5730
g441
s(I19
I22
I1
tp5731
g4478
s(I16
I16
I1
tp5732
F1.0
s(I7
I1
I2
tp5733
g51
s(I0
I0
I23
tp5734
F1.0
s(I24
I22
I1
tp5735
g4726
s(I12
I5
I2
tp5736
g4344
s(I6
I6
I10
tp5737
F1.0
s(I18
I18
I3
tp5738
F1.0
s(I20
I20
I2
tp5739
F1.0
s(I11
I0
I10
tp5740
g39
s(I11
I23
I3
tp5741
g5090
s(I1
I7
I1
tp5742
g4556
s(I5
I17
I4
tp5743
g279
s(I4
I15
I2
tp5744
g1781
s(I1
I10
I6
tp5745
g59
s(I13
I2
I8
tp5746
g791
s(I22
I3
I3
tp5747
g3636
s(I13
I13
I1
tp5748
F1.0
s(I5
I18
I5
tp5749
g365
s(I8
I8
I6
tp5750
F1.0
s(I2
I20
I6
tp5751
g919
s(I6
I14
I5
tp5752
g1571
s(I25
I24
I1
tp5753
g4198
s(I14
I9
I3
tp5754
g3656
s(I2
I11
I4
tp5755
g1432
s(I16
I1
I4
tp5756
g394
s(I10
I10
I8
tp5757
F1.0
s(I0
I7
I5
tp5758
g105
s(I3
I15
I4
tp5759
g3042
s(I0
I12
I4
tp5760
g113
s(I18
I3
I2
tp5761
g4501
s(I12
I22
I4
tp5762
g20
s(I21
I7
I5
tp5763
g1801
s(I17
I9
I3
tp5764
g640
s(I10
I20
I3
tp5765
g4711
s(I6
I24
I1
tp5766
g2824
s(I5
I0
I1
tp5767
g3323
s(I14
I1
I12
tp5768
g549
s(I8
I16
I6
tp5769
g406
s(I0
I21
I4
tp5770
g324
s(I18
I21
I2
tp5771
g4206
s(I6
I10
I2
tp5772
g2342
s(I11
I1
I5
tp5773
g174
s(I14
I5
I6
tp5774
g296
s(I11
I20
I2
tp5775
g170
s(I19
I5
I2
tp5776
g2
(g6
S'\x8a\xde#\x1b\xf4z\xbd?'
p5777
tp5778
Rp5779
s(I4
I14
I1
tp5780
g2
(g6
S'\xbc\x06X\xb1g\xea\x97?'
p5781
tp5782
Rp5783
s(I24
I1
I2
tp5784
g3479
s(I0
I8
I1
tp5785
g4378
s(I15
I16
I1
tp5786
g2
(g6
S'\x9e\xb1A\x83\xde\xea\xa7?'
p5787
tp5788
Rp5789
s(I21
I15
I4
tp5790
g203
s(I15
I5
I9
tp5791
g211
s(I11
I2
I1
tp5792
g5324
s(I17
I21
I4
tp5793
g4679
s(I2
I10
I3
tp5794
g2212
s(I23
I12
I1
tp5795
g2150
s(I24
I15
I1
tp5796
g2
(g6
S'\x8a\xde#\x1b\xf4z\xbd?'
p5797
tp5798
Rp5799
s(I13
I0
I3
tp5800
g5723
s(I0
I6
I6
tp5801
g1965
s(I3
I12
I5
tp5802
g227
s(I5
I16
I1
tp5803
g4321
s(I18
I2
I5
tp5804
g232
s(I3
I3
I4
tp5805
F1.0
s(I7
I17
I7
tp5806
g693
s(I12
I8
I2
tp5807
g2
(g6
S'M\xde\x15\x82m\x7f\xec?'
p5808
tp5809
Rp5810
s(I12
I21
I5
tp5811
g245
s(I17
I10
I2
tp5812
g2
(g6
S'\x8a\xde#\x1b\xf4z\xbd?'
p5813
tp5814
Rp5815
s(I5
I1
I2
tp5816
g5191
s(I10
I8
I1
tp5817
g2359
s(I8
I17
I9
tp5818
g1354
s(I1
I12
I7
tp5819
g262
s(I0
I20
I3
tp5820
g5624
s(I22
I14
I1
tp5821
g5437
s(I9
I0
I2
tp5822
g2
(g6
S'4\xe4\xf6fV\xc9f?'
p5823
tp5824
Rp5825
s(I18
I20
I1
tp5826
g1424
s(I17
I4
I1
tp5827
g1871
s(I6
I21
I3
tp5828
g2
(g6
S's\x8d\x8dB\xf0\x91\xb5?'
p5829
tp5830
Rp5831
s(I14
I4
I5
tp5832
g1615
s(I2
I14
I8
tp5833
g1672
s(I11
I21
I5
tp5834
g3967
s(I1
I1
I3
tp5835
F1.0
s(I5
I19
I2
tp5836
g5779
s(I17
I1
I9
tp5837
g537
s(I10
I23
I2
tp5838
g901
s(I18
I6
I2
tp5839
g4980
s(I7
I21
I4
tp5840
g1801
s(I20
I24
I1
tp5841
g1014
s(I12
I12
I8
tp5842
F1.0
s(I12
I12
I7
tp5843
F1.0
s(I11
I3
I2
tp5844
g3517
s(I14
I11
I1
tp5845
g5419
s(I2
I13
I2
tp5846
g4810
s(I10
I25
I1
tp5847
g2
(g6
S'\xbc\x06X\xb1g\xea\x97?'
p5848
tp5849
Rp5850
s(I10
I18
I8
tp5851
g864
s(I4
I19
I4
tp5852
g55
s(I3
I13
I2
tp5853
g5373
s(I3
I17
I9
tp5854
g1174
s(I0
I10
I6
tp5855
g361
s(I18
I5
I4
tp5856
g365
s(I12
I2
I8
tp5857
g369
s(I21
I13
I5
tp5858
g4368
s(I12
I15
I3
tp5859
g1271
s(I20
I13
I3
tp5860
g3455
s(I5
I2
I3
tp5861
g5620
s(I23
I3
I3
tp5862
g2108
s(I11
I17
I2
tp5863
g2
(g6
S'\r\xd5T^\x86\xc0\xb0?'
p5864
tp5865
Rp5866
s(I16
I8
I5
tp5867
g406
s(I1
I13
I4
tp5868
g410
s(I0
I19
I2
tp5869
g4860
s(I17
I0
I9
tp5870
g831
s(I1
I16
I10
tp5871
g394
s(I7
I4
I1
tp5872
g2
(g6
S'\x9e\xb1A\x83\xde\xea\xa7?'
p5873
tp5874
Rp5875
s(I9
I1
I1
tp5876
g933
s(I0
I11
I5
tp5877
g39
s(I15
I21
I3
tp5878
g4658
s(I2
I17
I4
tp5879
g429
s(I17
I5
I2
tp5880
g4021
s(I20
I9
I1
tp5881
g2
(g6
S'\x9e\xb1A\x83\xde\xea\xa7?'
p5882
tp5883
Rp5884
s(I8
I23
I2
tp5885
g5159
s(I17
I8
I9
tp5886
g1354
s(I14
I7
I4
tp5887
g1727
s(I16
I6
I10
tp5888
g533
s(I11
I18
I4
tp5889
g11
s(I16
I11
I1
tp5890
g2
(g6
S'\xebUf/fe\xe4?'
p5891
tp5892
Rp5893
s(I5
I20
I3
tp5894
g2
(g6
S'\x1ez5\x05h\x9f\xb7?'
p5895
tp5896
Rp5897
s(I16
I16
I8
tp5898
F1.0
s(I11
I11
I12
tp5899
F1.0
s(I18
I9
I3
tp5900
g2
(g6
S"\x95T3\xc20'\xbd?"
p5901
tp5902
Rp5903
s(I6
I6
I1
tp5904
F1.0
s(I12
I19
I6
tp5905
g1732
s(I14
I3
I11
tp5906
g1325
s(I11
I0
I3
tp5907
g1202
s(I17
I23
I2
tp5908
g2478
s(I2
I12
I1
tp5909
g2718
s(I19
I17
I1
tp5910
g4317
s(I10
I24
I2
tp5911
g5501
s(I13
I2
I1
tp5912
g1647
s(I4
I18
I7
tp5913
g519
s(I3
I10
I3
tp5914
g15
s(I0
I9
I7
tp5915
g515
s(I18
I4
I7
tp5916
g519
s(I10
I17
I2
tp5917
g5815
s(I21
I14
I4
tp5918
g3953
s(I9
I16
I1
tp5919
g2650
s(I8
I8
I13
tp5920
F1.0
s(I14
I20
I3
tp5921
g4215
s(I21
I11
I4
tp5922
g3967
s(I23
I0
I2
tp5923
g2
(g6
S'4\xe4\xf6fV\xc9f?'
p5924
tp5925
Rp5926
s(I10
I10
I7
tp5927
F1.0
s(I1
I14
I5
tp5928
g549
s(I0
I18
I1
tp5929
g2143
s(I22
I8
I3
tp5930
g3470
s(I9
I2
I7
tp5931
g1211
s(I15
I10
I2
tp5932
g2800
s(I2
I16
I7
tp5933
g558
s(I15
I1
I11
tp5934
g562
s(I17
I6
I3
tp5935
g5468
s(I6
I23
I1
tp5936
g4193
s(I8
I22
I1
tp5937
g2554
s(I23
I22
I1
tp5938
g4958
s(I25
I23
I1
tp5939
g2
(g6
S'\xbc\x06X\xb1g\xea\x97?'
p5940
tp5941
Rp5942
s(I14
I6
I3
tp5943
g4624
s(I11
I19
I7
tp5944
g1225
s(I16
I10
I2
tp5945
g5142
s(I19
I0
I1
tp5946
g1694
s(I6
I16
I5
tp5947
g533
s(I9
I12
I3
tp5948
g4061
s(I0
I0
I5
tp5949
F1.0
s(I8
I4
I2
tp5950
g4507
s(I12
I18
I5
tp5951
g1095
s(I19
I1
I7
tp5952
g1280
s(I2
I2
I15
tp5953
F1.0
s(I5
I7
I1
tp5954
g4056
s(I6
I18
I7
tp5955
g787
s(I22
I20
I1
tp5956
g1170
s(I10
I14
I4
tp5957
g1388
s(I20
I5
I3
tp5958
g5897
s(I4
I4
I9
tp5959
F1.0
s(I16
I24
I2
tp5960
g2231
s(I0
I3
I1
tp5961
g5251
s(I4
I17
I6
tp5962
g624
s(I4
I20
I5
tp5963
g2279
s(I2
I17
I9
tp5964
g429
s(I18
I7
I6
tp5965
g632
s(I7
I20
I4
tp5966
g2396
s(I9
I17
I2
tp5967
g4619
s(I12
I13
I1
tp5968
g1298
s(I14
I23
I2
tp5969
g2
(g6
S'(\x1f7)}\xd2\xc4?'
p5970
tp5971
Rp5972
s(I7
I18
I6
tp5973
g632
s(I20
I12
I3
tp5974
g5708
s(I19
I19
I6
tp5975
F1.0
s(I25
I6
I1
tp5976
g5666
s(I1
I15
I2
tp5977
g3193
s(I22
I11
I2
tp5978
g2088
s(I3
I3
I15
tp5979
F1.0
s(I15
I11
I1
tp5980
g3376
s(I2
I19
I6
tp5981
g681
s(I6
I13
I7
tp5982
g685
s(I8
I0
I7
tp5983
g1160
s(I17
I7
I4
tp5984
g693
s(I23
I23
I2
tp5985
F1.0
s(I11
I13
I1
tp5986
g3011
s(I14
I1
I2
tp5987
g5547
s(I16
I9
I3
tp5988
g2540
s(I5
I22
I1
tp5989
g2
(g6
S'\x12\xe2%B}\xcf\xc5?'
p5990
tp5991
Rp5992
s(I22
I5
I1
tp5993
g5992
s(I24
I8
I1
tp5994
g3284
s(I13
I7
I3
tp5995
g4405
s(I5
I15
I10
tp5996
g211
s(I0
I15
I4
tp5997
g153
s(I18
I11
I1
tp5998
g3986
s(I10
I3
I5
tp5999
g1771
s(I6
I0
I3
tp6000
g1559
s(I8
I3
I3
tp6001
g3600
s(I12
I17
I4
tp6002
g1087
s(I21
I8
I5
tp6003
g1953
s(I19
I15
I3
tp6004
g4587
s(I23
I5
I2
tp6005
g5478
s(I10
I1
I5
tp6006
g59
s(I1
I11
I7
tp6007
g174
s(I13
I4
I7
tp6008
g312
s(I0
I2
I2
tp6009
g4108
s(I4
I16
I1
tp6010
g1938
s(I3
I8
I1
tp6011
g3585
s(I21
I21
I1
tp6012
F1.0
s(I9
I18
I3
tp6013
g5903
s(I17
I3
I1
tp6014
g288
s(I20
I3
I2
tp6015
g2208
s(I2
I13
I11
tp6016
g791
s(I5
I5
I6
tp6017
F1.0
s(I1
I8
I3
tp6018
g3736
s(I17
I17
I9
tp6019
F1.0
s(I9
I9
I13
tp6020
F1.0
s(I18
I12
I6
tp6021
g1095
s(I16
I7
I9
tp6022
g300
s(I12
I2
I3
tp6023
g3397
s(I2
I18
I1
tp6024
g5205
s(I6
I12
I4
tp6025
g823
s(I17
I0
I5
tp6026
g831
s(I20
I14
I4
tp6027
g835
s(I23
I20
I3
tp6028
g2572
s(I14
I0
I1
tp6029
g3660
s(I0
I0
I17
tp6030
F1.0
s(I22
I4
I2
tp6031
g5097
s(I9
I14
I1
tp6032
g3169
s(I13
I8
I2
tp6033
g2
(g6
S'\xcb<\x87\xec(\xe9\xd4?'
p6034
tp6035
Rp6036
s(I14
I4
I8
tp6037
g1615
s(I0
I14
I7
tp6038
g275
s(I4
I20
I6
tp6039
g2279
s(I18
I10
I6
tp6040
g864
s(I21
I4
I1
tp6041
g1124
s(I6
I3
I2
tp6042
g2
(g6
S'\xca10kX3\xcd?'
p6043
tp6044
Rp6045
s(I12
I16
I3
tp6046
g3907
s(I14
I18
I2
tp6047
g5050
s(I1
I20
I5
tp6048
g888
s(I17
I18
I1
tp6049
g2204
s(I19
I12
I2
tp6050
g2
(g6
S'\x8a\xde#\x1b\xf4z\xbd?'
p6051
tp6052
Rp6053
s(I23
I10
I3
tp6054
g4730
s(I10
I0
I6
tp6055
g361
s(I13
I5
I4
tp6056
g3840
s(I7
I15
I1
tp6057
g4753
s(I10
I1
I1
tp6058
g2
(g6
S'\x9e\xb1A\x83\xde\xea\xa7?'
p6059
tp6060
Rp6061
s(I18
I9
I8
tp6062
g1984
s(I2
I3
I1
tp6063
g2245
s(I20
I2
I1
tp6064
g2891
s(I8
I16
I4
tp6065
g406
s(I2
I12
I8
tp6066
g369
s(I5
I5
I17
tp6067
F1.0
s(I10
I15
I4
tp6068
g554
s(I16
I20
I1
tp6069
g5056
s(I12
I1
I2
tp6070
g1595
s(I18
I14
I3
tp6071
g884
s(I20
I16
I2
tp6072
g929
s(I15
I4
I8
tp6073
g1035
s(I17
I1
I6
tp6074
g537
s(I6
I16
I4
tp6075
g533
s(I8
I19
I6
tp6076
g1330
s(I11
I11
I3
tp6077
F1.0
s(I4
I11
I2
tp6078
g1311
s(I22
I18
I4
tp6079
g2
(g6
S'\x08`\xeb>N\xaa\xdf?'
p6080
tp6081
Rp6082
s(I3
I3
I8
tp6083
F1.0
s(I22
I7
I3
tp6084
g3944
s(I9
I15
I6
tp6085
g157
s(I13
I9
I1
tp6086
g719
s(I0
I13
I6
tp6087
g423
s(I18
I0
I4
tp6088
g990
s(I7
I14
I6
tp6089
g1727
s(I21
I5
I2
tp6090
g3484
s(I8
I1
I1
tp6091
g3623
s(I12
I23
I2
tp6092
g4672
s(I5
I15
I5
tp6093
g211
s(I19
I13
I5
tp6094
g859
s(I10
I3
I7
tp6095
g1771
s(I16
I16
I6
tp6096
F1.0
s(I13
I6
I5
tp6097
g685
s(I0
I0
I12
tp6098
F1.0
s(I4
I22
I3
tp6099
g848
s(I19
I4
I3
tp6100
g1667
s(I18
I18
I8
tp6101
F1.0
s(I17
I13
I3
tp6102
g2578
s(I2
I2
I6
tp6103
F1.0
s(I5
I12
I1
tp6104
g33
s(I23
I25
I1
tp6105
g5942
s(I2
I15
I9
tp6106
g1031
s(I4
I15
I9
tp6107
g1035
s(I1
I10
I1
tp6108
g6061
s(I7
I2
I3
tp6109
g3122
s(I10
I15
I5
tp6110
g554
s(I4
I4
I21
tp6111
F1.0
s(I13
I24
I1
tp6112
g2526
s(I12
I0
I5
tp6113
g113
s(I2
I20
I3
tp6114
g3684
s(I6
I14
I2
tp6115
g4852
s(I17
I2
I7
tp6116
g429
s(I6
I19
I5
tp6117
g1059
s(I8
I18
I5
tp6118
g775
s(I11
I8
I2
tp6119
g2257
s(I19
I9
I2
tp6120
g1743
s(I4
I10
I1
tp6121
g4528
s(I1
I15
I9
tp6122
g562
s(I22
I6
I4
tp6123
g3553
s(I24
I5
I2
tp6124
g5339
s(I3
I15
I9
tp6125
g1243
s(I0
I12
I1
tp6126
g5583
s(I18
I3
I5
tp6127
g332
s(I18
I12
I4
tp6128
g1095
s(I21
I6
I3
tp6129
g5831
s(I12
I22
I1
tp6130
g3138
s(I11
I6
I1
tp6131
g2
(g6
S'\xebUf/fe\xe4?'
p6132
tp6133
Rp6134
s(I2
I6
I3
tp6135
g1818
s(I5
I0
I4
tp6136
g2427
s(I14
I1
I11
tp6137
g549
s(I24
I14
I2
tp6138
g5271
s(I19
I10
I4
tp6139
g2016
s(I23
I8
I1
tp6140
g1719
s(I24
I19
I1
tp6141
g2972
s(I4
I21
I2
tp6142
g4241
s(I8
I14
I3
tp6143
g4665
s(I12
I4
I2
tp6144
g3998
s(I15
I2
I5
tp6145
g1031
s(I20
I11
I6
tp6146
g162
s(I17
I14
I2
tp6147
g1748
s(I5
I13
I2
tp6148
g2775
s(I11
I20
I5
tp6149
g162
s(I16
I0
I8
tp6150
g1659
s(I1
I1
I21
tp6151
F1.0
s(I4
I14
I10
tp6152
g1615
s(I13
I0
I13
tp6153
g423
s(I22
I2
I1
tp6154
g5690
s(I9
I4
I2
tp6155
g3858
s(I15
I9
I6
tp6156
g157
s(I0
I8
I6
tp6157
g1160
s(I18
I7
I8
tp6158
g632
s(I12
I7
I4
tp6159
g29
s(I18
I16
I1
tp6160
g2978
s(I10
I19
I5
tp6161
g2016
s(I2
I23
I2
tp6162
g2379
s(I6
I9
I3
tp6163
g2499
s(I3
I17
I5
tp6164
g1174
s(I8
I17
I4
tp6165
g1354
s(I6
I15
I6
tp6166
g1996
s(I17
I24
I2
tp6167
g1334
s(I14
I9
I5
tp6168
g5320
s(I1
I5
I3
tp6169
g254
s(I19
I6
I3
tp6170
g2900
s(I15
I4
I9
tp6171
g1035
s(I13
I0
I6
tp6172
g423
s(I10
I19
I2
tp6173
g1942
s(I9
I9
I4
tp6174
F1.0
s(I3
I12
I8
tp6175
g227
s(I18
I2
I2
tp6176
g819
s(I3
I3
I1
tp6177
F1.0
s(I6
I16
I7
tp6178
g533
s(I11
I7
I2
tp6179
g2713
s(I14
I15
I1
tp6180
g1049
s(I2
I9
I2
tp6181
g3451
s(I20
I4
I4
tp6182
g2279
s(I14
I0
I8
tp6183
g275
s(I19
I11
I7
tp6184
g1225
s(I10
I5
I1
tp6185
g3615
s(I1
I16
I9
tp6186
g394
s(I17
I4
I9
tp6187
g624
s(I7
I7
I13
tp6188
F1.0
s(I0
I11
I8
tp6189
g39
s(I8
I13
I2
tp6190
g6036
s(I15
I3
I6
tp6191
g3186
s(I17
I4
I4
tp6192
g624
s(I2
I18
I5
tp6193
g232
s(I20
I10
I5
tp6194
g1530
s(I3
I3
I9
tp6195
F1.0
s(I20
I7
I6
tp6196
g2396
s(I5
I14
I3
tp6197
g5365
s(I11
I21
I2
tp6198
g3808
s(I21
I12
I5
tp6199
g245
s(I1
I1
I12
tp6200
F1.0
s(I0
I23
I2
tp6201
g5926
s(I24
I0
I2
tp6202
g3107
s(I9
I5
I1
tp6203
g4893
s(I7
I15
I8
tp6204
g2725
s(I18
I6
I7
tp6205
g787
s(I3
I18
I1
tp6206
g117
s(I20
I21
I1
tp6207
g1876
s(I7
I16
I9
tp6208
g300
s(I1
I19
I5
tp6209
g1280
s(I17
I25
I1
tp6210
g2739
s(I16
I15
I1
tp6211
g5789
s(I1
I6
I2
tp6212
g2590
s(I5
I16
I3
tp6213
g1001
s(I23
I13
I3
tp6214
g4270
s(I13
I1
I5
tp6215
g410
s(I10
I18
I5
tp6216
g864
s(I0
I10
I3
tp6217
g2355
s(I18
I5
I3
tp6218
g4090
s(I10
I17
I1
tp6219
g250
s(I11
I4
I3
tp6220
g5066
s(I17
I11
I2
tp6221
g5866
s(I2
I8
I1
tp6222
g876
s(I1
I16
I1
tp6223
g3792
s(I19
I21
I1
tp6224
g3412
s(I14
I3
I9
tp6225
g1325
s(I19
I8
I6
tp6226
g1330
s(I10
I4
I2
tp6227
g2227
s(I3
I14
I3
tp6228
g2118
s(I9
I20
I1
tp6229
g5884
s(I3
I17
I4
tp6230
g1174
s(I15
I0
I7
tp6231
g153
s(I17
I5
I7
tp6232
g279
s(I20
I9
I4
tp6233
g3435
s(I17
I8
I4
tp6234
g1354
s(I2
I7
I5
tp6235
g1358
s(I20
I6
I5
tp6236
g1563
s(I15
I1
I6
tp6237
g562
s(I11
I18
I3
tp6238
g3576
s(I12
I1
I9
tp6239
g262
s(I0
I22
I1
tp6240
g3693
s(I4
I12
I4
tp6241
g2957
s(I22
I12
I3
tp6242
g3815
s(I10
I22
I2
tp6243
g2
(g6
S'Afj\xd1\xcc(\xa8?'
p6244
tp6245
Rp6246
s(I0
I0
I19
tp6247
F1.0
s(I15
I22
I2
tp6248
g2
(g6
S'Afj\xd1\xcc(\xa8?'
p6249
tp6250
Rp6251
s(I12
I5
I6
tp6252
g43
s(I6
I6
I14
tp6253
F1.0
s(I18
I18
I7
tp6254
F1.0
s(I3
I19
I2
tp6255
g3383
s(I6
I11
I1
tp6256
g6134
s(I23
I18
I1
tp6257
g4782
s(I14
I10
I3
tp6258
g4876
s(I16
I14
I2
tp6259
g4338
s(I1
I7
I5
tp6260
g1394
s(I19
I4
I1
tp6261
g5453
s(I4
I15
I6
tp6262
g1035
s(I13
I2
I4
tp6263
g791
s(I10
I21
I4
tp6264
g4789
s(I13
I13
I5
tp6265
F1.0
s(I18
I1
I3
tp6266
g2
(g6
S'\xf9\xefaxm\xfd\xc2?'
p6267
tp6268
Rp6269
s(I0
I9
I2
tp6270
g5825
s(I8
I8
I2
tp6271
F1.0
s(I14
I20
I4
tp6272
g835
s(I11
I5
I4
tp6273
g1420
s(I17
I20
I3
tp6274
g1493
s(I1
I17
I2
tp6275
g5532
s(I5
I3
I1
tp6276
g3728
s(I10
I10
I12
tp6277
F1.0
s(I18
I9
I7
tp6278
g1984
s(I10
I7
I3
tp6279
g5392
s(I0
I7
I1
tp6280
g3501
s(I21
I16
I2
tp6281
g2
(g6
S'\x9d\x9d\x87\xe1e\x87\x99?'
p6282
tp6283
Rp6284
s(I0
I12
I8
tp6285
g113
s(I9
I21
I2
tp6286
g5258
s(I12
I9
I1
tp6287
g3488
s(I18
I22
I4
tp6288
g6082
s(I17
I6
I6
tp6289
g129
s(I20
I8
I3
tp6290
g5472
s(I17
I9
I7
tp6291
g1468
s(I20
I5
I4
tp6292
g80
s(I25
I10
I1
tp6293
g5850
s(I1
I3
I2
tp6294
g4591
s(I22
I15
I2
tp6295
g6251
s(I15
I23
I1
tp6296
g97
s(I15
I2
I10
tp6297
g1031
s(I3
I16
I3
tp6298
g3651
s(I23
I19
I2
tp6299
g5634
s(I11
I1
I1
tp6300
g4421
s(I14
I5
I2
tp6301
g1252
s(I16
I13
I3
tp6302
g4008
s(I5
I18
I1
tp6303
g3936
s(I4
I14
I5
tp6304
g1615
s(I22
I25
I1
tp6305
g1723
s(I24
I12
I1
tp6306
g2516
s(I4
I4
I14
tp6307
F1.0
s(I13
I3
I3
tp6308
g353
s(I18
I7
I1
tp6309
g1235
s(I12
I0
I11
tp6310
g113
s(I15
I2
I7
tp6311
g1031
s(I15
I5
I5
tp6312
g211
s(I17
I2
I9
tp6313
g429
s(I11
I2
I5
tp6314
g1432
s(I14
I8
I4
tp6315
g1957
s(I2
I10
I7
tp6316
g1485
s(I1
I18
I3
tp6317
g6269
s(I19
I19
I3
tp6318
F1.0
s(I23
I1
I2
tp6319
g3023
s(I0
I6
I2
tp6320
g4950
s(I3
I12
I1
tp6321
g4918
s(I7
I10
I2
tp6322
g1446
s(I9
I3
I4
tp6323
g1567
s(I2
I14
I5
tp6324
g1893
s(I9
I22
I3
tp6325
g419
s(I15
I6
I1
tp6326
g2
(g6
S'\xbc\x06X\xb1g\xea\x97?'
p6327
tp6328
Rp6329
s(I17
I7
I1
tp6330
g2351
s(I20
I15
I2
tp6331
g4159
s(I17
I10
I6
tp6332
g1585
s(I16
I4
I9
tp6333
g1110
s(I11
I16
I1
tp6334
g5893
s(I17
I3
I6
tp6335
g1174
s(I1
I12
I3
tp6336
g5046
s(I19
I1
I3
tp6337
g3925
s(I22
I5
I4
tp6338
g1948
s(I17
I17
I8
tp6339
F1.0
s(I7
I7
I4
tp6340
F1.0
s(I9
I0
I6
tp6341
g515
s(I18
I11
I4
tp6342
g11
s(I5
I19
I7
tp6343
g1517
s(I15
I3
I9
tp6344
g1243
s(I23
I16
I3
tp6345
g1792
s(I14
I4
I1
tp6346
g5783
s(I2
I14
I4
tp6347
g2
(g6
S'\x88\x9e,\xfdjh\xeb?'
p6348
tp6349
Rp6350
s(I19
I15
I4
tp6351
g5125
s(I16
I12
I4
tp6352
g3047
s(I20
I3
I3
tp6353
g76
s(I5
I19
I6
tp6354
g1517
s(I4
I13
I4
tp6355
g4967
s(I22
I24
I2
tp6356
g2
(g6
S'\x05\xdcR\xf5\xc4\xbe\x90?'
p6357
tp6358
Rp6359
s(I13
I4
I2
tp6360
g3303
s(I9
I19
I5
tp6361
g2911
s(I21
I0
I1
tp6362
g5349
s(I12
I12
I3
tp6363
F1.0
s(I14
I22
I2
tp6364
g270
s(I11
I3
I6
tp6365
g1643
s(I17
I22
I1
tp6366
g1010
s(I2
I13
I6
tp6367
g791
s(I5
I5
I3
tp6368
F1.0
s(I23
I6
I3
tp6369
g3466
s(I5
I16
I8
tp6370
g574
s(I0
I16
I4
tp6371
g1659
s(I0
I5
I3
tp6372
g2275
s(I22
I10
I2
tp6373
g6246
s(I7
I11
I1
tp6374
g4468
s(I0
I10
I10
tp6375
g361
s(I3
I3
I19
tp6376
F1.0
s(I12
I2
I4
tp6377
g369
s(I19
I5
I4
tp6378
g1517
s(I15
I7
I2
tp6379
g2067
s(I6
I17
I2
tp6380
g566
s(I2
I2
I16
tp6381
F1.0
s(I3
I13
I6
tp6382
g190
s(I16
I3
I8
tp6383
g141
s(I16
I8
I1
tp6384
g2080
s(I5
I23
I3
tp6385
g757
s(I9
I14
I4
tp6386
g5320
s(I22
I9
I4
tp6387
g3874
s(I9
I1
I5
tp6388
g1292
s(I18
I10
I3
tp6389
g4910
s(I0
I8
I8
tp6390
g1160
s(I15
I0
I8
tp6391
g153
s(I11
I3
I8
tp6392
g1643
s(I14
I14
I10
tp6393
F1.0
s(I11
I15
I3
tp6394
g3547
s(I16
I6
I6
tp6395
g533
s(I19
I12
I5
tp6396
g1732
s(I16
I11
I5
tp6397
g703
s(I19
I3
I4
tp6398
g477
s(I13
I5
I1
tp6399
g4414
s(I19
I3
I7
tp6400
g477
s(I17
I3
I7
tp6401
g1174
s(I3
I9
I3
tp6402
g5396
s(I21
I1
I2
tp6403
g2
(g6
S'4\xe4\xf6fV\xc9f?'
p6404
tp6405
Rp6406
s(I9
I19
I1
tp6407
g5137
s(I8
I5
I1
tp6408
g2
(g6
S'\x9e\xb1A\x83\xde\xea\xa7?'
p6409
tp6410
Rp6411
s(I12
I19
I2
tp6412
g6053
s(I14
I17
I3
tp6413
g5173
s(I11
I0
I7
tp6414
g39
s(I2
I12
I5
tp6415
g369
s(I16
I25
I1
tp6416
g4928
s(I0
I4
I4
tp6417
g976
s(I4
I18
I3
tp6418
g5311
s(I5
I16
I6
tp6419
g574
s(I4
I4
I18
tp6420
F1.0
s(I12
I1
I5
tp6421
g262
s(I8
I7
I1
tp6422
g5520
s(I8
I8
I9
tp6423
F1.0
s(I15
I4
I3
tp6424
g4578
s(I17
I1
I3
tp6425
g1436
s(I6
I16
I1
tp6426
g5493
s(I5
I8
I1
tp6427
g6411
s(I23
I21
I1
tp6428
g2859
s(I2
I11
I9
tp6429
g1432
s(I1
I14
I1
tp6430
g1934
s(I0
I18
I5
tp6431
g990
s(I13
I13
I8
tp6432
F1.0
s(I10
I17
I7
tp6433
g1585
s(I9
I15
I3
tp6434
g5526
s(I9
I2
I4
tp6435
g1211
s(I13
I20
I1
tp6436
g5536
s(I18
I13
I2
tp6437
g2662
s(I2
I16
I3
tp6438
g2122
s(I6
I2
I2
tp6439
g5152
s(I14
I6
I7
tp6440
g455
s(I16
I5
I7
tp6441
g574
s(I19
I13
I2
tp6442
g3362
s(I14
I8
I6
tp6443
g1957
s(I5
I21
I4
tp6444
g880
s(I24
I9
I2
tp6445
g5030
s(I0
I0
I1
tp6446
F1.0
s(I15
I24
I1
tp6447
g5799
s(I3
I6
I2
tp6448
g6045
s(I8
I15
I7
tp6449
g811
s(I21
I2
I3
tp6450
g953
s(I6
I1
I4
tp6451
g2093
s(I14
I2
I11
tp6452
g1672
s(I12
I18
I1
tp6453
g2
(g6
S'\xebUf/fe\xe4?'
p6454
tp6455
Rp6456
s(I17
I13
I4
tp6457
g3208
s(I2
I2
I3
tp6458
F1.0
s(I11
I1
I8
tp6459
g174
s(I2
I15
I4
tp6460
g1031
s(I23
I4
I1
tp6461
g5025
s(I25
I1
I1
tp6462
g3563
s(I24
I23
I1
tp6463
g2084
s(I3
I13
I7
tp6464
g190
s(I4
I4
I5
tp6465
F1.0
s(I4
I17
I2
tp6466
g5681
s(I3
I11
I4
tp6467
g1643
s(I12
I0
I2
tp6468
g1082
s(I9
I17
I6
tp6469
g1468
s(I3
I3
I16
tp6470
F1.0
s(I17
I2
I2
tp6471
g3367
s(I5
I9
I2
tp6472
g2410
s(I12
I2
I5
tp6473
g369
s(I14
I2
I4
tp6474
g6350
s(I16
I1
I10
tp6475
g394
s(I19
I9
I7
tp6476
g2911
s(I16
I22
I3
tp6477
g2940
s(I1
I15
I6
tp6478
g562
s(I0
I17
I4
tp6479
g831
s(I4
I7
I1
tp6480
g5875
s(I22
I6
I1
tp6481
g4142
s(I10
I16
I4
tp6482
g1904
s(I18
I3
I8
tp6483
g332
s(I13
I21
I2
tp6484
g2002
s(I18
I12
I1
tp6485
g6456
s(I2
I19
I2
tp6486
g308
s(I6
I13
I3
tp6487
g2849
s(I8
I0
I3
tp6488
g2312
s(I11
I6
I4
tp6489
g481
s(I14
I1
I6
tp6490
g549
s(I9
I1
I8
tp6491
g1292
s(I19
I10
I3
tp6492
g5198
s(I16
I9
I7
tp6493
g1776
s(I1
I12
I8
tp6494
g262
s(I3
I7
I1
tp6495
g1151
s(I7
I13
I4
tp6496
g723
s(I8
I14
I4
tp6497
g1957
s(I12
I4
I7
tp6498
g4552
s(I21
I3
I4
tp6499
g207
s(I14
I19
I1
tp6500
g4872
s(I2
I5
I2
tp6501
g398
s(I3
I3
I10
tp6502
F1.0
s(I17
I17
I4
tp6503
F1.0
s(I3
I15
I8
tp6504
g1243
s(I24
I22
I2
tp6505
g6359
s(I1
I11
I3
tp6506
g3217
s(I4
I16
I5
tp6507
g1110
s(I3
I8
I5
tp6508
g1972
s(I21
I21
I5
tp6509
F1.0
s(I12
I7
I3
tp6510
g2168
s(I9
I18
I7
tp6511
g1984
s(I5
I10
I3
tp6512
g3034
s(I11
I9
I2
tp6513
g5120
s(I5
I5
I10
tp6514
F1.0
s(I16
I0
I5
tp6515
g1659
s(I1
I5
I4
tp6516
g1219
s(I19
I6
I6
tp6517
g1059
s(I16
I21
I2
tp6518
g6284
s(I1
I8
I7
tp6519
g2010
s(I4
I6
I2
tp6520
g5380
s(I24
I4
I2
tp6521
g2284
s(I9
I9
I1
tp6522
F1.0
s(I1
I1
I7
tp6523
F1.0
s(I13
I22
I3
tp6524
g1266
s(I7
I17
I9
tp6525
g693
s(I3
I22
I1
tp6526
g2192
s(I21
I7
I1
tp6527
g1629
s(I20
I17
I1
tp6528
g4045
s(I14
I0
I5
tp6529
g275
s(I16
I3
I1
tp6530
g3212
s(I23
I9
I3
tp6531
g3948
s(I1
I13
I11
tp6532
g410
s(I5
I19
I3
tp6533
g186
s(I0
I14
I3
tp6534
g3647
s(I4
I20
I2
tp6535
g3883
s(I7
I18
I5
tp6536
g632
s(I8
I13
I5
tp6537
g852
s(I21
I4
I5
tp6538
g2056
s(I8
I2
I4
tp6539
g1316
s(I2
I2
I21
tp6540
F1.0
s(I17
I15
I2
tp6541
g5230
s(I2
I4
I1
tp6542
g5408
s(I1
I20
I1
tp6543
g5111
s(I19
I25
I1
tp6544
g5591
s(I1
I1
I9
tp6545
F1.0
s(I10
I0
I2
tp6546
g5247
s(I7
I0
I4
tp6547
g105
s(I7
I15
I5
tp6548
g2725
s(I9
I24
I1
tp6549
g1839
s(I2
I22
I2
tp6550
g1147
s(I0
I20
I5
tp6551
g2300
s(I5
I11
I4
tp6552
g1420
s(I11
I22
I3
tp6553
g4906
s(I5
I5
I21
tp6554
F1.0
s(I17
I5
I8
tp6555
g279
s(I1
I6
I5
tp6556
g2093
s(I19
I7
I5
tp6557
g357
s(I1
I9
I4
tp6558
g1292
s(I22
I0
I3
tp6559
g3994
s(I10
I18
I2
tp6560
g5485
s(I15
I18
I2
tp6561
g4460
s(I3
I23
I2
tp6562
g4759
s(I2
I21
I4
tp6563
g2586
s(I6
I15
I1
tp6564
g6329
s(I12
I20
I4
tp6565
g652
s(I11
I4
I6
tp6566
g972
s(I14
I14
I3
tp6567
F1.0
s(I11
I11
I7
tp6568
F1.0
s(I14
I3
I4
tp6569
g1325
s(I16
I2
I2
tp6570
g5557
s(I19
I8
I1
tp6571
g967
s(I23
I14
I2
tp6572
g5972
s(I19
I5
I5
tp6573
g1517
s(I1
I14
I10
tp6574
g549
s(I3
I14
I6
tp6575
g1325
s(I0
I13
I2
tp6576
g223
s(I7
I19
I6
tp6577
g357
s(I9
I20
I4
tp6578
g3435
s(I8
I12
I2
tp6579
g5810
s(I8
I1
I5
tp6580
g2010
s(I17
I8
I3
tp6581
g1179
s(I1
I21
I2
tp6582
g6406
s(I5
I15
I1
tp6583
g644
s(I3
I17
I7
tp6584
g1174
s(dp6585
(I7
I3
tp6586
(lp6587
I7
aI3
aI15
aI11
as(I16
I9
tp6588
(lp6589
I16
as(I19
I4
tp6590
(lp6591
I19
as(I8
I5
tp6592
(lp6593
I8
as(I10
I7
tp6594
(lp6595
I10
as(I0
I17
tp6596
(lp6597
I0
as(I14
I1
tp6598
(lp6599
I14
aI10
aI3
aI7
aI15
aI19
aI23
as(I15
I4
tp6600
(lp6601
I15
aI3
as(I3
I2
tp6602
(lp6603
I3
aI7
aI15
aI11
aI19
as(I4
I5
tp6604
(lp6605
I4
aI12
as(I8
I12
tp6606
(lp6607
I8
as(I9
I9
tp6608
(lp6609
I9
as(I10
I14
tp6610
(lp6611
I10
as(I8
I18
tp6612
(lp6613
I8
as(I11
I15
tp6614
(lp6615
I11
as(I14
I8
tp6616
(lp6617
I14
as(I12
I8
tp6618
(lp6619
I12
as(I1
I21
tp6620
(lp6621
I1
as(I13
I13
tp6622
(lp6623
I13
as(I2
I18
tp6624
(lp6625
I2
as(I0
I14
tp6626
(lp6627
I0
as(I3
I11
tp6628
(lp6629
I3
as(I1
I15
tp6630
(lp6631
I1
as(I4
I12
tp6632
(lp6633
I4
as(I2
I12
tp6634
(lp6635
I2
as(I5
I1
tp6636
(lp6637
I5
aI9
aI13
aI17
aI24
as(I3
I17
tp6638
(lp6639
I3
as(I16
I7
tp6640
(lp6641
I16
as(I6
I14
tp6642
(lp6643
I6
as(I17
I6
tp6644
(lp6645
I17
as(I7
I15
tp6646
(lp6647
I7
as(I18
I5
tp6648
(lp6649
I18
as(I10
I9
tp6650
(lp6651
I10
as(I11
I4
tp6652
(lp6653
I11
aI7
as(I12
I7
tp6654
(lp6655
I12
aI4
as(I15
I10
tp6656
(lp6657
I15
as(I13
I6
tp6658
(lp6659
I13
aI4
as(I0
I5
tp6660
(lp6661
I0
as(I24
I2
tp6662
(lp6663
I24
aI4
aI8
aI12
aI16
as(I4
I11
tp6664
(lp6665
I4
as(I2
I7
tp6666
(lp6667
I2
aI14
as(I5
I10
tp6668
(lp6669
I5
as(I3
I22
tp6670
(lp6671
I3
as(I6
I1
tp6672
(lp6673
I6
aI2
aI18
aI1
aI4
aI8
aI11
aI12
aI16
aI20
aI25
as(I4
I17
tp6674
(lp6675
I4
as(I7
I4
tp6676
(lp6677
I7
aI11
as(I5
I20
tp6678
(lp6679
I5
as(I19
I1
tp6680
(lp6681
I19
aI23
aI3
aI7
aI10
aI14
aI15
as(I1
I25
tp6682
(lp6683
I1
as(I6
I18
tp6684
(lp6685
I6
as(I19
I6
tp6686
(lp6687
I19
as(I20
I1
tp6688
(lp6689
I20
aI4
aI8
aI12
aI16
aI2
aI6
aI11
aI18
aI25
as(I21
I4
tp6690
(lp6691
I21
as(I8
I7
tp6692
(lp6693
I8
as(I9
I6
tp6694
(lp6695
I9
as(I10
I5
tp6696
(lp6697
I10
as(I11
I8
tp6698
(lp6699
I11
as(I0
I19
tp6700
(lp6701
I0
as(I14
I7
tp6702
(lp6703
I14
aI2
as(I1
I18
tp6704
(lp6705
I1
as(I15
I6
tp6706
(lp6707
I15
aI3
as(I0
I9
tp6708
(lp6709
I0
as(I3
I4
tp6710
(lp6711
I3
aI15
as(I4
I7
tp6712
(lp6713
I4
aI12
as(I5
I6
tp6714
(lp6715
I5
aI13
as(I16
I2
tp6716
(lp6717
I16
aI4
aI8
aI12
aI24
as(I17
I3
tp6718
(lp6719
I17
aI21
as(I7
I16
tp6720
(lp6721
I7
as(I18
I8
tp6722
(lp6723
I18
as(I8
I14
tp6724
(lp6725
I8
as(I22
I2
tp6726
(lp6727
I22
aI18
as(I9
I15
tp6728
(lp6729
I9
as(I10
I12
tp6730
(lp6731
I10
as(I11
I1
tp6732
(lp6733
I11
aI2
aI4
aI6
aI8
aI12
aI16
aI18
aI20
aI25
as(I9
I17
tp6734
(lp6735
I9
as(I12
I10
tp6736
(lp6737
I12
as(I13
I11
tp6738
(lp6739
I13
as(I2
I16
tp6740
(lp6741
I2
as(I3
I13
tp6742
(lp6743
I3
as(I1
I13
tp6744
(lp6745
I1
as(I4
I14
tp6746
(lp6747
I4
as(I2
I10
tp6748
(lp6749
I2
as(I5
I15
tp6750
(lp6751
I5
as(I3
I19
tp6752
(lp6753
I3
as(I6
I12
tp6754
(lp6755
I6
as(I4
I20
tp6756
(lp6757
I4
as(I17
I4
tp6758
(lp6759
I17
as(I7
I9
tp6760
(lp6761
I7
as(I18
I3
tp6762
(lp6763
I18
as(I11
I6
tp6764
(lp6765
I11
as(I12
I1
tp6766
(lp6767
I12
aI4
aI8
aI16
aI20
aI2
aI6
aI11
aI18
aI25
as(I13
I4
tp6768
(lp6769
I13
aI4
aI9
as(I0
I7
tp6770
(lp6771
I0
as(I1
I6
tp6772
(lp6773
I1
as(I25
I1
tp6774
(lp6775
I25
aI2
aI4
aI6
aI8
aI11
aI12
aI16
aI18
aI20
as(I2
I5
tp6776
(lp6777
I2
aI14
as(I5
I8
tp6778
(lp6779
I5
as(I6
I7
tp6780
(lp6781
I6
as(I4
I19
tp6782
(lp6783
I4
as(I7
I6
tp6784
(lp6785
I7
as(I5
I18
tp6786
(lp6787
I5
as(I19
I3
tp6788
(lp6789
I19
as(I20
I4
tp6790
(lp6791
I20
as(I8
I2
tp6792
(lp6793
I8
aI17
aI4
aI12
aI24
as(I9
I3
tp6794
(lp6795
I9
aI12
as(I14
I2
tp6796
(lp6797
I14
aI2
aI6
as(I3
I1
tp6798
(lp6799
I3
aI7
aI15
aI10
aI14
aI19
aI23
as(I6
I16
tp6800
(lp6801
I6
as(I17
I8
tp6802
(lp6803
I17
as(I20
I3
tp6804
(lp6805
I20
as(I21
I2
tp6806
(lp6807
I21
as(I8
I9
tp6808
(lp6809
I8
as(I9
I4
tp6810
(lp6811
I9
aI4
aI13
as(I10
I3
tp6812
(lp6813
I10
aI14
aI2
aI6
as(I11
I10
tp6814
(lp6815
I11
as(I0
I21
tp6816
(lp6817
I0
as(I14
I5
tp6818
(lp6819
I14
aI2
as(I12
I13
tp6820
(lp6821
I12
as(I1
I16
tp6822
(lp6823
I1
as(I2
I23
tp6824
(lp6825
I2
as(I0
I11
tp6826
(lp6827
I0
as(I3
I6
tp6828
(lp6829
I3
aI15
as(I1
I10
tp6830
(lp6831
I1
as(I4
I1
tp6832
(lp6833
I4
aI8
aI12
aI16
aI20
aI2
aI6
aI11
aI18
aI25
as(I5
I4
tp6834
(lp6835
I5
aI9
aI13
as(I16
I4
tp6836
(lp6837
I16
as(I6
I11
tp6838
(lp6839
I6
as(I17
I1
tp6840
(lp6841
I17
aI5
aI9
aI13
aI24
as(I7
I18
tp6842
(lp6843
I7
as(I18
I6
tp6844
(lp6845
I18
as(I9
I13
tp6846
(lp6847
I9
as(I10
I10
tp6848
(lp6849
I10
as(I11
I3
tp6850
(lp6851
I11
aI3
aI7
aI15
as(I14
I12
tp6852
(lp6853
I14
as(I12
I4
tp6854
(lp6855
I12
aI4
as(I15
I9
tp6856
(lp6857
I15
as(I13
I9
tp6858
(lp6859
I13
as(I0
I2
tp6860
(lp6861
I0
as(I3
I15
tp6862
(lp6863
I3
as(I1
I3
tp6864
(lp6865
I1
aI6
aI10
aI14
as(I4
I8
tp6866
(lp6867
I4
as(I2
I8
tp6868
(lp6869
I2
as(I5
I13
tp6870
(lp6871
I5
as(I3
I21
tp6872
(lp6873
I3
as(I6
I2
tp6874
(lp6875
I6
aI2
aI14
as(I4
I22
tp6876
(lp6877
I4
as(I7
I11
tp6878
(lp6879
I7
as(I18
I1
tp6880
(lp6881
I18
aI2
aI6
aI1
aI4
aI8
aI11
aI12
aI16
aI20
aI25
as(I23
I2
tp6882
(lp6883
I23
as(I12
I3
tp6884
(lp6885
I12
aI8
as(I13
I2
tp6886
(lp6887
I13
aI9
as(I0
I25
tp6888
(lp6889
I0
as(I1
I4
tp6890
(lp6891
I1
as(I2
I3
tp6892
(lp6893
I2
aI6
aI10
aI14
as(I6
I5
tp6894
(lp6895
I6
aI14
as(I5
I16
tp6896
(lp6897
I5
as(I16
I8
tp6898
(lp6899
I16
as(I19
I5
tp6900
(lp6901
I19
as(I20
I6
tp6902
(lp6903
I20
as(I8
I4
tp6904
(lp6905
I8
as(I9
I1
tp6906
(lp6907
I9
aI5
aI13
aI17
aI24
as(I10
I6
tp6908
(lp6909
I10
as(I0
I16
tp6910
(lp6911
I0
as(I15
I5
tp6912
(lp6913
I15
aI3
as(I3
I3
tp6914
(lp6915
I3
aI7
aI15
aI11
as(I4
I4
tp6916
(lp6917
I4
aI9
aI13
as(I8
I11
tp6918
(lp6919
I8
as(I9
I10
tp6920
(lp6921
I9
as(I10
I1
tp6922
(lp6923
I10
aI14
aI3
aI7
aI15
aI19
aI23
as(I8
I17
tp6924
(lp6925
I8
as(I11
I12
tp6926
(lp6927
I11
as(I0
I23
tp6928
(lp6929
I0
as(I14
I11
tp6930
(lp6931
I14
as(I1
I22
tp6932
(lp6933
I1
as(I15
I2
tp6934
(lp6935
I15
aI3
aI7
aI11
aI19
as(I2
I21
tp6936
(lp6937
I2
as(I0
I13
tp6938
(lp6939
I0
as(I3
I8
tp6940
(lp6941
I3
as(I1
I8
tp6942
(lp6943
I1
as(I4
I3
tp6944
(lp6945
I4
aI16
as(I2
I15
tp6946
(lp6947
I2
as(I5
I2
tp6948
(lp6949
I5
aI17
aI8
aI12
aI24
as(I16
I6
tp6950
(lp6951
I16
as(I6
I9
tp6952
(lp6953
I6
as(I17
I7
tp6954
(lp6955
I17
as(I7
I12
tp6956
(lp6957
I7
as(I18
I4
tp6958
(lp6959
I18
as(I10
I8
tp6960
(lp6961
I10
as(I11
I5
tp6962
(lp6963
I11
as(I12
I6
tp6964
(lp6965
I12
aI4
as(I15
I11
tp6966
(lp6967
I15
as(I13
I7
tp6968
(lp6969
I13
as(I0
I4
tp6970
(lp6971
I0
as(I24
I1
tp6972
(lp6973
I24
aI5
aI9
aI13
aI17
as(I1
I1
tp6974
(lp6975
I1
aI2
aI6
aI18
as(I4
I10
tp6976
(lp6977
I4
as(I2
I6
tp6978
(lp6979
I2
aI14
as(I5
I11
tp6980
(lp6981
I5
as(I3
I23
tp6982
(lp6983
I3
as(I4
I16
tp6984
(lp6985
I4
as(I7
I5
tp6986
(lp6987
I7
as(I5
I21
tp6988
(lp6989
I5
as(I2
I1
tp6990
(lp6991
I2
aI6
aI18
aI1
aI4
aI8
aI11
aI12
aI16
aI20
aI25
as(I7
I2
tp6992
(lp6993
I7
aI3
aI15
aI11
aI19
as(I16
I10
tp6994
(lp6995
I16
as(I19
I7
tp6996
(lp6997
I19
as(I21
I5
tp6998
(lp6999
I21
as(I8
I6
tp7000
(lp7001
I8
as(I9
I7
tp7002
(lp7003
I9
as(I10
I4
tp7004
(lp7005
I10
aI14
aI2
aI6
as(I11
I9
tp7006
(lp7007
I11
as(I0
I18
tp7008
(lp7009
I0
as(I14
I6
tp7010
(lp7011
I14
aI2
as(I1
I19
tp7012
(lp7013
I1
as(I15
I7
tp7014
(lp7015
I15
as(I2
I24
tp7016
(lp7017
I2
as(I0
I8
tp7018
(lp7019
I0
as(I3
I5
tp7020
(lp7021
I3
aI15
as(I4
I6
tp7022
(lp7023
I4
aI13
as(I5
I7
tp7024
(lp7025
I5
as(I16
I1
tp7026
(lp7027
I16
aI4
aI8
aI12
aI20
aI2
aI6
aI11
aI18
aI25
as(I6
I20
tp7028
(lp7029
I6
as(I7
I17
tp7030
(lp7031
I7
as(I8
I13
tp7032
(lp7033
I8
as(I9
I8
tp7034
(lp7035
I9
as(I10
I15
tp7036
(lp7037
I10
as(I11
I14
tp7038
(lp7039
I11
as(I14
I9
tp7040
(lp7041
I14
as(I12
I9
tp7042
(lp7043
I12
as(I1
I20
tp7044
(lp7045
I1
as(I13
I12
tp7046
(lp7047
I13
as(I2
I19
tp7048
(lp7049
I2
as(I0
I15
tp7050
(lp7051
I0
as(I3
I10
tp7052
(lp7053
I3
as(I1
I14
tp7054
(lp7055
I1
as(I4
I13
tp7056
(lp7057
I4
as(I2
I13
tp7058
(lp7059
I2
as(I3
I16
tp7060
(lp7061
I3
as(I6
I15
tp7062
(lp7063
I6
as(I17
I5
tp7064
(lp7065
I17
as(I7
I14
tp7066
(lp7067
I7
as(I18
I2
tp7068
(lp7069
I18
aI22
as(I22
I4
tp7070
(lp7071
I22
as(I23
I1
tp7072
(lp7073
I23
aI19
aI3
aI7
aI10
aI14
aI15
as(I11
I7
tp7074
(lp7075
I11
as(I10
I16
tp7076
(lp7077
I10
as(I13
I5
tp7078
(lp7079
I13
aI5
as(I0
I6
tp7080
(lp7081
I0
as(I1
I7
tp7082
(lp7083
I1
as(I2
I4
tp7084
(lp7085
I2
aI6
aI10
aI14
as(I5
I9
tp7086
(lp7087
I5
as(I6
I6
tp7088
(lp7089
I6
as(I4
I18
tp7090
(lp7091
I4
as(I7
I7
tp7092
(lp7093
I7
as(I5
I19
tp7094
(lp7095
I5
as(I8
I1
tp7096
(lp7097
I8
aI4
aI12
aI16
aI20
aI2
aI6
aI11
aI18
aI25
as(I1
I24
tp7098
(lp7099
I1
as(I6
I19
tp7100
(lp7101
I6
as(I17
I9
tp7102
(lp7103
I17
as(I20
I2
tp7104
(lp7105
I20
as(I21
I3
tp7106
(lp7107
I21
aI17
as(I8
I8
tp7108
(lp7109
I8
as(I9
I5
tp7110
(lp7111
I9
aI4
as(I10
I2
tp7112
(lp7113
I10
aI3
aI7
aI15
aI19
as(I11
I11
tp7114
(lp7115
I11
as(I0
I20
tp7116
(lp7117
I0
as(I14
I4
tp7118
(lp7119
I14
aI10
aI2
aI6
as(I12
I12
tp7120
(lp7121
I12
as(I1
I17
tp7122
(lp7123
I1
as(I15
I1
tp7124
(lp7125
I15
aI3
aI7
aI10
aI14
aI19
aI23
as(I2
I22
tp7126
(lp7127
I2
as(I0
I10
tp7128
(lp7129
I0
as(I3
I7
tp7130
(lp7131
I3
as(I1
I11
tp7132
(lp7133
I1
as(I5
I5
tp7134
(lp7135
I5
aI13
as(I16
I3
tp7136
(lp7137
I16
aI4
as(I6
I10
tp7138
(lp7139
I6
as(I17
I2
tp7140
(lp7141
I17
aI4
aI8
aI12
aI24
as(I7
I19
tp7142
(lp7143
I7
as(I8
I15
tp7144
(lp7145
I8
as(I22
I3
tp7146
(lp7147
I22
as(I9
I14
tp7148
(lp7149
I9
as(I10
I13
tp7150
(lp7151
I10
as(I9
I16
tp7152
(lp7153
I9
as(I12
I11
tp7154
(lp7155
I12
as(I13
I10
tp7156
(lp7157
I13
as(I2
I17
tp7158
(lp7159
I2
as(I0
I1
tp7160
(lp7161
I0
as(I3
I12
tp7162
(lp7163
I3
as(I1
I12
tp7164
(lp7165
I1
as(I4
I15
tp7166
(lp7167
I4
as(I2
I11
tp7168
(lp7169
I2
as(I5
I14
tp7170
(lp7171
I5
as(I3
I18
tp7172
(lp7173
I3
as(I6
I13
tp7174
(lp7175
I6
as(I4
I21
tp7176
(lp7177
I4
as(I7
I8
tp7178
(lp7179
I7
as(I23
I3
tp7180
(lp7181
I23
as(I12
I2
tp7182
(lp7183
I12
aI17
aI4
aI8
aI24
as(I13
I3
tp7184
(lp7185
I13
aI5
as(I0
I24
tp7186
(lp7187
I0
as(I1
I5
tp7188
(lp7189
I1
as(I2
I2
tp7190
(lp7191
I2
aI6
aI14
as(I6
I4
tp7192
(lp7193
I6
aI2
aI10
aI14
as(I7
I1
tp7194
(lp7195
I7
aI3
aI15
aI10
aI14
aI19
aI23
as(I5
I17
tp7196
(lp7197
I5
as(I19
I2
tp7198
(lp7199
I19
aI3
aI7
aI10
aI15
as(I20
I5
tp7200
(lp7201
I20
as(I8
I3
tp7202
(lp7203
I8
aI12
as(I9
I2
tp7204
(lp7205
I9
aI13
as(I14
I3
tp7206
(lp7207
I14
aI10
aI2
aI6
as(I6
I17
tp7208
(lp7209
I6
as(I21
I1
tp7210
(lp7211
I21
as(I8
I10
tp7212
(lp7213
I8
as(I9
I11
tp7214
(lp7215
I9
as(I8
I16
tp7216
(lp7217
I8
as(I11
I13
tp7218
(lp7219
I11
as(I0
I22
tp7220
(lp7221
I0
as(I14
I10
tp7222
(lp7223
I14
as(I12
I14
tp7224
(lp7225
I12
as(I1
I23
tp7226
(lp7227
I1
as(I15
I3
tp7228
(lp7229
I15
aI3
aI7
aI11
as(I2
I20
tp7230
(lp7231
I2
as(I0
I12
tp7232
(lp7233
I0
as(I3
I9
tp7234
(lp7235
I3
as(I1
I9
tp7236
(lp7237
I1
as(I4
I2
tp7238
(lp7239
I4
aI17
aI8
aI12
aI24
as(I2
I14
tp7240
(lp7241
I2
as(I5
I3
tp7242
(lp7243
I5
aI13
as(I16
I5
tp7244
(lp7245
I16
as(I6
I8
tp7246
(lp7247
I6
as(I7
I13
tp7248
(lp7249
I7
as(I18
I7
tp7250
(lp7251
I18
as(I22
I1
tp7252
(lp7253
I22
as(I9
I12
tp7254
(lp7255
I9
as(I10
I11
tp7256
(lp7257
I10
as(I11
I2
tp7258
(lp7259
I11
aI3
aI7
aI15
as(I12
I5
tp7260
(lp7261
I12
aI4
as(I15
I8
tp7262
(lp7263
I15
as(I13
I8
tp7264
(lp7265
I13
as(I0
I3
tp7266
(lp7267
I0
as(I3
I14
tp7268
(lp7269
I3
as(I1
I2
tp7270
(lp7271
I1
as(I4
I9
tp7272
(lp7273
I4
as(I2
I9
tp7274
(lp7275
I2
as(I5
I12
tp7276
(lp7277
I5
as(I3
I20
tp7278
(lp7279
I3
as(I6
I3
tp7280
(lp7281
I6
aI2
aI10
aI14
as(I7
I10
tp7282
(lp7283
I7
as(I13
I1
tp7284
(lp7285
I13
aI5
aI9
aI17
aI24
as(I0
I26
tp7286
(lp7287
I0
astp7288
.