((dp0
(I18
I11
I6
tp1
cnumpy.core.multiarray
scalar
p2
(cnumpy
dtype
p3
(S'f8'
p4
I0
I1
tp5
Rp6
(I3
S'<'
p7
NNNI-1
I-1
I0
tp8
bS'\xd3\xe9\xa8_\xaau\x85?'
p9
tp10
Rp11
s(I10
I3
I3
tp12
g2
(g6
S'4\xe4\xf6fV\xc9f?'
p13
tp14
Rp15
s(I16
I16
I2
tp16
F1.0
s(I0
I27
I1
tp17
g2
(g6
S'4\xe4\xf6fV\xc9f?'
p18
tp19
Rp20
s(I22
I12
I4
tp21
g2
(g6
S'4\xe4\xf6fV\xc9f?'
p22
tp23
Rp24
s(I7
I1
I3
tp25
g2
(g6
S'\x08\r>V\xf1\x03\xee?'
p26
tp27
Rp28
s(I0
I0
I8
tp29
F1.0
s(I4
I22
I7
tp30
g2
(g6
S'4\xe4\xf6fV\xc9f?'
p31
tp32
Rp33
s(I7
I24
I4
tp34
g2
(g6
S'4\xe4\xf6fV\xc9f?'
p35
tp36
Rp37
s(I7
I12
I4
tp38
g2
(g6
S'4\xe4\xf6fV\xc9f?'
p39
tp40
Rp41
s(I9
I25
I2
tp42
g2
(g6
S'4\xe4\xf6fV\xc9f?'
p43
tp44
Rp45
s(I13
I27
I1
tp46
g2
(g6
S'\x8e\xc6\x06\x92JNn?'
p47
tp48
Rp49
s(I12
I5
I1
tp50
g2
(g6
S'4\xe4\xf6fV\xc9f?'
p51
tp52
Rp53
s(I6
I19
I9
tp54
g2
(g6
S'4\xe4\xf6fV\xc9f?'
p55
tp56
Rp57
s(I24
I20
I4
tp58
g2
(g6
S'B\x1eo\x11\xb8u\x80?'
p59
tp60
Rp61
s(I2
I25
I3
tp62
g2
(g6
S'4\xe4\xf6fV\xc9f?'
p63
tp64
Rp65
s(I20
I20
I3
tp66
F1.0
s(I23
I18
I4
tp67
g2
(g6
S'\xc5:G\xf1\x1b\x1bw?'
p68
tp69
Rp70
s(I11
I0
I9
tp71
g2
(g6
S'4\xe4\xf6fV\xc9f?'
p72
tp73
Rp74
s(I5
I12
I5
tp75
g2
(g6
S'4\xe4\xf6fV\xc9f?'
p76
tp77
Rp78
s(I25
I14
I1
tp79
g2
(g6
S'4\xe4\xf6fV\xc9f?'
p80
tp81
Rp82
s(I1
I7
I2
tp83
g2
(g6
S'\x08\r>V\xf1\x03\xee?'
p84
tp85
Rp86
s(I19
I4
I4
tp87
g2
(g6
S'4\xe4\xf6fV\xc9f?'
p88
tp89
Rp90
s(I7
I0
I6
tp91
g2
(g6
S'4\xe4\xf6fV\xc9f?'
p92
tp93
Rp94
s(I1
I10
I5
tp95
g2
(g6
S'4\xe4\xf6fV\xc9f?'
p96
tp97
Rp98
s(I2
I12
I9
tp99
g2
(g6
S'4\xe4\xf6fV\xc9f?'
p100
tp101
Rp102
s(I14
I14
I15
tp103
F1.0
s(I22
I3
I2
tp104
g2
(g6
S'4\xe4\xf6fV\xc9f?'
p105
tp106
Rp107
s(I10
I21
I3
tp108
g2
(g6
S'\x05\x03\xfb(\x84\xa9v?'
p109
tp110
Rp111
s(I6
I6
I23
tp112
F1.0
s(I4
I17
I11
tp113
g2
(g6
S'4\xe4\xf6fV\xc9f?'
p114
tp115
Rp116
s(I15
I19
I1
tp117
g2
(g6
S'4\xe4\xf6fV\xc9f?'
p118
tp119
Rp120
s(I8
I8
I7
tp121
F1.0
s(I3
I20
I3
tp122
g2
(g6
S'4\xe4\xf6fV\xc9f?'
p123
tp124
Rp125
s(I2
I20
I7
tp126
g2
(g6
S'4\xe4\xf6fV\xc9f?'
p127
tp128
Rp129
s(I5
I20
I6
tp130
g2
(g6
S'4\xe4\xf6fV\xc9f?'
p131
tp132
Rp133
s(I11
I5
I1
tp134
g2
(g6
S'4\xe4\xf6fV\xc9f?'
p135
tp136
Rp137
s(I14
I9
I2
tp138
g2
(g6
S'4\xe4\xf6fV\xc9f?'
p139
tp140
Rp141
s(I10
I22
I7
tp142
g2
(g6
S'4\xe4\xf6fV\xc9f?'
p143
tp144
Rp145
s(I14
I21
I6
tp146
g2
(g6
S'4\xe4\xf6fV\xc9f?'
p147
tp148
Rp149
s(I16
I1
I3
tp150
g2
(g6
S'4\xe4\xf6fV\xc9f?'
p151
tp152
Rp153
s(I10
I10
I9
tp154
F1.0
s(I23
I15
I1
tp155
g2
(g6
S'4\xe4\xf6fV\xc9f?'
p156
tp157
Rp158
s(I24
I16
I1
tp159
g2
(g6
S'4\xe4\xf6fV\xc9f?'
p160
tp161
Rp162
s(I27
I22
I2
tp163
g2
(g6
S'Gl\x84\xdc\xa4r\x91?'
p164
tp165
Rp166
s(I0
I7
I4
tp167
g94
s(I17
I4
I3
tp168
g2
(g6
S'4\xe4\xf6fV\xc9f?'
p169
tp170
Rp171
s(I1
I1
I10
tp172
F1.0
s(I0
I12
I5
tp173
g2
(g6
S'4\xe4\xf6fV\xc9f?'
p174
tp175
Rp176
s(I18
I3
I1
tp177
g2
(g6
S'4\xe4\xf6fV\xc9f?'
p178
tp179
Rp180
s(I16
I7
I3
tp181
g2
(g6
S'4\xe4\xf6fV\xc9f?'
p182
tp183
Rp184
s(I9
I21
I7
tp185
g2
(g6
S'4\xe4\xf6fV\xc9f?'
p186
tp187
Rp188
s(I8
I11
I3
tp189
g2
(g6
S'4\xe4\xf6fV\xc9f?'
p190
tp191
Rp192
s(I26
I18
I3
tp193
g2
(g6
S'"\xfc\xb8\xf8\xe5\xb8\xb3?'
p194
tp195
Rp196
s(I21
I6
I7
tp197
g2
(g6
S'4\xe4\xf6fV\xc9f?'
p198
tp199
Rp200
s(I17
I6
I9
tp201
g2
(g6
S'4\xe4\xf6fV\xc9f?'
p202
tp203
Rp204
s(I12
I22
I5
tp205
g24
s(I20
I8
I8
tp206
g2
(g6
S'4\xe4\xf6fV\xc9f?'
p207
tp208
Rp209
s(I1
I22
I3
tp210
g2
(g6
S'4\xe4\xf6fV\xc9f?'
p211
tp212
Rp213
s(I19
I23
I3
tp214
g2
(g6
S'\xf7\xa4\x12\xcd=\x8f\x85?'
p215
tp216
Rp217
s(I3
I16
I8
tp218
g2
(g6
S'4\xe4\xf6fV\xc9f?'
p219
tp220
Rp221
s(I20
I0
I6
tp222
g2
(g6
S'4\xe4\xf6fV\xc9f?'
p223
tp224
Rp225
s(I10
I2
I4
tp226
g2
(g6
S'4\xe4\xf6fV\xc9f?'
p227
tp228
Rp229
s(I5
I13
I5
tp230
g2
(g6
S'4\xe4\xf6fV\xc9f?'
p231
tp232
Rp233
s(I0
I26
I2
tp234
g2
(g6
S'4\xe4\xf6fV\xc9f?'
p235
tp236
Rp237
s(I4
I24
I1
tp238
g2
(g6
S'4\xe4\xf6fV\xc9f?'
p239
tp240
Rp241
s(I22
I15
I5
tp242
g2
(g6
S'4\xe4\xf6fV\xc9f?'
p243
tp244
Rp245
s(I0
I15
I9
tp246
g2
(g6
S'4\xe4\xf6fV\xc9f?'
p247
tp248
Rp249
s(I15
I9
I5
tp250
g2
(g6
S'\x7f\x15\x7f\xcd!j\xa2?'
p251
tp252
Rp253
s(I6
I6
I11
tp254
F1.0
s(I9
I26
I3
tp255
g2
(g6
S'4\xe4\xf6fV\xc9f?'
p256
tp257
Rp258
s(I11
I20
I6
tp259
g2
(g6
S'\xda\xa1\xc2\x94\xa9\xca\x7f?'
p260
tp261
Rp262
s(I15
I2
I1
tp263
g2
(g6
S'4\xe4\xf6fV\xc9f?'
p264
tp265
Rp266
s(I2
I2
I15
tp267
F1.0
s(I20
I11
I2
tp268
g2
(g6
S'\x8b\xf7\xcc\x0c\x03 \x9e?'
p269
tp270
Rp271
s(I11
I1
I6
tp272
g2
(g6
S'4\xe4\xf6fV\xc9f?'
p273
tp274
Rp275
s(I5
I13
I6
tp276
g233
s(I3
I18
I9
tp277
g2
(g6
S'4\xe4\xf6fV\xc9f?'
p278
tp279
Rp280
s(I11
I20
I1
tp281
g2
(g6
S'&\xc3t$x\xd0\x99?'
p282
tp283
Rp284
s(I28
I23
I1
tp285
g2
(g6
S'4\xe4\xf6fV\xc9f?'
p286
tp287
Rp288
s(I19
I5
I3
tp289
g2
(g6
S'4\xe4\xf6fV\xc9f?'
p290
tp291
Rp292
s(I13
I3
I8
tp293
g2
(g6
S'4\xe4\xf6fV\xc9f?'
p294
tp295
Rp296
s(I24
I1
I1
tp297
g2
(g6
S'4\xe4\xf6fV\xc9f?'
p298
tp299
Rp300
s(I4
I16
I12
tp301
g2
(g6
S'4\xe4\xf6fV\xc9f?'
p302
tp303
Rp304
s(I0
I8
I2
tp305
g2
(g6
S'\x08\r>V\xf1\x03\xee?'
p306
tp307
Rp308
s(I6
I6
I6
tp309
F1.0
s(I21
I15
I5
tp310
g2
(g6
S'4\xe4\xf6fV\xc9f?'
p311
tp312
Rp313
s(I3
I21
I4
tp314
g2
(g6
S'4\xe4\xf6fV\xc9f?'
p315
tp316
Rp317
s(I2
I23
I6
tp318
g2
(g6
S'4\xe4\xf6fV\xc9f?'
p319
tp320
Rp321
s(I15
I5
I10
tp322
g2
(g6
S'4\xe4\xf6fV\xc9f?'
p323
tp324
Rp325
s(I2
I2
I26
tp326
F1.0
s(I25
I25
I3
tp327
F1.0
s(I14
I8
I1
tp328
g2
(g6
S'4\xe4\xf6fV\xc9f?'
p329
tp330
Rp331
s(I3
I19
I10
tp332
g2
(g6
S'4\xe4\xf6fV\xc9f?'
p333
tp334
Rp335
s(I2
I17
I10
tp336
g2
(g6
S'4\xe4\xf6fV\xc9f?'
p337
tp338
Rp339
s(I16
I0
I12
tp340
g2
(g6
S'4\xe4\xf6fV\xc9f?'
p341
tp342
Rp343
s(I1
I1
I25
tp344
F1.0
s(I10
I6
I1
tp345
g2
(g6
S'4\xe4\xf6fV\xc9f?'
p346
tp347
Rp348
s(I27
I23
I1
tp349
g2
(g6
S'\xbf\xe8\x0e\xa5\xfa\xf9\xad?'
p350
tp351
Rp352
s(I3
I12
I4
tp353
g2
(g6
S'4\xe4\xf6fV\xc9f?'
p354
tp355
Rp356
s(I10
I14
I4
tp357
g2
(g6
S'\xbb\xc6\x1c\x8c\x07\xe7\xe1?'
p358
tp359
Rp360
s(I0
I11
I4
tp361
g74
s(I18
I2
I6
tp362
g2
(g6
S'4\xe4\xf6fV\xc9f?'
p363
tp364
Rp365
s(I3
I3
I5
tp366
F1.0
s(I21
I12
I1
tp367
g2
(g6
S'\x8dt\xb6\x81\xdd\xb4\xd4?'
p368
tp369
Rp370
s(I4
I21
I4
tp371
g2
(g6
S'4\xe4\xf6fV\xc9f?'
p372
tp373
Rp374
s(I26
I21
I2
tp375
g2
(g6
S'4\xe4\xf6fV\xc9f?'
p376
tp377
Rp378
s(I14
I26
I2
tp379
g2
(g6
S'4\xe4\xf6fV\xc9f?'
p380
tp381
Rp382
s(I12
I21
I4
tp383
g2
(g6
S'4\xe4\xf6fV\xc9f?'
p384
tp385
Rp386
s(I12
I12
I14
tp387
F1.0
s(I17
I10
I1
tp388
g2
(g6
S'4\xe4\xf6fV\xc9f?'
p389
tp390
Rp391
s(I1
I23
I4
tp392
g2
(g6
S'4\xe4\xf6fV\xc9f?'
p393
tp394
Rp395
s(I5
I1
I3
tp396
g2
(g6
S'\x08\r>V\xf1\x03\xee?'
p397
tp398
Rp399
s(I23
I2
I3
tp400
g2
(g6
S'4\xe4\xf6fV\xc9f?'
p401
tp402
Rp403
s(I25
I11
I3
tp404
g2
(g6
S'4\xe4\xf6fV\xc9f?'
p405
tp406
Rp407
s(I2
I12
I8
tp408
g102
s(I1
I12
I6
tp409
g2
(g6
S'4\xe4\xf6fV\xc9f?'
p410
tp411
Rp412
s(I24
I12
I4
tp413
g2
(g6
S'4\xe4\xf6fV\xc9f?'
p414
tp415
Rp416
s(I0
I25
I3
tp417
g2
(g6
S'4\xe4\xf6fV\xc9f?'
p418
tp419
Rp420
s(I22
I14
I2
tp421
g2
(g6
S'4\xe4\xf6fV\xc9f?'
p422
tp423
Rp424
s(I7
I7
I1
tp425
F1.0
s(I0
I14
I10
tp426
g2
(g6
S'4\xe4\xf6fV\xc9f?'
p427
tp428
Rp429
s(I5
I17
I5
tp430
g2
(g6
S'4\xe4\xf6fV\xc9f?'
p431
tp432
Rp433
s(I13
I3
I6
tp434
g296
s(I27
I8
I2
tp435
g2
(g6
S'4\xe4\xf6fV\xc9f?'
p436
tp437
Rp438
s(I15
I3
I2
tp439
g2
(g6
S'4\xe4\xf6fV\xc9f?'
p440
tp441
Rp442
s(I3
I17
I1
tp443
g2
(g6
S'4\xe4\xf6fV\xc9f?'
p444
tp445
Rp446
s(I2
I27
I1
tp447
g2
(g6
S'4\xe4\xf6fV\xc9f?'
p448
tp449
Rp450
s(I20
I10
I1
tp451
g2
(g6
S'4\xe4\xf6fV\xc9f?'
p452
tp453
Rp454
s(I8
I24
I4
tp455
g2
(g6
S'4\xe4\xf6fV\xc9f?'
p456
tp457
Rp458
s(I23
I16
I6
tp459
g2
(g6
S'\x90th*\x05^h?'
p460
tp461
Rp462
s(I25
I21
I4
tp463
g2
(g6
S'\x9d\xc4\xb0\xb5\xd0\xa3\xd7?'
p464
tp465
Rp466
s(I5
I14
I7
tp467
g2
(g6
S'4\xe4\xf6fV\xc9f?'
p468
tp469
Rp470
s(I16
I7
I8
tp471
g2
(g6
S'4\xe4\xf6fV\xc9f?'
p472
tp473
Rp474
s(I11
I21
I6
tp475
g2
(g6
S"\xfd\xef'4g\x03h?"
p476
tp477
Rp478
s(I16
I12
I1
tp479
g2
(g6
S'\x1d\xe1@\xf5\xb5\x0c\xea?'
p480
tp481
Rp482
s(I19
I2
I2
tp483
g2
(g6
S'4\xe4\xf6fV\xc9f?'
p484
tp485
Rp486
s(I10
I20
I5
tp487
g2
(g6
S'-[Hr\x05$j?'
p488
tp489
Rp490
s(I13
I4
I9
tp491
g2
(g6
S'4\xe4\xf6fV\xc9f?'
p492
tp493
Rp494
s(I10
I23
I1
tp495
g2
(g6
S'4\xe4\xf6fV\xc9f?'
p496
tp497
Rp498
s(I27
I6
I1
tp499
g2
(g6
S'4\xe4\xf6fV\xc9f?'
p500
tp501
Rp502
s(I18
I6
I3
tp503
g2
(g6
S'4\xe4\xf6fV\xc9f?'
p504
tp505
Rp506
s(I5
I17
I8
tp507
g433
s(I21
I0
I4
tp508
g2
(g6
S'4\xe4\xf6fV\xc9f?'
p509
tp510
Rp511
s(I20
I24
I2
tp512
g2
(g6
S'4\xe4\xf6fV\xc9f?'
p513
tp514
Rp515
s(I3
I18
I5
tp516
g280
s(I20
I3
I7
tp517
g2
(g6
S'4\xe4\xf6fV\xc9f?'
p518
tp519
Rp520
s(I11
I3
I3
tp521
g2
(g6
S'4\xe4\xf6fV\xc9f?'
p522
tp523
Rp524
s(I17
I22
I4
tp525
g2
(g6
S'\x96\x1dk\x1ea\x16\x7f?'
p526
tp527
Rp528
s(I1
I19
I1
tp529
g2
(g6
S'4\xe4\xf6fV\xc9f?'
p530
tp531
Rp532
s(I24
I14
I3
tp533
g2
(g6
S'4\xe4\xf6fV\xc9f?'
p534
tp535
Rp536
s(I13
I1
I1
tp537
g2
(g6
S'4\xe4\xf6fV\xc9f?'
p538
tp539
Rp540
s(I9
I9
I19
tp541
F1.0
s(I2
I14
I7
tp542
g2
(g6
S'4\xe4\xf6fV\xc9f?'
p543
tp544
Rp545
s(I3
I13
I3
tp546
g2
(g6
S'4\xe4\xf6fV\xc9f?'
p547
tp548
Rp549
s(I19
I7
I6
tp550
g2
(g6
S'4\xe4\xf6fV\xc9f?'
p551
tp552
Rp553
s(I0
I10
I7
tp554
g2
(g6
S'4\xe4\xf6fV\xc9f?'
p555
tp556
Rp557
s(I18
I5
I7
tp558
g2
(g6
S'4\xe4\xf6fV\xc9f?'
p559
tp560
Rp561
s(I12
I2
I9
tp562
g102
s(I7
I22
I1
tp563
g2
(g6
S'4\xe4\xf6fV\xc9f?'
p564
tp565
Rp566
s(I9
I23
I1
tp567
g2
(g6
S'4\xe4\xf6fV\xc9f?'
p568
tp569
Rp570
s(I8
I9
I1
tp571
g2
(g6
S'\x08\r>V\xf1\x03\xee?'
p572
tp573
Rp574
s(I26
I20
I1
tp575
g2
(g6
S'4\xe4\xf6fV\xc9f?'
p576
tp577
Rp578
s(I17
I9
I6
tp579
g2
(g6
S'X\xcb72\x96#l?'
p580
tp581
Rp582
s(I14
I21
I3
tp583
g2
(g6
S'L\xa7Q\xfd\xad\xddr?'
p584
tp585
Rp586
s(I7
I17
I8
tp587
g2
(g6
S'4\xe4\xf6fV\xc9f?'
p588
tp589
Rp590
s(I2
I20
I8
tp591
g129
s(I6
I18
I9
tp592
g2
(g6
S'4\xe4\xf6fV\xc9f?'
p593
tp594
Rp595
s(I1
I16
I5
tp596
g2
(g6
S'4\xe4\xf6fV\xc9f?'
p597
tp598
Rp599
s(I5
I2
I2
tp600
g2
(g6
S'\x08\r>V\xf1\x03\xee?'
p601
tp602
Rp603
s(I25
I4
I2
tp604
g2
(g6
S'4\xe4\xf6fV\xc9f?'
p605
tp606
Rp607
s(I16
I8
I6
tp608
g2
(g6
S'4\xe4\xf6fV\xc9f?'
p609
tp610
Rp611
s(I1
I13
I5
tp612
g2
(g6
S'4\xe4\xf6fV\xc9f?'
p613
tp614
Rp615
s(I10
I4
I6
tp616
g2
(g6
S'4\xe4\xf6fV\xc9f?'
p617
tp618
Rp619
s(I13
I13
I13
tp620
F1.0
s(I3
I3
I20
tp621
F1.0
s(I22
I9
I3
tp622
g2
(g6
S'4\xe4\xf6fV\xc9f?'
p623
tp624
Rp625
s(I0
I13
I11
tp626
g2
(g6
S'4\xe4\xf6fV\xc9f?'
p627
tp628
Rp629
s(I15
I21
I4
tp630
g313
s(I13
I13
I12
tp631
F1.0
s(I2
I17
I7
tp632
g339
s(I15
I0
I3
tp633
g2
(g6
S'4\xe4\xf6fV\xc9f?'
p634
tp635
Rp636
s(I17
I5
I3
tp637
g2
(g6
S'4\xe4\xf6fV\xc9f?'
p638
tp639
Rp640
s(I6
I20
I1
tp641
g2
(g6
S'4\xe4\xf6fV\xc9f?'
p642
tp643
Rp644
s(I8
I23
I5
tp645
g2
(g6
S'4\xe4\xf6fV\xc9f?'
p646
tp647
Rp648
s(I23
I17
I1
tp649
g2
(g6
S'4\xe4\xf6fV\xc9f?'
p650
tp651
Rp652
s(I11
I15
I4
tp653
g2
(g6
S'\x07\xf0\xab\xbf\xa4\xa9\xe0?'
p654
tp655
Rp656
s(I20
I6
I9
tp657
g2
(g6
S'4\xe4\xf6fV\xc9f?'
p658
tp659
Rp660
s(I5
I15
I8
tp661
g325
s(I12
I1
I4
tp662
g412
s(I6
I14
I6
tp663
g2
(g6
S'4\xe4\xf6fV\xc9f?'
p664
tp665
Rp666
s(I1
I2
I1
tp667
g2
(g6
S'\x08\r>V\xf1\x03\xee?'
p668
tp669
Rp670
s(I19
I3
I1
tp671
g2
(g6
S'4\xe4\xf6fV\xc9f?'
p672
tp673
Rp674
s(I21
I14
I7
tp675
g149
s(I16
I16
I9
tp676
F1.0
s(I12
I12
I9
tp677
F1.0
s(I13
I16
I1
tp678
g2
(g6
S'\x14\xb2N}#\x90\xb8?'
p679
tp680
Rp681
s(I18
I9
I2
tp682
g2
(g6
S'4\xe4\xf6fV\xc9f?'
p683
tp684
Rp685
s(I8
I8
I10
tp686
F1.0
s(I21
I1
I7
tp687
g2
(g6
S'4\xe4\xf6fV\xc9f?'
p688
tp689
Rp690
s(I6
I6
I2
tp691
F1.0
s(I3
I19
I6
tp692
g335
s(I21
I9
I6
tp693
g188
s(I6
I11
I5
tp694
g2
(g6
S'4\xe4\xf6fV\xc9f?'
p695
tp696
Rp697
s(I26
I5
I1
tp698
g2
(g6
S'4\xe4\xf6fV\xc9f?'
p699
tp700
Rp701
s(I11
I0
I2
tp702
g2
(g6
S'4\xe4\xf6fV\xc9f?'
p703
tp704
Rp705
s(I17
I23
I3
tp706
g2
(g6
S'\xf8\xa0\xbe;\xd8\x01r?'
p707
tp708
Rp709
s(I24
I15
I5
tp710
g2
(g6
S'4\xe4\xf6fV\xc9f?'
p711
tp712
Rp713
s(I14
I14
I13
tp714
F1.0
s(I19
I17
I2
tp715
g2
(g6
S'\xd0\x8b\x9f$\xc9\x9dk?'
p716
tp717
Rp718
s(I24
I24
I5
tp719
F1.0
s(I5
I17
I12
tp720
g433
s(I24
I13
I2
tp721
g2
(g6
S'4\xe4\xf6fV\xc9f?'
p722
tp723
Rp724
s(I4
I4
I19
tp725
F1.0
s(I13
I0
I7
tp726
g629
s(I0
I4
I1
tp727
g2
(g6
S'\x08\r>V\xf1\x03\xee?'
p728
tp729
Rp730
s(I7
I11
I3
tp731
g2
(g6
S'4\xe4\xf6fV\xc9f?'
p732
tp733
Rp734
s(I3
I10
I2
tp735
g2
(g6
S'4\xe4\xf6fV\xc9f?'
p736
tp737
Rp738
s(I0
I9
I6
tp739
g2
(g6
S'4\xe4\xf6fV\xc9f?'
p740
tp741
Rp742
s(I18
I4
I4
tp743
g2
(g6
S'4\xe4\xf6fV\xc9f?'
p744
tp745
Rp746
s(I12
I1
I8
tp747
g412
s(I7
I23
I2
tp748
g2
(g6
S'4\xe4\xf6fV\xc9f?'
p749
tp750
Rp751
s(I8
I8
I14
tp752
F1.0
s(I12
I14
I1
tp753
g2
(g6
S'\xdfs\nM\xa6\x9f\xea?'
p754
tp755
Rp756
s(I24
I4
I4
tp757
g2
(g6
S'4\xe4\xf6fV\xc9f?'
p758
tp759
Rp760
s(I17
I1
I12
tp761
g2
(g6
S'4\xe4\xf6fV\xc9f?'
p762
tp763
Rp764
s(I3
I16
I11
tp765
g221
s(I6
I16
I10
tp766
g2
(g6
S'4\xe4\xf6fV\xc9f?'
p767
tp768
Rp769
s(I1
I17
I6
tp770
g764
s(I23
I0
I1
tp771
g2
(g6
S'4\xe4\xf6fV\xc9f?'
p772
tp773
Rp774
s(I25
I5
I1
tp775
g2
(g6
S'4\xe4\xf6fV\xc9f?'
p776
tp777
Rp778
s(I24
I27
I1
tp779
g2
(g6
S'g\xca\xbe4\x11q\x8b?'
p780
tp781
Rp782
s(I1
I14
I4
tp783
g2
(g6
S'4\xe4\xf6fV\xc9f?'
p784
tp785
Rp786
s(I0
I12
I12
tp787
g176
s(I15
I10
I5
tp788
g2
(g6
S'\xcfOWe4\xa0\xbe?'
p789
tp790
Rp791
s(I2
I16
I4
tp792
g2
(g6
S'4\xe4\xf6fV\xc9f?'
p793
tp794
Rp795
s(I15
I1
I4
tp796
g2
(g6
S'4\xe4\xf6fV\xc9f?'
p797
tp798
Rp799
s(I17
I6
I2
tp800
g2
(g6
S'4\xe4\xf6fV\xc9f?'
p801
tp802
Rp803
s(I21
I7
I6
tp804
g2
(g6
S'4\xe4\xf6fV\xc9f?'
p805
tp806
Rp807
s(I8
I22
I6
tp808
g2
(g6
S'4\xe4\xf6fV\xc9f?'
p809
tp810
Rp811
s(I25
I23
I2
tp812
g2
(g6
S"'\xcaj2\xcc$\xe8?"
p813
tp814
Rp815
s(I20
I5
I8
tp816
g133
s(I17
I11
I4
tp817
g2
(g6
S'8\xdb\x12sR\x8b\x83?'
p818
tp819
Rp820
s(I16
I5
I10
tp821
g2
(g6
S'4\xe4\xf6fV\xc9f?'
p822
tp823
Rp824
s(I7
I17
I3
tp825
g2
(g6
S'4\xe4\xf6fV\xc9f?'
p826
tp827
Rp828
s(I16
I10
I3
tp829
g2
(g6
S'c\x19\x891)\x08\xc3?'
p830
tp831
Rp832
s(I5
I21
I1
tp833
g2
(g6
S'4\xe4\xf6fV\xc9f?'
p834
tp835
Rp836
s(I4
I3
I1
tp837
g2
(g6
S'\x08\r>V\xf1\x03\xee?'
p838
tp839
Rp840
s(I22
I26
I1
tp841
g2
(g6
S'4\xe4\xf6fV\xc9f?'
p842
tp843
Rp844
s(I9
I12
I2
tp845
g2
(g6
S'4\xe4\xf6fV\xc9f?'
p846
tp847
Rp848
s(I11
I11
I8
tp849
F1.0
s(I0
I0
I6
tp850
F1.0
s(I15
I24
I4
tp851
g713
s(I13
I17
I2
tp852
g2
(g6
S'\x1d\xe1@\xf5\xb5\x0c\xea?'
p853
tp854
Rp855
s(I18
I8
I1
tp856
g2
(g6
S'4\xe4\xf6fV\xc9f?'
p857
tp858
Rp859
s(I21
I2
I6
tp860
g2
(g6
S'4\xe4\xf6fV\xc9f?'
p861
tp862
Rp863
s(I6
I1
I3
tp864
g2
(g6
S'\x08\r>V\xf1\x03\xee?'
p865
tp866
Rp867
s(I8
I4
I3
tp868
g2
(g6
S'4\xe4\xf6fV\xc9f?'
p869
tp870
Rp871
s(I3
I16
I7
tp872
g221
s(I8
I25
I4
tp873
g2
(g6
S'4\xe4\xf6fV\xc9f?'
p874
tp875
Rp876
s(I26
I4
I2
tp877
g2
(g6
S'4\xe4\xf6fV\xc9f?'
p878
tp879
Rp880
s(I5
I17
I7
tp881
g433
s(I5
I7
I2
tp882
g2
(g6
S'\x08\r>V\xf1\x03\xee?'
p883
tp884
Rp885
s(I19
I5
I10
tp886
g2
(g6
S'4\xe4\xf6fV\xc9f?'
p887
tp888
Rp889
s(I10
I27
I2
tp890
g2
(g6
S'Nw=ke2\x95?'
p891
tp892
Rp893
s(I4
I4
I10
tp894
F1.0
s(I16
I24
I3
tp895
g2
(g6
S'4\xe4\xf6fV\xc9f?'
p896
tp897
Rp898
s(I22
I7
I5
tp899
g2
(g6
S'4\xe4\xf6fV\xc9f?'
p900
tp901
Rp902
s(I4
I17
I5
tp903
g116
s(I3
I11
I1
tp904
g2
(g6
S'4\xe4\xf6fV\xc9f?'
p905
tp906
Rp907
s(I18
I7
I5
tp908
g2
(g6
S'4\xe4\xf6fV\xc9f?'
p909
tp910
Rp911
s(I7
I20
I3
tp912
g2
(g6
S'4\xe4\xf6fV\xc9f?'
p913
tp914
Rp915
s(I9
I17
I3
tp916
g2
(g6
S'4\xe4\xf6fV\xc9f?'
p917
tp918
Rp919
s(I2
I20
I9
tp920
g129
s(I15
I5
I1
tp921
g2
(g6
S'4\xe4\xf6fV\xc9f?'
p922
tp923
Rp924
s(I14
I23
I1
tp925
g2
(g6
S'4\xe4\xf6fV\xc9f?'
p926
tp927
Rp928
s(I20
I12
I4
tp929
g2
(g6
S'\x8f\x0c9EC\xddk?'
p930
tp931
Rp932
s(I1
I18
I7
tp933
g2
(g6
S'4\xe4\xf6fV\xc9f?'
p934
tp935
Rp936
s(I19
I19
I7
tp937
F1.0
s(I23
I1
I6
tp938
g395
s(I10
I13
I1
tp939
g2
(g6
S'4\xe4\xf6fV\xc9f?'
p940
tp941
Rp942
s(I28
I24
I1
tp943
g2
(g6
S'4\xe4\xf6fV\xc9f?'
p944
tp945
Rp946
s(I16
I22
I4
tp947
g2
(g6
S'@F\xff\xcb\rPx?'
p948
tp949
Rp950
s(I1
I15
I3
tp951
g2
(g6
S'4\xe4\xf6fV\xc9f?'
p952
tp953
Rp954
s(I22
I11
I1
tp955
g2
(g6
S'\x8c\xf2\xfb$\x01\x06\xa6?'
p956
tp957
Rp958
s(I12
I3
I3
tp959
g2
(g6
S'4\xe4\xf6fV\xc9f?'
p960
tp961
Rp962
s(I2
I19
I5
tp963
g2
(g6
S'4\xe4\xf6fV\xc9f?'
p964
tp965
Rp966
s(I6
I13
I6
tp967
g2
(g6
S'4\xe4\xf6fV\xc9f?'
p968
tp969
Rp970
s(I18
I25
I1
tp971
g2
(g6
S'4\xe4\xf6fV\xc9f?'
p972
tp973
Rp974
s(I17
I7
I5
tp975
g590
s(I2
I12
I10
tp976
g102
s(I6
I22
I7
tp977
g2
(g6
S'4\xe4\xf6fV\xc9f?'
p978
tp979
Rp980
s(I8
I21
I7
tp981
g2
(g6
S'4\xe4\xf6fV\xc9f?'
p982
tp983
Rp984
s(I23
I23
I3
tp985
F1.0
s(I11
I13
I2
tp986
g2
(g6
S'\x1f\xc6\x86\xbd\xc5z\xb3?'
p987
tp988
Rp989
s(I11
I16
I5
tp990
g2
(g6
S'\xba\xfask\x13\xd2\x8a?'
p991
tp992
Rp993
s(I16
I9
I2
tp994
g2
(g6
S'4\xe4\xf6fV\xc9f?'
p995
tp996
Rp997
s(I4
I2
I2
tp998
g2
(g6
S'\x08\r>V\xf1\x03\xee?'
p999
tp1000
Rp1001
s(I24
I8
I2
tp1002
g2
(g6
S'4\xe4\xf6fV\xc9f?'
p1003
tp1004
Rp1005
s(I9
I13
I1
tp1006
g2
(g6
S'4\xe4\xf6fV\xc9f?'
p1007
tp1008
Rp1009
s(I13
I7
I4
tp1010
g2
(g6
S'4\xe4\xf6fV\xc9f?'
p1011
tp1012
Rp1013
s(I0
I15
I7
tp1014
g249
s(I15
I25
I3
tp1015
g2
(g6
S'4\xe4\xf6fV\xc9f?'
p1016
tp1017
Rp1018
s(I13
I18
I3
tp1019
g2
(g6
S'[\xdc6\xa7\xa1\xf5q?'
p1020
tp1021
Rp1022
s(I21
I8
I8
tp1023
g984
s(I15
I20
I4
tp1024
g2
(g6
S'i\x04*)\x82cu?'
p1025
tp1026
Rp1027
s(I3
I26
I1
tp1028
g2
(g6
S'4\xe4\xf6fV\xc9f?'
p1029
tp1030
Rp1031
s(I21
I3
I1
tp1032
g2
(g6
S'4\xe4\xf6fV\xc9f?'
p1033
tp1034
Rp1035
s(I8
I3
I2
tp1036
g2
(g6
S'\x08\r>V\xf1\x03\xee?'
p1037
tp1038
Rp1039
s(I26
I7
I3
tp1040
g2
(g6
S'4\xe4\xf6fV\xc9f?'
p1041
tp1042
Rp1043
s(I7
I19
I3
tp1044
g2
(g6
S'4\xe4\xf6fV\xc9f?'
p1045
tp1046
Rp1047
s(I17
I17
I1
tp1048
F1.0
s(I16
I7
I1
tp1049
g2
(g6
S'4\xe4\xf6fV\xc9f?'
p1050
tp1051
Rp1052
s(I0
I19
I6
tp1053
g2
(g6
S'4\xe4\xf6fV\xc9f?'
p1054
tp1055
Rp1056
s(I5
I24
I3
tp1057
g2
(g6
S'4\xe4\xf6fV\xc9f?'
p1058
tp1059
Rp1060
s(I23
I5
I3
tp1061
g2
(g6
S'4\xe4\xf6fV\xc9f?'
p1062
tp1063
Rp1064
s(I10
I1
I4
tp1065
g98
s(I5
I19
I10
tp1066
g889
s(I19
I2
I3
tp1067
g2
(g6
S'4\xe4\xf6fV\xc9f?'
p1068
tp1069
Rp1070
s(I24
I11
I4
tp1071
g2
(g6
S'4\xe4\xf6fV\xc9f?'
p1072
tp1073
Rp1074
s(I28
I9
I1
tp1075
g2
(g6
S'4\xe4\xf6fV\xc9f?'
p1076
tp1077
Rp1078
s(I13
I4
I6
tp1079
g494
s(I4
I16
I2
tp1080
g2
(g6
S'4\xe4\xf6fV\xc9f?'
p1081
tp1082
Rp1083
s(I21
I9
I7
tp1084
g188
s(I18
I6
I10
tp1085
g595
s(I9
I18
I2
tp1086
g685
s(I18
I8
I7
tp1087
g2
(g6
S'4\xe4\xf6fV\xc9f?'
p1088
tp1089
Rp1090
s(I17
I3
I2
tp1091
g2
(g6
S'4\xe4\xf6fV\xc9f?'
p1092
tp1093
Rp1094
s(I2
I0
I1
tp1095
g2
(g6
S'\x08\r>V\xf1\x03\xee?'
p1096
tp1097
Rp1098
s(I6
I18
I4
tp1099
g595
s(I2
I13
I10
tp1100
g2
(g6
S'4\xe4\xf6fV\xc9f?'
p1101
tp1102
Rp1103
s(I1
I19
I8
tp1104
g2
(g6
S'4\xe4\xf6fV\xc9f?'
p1105
tp1106
Rp1107
s(I5
I5
I7
tp1108
F1.0
s(I17
I5
I5
tp1109
g433
s(I10
I12
I2
tp1110
g2
(g6
S':c\xe2\xb6\xa0b\xb2?'
p1111
tp1112
Rp1113
s(I16
I21
I5
tp1114
g2
(g6
S'\x81\xed|\xa9\nb\x92?'
p1115
tp1116
Rp1117
s(I1
I8
I2
tp1118
g2
(g6
S'\x08\r>V\xf1\x03\xee?'
p1119
tp1120
Rp1121
s(I9
I9
I10
tp1122
F1.0
s(I9
I28
I1
tp1123
g1078
s(I27
I1
I1
tp1124
g2
(g6
S'4\xe4\xf6fV\xc9f?'
p1125
tp1126
Rp1127
s(I26
I27
I1
tp1128
g2
(g6
S'E2\x89\xf0P\x89\x93?'
p1129
tp1130
Rp1131
s(I15
I8
I7
tp1132
g2
(g6
S'\xcc\x97\x82b\x00\x98p?'
p1133
tp1134
Rp1135
s(I3
I22
I4
tp1136
g2
(g6
S'4\xe4\xf6fV\xc9f?'
p1137
tp1138
Rp1139
s(I2
I18
I2
tp1140
g2
(g6
S'4\xe4\xf6fV\xc9f?'
p1141
tp1142
Rp1143
s(I6
I12
I5
tp1144
g2
(g6
S'4\xe4\xf6fV\xc9f?'
p1145
tp1146
Rp1147
s(I18
I24
I2
tp1148
g2
(g6
S'\xde\x0eMU\tH\x84?'
p1149
tp1150
Rp1151
s(I17
I0
I4
tp1152
g2
(g6
S'4\xe4\xf6fV\xc9f?'
p1153
tp1154
Rp1155
s(I16
I3
I7
tp1156
g221
s(I20
I14
I5
tp1157
g2
(g6
S'\x8f\x0c9EC\xddk?'
p1158
tp1159
Rp1160
s(I23
I20
I2
tp1161
g2
(g6
S'4\xe4\xf6fV\xc9f?'
p1162
tp1163
Rp1164
s(I16
I3
I12
tp1165
g221
s(I1
I13
I12
tp1166
g615
s(I4
I1
I3
tp1167
g2
(g6
S'\x08\r>V\xf1\x03\xee?'
p1168
tp1169
Rp1170
s(I22
I4
I3
tp1171
g2
(g6
S'4\xe4\xf6fV\xc9f?'
p1172
tp1173
Rp1174
s(I24
I7
I3
tp1175
g2
(g6
S'4\xe4\xf6fV\xc9f?'
p1176
tp1177
Rp1178
s(I13
I8
I5
tp1179
g2
(g6
S'\xd7\x973\x87\xe9!t?'
p1180
tp1181
Rp1182
s(I7
I7
I19
tp1183
F1.0
s(I0
I14
I4
tp1184
g429
s(I25
I17
I2
tp1185
g2
(g6
S'4\xe4\xf6fV\xc9f?'
p1186
tp1187
Rp1188
s(I13
I19
I4
tp1189
g2
(g6
S'\xfbg\x10\xbb\xa9\xcer?'
p1190
tp1191
Rp1192
s(I7
I18
I8
tp1193
g911
s(I18
I10
I7
tp1194
g2
(g6
S'\x9a\xf66j\x9b\xc6r?'
p1195
tp1196
Rp1197
s(I3
I27
I2
tp1198
g2
(g6
S'4\xe4\xf6fV\xc9f?'
p1199
tp1200
Rp1201
s(I7
I25
I1
tp1202
g2
(g6
S'4\xe4\xf6fV\xc9f?'
p1203
tp1204
Rp1205
s(I6
I3
I1
tp1206
g2
(g6
S'\x08\r>V\xf1\x03\xee?'
p1207
tp1208
Rp1209
s(I8
I2
I1
tp1210
g2
(g6
S'\x08\r>V\xf1\x03\xee?'
p1211
tp1212
Rp1213
s(I5
I21
I5
tp1214
g2
(g6
S'4\xe4\xf6fV\xc9f?'
p1215
tp1216
Rp1217
s(I14
I18
I3
tp1218
g2
(g6
S'\x84\xec&\xe8\xe6p{?'
p1219
tp1220
Rp1221
s(I1
I20
I4
tp1222
g2
(g6
S'4\xe4\xf6fV\xc9f?'
p1223
tp1224
Rp1225
s(I5
I14
I9
tp1226
g470
s(I16
I6
I2
tp1227
g2
(g6
S'4\xe4\xf6fV\xc9f?'
p1228
tp1229
Rp1230
s(I19
I12
I1
tp1231
g2
(g6
S'4\xe4\xf6fV\xc9f?'
p1232
tp1233
Rp1234
s(I23
I10
I2
tp1235
g2
(g6
S'4\xe4\xf6fV\xc9f?'
p1236
tp1237
Rp1238
s(I25
I3
I4
tp1239
g2
(g6
S'4\xe4\xf6fV\xc9f?'
p1240
tp1241
Rp1242
s(I10
I0
I7
tp1243
g557
s(I19
I3
I8
tp1244
g335
s(I13
I5
I5
tp1245
g233
s(I6
I21
I7
tp1246
g200
s(I4
I23
I3
tp1247
g2
(g6
S'4\xe4\xf6fV\xc9f?'
p1248
tp1249
Rp1250
s(I2
I22
I7
tp1251
g2
(g6
S'4\xe4\xf6fV\xc9f?'
p1252
tp1253
Rp1254
s(I13
I2
I5
tp1255
g1103
s(I17
I12
I3
tp1256
g2
(g6
S'T\xb4a\xea\xedco?'
p1257
tp1258
Rp1259
s(I20
I2
I6
tp1260
g129
s(I5
I11
I1
tp1261
g137
s(I11
I5
I4
tp1262
g2
(g6
S'4\xe4\xf6fV\xc9f?'
p1263
tp1264
Rp1265
s(I12
I17
I4
tp1266
g2
(g6
S'\xde\xeeg\xf0\x84Pu?'
p1267
tp1268
Rp1269
s(I10
I15
I3
tp1270
g2
(g6
S':t\xca\x00\xc2\xe6\xa7?'
p1271
tp1272
Rp1273
s(I16
I20
I2
tp1274
g2
(g6
S'\xf01s\xa0\xd2x\x81?'
p1275
tp1276
Rp1277
s(I1
I9
I1
tp1278
g2
(g6
S'\x08\r>V\xf1\x03\xee?'
p1279
tp1280
Rp1281
s(I21
I24
I2
tp1282
g2
(g6
S'4\xe4\xf6fV\xc9f?'
p1283
tp1284
Rp1285
s(I3
I16
I13
tp1286
g221
s(I13
I23
I1
tp1287
g2
(g6
S'4\xe4\xf6fV\xc9f?'
p1288
tp1289
Rp1290
s(I12
I1
I1
tp1291
g2
(g6
S'4\xe4\xf6fV\xc9f?'
p1292
tp1293
Rp1294
s(I18
I14
I4
tp1295
g2
(g6
S'O\xfd\\ \xab\x8ew?'
p1296
tp1297
Rp1298
s(I2
I21
I3
tp1299
g2
(g6
S'4\xe4\xf6fV\xc9f?'
p1300
tp1301
Rp1302
s(I20
I16
I3
tp1303
g2
(g6
S'z\xa4\xe6&q\xef\x8a?'
p1304
tp1305
Rp1306
s(I19
I3
I6
tp1307
g335
s(I17
I1
I7
tp1308
g764
s(I20
I13
I4
tp1309
g2
(g6
S'\x92\x9eV\x91\xe96r?'
p1310
tp1311
Rp1312
s(I8
I19
I1
tp1313
g2
(g6
S'4\xe4\xf6fV\xc9f?'
p1314
tp1315
Rp1316
s(I25
I18
I1
tp1317
g974
s(I10
I22
I4
tp1318
g145
s(I1
I27
I2
tp1319
g2
(g6
S'4\xe4\xf6fV\xc9f?'
p1320
tp1321
Rp1322
s(I4
I11
I5
tp1323
g2
(g6
S'4\xe4\xf6fV\xc9f?'
p1324
tp1325
Rp1326
s(I1
I14
I13
tp1327
g786
s(I4
I0
I4
tp1328
g2
(g6
S'\x08\r>V\xf1\x03\xee?'
p1329
tp1330
Rp1331
s(I22
I7
I2
tp1332
g2
(g6
S'4\xe4\xf6fV\xc9f?'
p1333
tp1334
Rp1335
s(I6
I10
I3
tp1336
g2
(g6
S'4\xe4\xf6fV\xc9f?'
p1337
tp1338
Rp1339
s(I21
I0
I5
tp1340
g511
s(I0
I13
I5
tp1341
g629
s(I18
I0
I5
tp1342
g2
(g6
S'4\xe4\xf6fV\xc9f?'
p1343
tp1344
Rp1345
s(I13
I20
I5
tp1346
g1312
s(I3
I24
I3
tp1347
g2
(g6
S'4\xe4\xf6fV\xc9f?'
p1348
tp1349
Rp1350
s(I21
I5
I3
tp1351
g2
(g6
S'4\xe4\xf6fV\xc9f?'
p1352
tp1353
Rp1354
s(I13
I5
I3
tp1355
g2
(g6
S'4\xe4\xf6fV\xc9f?'
p1356
tp1357
Rp1358
s(I1
I21
I7
tp1359
g690
s(I5
I15
I6
tp1360
g325
s(I16
I5
I3
tp1361
g2
(g6
S'4\xe4\xf6fV\xc9f?'
p1362
tp1363
Rp1364
s(I1
I24
I4
tp1365
g2
(g6
S'4\xe4\xf6fV\xc9f?'
p1366
tp1367
Rp1368
s(I5
I26
I1
tp1369
g701
s(I23
I11
I1
tp1370
g2
(g6
S'\xd5\xbd\x03\x92U\xd4y?'
p1371
tp1372
Rp1373
s(I22
I17
I1
tp1374
g2
(g6
S'\xb3ER6\xcf\xc7\x84?'
p1375
tp1376
Rp1377
s(I24
I20
I1
tp1378
g2
(g6
S'4\xe4\xf6fV\xc9f?'
p1379
tp1380
Rp1381
s(I5
I21
I8
tp1382
g1217
s(I16
I16
I7
tp1383
F1.0
s(I0
I0
I24
tp1384
F1.0
s(I13
I6
I4
tp1385
g970
s(I0
I0
I13
tp1386
F1.0
s(I1
I1
I26
tp1387
F1.0
s(I8
I15
I3
tp1388
g2
(g6
S'4\xe4\xf6fV\xc9f?'
p1389
tp1390
Rp1391
s(I6
I6
I16
tp1392
F1.0
s(I18
I18
I9
tp1393
F1.0
s(I5
I19
I9
tp1394
g889
s(I20
I20
I8
tp1395
F1.0
s(I2
I2
I7
tp1396
F1.0
s(I20
I1
I7
tp1397
g1225
s(I7
I0
I2
tp1398
g2
(g6
S'\x08\r>V\xf1\x03\xee?'
p1399
tp1400
Rp1401
s(I25
I14
I4
tp1402
g2
(g6
S'4\xe4\xf6fV\xc9f?'
p1403
tp1404
Rp1405
s(I23
I4
I5
tp1406
g2
(g6
S'4\xe4\xf6fV\xc9f?'
p1407
tp1408
Rp1409
s(I4
I15
I8
tp1410
g2
(g6
S'4\xe4\xf6fV\xc9f?'
p1411
tp1412
Rp1413
s(I16
I19
I3
tp1414
g2
(g6
S'\xb1\xfc\x980\xc9\xe5t?'
p1415
tp1416
Rp1417
s(I4
I4
I1
tp1418
F1.0
s(I21
I25
I1
tp1419
g2
(g6
S'4\xe4\xf6fV\xc9f?'
p1420
tp1421
Rp1422
s(I5
I18
I4
tp1423
g561
s(I15
I14
I1
tp1424
g2
(g6
S'\xa3\xbc\x19c\xa6\xa7\xd0?'
p1425
tp1426
Rp1427
s(I3
I20
I6
tp1428
g520
s(I20
I23
I2
tp1429
g1164
s(I17
I2
I6
tp1430
g339
s(I6
I19
I4
tp1431
g57
s(I8
I18
I2
tp1432
g2
(g6
S'4\xe4\xf6fV\xc9f?'
p1433
tp1434
Rp1435
s(I11
I8
I1
tp1436
g2
(g6
S'4\xe4\xf6fV\xc9f?'
p1437
tp1438
Rp1439
s(I28
I19
I1
tp1440
g2
(g6
S'4\xe4\xf6fV\xc9f?'
p1441
tp1442
Rp1443
s(I1
I4
I3
tp1444
g1170
s(I19
I9
I3
tp1445
g2
(g6
S'4\xe4\xf6fV\xc9f?'
p1446
tp1447
Rp1448
s(I4
I10
I6
tp1449
g619
s(I1
I15
I10
tp1450
g799
s(I22
I6
I5
tp1451
g980
s(I24
I5
I1
tp1452
g2
(g6
S'4\xe4\xf6fV\xc9f?'
p1453
tp1454
Rp1455
s(I0
I12
I2
tp1456
g2
(g6
S'4\xe4\xf6fV\xc9f?'
p1457
tp1458
Rp1459
s(I18
I3
I4
tp1460
g280
s(I17
I12
I5
tp1461
g1269
s(I7
I14
I2
tp1462
g2
(g6
S'4\xe4\xf6fV\xc9f?'
p1463
tp1464
Rp1465
s(I18
I12
I5
tp1466
g2
(g6
S'\xde\xeeg\xf0\x84Pu?'
p1467
tp1468
Rp1469
s(I21
I6
I2
tp1470
g2
(g6
S'4\xe4\xf6fV\xc9f?'
p1471
tp1472
Rp1473
s(I3
I18
I6
tp1474
g280
s(I14
I12
I1
tp1475
g756
s(I2
I6
I4
tp1476
g2
(g6
S'\x08\r>V\xf1\x03\xee?'
p1477
tp1478
Rp1479
s(I1
I22
I6
tp1480
g2
(g6
S'4\xe4\xf6fV\xc9f?'
p1481
tp1482
Rp1483
s(I19
I23
I4
tp1484
g2
(g6
S'\x10\x85X\xd2!;}?'
p1485
tp1486
Rp1487
s(I14
I1
I10
tp1488
g786
s(I16
I4
I4
tp1489
g304
s(I5
I11
I3
tp1490
g2
(g6
S'4\xe4\xf6fV\xc9f?'
p1491
tp1492
Rp1493
s(I22
I16
I2
tp1494
g2
(g6
S'4\xe4\xf6fV\xc9f?'
p1495
tp1496
Rp1497
s(I10
I2
I1
tp1498
g2
(g6
S'4\xe4\xf6fV\xc9f?'
p1499
tp1500
Rp1501
s(I20
I11
I5
tp1502
g262
s(I0
I15
I12
tp1503
g249
s(I4
I21
I1
tp1504
g2
(g6
S'4\xe4\xf6fV\xc9f?'
p1505
tp1506
Rp1507
s(I21
I8
I1
tp1508
g2
(g6
S'4\xe4\xf6fV\xc9f?'
p1509
tp1510
Rp1511
s(I12
I25
I4
tp1512
g2
(g6
S'4\xe4\xf6fV\xc9f?'
p1513
tp1514
Rp1515
s(I26
I17
I2
tp1516
g2
(g6
S'4\xe4\xf6fV\xc9f?'
p1517
tp1518
Rp1519
s(I21
I3
I8
tp1520
g317
s(I15
I2
I4
tp1521
g2
(g6
S'4\xe4\xf6fV\xc9f?'
p1522
tp1523
Rp1524
s(I2
I24
I5
tp1525
g2
(g6
S'4\xe4\xf6fV\xc9f?'
p1526
tp1527
Rp1528
s(I20
I11
I9
tp1529
g262
s(I17
I14
I1
tp1530
g2
(g6
S'\x14\xb2N}#\x90\xb8?'
p1531
tp1532
Rp1533
s(I19
I24
I2
tp1534
g2
(g6
S'w\xbc\x9e^\xb7)\x8c?'
p1535
tp1536
Rp1537
s(I25
I15
I3
tp1538
g1018
s(I10
I24
I5
tp1539
g2
(g6
S'4\xe4\xf6fV\xc9f?'
p1540
tp1541
Rp1542
s(I25
I2
I4
tp1543
g2
(g6
S'4\xe4\xf6fV\xc9f?'
p1544
tp1545
Rp1546
s(I1
I1
I18
tp1547
F1.0
s(I22
I2
I2
tp1548
g2
(g6
S'4\xe4\xf6fV\xc9f?'
p1549
tp1550
Rp1551
s(I7
I3
I1
tp1552
g2
(g6
S'\x08\r>V\xf1\x03\xee?'
p1553
tp1554
Rp1555
s(I9
I4
I5
tp1556
g2
(g6
S'4\xe4\xf6fV\xc9f?'
p1557
tp1558
Rp1559
s(I4
I16
I9
tp1560
g304
s(I14
I22
I5
tp1561
g2
(g6
S'4\xe4\xf6fV\xc9f?'
p1562
tp1563
Rp1564
s(I0
I8
I7
tp1565
g2
(g6
S'4\xe4\xf6fV\xc9f?'
p1566
tp1567
Rp1568
s(I27
I12
I2
tp1569
g2
(g6
S'n\x8e=r?\x95\x93?'
p1570
tp1571
Rp1572
s(I14
I0
I11
tp1573
g429
s(I15
I15
I2
tp1574
F1.0
s(I3
I21
I1
tp1575
g1035
s(I2
I23
I1
tp1576
g2
(g6
S'4\xe4\xf6fV\xc9f?'
p1577
tp1578
Rp1579
s(I20
I22
I1
tp1580
g2
(g6
S'\xcf\x99\xf1Oh@\xb4?'
p1581
tp1582
Rp1583
s(I17
I3
I9
tp1584
g2
(g6
S'4\xe4\xf6fV\xc9f?'
p1585
tp1586
Rp1587
s(I6
I18
I3
tp1588
g506
s(I6
I18
I11
tp1589
g595
s(I8
I17
I3
tp1590
g2
(g6
S'4\xe4\xf6fV\xc9f?'
p1591
tp1592
Rp1593
s(I1
I18
I9
tp1594
g936
s(I5
I5
I14
tp1595
F1.0
s(I16
I0
I1
tp1596
g2
(g6
S'4\xe4\xf6fV\xc9f?'
p1597
tp1598
Rp1599
s(I19
I6
I2
tp1600
g2
(g6
S'4\xe4\xf6fV\xc9f?'
p1601
tp1602
Rp1603
s(I21
I14
I3
tp1604
g586
s(I3
I10
I7
tp1605
g2
(g6
S'4\xe4\xf6fV\xc9f?'
p1606
tp1607
Rp1608
s(I13
I13
I3
tp1609
F1.0
s(I13
I0
I9
tp1610
g629
s(I22
I1
I4
tp1611
g1483
s(I10
I19
I1
tp1612
g2
(g6
S'4\xe4\xf6fV\xc9f?'
p1613
tp1614
Rp1615
s(I9
I9
I5
tp1616
F1.0
s(I27
I26
I1
tp1617
g1131
s(I0
I11
I3
tp1618
g2
(g6
S'4\xe4\xf6fV\xc9f?'
p1619
tp1620
Rp1621
s(I18
I2
I3
tp1622
g2
(g6
S'4\xe4\xf6fV\xc9f?'
p1623
tp1624
Rp1625
s(I13
I22
I7
tp1626
g2
(g6
S'4\xe4\xf6fV\xc9f?'
p1627
tp1628
Rp1629
s(I5
I5
I6
tp1630
F1.0
s(I11
I7
I3
tp1631
g734
s(I2
I9
I5
tp1632
g2
(g6
S'4\xe4\xf6fV\xc9f?'
p1633
tp1634
Rp1635
s(I1
I23
I1
tp1636
g2
(g6
S'4\xe4\xf6fV\xc9f?'
p1637
tp1638
Rp1639
s(I5
I1
I4
tp1640
g2
(g6
S'\x08\r>V\xf1\x03\xee?'
p1641
tp1642
Rp1643
s(I23
I2
I6
tp1644
g321
s(I16
I3
I5
tp1645
g221
s(I19
I11
I4
tp1646
g2
(g6
S'\xe9\x00\xf3\xef\xb9\xf6\x84?'
p1647
tp1648
Rp1649
s(I22
I19
I3
tp1650
g2
(g6
S'\x82\x103J\tL\xa6?'
p1651
tp1652
Rp1653
s(I24
I18
I3
tp1654
g2
(g6
S'F_m\n7\xe2x?'
p1655
tp1656
Rp1657
s(I16
I7
I7
tp1658
g474
s(I7
I0
I7
tp1659
g94
s(I1
I1
I28
tp1660
F1.0
s(I7
I7
I10
tp1661
F1.0
s(I7
I18
I1
tp1662
g2
(g6
S'4\xe4\xf6fV\xc9f?'
p1663
tp1664
Rp1665
s(I9
I27
I1
tp1666
g2
(g6
S'4\xe4\xf6fV\xc9f?'
p1667
tp1668
Rp1669
s(I8
I13
I1
tp1670
g2
(g6
S'4\xe4\xf6fV\xc9f?'
p1671
tp1672
Rp1673
s(I26
I16
I1
tp1674
g2
(g6
S'4\xe4\xf6fV\xc9f?'
p1675
tp1676
Rp1677
s(I15
I3
I7
tp1678
g2
(g6
S'4\xe4\xf6fV\xc9f?'
p1679
tp1680
Rp1681
s(I14
I25
I3
tp1682
g2
(g6
S'4\xe4\xf6fV\xc9f?'
p1683
tp1684
Rp1685
s(I24
I3
I5
tp1686
g2
(g6
S'4\xe4\xf6fV\xc9f?'
p1687
tp1688
Rp1689
s(I13
I23
I3
tp1690
g2
(g6
S'4\xe4\xf6fV\xc9f?'
p1691
tp1692
Rp1693
s(I20
I7
I1
tp1694
g2
(g6
S'4\xe4\xf6fV\xc9f?'
p1695
tp1696
Rp1697
s(I5
I14
I2
tp1698
g2
(g6
S'4\xe4\xf6fV\xc9f?'
p1699
tp1700
Rp1701
s(I25
I8
I2
tp1702
g2
(g6
S'4\xe4\xf6fV\xc9f?'
p1703
tp1704
Rp1705
s(I12
I1
I7
tp1706
g412
s(I11
I24
I4
tp1707
g1074
s(I23
I26
I3
tp1708
g2
(g6
S'\x82Y\x0b\xd6\x1a\xdd\x87?'
p1709
tp1710
Rp1711
s(I16
I17
I1
tp1712
g2
(g6
S'\x01\x9a\xc7\xfa\xa1+\xd1?'
p1713
tp1714
Rp1715
s(I4
I26
I3
tp1716
g2
(g6
S'4\xe4\xf6fV\xc9f?'
p1717
tp1718
Rp1719
s(I22
I13
I3
tp1720
g2
(g6
S'4\xe4\xf6fV\xc9f?'
p1721
tp1722
Rp1723
s(I24
I0
I3
tp1724
g2
(g6
S'4\xe4\xf6fV\xc9f?'
p1725
tp1726
Rp1727
s(I2
I10
I8
tp1728
g229
s(I9
I24
I5
tp1729
g2
(g6
S'4\xe4\xf6fV\xc9f?'
p1730
tp1731
Rp1732
s(I13
I26
I2
tp1733
g2
(g6
S'4\xe4\xf6fV\xc9f?'
p1734
tp1735
Rp1736
s(I12
I6
I4
tp1737
g1147
s(I15
I12
I3
tp1738
g2
(g6
S'\xfc)u\xc0I\xe7\xbd?'
p1739
tp1740
Rp1741
s(I12
I12
I13
tp1742
F1.0
s(I6
I8
I1
tp1743
g2
(g6
S'\x08\r>V\xf1\x03\xee?'
p1744
tp1745
Rp1746
s(I20
I2
I9
tp1747
g129
s(I1
I19
I6
tp1748
g1107
s(I8
I18
I10
tp1749
g1090
s(I1
I6
I1
tp1750
g2
(g6
S'\x08\r>V\xf1\x03\xee?'
p1751
tp1752
Rp1753
s(I5
I16
I2
tp1754
g2
(g6
S'4\xe4\xf6fV\xc9f?'
p1755
tp1756
Rp1757
s(I23
I13
I4
tp1758
g2
(g6
S'4\xe4\xf6fV\xc9f?'
p1759
tp1760
Rp1761
s(I24
I14
I4
tp1762
g2
(g6
S'4\xe4\xf6fV\xc9f?'
p1763
tp1764
Rp1765
s(I13
I1
I10
tp1766
g615
s(I22
I0
I7
tp1767
g2
(g6
S'4\xe4\xf6fV\xc9f?'
p1768
tp1769
Rp1770
s(I13
I0
I2
tp1771
g2
(g6
S'4\xe4\xf6fV\xc9f?'
p1772
tp1773
Rp1774
s(I13
I12
I1
tp1775
g2
(g6
S'\x01\x9a\xc7\xfa\xa1+\xd1?'
p1776
tp1777
Rp1778
s(I18
I5
I2
tp1779
g2
(g6
S'4\xe4\xf6fV\xc9f?'
p1780
tp1781
Rp1782
s(I18
I2
I11
tp1783
g365
s(I6
I16
I3
tp1784
g2
(g6
S'4\xe4\xf6fV\xc9f?'
p1785
tp1786
Rp1787
s(I24
I0
I2
tp1788
g2
(g6
S'4\xe4\xf6fV\xc9f?'
p1789
tp1790
Rp1791
s(I26
I1
I1
tp1792
g2
(g6
S'4\xe4\xf6fV\xc9f?'
p1793
tp1794
Rp1795
s(I11
I4
I2
tp1796
g2
(g6
S'4\xe4\xf6fV\xc9f?'
p1797
tp1798
Rp1799
s(I17
I11
I3
tp1800
g2
(g6
S"6\x8c )'pz?"
p1801
tp1802
Rp1803
s(I2
I8
I6
tp1804
g2
(g6
S'4\xe4\xf6fV\xc9f?'
p1805
tp1806
Rp1807
s(I11
I11
I11
tp1808
F1.0
s(I19
I21
I2
tp1809
g2
(g6
S')\x19kj!\x1ap?'
p1810
tp1811
Rp1812
s(I23
I3
I5
tp1813
g2
(g6
S'4\xe4\xf6fV\xc9f?'
p1814
tp1815
Rp1816
s(I16
I2
I6
tp1817
g795
s(I19
I8
I5
tp1818
g2
(g6
S'4\xe4\xf6fV\xc9f?'
p1819
tp1820
Rp1821
s(I23
I14
I6
tp1822
g2
(g6
S'4\xe4\xf6fV\xc9f?'
p1823
tp1824
Rp1825
s(I21
I7
I2
tp1826
g2
(g6
S'4\xe4\xf6fV\xc9f?'
p1827
tp1828
Rp1829
s(I24
I17
I2
tp1830
g2
(g6
S'4\xe4\xf6fV\xc9f?'
p1831
tp1832
Rp1833
s(I17
I0
I8
tp1834
g1155
s(I0
I24
I1
tp1835
g2
(g6
S'4\xe4\xf6fV\xc9f?'
p1836
tp1837
Rp1838
s(I3
I14
I2
tp1839
g2
(g6
S'4\xe4\xf6fV\xc9f?'
p1840
tp1841
Rp1842
s(I7
I19
I2
tp1843
g2
(g6
S'4\xe4\xf6fV\xc9f?'
p1844
tp1845
Rp1846
s(I27
I9
I2
tp1847
g2
(g6
S'4\xe4\xf6fV\xc9f?'
p1848
tp1849
Rp1850
s(I12
I10
I1
tp1851
g2
(g6
S'4\xe4\xf6fV\xc9f?'
p1852
tp1853
Rp1854
s(I15
I0
I6
tp1855
g249
s(I17
I5
I4
tp1856
g433
s(I2
I26
I3
tp1857
g2
(g6
S'4\xe4\xf6fV\xc9f?'
p1858
tp1859
Rp1860
s(I17
I8
I7
tp1861
g2
(g6
S'4\xe4\xf6fV\xc9f?'
p1862
tp1863
Rp1864
s(I2
I7
I4
tp1865
g2
(g6
S'4\xe4\xf6fV\xc9f?'
p1866
tp1867
Rp1868
s(I6
I25
I1
tp1869
g2
(g6
S'4\xe4\xf6fV\xc9f?'
p1870
tp1871
Rp1872
s(I23
I28
I1
tp1873
g288
s(I11
I18
I2
tp1874
g2
(g6
S'\x05\x03\xfb(\x84\xa9v?'
p1875
tp1876
Rp1877
s(I0
I22
I6
tp1878
g1770
s(I4
I12
I5
tp1879
g2
(g6
S'4\xe4\xf6fV\xc9f?'
p1880
tp1881
Rp1882
s(I9
I22
I6
tp1883
g2
(g6
S'4\xe4\xf6fV\xc9f?'
p1884
tp1885
Rp1886
s(I4
I25
I2
tp1887
g607
s(I1
I16
I6
tp1888
g599
s(I10
I22
I3
tp1889
g2
(g6
S'4\xe4\xf6fV\xc9f?'
p1890
tp1891
Rp1892
s(I0
I0
I20
tp1893
F1.0
s(I12
I8
I3
tp1894
g2
(g6
S'4\xe4\xf6fV\xc9f?'
p1895
tp1896
Rp1897
s(I6
I6
I15
tp1898
F1.0
s(I10
I17
I6
tp1899
g2
(g6
S'\xfba\x18\x82\xc3\xd6q?'
p1900
tp1901
Rp1902
s(I3
I19
I3
tp1903
g2
(g6
S'4\xe4\xf6fV\xc9f?'
p1904
tp1905
Rp1906
s(I13
I21
I3
tp1907
g2
(g6
S'4\xe4\xf6fV\xc9f?'
p1908
tp1909
Rp1910
s(I25
I27
I2
tp1911
g2
(g6
S'4\xe4\xf6fV\xc9f?'
p1912
tp1913
Rp1914
s(I20
I1
I8
tp1915
g1225
s(I14
I10
I4
tp1916
g360
s(I7
I19
I5
tp1917
g553
s(I0
I18
I7
tp1918
g1345
s(I3
I15
I6
tp1919
g1681
s(I1
I7
I6
tp1920
g2
(g6
S'4\xe4\xf6fV\xc9f?'
p1921
tp1922
Rp1923
s(I5
I17
I1
tp1924
g2
(g6
S'4\xe4\xf6fV\xc9f?'
p1925
tp1926
Rp1927
s(I4
I15
I1
tp1928
g2
(g6
S'4\xe4\xf6fV\xc9f?'
p1929
tp1930
Rp1931
s(I10
I24
I4
tp1932
g1542
s(I13
I2
I11
tp1933
g1103
s(I22
I3
I6
tp1934
g1139
s(I24
I2
I4
tp1935
g1528
s(I13
I13
I2
tp1936
F1.0
s(I0
I9
I1
tp1937
g2
(g6
S'\x08\r>V\xf1\x03\xee?'
p1938
tp1939
Rp1940
s(I18
I4
I1
tp1941
g2
(g6
S'4\xe4\xf6fV\xc9f?'
p1942
tp1943
Rp1944
s(I8
I8
I3
tp1945
F1.0
s(I8
I19
I9
tp1946
g1821
s(I15
I15
I10
tp1947
F1.0
s(I14
I20
I5
tp1948
g1160
s(I12
I27
I1
tp1949
g2
(g6
S'\xca\xad\xf4\x88T\x8f\x81?'
p1950
tp1951
Rp1952
s(I11
I5
I5
tp1953
g1265
s(I20
I18
I1
tp1954
g2
(g6
S'w\xd2\x1a\x8d\xc4\x9b\x93?'
p1955
tp1956
Rp1957
s(I17
I20
I2
tp1958
g2
(g6
S'}\xe6\xf1K\xd4\xe4\x8f?'
p1959
tp1960
Rp1961
s(I2
I11
I7
tp1962
g2
(g6
S'4\xe4\xf6fV\xc9f?'
p1963
tp1964
Rp1965
s(I1
I17
I3
tp1966
g2
(g6
S'4\xe4\xf6fV\xc9f?'
p1967
tp1968
Rp1969
s(I5
I3
I2
tp1970
g2
(g6
S'\x08\r>V\xf1\x03\xee?'
p1971
tp1972
Rp1973
s(I23
I0
I4
tp1974
g2
(g6
S'4\xe4\xf6fV\xc9f?'
p1975
tp1976
Rp1977
s(I16
I1
I7
tp1978
g599
s(I10
I10
I13
tp1979
F1.0
s(I19
I9
I10
tp1980
g2
(g6
S'X\xcb72\x96#l?'
p1981
tp1982
Rp1983
s(I23
I15
I5
tp1984
g2
(g6
S'4\xe4\xf6fV\xc9f?'
p1985
tp1986
Rp1987
s(I10
I7
I2
tp1988
g2
(g6
S'4\xe4\xf6fV\xc9f?'
p1989
tp1990
Rp1991
s(I6
I1
I5
tp1992
g2
(g6
S'4\xe4\xf6fV\xc9f?'
p1993
tp1994
Rp1995
s(I3
I15
I1
tp1996
g2
(g6
S'4\xe4\xf6fV\xc9f?'
p1997
tp1998
Rp1999
s(I21
I16
I5
tp2000
g1117
s(I0
I12
I9
tp2001
g176
s(I18
I0
I11
tp2002
g1345
s(I7
I16
I3
tp2003
g184
s(I9
I21
I3
tp2004
g2
(g6
S'4\xe4\xf6fV\xc9f?'
p2005
tp2006
Rp2007
s(I2
I16
I9
tp2008
g795
s(I14
I0
I12
tp2009
g429
s(I15
I1
I1
tp2010
g2
(g6
S'4\xe4\xf6fV\xc9f?'
p2011
tp2012
Rp2013
s(I14
I27
I1
tp2014
g2
(g6
S'\xca\xad\xf4\x88T\x8f\x81?'
p2015
tp2016
Rp2017
s(I15
I4
I5
tp2018
g1413
s(I17
I9
I4
tp2019
g582
s(I6
I24
I2
tp2020
g2
(g6
S'4\xe4\xf6fV\xc9f?'
p2021
tp2022
Rp2023
s(I11
I19
I1
tp2024
g2
(g6
S'\xfe\x93\xc3^=\xc5|?'
p2025
tp2026
Rp2027
s(I10
I9
I1
tp2028
g2
(g6
S'4\xe4\xf6fV\xc9f?'
p2029
tp2030
Rp2031
s(I28
I20
I1
tp2032
g2
(g6
S'4\xe4\xf6fV\xc9f?'
p2033
tp2034
Rp2035
s(I15
I1
I7
tp2036
g799
s(I0
I21
I7
tp2037
g511
s(I4
I24
I5
tp2038
g760
s(I22
I15
I1
tp2039
g2
(g6
S'\xa3\xbe\xeb)9%\x93?'
p2040
tp2041
Rp2042
s(I6
I6
I20
tp2043
F1.0
s(I20
I17
I3
tp2044
g2
(g6
S'z\xc8p\x10\xfa7\x9d?'
p2045
tp2046
Rp2047
s(I14
I4
I9
tp2048
g2
(g6
S'4\xe4\xf6fV\xc9f?'
p2049
tp2050
Rp2051
s(I19
I2
I7
tp2052
g966
s(I18
I21
I1
tp2053
g2
(g6
S'*7\x14G\xad!\xbf?'
p2054
tp2055
Rp2056
s(I3
I16
I2
tp2057
g2
(g6
S'4\xe4\xf6fV\xc9f?'
p2058
tp2059
Rp2060
s(I10
I5
I5
tp2061
g2
(g6
S'4\xe4\xf6fV\xc9f?'
p2062
tp2063
Rp2064
s(I23
I19
I3
tp2065
g217
s(I11
I1
I2
tp2066
g2
(g6
S'4\xe4\xf6fV\xc9f?'
p2067
tp2068
Rp2069
s(I14
I5
I5
tp2070
g470
s(I7
I7
I18
tp2071
F1.0
s(I16
I13
I2
tp2072
g2
(g6
S'\xff\x7f\x18\xe7$\xd9\xb2?'
p2073
tp2074
Rp2075
s(I19
I5
I7
tp2076
g889
s(I4
I14
I2
tp2077
g2
(g6
S'4\xe4\xf6fV\xc9f?'
p2078
tp2079
Rp2080
s(I24
I12
I2
tp2081
g2
(g6
S'4\xe4\xf6fV\xc9f?'
p2082
tp2083
Rp2084
s(I4
I4
I15
tp2085
F1.0
s(I10
I20
I4
tp2086
g490
s(I18
I1
I7
tp2087
g936
s(I2
I17
I8
tp2088
g339
s(I21
I15
I1
tp2089
g2
(g6
S'\xa3\xbe\xeb)9%\x93?'
p2090
tp2091
Rp2092
s(I20
I25
I1
tp2093
g2
(g6
S'4\xe4\xf6fV\xc9f?'
p2094
tp2095
Rp2096
s(I3
I21
I8
tp2097
g317
s(I15
I5
I6
tp2098
g325
s(I14
I23
I4
tp2099
g1825
s(I12
I26
I2
tp2100
g2
(g6
S'4\xe4\xf6fV\xc9f?'
p2101
tp2102
Rp2103
s(I11
I2
I4
tp2104
g1965
s(I17
I21
I1
tp2105
g2
(g6
S'\xb3ER6\xcf\xc7\x84?'
p2106
tp2107
Rp2108
s(I1
I18
I2
tp2109
g2
(g6
S'4\xe4\xf6fV\xc9f?'
p2110
tp2111
Rp2112
s(I23
I1
I3
tp2113
g2
(g6
S'4\xe4\xf6fV\xc9f?'
p2114
tp2115
Rp2116
s(I17
I5
I6
tp2117
g433
s(I23
I12
I4
tp2118
g2
(g6
S'4\xe4\xf6fV\xc9f?'
p2119
tp2120
Rp2121
s(I0
I17
I10
tp2122
g1155
s(I28
I5
I1
tp2123
g2
(g6
S'4\xe4\xf6fV\xc9f?'
p2124
tp2125
Rp2126
s(I16
I27
I2
tp2127
g2
(g6
S'<\xc1~&\xf1:\x92?'
p2128
tp2129
Rp2130
s(I0
I6
I3
tp2131
g2
(g6
S'\x08\r>V\xf1\x03\xee?'
p2132
tp2133
Rp2134
s(I6
I20
I4
tp2135
g660
s(I9
I3
I5
tp2136
g2
(g6
S'4\xe4\xf6fV\xc9f?'
p2137
tp2138
Rp2139
s(I14
I6
I5
tp2140
g666
s(I12
I3
I6
tp2141
g356
s(I7
I17
I4
tp2142
g590
s(I9
I22
I2
tp2143
g2
(g6
S'4\xe4\xf6fV\xc9f?'
p2144
tp2145
Rp2146
s(I2
I19
I8
tp2147
g966
s(I17
I0
I11
tp2148
g1155
s(I18
I25
I4
tp2149
g2
(g6
S'GRy\xa6\x9c\xdc\xa1?'
p2150
tp2151
Rp2152
s(I17
I7
I2
tp2153
g2
(g6
S'4\xe4\xf6fV\xc9f?'
p2154
tp2155
Rp2156
s(I2
I28
I1
tp2157
g2
(g6
S'4\xe4\xf6fV\xc9f?'
p2158
tp2159
Rp2160
s(I7
I19
I7
tp2161
g553
s(I0
I21
I8
tp2162
g511
s(I17
I10
I5
tp2163
g1902
s(I16
I7
I5
tp2164
g474
s(I16
I4
I10
tp2165
g304
s(I10
I8
I2
tp2166
g2
(g6
S'4\xe4\xf6fV\xc9f?'
p2167
tp2168
Rp2169
s(I12
I16
I3
tp2170
g2
(g6
S'\x1d\xe1@\xf5\xb5\x0c\xea?'
p2171
tp2172
Rp2173
s(I1
I12
I2
tp2174
g2
(g6
S'4\xe4\xf6fV\xc9f?'
p2175
tp2176
Rp2177
s(I19
I1
I4
tp2178
g1107
s(I22
I5
I7
tp2179
g2
(g6
S'4\xe4\xf6fV\xc9f?'
p2180
tp2181
Rp2182
s(I22
I14
I6
tp2183
g1564
s(I7
I7
I5
tp2184
F1.0
s(I9
I0
I1
tp2185
g1940
s(I27
I5
I1
tp2186
g2
(g6
S'4\xe4\xf6fV\xc9f?'
p2187
tp2188
Rp2189
s(I13
I1
I12
tp2190
g615
s(I10
I3
I4
tp2191
g1608
s(I18
I20
I2
tp2192
g2
(g6
S'\xa6\xc0\x8e\xe0Xc\x8b?'
p2193
tp2194
Rp2195
s(I7
I13
I5
tp2196
g1013
s(I14
I24
I5
tp2197
g1765
s(I23
I16
I2
tp2198
g2
(g6
S'4\xe4\xf6fV\xc9f?'
p2199
tp2200
Rp2201
s(I11
I14
I3
tp2202
g2
(g6
S'\xd1\xdcN\x07\xd6\xf3\xbf?'
p2203
tp2204
Rp2205
s(I14
I4
I6
tp2206
g2051
s(I16
I7
I4
tp2207
g474
s(I14
I25
I4
tp2208
g1405
s(I1
I20
I5
tp2209
g1225
s(I1
I1
I4
tp2210
F1.0
s(I19
I2
I6
tp2211
g966
s(I4
I13
I3
tp2212
g2
(g6
S'4\xe4\xf6fV\xc9f?'
p2213
tp2214
Rp2215
s(I3
I3
I23
tp2216
F1.0
s(I10
I26
I2
tp2217
g2
(g6
S'4\xe4\xf6fV\xc9f?'
p2218
tp2219
Rp2220
s(I6
I21
I2
tp2221
g1473
s(I15
I26
I2
tp2222
g2
(g6
S'4\xe4\xf6fV\xc9f?'
p2223
tp2224
Rp2225
s(I6
I23
I4
tp2226
g2
(g6
S'4\xe4\xf6fV\xc9f?'
p2227
tp2228
Rp2229
s(I7
I21
I1
tp2230
g2
(g6
S'4\xe4\xf6fV\xc9f?'
p2231
tp2232
Rp2233
s(I6
I7
I1
tp2234
g2
(g6
S'\x08\r>V\xf1\x03\xee?'
p2235
tp2236
Rp2237
s(I8
I6
I1
tp2238
g1746
s(I12
I12
I4
tp2239
F1.0
s(I14
I22
I3
tp2240
g2
(g6
S'4\xe4\xf6fV\xc9f?'
p2241
tp2242
Rp2243
s(I12
I25
I3
tp2244
g2
(g6
S'4\xe4\xf6fV\xc9f?'
p2245
tp2246
Rp2247
s(I11
I3
I7
tp2248
g2
(g6
S'4\xe4\xf6fV\xc9f?'
p2249
tp2250
Rp2251
s(I2
I13
I1
tp2252
g2
(g6
S'4\xe4\xf6fV\xc9f?'
p2253
tp2254
Rp2255
s(I19
I16
I1
tp2256
g2
(g6
S'4\xe4\xf6fV\xc9f?'
p2257
tp2258
Rp2259
s(I23
I6
I2
tp2260
g2
(g6
S'4\xe4\xf6fV\xc9f?'
p2261
tp2262
Rp2263
s(I24
I21
I3
tp2264
g2
(g6
S'Js\x0b\x1f\xd2\xaez?'
p2265
tp2266
Rp2267
s(I0
I16
I5
tp2268
g343
s(I16
I26
I1
tp2269
g1677
s(I18
I0
I10
tp2270
g1345
s(I0
I5
I2
tp2271
g2
(g6
S'\x08\r>V\xf1\x03\xee?'
p2272
tp2273
Rp2274
s(I4
I19
I3
tp2275
g2
(g6
S'4\xe4\xf6fV\xc9f?'
p2276
tp2277
Rp2278
s(I22
I10
I3
tp2279
g1892
s(I2
I14
I9
tp2280
g545
s(I21
I18
I3
tp2281
g2
(g6
S'3\xd6X\x08\x90\xb9\xa4?'
p2282
tp2283
Rp2284
s(I7
I22
I5
tp2285
g902
s(I9
I23
I5
tp2286
g2
(g6
S'4\xe4\xf6fV\xc9f?'
p2287
tp2288
Rp2289
s(I15
I7
I3
tp2290
g2
(g6
S'4\xe4\xf6fV\xc9f?'
p2291
tp2292
Rp2293
s(I17
I0
I3
tp2294
g2
(g6
S'4\xe4\xf6fV\xc9f?'
p2295
tp2296
Rp2297
s(I7
I1
I5
tp2298
g1923
s(I16
I8
I2
tp2299
g2
(g6
S'4\xe4\xf6fV\xc9f?'
p2300
tp2301
Rp2302
s(I1
I13
I1
tp2303
g540
s(I0
I19
I1
tp2304
g2
(g6
S'4\xe4\xf6fV\xc9f?'
p2305
tp2306
Rp2307
s(I22
I4
I4
tp2308
g33
s(I27
I7
I1
tp2309
g2
(g6
S'4\xe4\xf6fV\xc9f?'
p2310
tp2311
Rp2312
s(I9
I1
I2
tp2313
g2
(g6
S'4\xe4\xf6fV\xc9f?'
p2314
tp2315
Rp2316
s(I13
I19
I1
tp2317
g2
(g6
S'4\xe4\xf6fV\xc9f?'
p2318
tp2319
Rp2320
s(I9
I20
I9
tp2321
g2
(g6
S'4\xe4\xf6fV\xc9f?'
p2322
tp2323
Rp2324
s(I2
I17
I3
tp2325
g2
(g6
S'4\xe4\xf6fV\xc9f?'
p2326
tp2327
Rp2328
s(I18
I23
I3
tp2329
g2
(g6
S'\xa2"\x15/!\x0e\x80?'
p2330
tp2331
Rp2332
s(I8
I23
I1
tp2333
g2
(g6
S'4\xe4\xf6fV\xc9f?'
p2334
tp2335
Rp2336
s(I26
I6
I1
tp2337
g2
(g6
S'4\xe4\xf6fV\xc9f?'
p2338
tp2339
Rp2340
s(I25
I22
I1
tp2341
g2
(g6
S'4\xe4\xf6fV\xc9f?'
p2342
tp2343
Rp2344
s(I14
I7
I7
tp2345
g2
(g6
S'4\xe4\xf6fV\xc9f?'
p2346
tp2347
Rp2348
s(I16
I6
I7
tp2349
g769
s(I12
I18
I3
tp2350
g2
(g6
S'\x0cG\xae\x97APx?'
p2351
tp2352
Rp2353
s(I19
I12
I4
tp2354
g2
(g6
S'\xfbg\x10\xbb\xa9\xcer?'
p2355
tp2356
Rp2357
s(I16
I11
I4
tp2358
g993
s(I19
I3
I5
tp2359
g335
s(I22
I27
I2
tp2360
g166
s(I15
I27
I1
tp2361
g2
(g6
S'4\xe4\xf6fV\xc9f?'
p2362
tp2363
Rp2364
s(I3
I9
I4
tp2365
g2139
s(I2
I15
I8
tp2366
g1524
s(I21
I1
I3
tp2367
g2
(g6
S'4\xe4\xf6fV\xc9f?'
p2368
tp2369
Rp2370
s(I9
I19
I2
tp2371
g2
(g6
S'4\xe4\xf6fV\xc9f?'
p2372
tp2373
Rp2374
s(I12
I19
I5
tp2375
g2357
s(I14
I17
I2
tp2376
g2
(g6
S'\x88\xd0\xe4\xa7F\xc7\xbf?'
p2377
tp2378
Rp2379
s(I12
I24
I4
tp2380
g416
s(I11
I0
I6
tp2381
g74
s(I2
I12
I2
tp2382
g2
(g6
S'4\xe4\xf6fV\xc9f?'
p2383
tp2384
Rp2385
s(I21
I3
I5
tp2386
g317
s(I5
I6
I1
tp2387
g2
(g6
S'\x08\r>V\xf1\x03\xee?'
p2388
tp2389
Rp2390
s(I23
I7
I1
tp2391
g2
(g6
S'4\xe4\xf6fV\xc9f?'
p2392
tp2393
Rp2394
s(I22
I21
I1
tp2395
g2
(g6
S'\x08\r>V\xf1\x03\xee?'
p2396
tp2397
Rp2398
s(I24
I24
I1
tp2399
F1.0
s(I5
I12
I2
tp2400
g2
(g6
S'4\xe4\xf6fV\xc9f?'
p2401
tp2402
Rp2403
s(I6
I24
I3
tp2404
g2
(g6
S'4\xe4\xf6fV\xc9f?'
p2405
tp2406
Rp2407
s(I14
I0
I13
tp2408
g429
s(I3
I10
I6
tp2409
g1608
s(I13
I23
I6
tp2410
g1761
s(I26
I26
I3
tp2411
F1.0
s(I7
I23
I6
tp2412
g2
(g6
S'4\xe4\xf6fV\xc9f?'
p2413
tp2414
Rp2415
s(I9
I16
I4
tp2416
g2
(g6
S'\x0cPs\xa6\xecql?'
p2417
tp2418
Rp2419
s(I12
I24
I3
tp2420
g2
(g6
S'4\xe4\xf6fV\xc9f?'
p2421
tp2422
Rp2423
s(I15
I4
I2
tp2424
g2
(g6
S'4\xe4\xf6fV\xc9f?'
p2425
tp2426
Rp2427
s(I23
I21
I2
tp2428
g2
(g6
S'4\xe4\xf6fV\xc9f?'
p2429
tp2430
Rp2431
s(I2
I11
I8
tp2432
g1965
s(I16
I2
I8
tp2433
g795
s(I3
I3
I22
tp2434
F1.0
s(I10
I10
I4
tp2435
F1.0
s(I16
I23
I3
tp2436
g2
(g6
S'4\xe4\xf6fV\xc9f?'
p2437
tp2438
Rp2439
s(I0
I18
I2
tp2440
g2
(g6
S'4\xe4\xf6fV\xc9f?'
p2441
tp2442
Rp2443
s(I4
I0
I1
tp2444
g730
s(I7
I21
I5
tp2445
g807
s(I24
I6
I5
tp2446
g2
(g6
S'4\xe4\xf6fV\xc9f?'
p2447
tp2448
Rp2449
s(I22
I8
I4
tp2450
g811
s(I9
I2
I3
tp2451
g2
(g6
S'4\xe4\xf6fV\xc9f?'
p2452
tp2453
Rp2454
s(I15
I10
I1
tp2455
g2
(g6
S'4\xe4\xf6fV\xc9f?'
p2456
tp2457
Rp2458
s(I6
I2
I3
tp2459
g2
(g6
S'\x08\r>V\xf1\x03\xee?'
p2460
tp2461
Rp2462
s(I15
I1
I8
tp2463
g799
s(I15
I1
I5
tp2464
g799
s(I8
I22
I2
tp2465
g2
(g6
S'4\xe4\xf6fV\xc9f?'
p2466
tp2467
Rp2468
s(I12
I28
I1
tp2469
g2
(g6
S'4\xe4\xf6fV\xc9f?'
p2470
tp2471
Rp2472
s(I11
I12
I1
tp2473
g2
(g6
S'\r\xe8\xc6].E\x95?'
p2474
tp2475
Rp2476
s(I16
I5
I6
tp2477
g824
s(I1
I24
I3
tp2478
g2
(g6
S'4\xe4\xf6fV\xc9f?'
p2479
tp2480
Rp2481
s(I19
I13
I3
tp2482
g2
(g6
S'\xf27\xba\xe1o\x85j?'
p2483
tp2484
Rp2485
s(I8
I16
I4
tp2486
g611
s(I26
I28
I1
tp2487
g2
(g6
S'4\xe4\xf6fV\xc9f?'
p2488
tp2489
Rp2490
s(I19
I0
I4
tp2491
g1056
s(I19
I2
I5
tp2492
g966
s(I24
I9
I1
tp2493
g2
(g6
S'4\xe4\xf6fV\xc9f?'
p2494
tp2495
Rp2496
s(I7
I21
I8
tp2497
g807
s(I0
I0
I2
tp2498
F1.0
s(I11
I22
I7
tp2499
g2
(g6
S'4\xe4\xf6fV\xc9f?'
p2500
tp2501
Rp2502
s(I26
I13
I3
tp2503
g2
(g6
S'\xe3\x03\xdd\x10\xea\xbej?'
p2504
tp2505
Rp2506
s(I5
I17
I3
tp2507
g640
s(I8
I15
I6
tp2508
g1135
s(I21
I2
I2
tp2509
g2
(g6
S'4\xe4\xf6fV\xc9f?'
p2510
tp2511
Rp2512
s(I12
I18
I6
tp2513
g1469
s(I14
I16
I1
tp2514
g2
(g6
S'\x8c)z\x0e\x83\xd9\xe2?'
p2515
tp2516
Rp2517
s(I2
I2
I12
tp2518
F1.0
s(I11
I1
I9
tp2519
g275
s(I2
I15
I3
tp2520
g2
(g6
S'4\xe4\xf6fV\xc9f?'
p2521
tp2522
Rp2523
s(I22
I20
I2
tp2524
g2
(g6
S'\x83\x1d\xde\xc4\x9d\xaf\x9c?'
p2525
tp2526
Rp2527
s(I10
I14
I1
tp2528
g2
(g6
S'4\xe4\xf6fV\xc9f?'
p2529
tp2530
Rp2531
s(I5
I18
I9
tp2532
g561
s(I4
I4
I6
tp2533
F1.0
s(I3
I11
I6
tp2534
g2251
s(I4
I17
I1
tp2535
g2
(g6
S'4\xe4\xf6fV\xc9f?'
p2536
tp2537
Rp2538
s(I3
I11
I5
tp2539
g2251
s(I21
I20
I1
tp2540
g2
(g6
S'\xcf\x99\xf1Oh@\xb4?'
p2541
tp2542
Rp2543
s(I12
I0
I3
tp2544
g2
(g6
S'4\xe4\xf6fV\xc9f?'
p2545
tp2546
Rp2547
s(I7
I20
I7
tp2548
g2
(g6
S'4\xe4\xf6fV\xc9f?'
p2549
tp2550
Rp2551
s(I9
I17
I7
tp2552
g582
s(I18
I26
I1
tp2553
g2
(g6
S'4\xe4\xf6fV\xc9f?'
p2554
tp2555
Rp2556
s(I17
I2
I1
tp2557
g2
(g6
S'4\xe4\xf6fV\xc9f?'
p2558
tp2559
Rp2560
s(I12
I12
I17
tp2561
F1.0
s(I5
I9
I3
tp2562
g2
(g6
S'4\xe4\xf6fV\xc9f?'
p2563
tp2564
Rp2565
s(I13
I24
I2
tp2566
g724
s(I25
I19
I3
tp2567
g2
(g6
S'Z\xffw\xce\xd0~\x96?'
p2568
tp2569
Rp2570
s(I14
I2
I5
tp2571
g545
s(I16
I1
I9
tp2572
g599
s(I10
I10
I19
tp2573
F1.0
s(I1
I15
I7
tp2574
g799
s(I0
I17
I3
tp2575
g2297
s(I22
I6
I2
tp2576
g2
(g6
S'4\xe4\xf6fV\xc9f?'
p2577
tp2578
Rp2579
s(I24
I5
I4
tp2580
g2
(g6
S'4\xe4\xf6fV\xc9f?'
p2581
tp2582
Rp2583
s(I2
I15
I9
tp2584
g1524
s(I22
I11
I5
tp2585
g2502
s(I27
I0
I2
tp2586
g2
(g6
S'4\xe4\xf6fV\xc9f?'
p2587
tp2588
Rp2589
s(I12
I26
I3
tp2590
g2
(g6
S'Qu\xd2,\xe5\x9cu?'
p2591
tp2592
Rp2593
s(I15
I11
I2
tp2594
g2
(g6
S'\xc8\x85\xdbX<\x18\xd0?'
p2595
tp2596
Rp2597
s(I3
I25
I1
tp2598
g2
(g6
S'4\xe4\xf6fV\xc9f?'
p2599
tp2600
Rp2601
s(I2
I19
I1
tp2602
g2
(g6
S'4\xe4\xf6fV\xc9f?'
p2603
tp2604
Rp2605
s(I6
I13
I2
tp2606
g2
(g6
S'4\xe4\xf6fV\xc9f?'
p2607
tp2608
Rp2609
s(I8
I0
I4
tp2610
g1568
s(I1
I1
I23
tp2611
F1.0
s(I8
I21
I3
tp2612
g2
(g6
S'4\xe4\xf6fV\xc9f?'
p2613
tp2614
Rp2615
s(I14
I1
I1
tp2616
g2
(g6
S'4\xe4\xf6fV\xc9f?'
p2617
tp2618
Rp2619
s(I16
I4
I1
tp2620
g2
(g6
S'4\xe4\xf6fV\xc9f?'
p2621
tp2622
Rp2623
s(I19
I10
I2
tp2624
g2
(g6
S'4\xe4\xf6fV\xc9f?'
p2625
tp2626
Rp2627
s(I19
I0
I7
tp2628
g1056
s(I16
I9
I6
tp2629
g2419
s(I1
I12
I11
tp2630
g412
s(I5
I22
I4
tp2631
g2182
s(I28
I14
I1
tp2632
g2
(g6
S'4\xe4\xf6fV\xc9f?'
p2633
tp2634
Rp2635
s(I20
I26
I2
tp2636
g2
(g6
S',|\xa7?\xe4\x19}?'
p2637
tp2638
Rp2639
s(I0
I15
I3
tp2640
g636
s(I21
I8
I4
tp2641
g984
s(I8
I14
I5
tp2642
g2
(g6
S'7\xb2M \x85\xday?'
p2643
tp2644
Rp2645
s(I7
I24
I2
tp2646
g2
(g6
S'4\xe4\xf6fV\xc9f?'
p2647
tp2648
Rp2649
s(I6
I0
I4
tp2650
g2
(g6
S'\x08\r>V\xf1\x03\xee?'
p2651
tp2652
Rp2653
s(I14
I14
I5
tp2654
F1.0
s(I3
I20
I9
tp2655
g520
s(I17
I24
I5
tp2656
g2
(g6
S'i\x04*)\x82cu?'
p2657
tp2658
Rp2659
s(I17
I17
I5
tp2660
F1.0
s(I4
I19
I7
tp2661
g90
s(I6
I14
I8
tp2662
g666
s(I22
I10
I7
tp2663
g145
s(I17
I0
I10
tp2664
g1155
s(I1
I11
I4
tp2665
g275
s(I22
I2
I7
tp2666
g1254
s(I4
I16
I6
tp2667
g304
s(I3
I8
I4
tp2668
g2
(g6
S'4\xe4\xf6fV\xc9f?'
p2669
tp2670
Rp2671
s(I7
I14
I1
tp2672
g2
(g6
S'4\xe4\xf6fV\xc9f?'
p2673
tp2674
Rp2675
s(I13
I25
I4
tp2676
g2
(g6
S'4\xe4\xf6fV\xc9f?'
p2677
tp2678
Rp2679
s(I12
I7
I2
tp2680
g2
(g6
S'4\xe4\xf6fV\xc9f?'
p2681
tp2682
Rp2683
s(I3
I23
I6
tp2684
g1816
s(I9
I18
I6
tp2685
g2
(g6
S'X\xcb72\x96#l?'
p2686
tp2687
Rp2688
s(I10
I19
I4
tp2689
g2
(g6
S'\x9a\xf66j\x9b\xc6r?'
p2690
tp2691
Rp2692
s(I20
I3
I1
tp2693
g2
(g6
S'4\xe4\xf6fV\xc9f?'
p2694
tp2695
Rp2696
s(I5
I10
I2
tp2697
g2
(g6
S'4\xe4\xf6fV\xc9f?'
p2698
tp2699
Rp2700
s(I25
I12
I2
tp2701
g2
(g6
S'4\xe4\xf6fV\xc9f?'
p2702
tp2703
Rp2704
s(I6
I15
I5
tp2705
g2
(g6
S'4\xe4\xf6fV\xc9f?'
p2706
tp2707
Rp2708
s(I5
I5
I11
tp2709
F1.0
s(I16
I0
I6
tp2710
g343
s(I14
I4
I10
tp2711
g2051
s(I21
I13
I2
tp2712
g2
(g6
S'#e\x04\xa8\xb5\n\xa2?'
p2713
tp2714
Rp2715
s(I18
I9
I7
tp2716
g2688
s(I16
I21
I1
tp2717
g2
(g6
S'*7\x14G\xad!\xbf?'
p2718
tp2719
Rp2720
s(I1
I8
I6
tp2721
g2
(g6
S'4\xe4\xf6fV\xc9f?'
p2722
tp2723
Rp2724
s(I0
I16
I12
tp2725
g343
s(I13
I0
I12
tp2726
g629
s(I22
I1
I3
tp2727
g213
s(I24
I4
I3
tp2728
g2
(g6
S'4\xe4\xf6fV\xc9f?'
p2729
tp2730
Rp2731
s(I27
I23
I2
tp2732
g2
(g6
S'4\xe4\xf6fV\xc9f?'
p2733
tp2734
Rp2735
s(I4
I19
I8
tp2736
g90
s(I18
I2
I8
tp2737
g365
s(I13
I22
I2
tp2738
g2
(g6
S'4\xe4\xf6fV\xc9f?'
p2739
tp2740
Rp2741
s(I7
I17
I10
tp2742
g590
s(I15
I8
I3
tp2743
g1391
s(I12
I15
I2
tp2744
g2
(g6
S'|[\x088,\x93\xb3?'
p2745
tp2746
Rp2747
s(I6
I12
I1
tp2748
g2
(g6
S'4\xe4\xf6fV\xc9f?'
p2749
tp2750
Rp2751
s(I20
I13
I5
tp2752
g1312
s(I7
I23
I5
tp2753
g2415
s(I11
I7
I4
tp2754
g2
(g6
S'4\xe4\xf6fV\xc9f?'
p2755
tp2756
Rp2757
s(I8
I20
I4
tp2758
g209
s(I25
I17
I4
tp2759
g2
(g6
S'\xd9\xba\xdckX\x04\x94?'
p2760
tp2761
Rp2762
s(I14
I0
I2
tp2763
g2
(g6
S'4\xe4\xf6fV\xc9f?'
p2764
tp2765
Rp2766
s(I1
I26
I1
tp2767
g1795
s(I19
I11
I1
tp2768
g2027
s(I10
I10
I3
tp2769
F1.0
s(I11
I11
I3
tp2770
F1.0
s(I13
I8
I1
tp2771
g1673
s(I18
I1
I2
tp2772
g2112
s(I0
I11
I11
tp2773
g74
s(I7
I18
I4
tp2774
g911
s(I8
I13
I4
tp2775
g1182
s(I6
I17
I9
tp2776
g204
s(I21
I4
I4
tp2777
g374
s(I8
I2
I5
tp2778
g1807
s(I26
I13
I1
tp2779
g2
(g6
S'4\xe4\xf6fV\xc9f?'
p2780
tp2781
Rp2782
s(I12
I3
I9
tp2783
g356
s(I19
I25
I2
tp2784
g2
(g6
S'\xaeuD\xe0a#\x92?'
p2785
tp2786
Rp2787
s(I11
I21
I8
tp2788
g478
s(I7
I17
I5
tp2789
g590
s(I22
I22
I4
tp2790
F1.0
s(I24
I21
I2
tp2791
g1285
s(I2
I15
I10
tp2792
g1524
s(I0
I28
I1
tp2793
g2
(g6
S'4\xe4\xf6fV\xc9f?'
p2794
tp2795
Rp2796
s(I22
I13
I6
tp2797
g1629
s(I11
I11
I14
tp2798
F1.0
s(I7
I15
I2
tp2799
g2
(g6
S'4\xe4\xf6fV\xc9f?'
p2800
tp2801
Rp2802
s(I27
I13
I2
tp2803
g2
(g6
S'n\x8e=r?\x95\x93?'
p2804
tp2805
Rp2806
s(I12
I6
I1
tp2807
g2751
s(I2
I22
I3
tp2808
g2
(g6
S'4\xe4\xf6fV\xc9f?'
p2809
tp2810
Rp2811
s(I20
I2
I2
tp2812
g2
(g6
S'4\xe4\xf6fV\xc9f?'
p2813
tp2814
Rp2815
s(I8
I16
I1
tp2816
g2
(g6
S'4\xe4\xf6fV\xc9f?'
p2817
tp2818
Rp2819
s(I23
I24
I1
tp2820
g2
(g6
S'\xf1\xae\x96`\xea\x05\xdf?'
p2821
tp2822
Rp2823
s(I11
I22
I2
tp2824
g2
(g6
S'-:G\x8d\xbd\xcb\x85?'
p2825
tp2826
Rp2827
s(I2
I2
I11
tp2828
F1.0
s(I1
I6
I4
tp2829
g2
(g6
S'\x08\r>V\xf1\x03\xee?'
p2830
tp2831
Rp2832
s(I1
I17
I8
tp2833
g764
s(I1
I9
I5
tp2834
g2
(g6
S'4\xe4\xf6fV\xc9f?'
p2835
tp2836
Rp2837
s(I21
I16
I3
tp2838
g2
(g6
S'L\xa7Q\xfd\xad\xddr?'
p2839
tp2840
Rp2841
s(I24
I3
I2
tp2842
g2
(g6
S'4\xe4\xf6fV\xc9f?'
p2843
tp2844
Rp2845
s(I22
I7
I3
tp2846
g2
(g6
S'4\xe4\xf6fV\xc9f?'
p2847
tp2848
Rp2849
s(I4
I18
I11
tp2850
g746
s(I18
I5
I9
tp2851
g561
s(I21
I13
I8
tp2852
g2
(g6
S'4\xe4\xf6fV\xc9f?'
p2853
tp2854
Rp2855
s(I15
I9
I4
tp2856
g253
s(I3
I23
I3
tp2857
g2
(g6
S'4\xe4\xf6fV\xc9f?'
p2858
tp2859
Rp2860
s(I2
I21
I7
tp2861
g863
s(I15
I4
I11
tp2862
g1413
s(I12
I20
I5
tp2863
g932
s(I11
I4
I5
tp2864
g1326
s(I20
I18
I2
tp2865
g2195
s(I11
I11
I4
tp2866
F1.0
s(I16
I10
I6
tp2867
g2
(g6
S'yB\xde"\x07g\x80?'
p2868
tp2869
Rp2870
s(I14
I3
I3
tp2871
g2
(g6
S'4\xe4\xf6fV\xc9f?'
p2872
tp2873
Rp2874
s(I16
I2
I3
tp2875
g2
(g6
S'4\xe4\xf6fV\xc9f?'
p2876
tp2877
Rp2878
s(I4
I11
I1
tp2879
g2
(g6
S'4\xe4\xf6fV\xc9f?'
p2880
tp2881
Rp2882
s(I22
I18
I1
tp2883
g2
(g6
S'*7\x14G\xad!\xbf?'
p2884
tp2885
Rp2886
s(I1
I14
I9
tp2887
g786
s(I13
I9
I2
tp2888
g2
(g6
S'4\xe4\xf6fV\xc9f?'
p2889
tp2890
Rp2891
s(I0
I13
I1
tp2892
g2
(g6
S'4\xe4\xf6fV\xc9f?'
p2893
tp2894
Rp2895
s(I18
I0
I1
tp2896
g2
(g6
S'4\xe4\xf6fV\xc9f?'
p2897
tp2898
Rp2899
s(I21
I10
I6
tp2900
g2
(g6
S'4\xe4\xf6fV\xc9f?'
p2901
tp2902
Rp2903
s(I9
I20
I7
tp2904
g2324
s(I8
I12
I3
tp2905
g1897
s(I21
I5
I7
tp2906
g1217
s(I8
I1
I4
tp2907
g2724
s(I12
I23
I1
tp2908
g2
(g6
S'4\xe4\xf6fV\xc9f?'
p2909
tp2910
Rp2911
s(I17
I8
I2
tp2912
g2
(g6
S'4\xe4\xf6fV\xc9f?'
p2913
tp2914
Rp2915
s(I1
I21
I3
tp2916
g2370
s(I5
I15
I2
tp2917
g2
(g6
S'4\xe4\xf6fV\xc9f?'
p2918
tp2919
Rp2920
s(I22
I17
I5
tp2921
g528
s(I10
I3
I2
tp2922
g738
s(I16
I16
I3
tp2923
F1.0
s(I22
I12
I5
tp2924
g24
s(I0
I0
I9
tp2925
F1.0
s(I4
I22
I4
tp2926
g33
s(I7
I12
I3
tp2927
g2
(g6
S'4\xe4\xf6fV\xc9f?'
p2928
tp2929
Rp2930
s(I9
I25
I3
tp2931
g2
(g6
S'4\xe4\xf6fV\xc9f?'
p2932
tp2933
Rp2934
s(I13
I27
I2
tp2935
g2806
s(I1
I12
I5
tp2936
g412
s(I15
I13
I1
tp2937
g2
(g6
S'\xb2\x80\t\x95\xf7\x05\xd5?'
p2938
tp2939
Rp2940
s(I2
I25
I2
tp2941
g2
(g6
S'4\xe4\xf6fV\xc9f?'
p2942
tp2943
Rp2944
s(I20
I20
I4
tp2945
F1.0
s(I19
I1
I5
tp2946
g1107
s(I11
I0
I8
tp2947
g74
s(I20
I1
I3
tp2948
g2
(g6
S'4\xe4\xf6fV\xc9f?'
p2949
tp2950
Rp2951
s(I5
I12
I4
tp2952
g78
s(I11
I23
I1
tp2953
g1373
s(I17
I5
I12
tp2954
g433
s(I28
I16
I1
tp2955
g2
(g6
S'4\xe4\xf6fV\xc9f?'
p2956
tp2957
Rp2958
s(I1
I7
I3
tp2959
g28
s(I26
I12
I1
tp2960
g2
(g6
S'4\xe4\xf6fV\xc9f?'
p2961
tp2962
Rp2963
s(I1
I10
I4
tp2964
g98
s(I6
I24
I4
tp2965
g2449
s(I22
I3
I1
tp2966
g2
(g6
S'4\xe4\xf6fV\xc9f?'
p2967
tp2968
Rp2969
s(I10
I21
I2
tp2970
g2
(g6
S'mL^\xfa4o\x9f?'
p2971
tp2972
Rp2973
s(I4
I17
I10
tp2974
g116
s(I4
I20
I3
tp2975
g2
(g6
S'4\xe4\xf6fV\xc9f?'
p2976
tp2977
Rp2978
s(I18
I4
I10
tp2979
g746
s(I18
I17
I1
tp2980
g2
(g6
S'\x01\x9a\xc7\xfa\xa1+\xd1?'
p2981
tp2982
Rp2983
s(I3
I20
I2
tp2984
g2
(g6
S'4\xe4\xf6fV\xc9f?'
p2985
tp2986
Rp2987
s(I10
I2
I3
tp2988
g2
(g6
S'4\xe4\xf6fV\xc9f?'
p2989
tp2990
Rp2991
s(I6
I14
I7
tp2992
g666
s(I11
I5
I2
tp2993
g2
(g6
S'4\xe4\xf6fV\xc9f?'
p2994
tp2995
Rp2996
s(I8
I18
I6
tp2997
g1090
s(I1
I17
I12
tp2998
g764
s(I16
I1
I2
tp2999
g2
(g6
S'4\xe4\xf6fV\xc9f?'
p3000
tp3001
Rp3002
s(I10
I10
I10
tp3003
F1.0
s(I4
I10
I2
tp3004
g2
(g6
S'4\xe4\xf6fV\xc9f?'
p3005
tp3006
Rp3007
s(I24
I16
I2
tp3008
g2
(g6
S'4\xe4\xf6fV\xc9f?'
p3009
tp3010
Rp3011
s(I5
I13
I8
tp3012
g233
s(I0
I7
I7
tp3013
g94
s(I13
I10
I3
tp3014
g2
(g6
S'\x06\xad\xcd\xb5\x1d?\x96?'
p3015
tp3016
Rp3017
s(I0
I12
I6
tp3018
g176
s(I3
I2
I1
tp3019
g2
(g6
S'\x08\r>V\xf1\x03\xee?'
p3020
tp3021
Rp3022
s(I21
I11
I1
tp3023
g2
(g6
S'\x8c\xf2\xfb$\x01\x06\xa6?'
p3024
tp3025
Rp3026
s(I9
I21
I4
tp3027
g188
s(I8
I11
I2
tp3028
g2
(g6
S'4\xe4\xf6fV\xc9f?'
p3029
tp3030
Rp3031
s(I21
I6
I6
tp3032
g200
s(I17
I6
I8
tp3033
g204
s(I12
I22
I2
tp3034
g2
(g6
S'4\xe4\xf6fV\xc9f?'
p3035
tp3036
Rp3037
s(I0
I20
I9
tp3038
g225
s(I17
I8
I8
tp3039
g1864
s(I17
I9
I1
tp3040
g2
(g6
S'4\xe4\xf6fV\xc9f?'
p3041
tp3042
Rp3043
s(I1
I22
I2
tp3044
g2
(g6
S'4\xe4\xf6fV\xc9f?'
p3045
tp3046
Rp3047
s(I5
I0
I3
tp3048
g2
(g6
S'\x08\r>V\xf1\x03\xee?'
p3049
tp3050
Rp3051
s(I5
I5
I12
tp3052
F1.0
s(I20
I4
I6
tp3053
g2
(g6
S'4\xe4\xf6fV\xc9f?'
p3054
tp3055
Rp3056
s(I19
I13
I5
tp3057
g1192
s(I22
I16
I6
tp3058
g950
s(I24
I19
I4
tp3059
g2
(g6
S'\x96\xebY\x86g\xd8\x80?'
p3060
tp3061
Rp3062
s(I28
I1
I1
tp3063
g2
(g6
S'4\xe4\xf6fV\xc9f?'
p3064
tp3065
Rp3066
s(I0
I26
I3
tp3067
g2
(g6
S'4\xe4\xf6fV\xc9f?'
p3068
tp3069
Rp3070
s(I4
I24
I2
tp3071
g2
(g6
S'4\xe4\xf6fV\xc9f?'
p3072
tp3073
Rp3074
s(I22
I15
I4
tp3075
g245
s(I15
I25
I4
tp3076
g2
(g6
S'4\xe4\xf6fV\xc9f?'
p3077
tp3078
Rp3079
s(I0
I15
I8
tp3080
g249
s(I4
I21
I5
tp3081
g374
s(I9
I26
I2
tp3082
g2
(g6
S'4\xe4\xf6fV\xc9f?'
p3083
tp3084
Rp3085
s(I2
I24
I1
tp3086
g2
(g6
S'4\xe4\xf6fV\xc9f?'
p3087
tp3088
Rp3089
s(I21
I8
I3
tp3090
g2615
s(I23
I19
I4
tp3091
g1487
s(I11
I1
I7
tp3092
g275
s(I20
I0
I4
tp3093
g225
s(I5
I13
I7
tp3094
g233
s(I10
I1
I9
tp3095
g98
s(I13
I3
I9
tp3096
g296
s(I10
I20
I1
tp3097
g454
s(I9
I4
I1
tp3098
g2
(g6
S'\x08\r>V\xf1\x03\xee?'
p3099
tp3100
Rp3101
s(I27
I25
I1
tp3102
g2
(g6
S'g\xca\xbe4\x11q\x8b?'
p3103
tp3104
Rp3105
s(I0
I8
I3
tp3106
g2
(g6
S'4\xe4\xf6fV\xc9f?'
p3107
tp3108
Rp3109
s(I18
I7
I11
tp3110
g911
s(I21
I15
I6
tp3111
g313
s(I20
I25
I4
tp3112
g2
(g6
S'\xea\x82\xd0\xa3\xcc\x1e\xa9?'
p3113
tp3114
Rp3115
s(I18
I16
I2
tp3116
g2
(g6
S'w\xb6\x1b\xe5\xc22q?'
p3117
tp3118
Rp3119
s(I3
I21
I5
tp3120
g317
s(I5
I20
I2
tp3121
g2
(g6
S'4\xe4\xf6fV\xc9f?'
p3122
tp3123
Rp3124
s(I11
I2
I3
tp3125
g2
(g6
S'4\xe4\xf6fV\xc9f?'
p3126
tp3127
Rp3128
s(I8
I17
I7
tp3129
g1864
s(I25
I21
I1
tp3130
g1422
s(I17
I24
I1
tp3131
g2
(g6
S'4\xe4\xf6fV\xc9f?'
p3132
tp3133
Rp3134
s(I16
I0
I13
tp3135
g343
s(I4
I9
I3
tp3136
g2
(g6
S'4\xe4\xf6fV\xc9f?'
p3137
tp3138
Rp3139
s(I10
I6
I2
tp3140
g2
(g6
S'4\xe4\xf6fV\xc9f?'
p3141
tp3142
Rp3143
s(I13
I0
I5
tp3144
g629
s(I4
I22
I3
tp3145
g1174
s(I12
I3
I8
tp3146
g356
s(I0
I11
I7
tp3147
g74
s(I18
I2
I7
tp3148
g365
s(I3
I3
I2
tp3149
F1.0
s(I7
I17
I1
tp3150
g2
(g6
S'4\xe4\xf6fV\xc9f?'
p3151
tp3152
Rp3153
s(I10
I0
I3
tp3154
g2
(g6
S'4\xe4\xf6fV\xc9f?'
p3155
tp3156
Rp3157
s(I8
I10
I1
tp3158
g2
(g6
S'4\xe4\xf6fV\xc9f?'
p3159
tp3160
Rp3161
s(I7
I16
I9
tp3162
g474
s(I14
I26
I3
tp3163
g2
(g6
S'Qu\xd2,\xe5\x9cu?'
p3164
tp3165
Rp3166
s(I12
I21
I3
tp3167
g2
(g6
S'L\xa7Q\xfd\xad\xddr?'
p3168
tp3169
Rp3170
s(I2
I9
I1
tp3171
g2
(g6
S'\x08\r>V\xf1\x03\xee?'
p3172
tp3173
Rp3174
s(I20
I4
I1
tp3175
g2
(g6
S'4\xe4\xf6fV\xc9f?'
p3176
tp3177
Rp3178
s(I19
I20
I1
tp3179
g2
(g6
S'\xfd\xaeF&QXo?'
p3180
tp3181
Rp3182
s(I23
I2
I2
tp3183
g2
(g6
S'4\xe4\xf6fV\xc9f?'
p3184
tp3185
Rp3186
s(I25
I11
I4
tp3187
g2
(g6
S'\xe8\xc5p\x97\xfa\x17m?'
p3188
tp3189
Rp3190
s(I16
I8
I8
tp3191
g611
s(I9
I18
I7
tp3192
g2688
s(I10
I5
I4
tp3193
g2064
s(I0
I25
I2
tp3194
g2
(g6
S'4\xe4\xf6fV\xc9f?'
p3195
tp3196
Rp3197
s(I22
I14
I3
tp3198
g2243
s(I27
I7
I2
tp3199
g2
(g6
S'4\xe4\xf6fV\xc9f?'
p3200
tp3201
Rp3202
s(I2
I14
I10
tp3203
g545
s(I1
I1
I5
tp3204
F1.0
s(I27
I8
I1
tp3205
g2
(g6
S'4\xe4\xf6fV\xc9f?'
p3206
tp3207
Rp3208
s(I15
I3
I3
tp3209
g2
(g6
S'4\xe4\xf6fV\xc9f?'
p3210
tp3211
Rp3212
s(I3
I17
I2
tp3213
g1094
s(I1
I19
I10
tp3214
g1107
s(I6
I21
I5
tp3215
g200
s(I8
I24
I5
tp3216
g458
s(I23
I16
I5
tp3217
g462
s(I20
I7
I5
tp3218
g2551
s(I5
I14
I6
tp3219
g470
s(I15
I22
I6
tp3220
g245
s(I11
I21
I7
tp3221
g478
s(I16
I12
I2
tp3222
g2
(g6
S'\x1d\xe1@\xf5\xb5\x0c\xea?'
p3223
tp3224
Rp3225
s(I1
I1
I1
tp3226
F1.0
s(I0
I23
I1
tp3227
g774
s(I10
I26
I3
tp3228
g2
(g6
S'M\xea\x8a\x12&Ft?'
p3229
tp3230
Rp3231
s(I13
I4
I8
tp3232
g494
s(I9
I5
I2
tp3233
g2
(g6
S'4\xe4\xf6fV\xc9f?'
p3234
tp3235
Rp3236
s(I13
I15
I1
tp3237
g2940
s(I18
I6
I4
tp3238
g595
s(I7
I21
I6
tp3239
g807
s(I20
I24
I3
tp3240
g2
(g6
S'4\xe4\xf6fV\xc9f?'
p3241
tp3242
Rp3243
s(I2
I2
I9
tp3244
F1.0
s(I3
I18
I4
tp3245
g280
s(I10
I0
I10
tp3246
g557
s(I8
I27
I1
tp3247
g3208
s(I26
I2
I1
tp3248
g2
(g6
S'4\xe4\xf6fV\xc9f?'
p3249
tp3250
Rp3251
s(I25
I26
I1
tp3252
g2
(g6
S'.M!\xdf\xce#\xe1?'
p3253
tp3254
Rp3255
s(I9
I9
I14
tp3256
F1.0
s(I1
I19
I2
tp3257
g2
(g6
S'4\xe4\xf6fV\xc9f?'
p3258
tp3259
Rp3260
s(I17
I25
I2
tp3261
g1188
s(I5
I12
I1
tp3262
g53
s(I10
I25
I3
tp3263
g2
(g6
S'4\xe4\xf6fV\xc9f?'
p3264
tp3265
Rp3266
s(I13
I1
I6
tp3267
g615
s(I0
I5
I5
tp3268
g2
(g6
S'\x08\r>V\xf1\x03\xee?'
p3269
tp3270
Rp3271
s(I4
I19
I6
tp3272
g90
s(I3
I3
I26
tp3273
F1.0
s(I0
I10
I4
tp3274
g557
s(I18
I5
I6
tp3275
g561
s(I3
I0
I3
tp3276
g2
(g6
S'\x08\r>V\xf1\x03\xee?'
p3277
tp3278
Rp3279
s(I21
I13
I3
tp3280
g1910
s(I9
I23
I2
tp3281
g2
(g6
S'4\xe4\xf6fV\xc9f?'
p3282
tp3283
Rp3284
s(I21
I1
I6
tp3285
g690
s(I24
I12
I5
tp3286
g416
s(I14
I21
I2
tp3287
g2
(g6
S'#e\x04\xa8\xb5\n\xa2?'
p3288
tp3289
Rp3290
s(I6
I17
I8
tp3291
g204
s(I2
I2
I17
tp3292
F1.0
s(I2
I8
I2
tp3293
g2
(g6
S'\x08\r>V\xf1\x03\xee?'
p3294
tp3295
Rp3296
s(I6
I26
I1
tp3297
g2340
s(I5
I2
I1
tp3298
g2
(g6
S'\x08\r>V\xf1\x03\xee?'
p3299
tp3300
Rp3301
s(I23
I3
I1
tp3302
g2
(g6
S'4\xe4\xf6fV\xc9f?'
p3303
tp3304
Rp3305
s(I11
I17
I4
tp3306
g820
s(I24
I28
I1
tp3307
g946
s(I16
I8
I7
tp3308
g611
s(I21
I0
I3
tp3309
g2
(g6
S'4\xe4\xf6fV\xc9f?'
p3310
tp3311
Rp3312
s(I22
I9
I2
tp3313
g2146
s(I0
I13
I10
tp3314
g629
s(I15
I21
I5
tp3315
g313
s(I21
I21
I7
tp3316
F1.0
s(I2
I17
I6
tp3317
g339
s(I4
I15
I9
tp3318
g1413
s(I15
I0
I2
tp3319
g2
(g6
S'4\xe4\xf6fV\xc9f?'
p3320
tp3321
Rp3322
s(I14
I24
I4
tp3323
g1765
s(I6
I20
I6
tp3324
g660
s(I8
I23
I4
tp3325
g648
s(I23
I17
I2
tp3326
g2
(g6
S'4\xe4\xf6fV\xc9f?'
p3327
tp3328
Rp3329
s(I10
I20
I6
tp3330
g490
s(I5
I15
I9
tp3331
g325
s(I16
I6
I8
tp3332
g769
s(I11
I18
I6
tp3333
g11
s(I16
I11
I3
tp3334
g2
(g6
S'O\xdb5\x006\x11\xad?'
p3335
tp3336
Rp3337
s(I0
I22
I2
tp3338
g2
(g6
S'4\xe4\xf6fV\xc9f?'
p3339
tp3340
Rp3341
s(I4
I12
I1
tp3342
g2
(g6
S'4\xe4\xf6fV\xc9f?'
p3343
tp3344
Rp3345
s(I16
I16
I10
tp3346
F1.0
s(I9
I6
I3
tp3347
g2
(g6
S'4\xe4\xf6fV\xc9f?'
p3348
tp3349
Rp3350
s(I25
I13
I1
tp3351
g2
(g6
S'4\xe4\xf6fV\xc9f?'
p3352
tp3353
Rp3354
s(I15
I22
I1
tp3355
g2042
s(I21
I1
I4
tp3356
g690
s(I6
I6
I3
tp3357
F1.0
s(I18
I18
I4
tp3358
F1.0
s(I3
I19
I7
tp3359
g335
s(I11
I17
I3
tp3360
g1803
s(I8
I26
I2
tp3361
g2
(g6
S'4\xe4\xf6fV\xc9f?'
p3362
tp3363
Rp3364
s(I12
I24
I1
tp3365
g2
(g6
S'4\xe4\xf6fV\xc9f?'
p3366
tp3367
Rp3368
s(I11
I0
I1
tp3369
g2
(g6
S'4\xe4\xf6fV\xc9f?'
p3370
tp3371
Rp3372
s(I17
I26
I3
tp3373
g2
(g6
S'\\\x07\x90\x11hJ\x9f?'
p3374
tp3375
Rp3376
s(I10
I24
I3
tp3377
g2
(g6
S'4\xe4\xf6fV\xc9f?'
p3378
tp3379
Rp3380
s(I17
I17
I10
tp3381
F1.0
s(I4
I15
I5
tp3382
g1413
s(I24
I13
I1
tp3383
g2
(g6
S'4\xe4\xf6fV\xc9f?'
p3384
tp3385
Rp3386
s(I13
I2
I7
tp3387
g1103
s(I0
I4
I2
tp3388
g2
(g6
S'\x08\r>V\xf1\x03\xee?'
p3389
tp3390
Rp3391
s(I4
I18
I5
tp3392
g746
s(I20
I25
I3
tp3393
g2
(g6
S'4\xe4\xf6fV\xc9f?'
p3394
tp3395
Rp3396
s(I1
I16
I8
tp3397
g599
s(I0
I9
I5
tp3398
g742
s(I18
I4
I5
tp3399
g746
s(I17
I6
I5
tp3400
g204
s(I21
I14
I2
tp3401
g3290
s(I9
I16
I3
tp3402
g2
(g6
S'\xc9b<\xacV\xc3\x84?'
p3403
tp3404
Rp3405
s(I8
I8
I15
tp3406
F1.0
s(I2
I15
I13
tp3407
g1524
s(I14
I20
I1
tp3408
g2
(g6
S'\xd4[\x8aRKC\x95?'
p3409
tp3410
Rp3411
s(I10
I21
I8
tp3412
g2903
s(I27
I15
I2
tp3413
g2
(g6
S'n\x8e=r?\x95\x93?'
p3414
tp3415
Rp3416
s(I1
I17
I7
tp3417
g764
s(I4
I18
I4
tp3418
g746
s(I10
I10
I1
tp3419
F1.0
s(I16
I23
I6
tp3420
g462
s(I13
I13
I9
tp3421
F1.0
s(I6
I19
I7
tp3422
g57
s(I22
I8
I1
tp3423
g2
(g6
S'4\xe4\xf6fV\xc9f?'
p3424
tp3425
Rp3426
s(I21
I16
I1
tp3427
g2720
s(I2
I2
I8
tp3428
F1.0
s(I20
I10
I6
tp3429
g490
s(I15
I10
I4
tp3430
g791
s(I20
I3
I5
tp3431
g520
s(I2
I16
I5
tp3432
g795
s(I18
I22
I1
tp3433
g2886
s(I17
I6
I1
tp3434
g2
(g6
S'4\xe4\xf6fV\xc9f?'
p3435
tp3436
Rp3437
s(I4
I4
I11
tp3438
F1.0
s(I8
I22
I7
tp3439
g811
s(I17
I9
I8
tp3440
g582
s(I20
I5
I7
tp3441
g133
s(I16
I5
I9
tp3442
g824
s(I25
I10
I4
tp3443
g2
(g6
S'4\xe4\xf6fV\xc9f?'
p3444
tp3445
Rp3446
s(I20
I23
I3
tp3447
g2
(g6
S'4\xe4\xf6fV\xc9f?'
p3448
tp3449
Rp3450
s(I0
I21
I3
tp3451
g3312
s(I22
I26
I2
tp3452
g2
(g6
S'\xba\x14d\xf0X\x12\xb2?'
p3453
tp3454
Rp3455
s(I2
I10
I6
tp3456
g229
s(I0
I0
I7
tp3457
F1.0
s(I27
I4
I2
tp3458
g2
(g6
S'4\xe4\xf6fV\xc9f?'
p3459
tp3460
Rp3461
s(I15
I23
I2
tp3462
g2
(g6
S'4\xe4\xf6fV\xc9f?'
p3463
tp3464
Rp3465
s(I21
I2
I5
tp3466
g863
s(I6
I1
I2
tp3467
g2
(g6
S'\x08\r>V\xf1\x03\xee?'
p3468
tp3469
Rp3470
s(I19
I19
I2
tp3471
F1.0
s(I3
I16
I6
tp3472
g221
s(I8
I25
I3
tp3473
g2
(g6
S'4\xe4\xf6fV\xc9f?'
p3474
tp3475
Rp3476
s(I26
I4
I3
tp3477
g1719
s(I14
I5
I1
tp3478
g2
(g6
S'4\xe4\xf6fV\xc9f?'
p3479
tp3480
Rp3481
s(I19
I14
I2
tp3482
g2
(g6
S'\xd0\x8b\x9f$\xc9\x9dk?'
p3483
tp3484
Rp3485
s(I4
I14
I6
tp3486
g2051
s(I10
I27
I1
tp3487
g2
(g6
S'4\xe4\xf6fV\xc9f?'
p3488
tp3489
Rp3490
s(I28
I10
I1
tp3491
g2
(g6
S"&'m\x90\xe6\x94\xd5?"
p3492
tp3493
Rp3494
s(I27
I18
I1
tp3495
g2
(g6
S"6\x8c )'pz?"
p3496
tp3497
Rp3498
s(I0
I3
I3
tp3499
g3279
s(I4
I17
I4
tp3500
g116
s(I18
I7
I4
tp3501
g911
s(I12
I0
I8
tp3502
g176
s(I7
I20
I2
tp3503
g2
(g6
S'4\xe4\xf6fV\xc9f?'
p3504
tp3505
Rp3506
s(I10
I19
I7
tp3507
g2692
s(I15
I5
I2
tp3508
g2920
s(I17
I2
I12
tp3509
g339
s(I20
I12
I5
tp3510
g932
s(I5
I9
I4
tp3511
g2
(g6
S'4\xe4\xf6fV\xc9f?'
p3512
tp3513
Rp3514
s(I2
I10
I4
tp3515
g229
s(I1
I18
I6
tp3516
g936
s(I19
I19
I4
tp3517
F1.0
s(I5
I16
I11
tp3518
g824
s(I17
I7
I10
tp3519
g590
s(I21
I13
I7
tp3520
g2855
s(I16
I22
I5
tp3521
g950
s(I13
I1
I8
tp3522
g615
s(I7
I10
I1
tp3523
g2
(g6
S'4\xe4\xf6fV\xc9f?'
p3524
tp3525
Rp3526
s(I9
I3
I1
tp3527
g2
(g6
S'\x08\r>V\xf1\x03\xee?'
p3528
tp3529
Rp3530
s(I26
I24
I1
tp3531
g2
(g6
S'.M!\xdf\xce#\xe1?'
p3532
tp3533
Rp3534
s(I2
I19
I4
tp3535
g966
s(I26
I20
I2
tp3536
g2639
s(I15
I6
I4
tp3537
g2708
s(I17
I7
I6
tp3538
g590
s(I20
I15
I1
tp3539
g2
(g6
S'w\xd2\x1a\x8d\xc4\x9b\x93?'
p3540
tp3541
Rp3542
s(I8
I21
I6
tp3543
g984
s(I1
I15
I9
tp3544
g799
s(I25
I16
I2
tp3545
g2
(g6
S'4\xe4\xf6fV\xc9f?'
p3546
tp3547
Rp3548
s(I8
I19
I5
tp3549
g1821
s(I11
I16
I4
tp3550
g993
s(I19
I10
I9
tp3551
g2692
s(I16
I9
I1
tp3552
g2
(g6
S'4\xe4\xf6fV\xc9f?'
p3553
tp3554
Rp3555
s(I0
I20
I4
tp3556
g225
s(I22
I5
I3
tp3557
g2
(g6
S'4\xe4\xf6fV\xc9f?'
p3558
tp3559
Rp3560
s(I24
I8
I3
tp3561
g2
(g6
S'4\xe4\xf6fV\xc9f?'
p3562
tp3563
Rp3564
s(I13
I7
I5
tp3565
g1013
s(I17
I6
I6
tp3566
g204
s(I0
I15
I6
tp3567
g249
s(I9
I0
I5
tp3568
g742
s(I13
I18
I2
tp3569
g2
(g6
S'4\xe4\xf6fV\xc9f?'
p3570
tp3571
Rp3572
s(I9
I3
I3
tp3573
g2
(g6
S'4\xe4\xf6fV\xc9f?'
p3574
tp3575
Rp3576
s(I15
I20
I3
tp3577
g2
(g6
S'z\xa4\xe6&q\xef\x8a?'
p3578
tp3579
Rp3580
s(I3
I14
I10
tp3581
g2
(g6
S'4\xe4\xf6fV\xc9f?'
p3582
tp3583
Rp3584
s(I21
I3
I2
tp3585
g2
(g6
S'4\xe4\xf6fV\xc9f?'
p3586
tp3587
Rp3588
s(I6
I0
I1
tp3589
g2
(g6
S'\x08\r>V\xf1\x03\xee?'
p3590
tp3591
Rp3592
s(I15
I3
I10
tp3593
g1681
s(I26
I7
I2
tp3594
g2
(g6
S'4\xe4\xf6fV\xc9f?'
p3595
tp3596
Rp3597
s(I3
I3
I11
tp3598
F1.0
s(I6
I19
I10
tp3599
g57
s(I14
I4
I2
tp3600
g2080
s(I2
I14
I1
tp3601
g2
(g6
S'4\xe4\xf6fV\xc9f?'
p3602
tp3603
Rp3604
s(I19
I15
I1
tp3605
g120
s(I23
I5
I4
tp3606
g2
(g6
S'4\xe4\xf6fV\xc9f?'
p3607
tp3608
Rp3609
s(I10
I21
I7
tp3610
g2903
s(I10
I1
I7
tp3611
g98
s(I19
I2
I10
tp3612
g966
s(I4
I13
I7
tp3613
g494
s(I1
I11
I9
tp3614
g275
s(I13
I4
I1
tp3615
g2
(g6
S'4\xe4\xf6fV\xc9f?'
p3616
tp3617
Rp3618
s(I4
I16
I3
tp3619
g2
(g6
S'4\xe4\xf6fV\xc9f?'
p3620
tp3621
Rp3622
s(I18
I6
I11
tp3623
g595
s(I18
I3
I5
tp3624
g280
s(I9
I18
I1
tp3625
g2
(g6
S'4\xe4\xf6fV\xc9f?'
p3626
tp3627
Rp3628
s(I26
I9
I1
tp3629
g2
(g6
S'4\xe4\xf6fV\xc9f?'
p3630
tp3631
Rp3632
s(I17
I3
I3
tp3633
g2
(g6
S'4\xe4\xf6fV\xc9f?'
p3634
tp3635
Rp3636
s(I20
I3
I4
tp3637
g520
s(I5
I10
I5
tp3638
g2064
s(I2
I13
I5
tp3639
g1103
s(I1
I19
I9
tp3640
g1107
s(I5
I5
I4
tp3641
F1.0
s(I23
I6
I6
tp3642
g2229
s(I16
I21
I4
tp3643
g1117
s(I0
I16
I1
tp3644
g1599
s(I20
I4
I7
tp3645
g3056
s(I9
I9
I11
tp3646
F1.0
s(I2
I18
I6
tp3647
g365
s(I7
I11
I2
tp3648
g2
(g6
S'4\xe4\xf6fV\xc9f?'
p3649
tp3650
Rp3651
s(I27
I1
I2
tp3652
g1322
s(I12
I2
I1
tp3653
g2
(g6
S'4\xe4\xf6fV\xc9f?'
p3654
tp3655
Rp3656
s(I20
I15
I3
tp3657
g3580
s(I15
I8
I6
tp3658
g1135
s(I3
I22
I7
tp3659
g1139
s(I2
I18
I3
tp3660
g1625
s(I13
I13
I16
tp3661
F1.0
s(I18
I24
I3
tp3662
g1657
s(I17
I0
I7
tp3663
g1155
s(I6
I17
I1
tp3664
g3437
s(I8
I20
I1
tp3665
g2
(g6
S'4\xe4\xf6fV\xc9f?'
p3666
tp3667
Rp3668
s(I23
I20
I1
tp3669
g2
(g6
S'\xd5\xbd\x03\x92U\xd4y?'
p3670
tp3671
Rp3672
s(I25
I17
I1
tp3673
g2
(g6
S'4\xe4\xf6fV\xc9f?'
p3674
tp3675
Rp3676
s(I17
I10
I7
tp3677
g1902
s(I15
I22
I7
tp3678
g245
s(I9
I19
I8
tp3679
g1983
s(I5
I28
I1
tp3680
g2126
s(I4
I1
I2
tp3681
g2
(g6
S'\x08\r>V\xf1\x03\xee?'
p3682
tp3683
Rp3684
s(I24
I7
I2
tp3685
g2649
s(I13
I8
I4
tp3686
g1182
s(I7
I7
I16
tp3687
F1.0
s(I0
I14
I5
tp3688
g429
s(I9
I1
I6
tp3689
g2837
s(I13
I19
I5
tp3690
g1192
s(I21
I9
I8
tp3691
g188
s(I7
I25
I2
tp3692
g2
(g6
S'4\xe4\xf6fV\xc9f?'
p3693
tp3694
Rp3695
s(I15
I0
I11
tp3696
g249
s(I24
I18
I1
tp3697
g2
(g6
S'4\xe4\xf6fV\xc9f?'
p3698
tp3699
Rp3700
s(I14
I18
I4
tp3701
g1298
s(I1
I20
I7
tp3702
g1225
s(I10
I16
I5
tp3703
g2870
s(I14
I7
I3
tp3704
g2
(g6
S'4\xe4\xf6fV\xc9f?'
p3705
tp3706
Rp3707
s(I16
I6
I3
tp3708
g1787
s(I5
I25
I1
tp3709
g778
s(I23
I10
I5
tp3710
g2
(g6
S'4\xe4\xf6fV\xc9f?'
p3711
tp3712
Rp3713
s(I22
I22
I1
tp3714
F1.0
s(I10
I0
I4
tp3715
g557
s(I19
I3
I9
tp3716
g335
s(I7
I16
I4
tp3717
g474
s(I24
I10
I4
tp3718
g1542
s(I13
I5
I2
tp3719
g2
(g6
S'4\xe4\xf6fV\xc9f?'
p3720
tp3721
Rp3722
s(I23
I13
I5
tp3723
g1761
s(I0
I1
I1
tp3724
g2
(g6
S'\x08\r>V\xf1\x03\xee?'
p3725
tp3726
Rp3727
s(I4
I23
I2
tp3728
g2
(g6
S'4\xe4\xf6fV\xc9f?'
p3729
tp3730
Rp3731
s(I20
I8
I7
tp3732
g209
s(I12
I19
I1
tp3733
g1234
s(I17
I12
I2
tp3734
g2
(g6
S'\xff\x7f\x18\xe7$\xd9\xb2?'
p3735
tp3736
Rp3737
s(I0
I20
I6
tp3738
g225
s(I20
I2
I7
tp3739
g129
s(I5
I11
I2
tp3740
g2996
s(I2
I12
I6
tp3741
g102
s(I17
I5
I9
tp3742
g433
s(I23
I7
I5
tp3743
g2415
s(I25
I0
I1
tp3744
g2
(g6
S'4\xe4\xf6fV\xc9f?'
p3745
tp3746
Rp3747
s(I10
I15
I2
tp3748
g2
(g6
S'p\xc5\xf9\xe1\x1d\x9a\x91?'
p3749
tp3750
Rp3751
s(I9
I20
I8
tp3752
g2324
s(I16
I20
I3
tp3753
g1306
s(I26
I12
I2
tp3754
g2103
s(I16
I25
I4
tp3755
g2
(g6
S'\xc7\x89\xc6\xe0f\xd7\x8c?'
p3756
tp3757
Rp3758
s(I3
I14
I11
tp3759
g3584
s(I13
I23
I2
tp3760
g2
(g6
S'4\xe4\xf6fV\xc9f?'
p3761
tp3762
Rp3763
s(I1
I16
I11
tp3764
g599
s(I15
I9
I1
tp3765
g2
(g6
S'4\xe4\xf6fV\xc9f?'
p3766
tp3767
Rp3768
s(I3
I23
I4
tp3769
g1816
s(I2
I21
I2
tp3770
g2512
s(I1
I1
I22
tp3771
F1.0
s(I18
I27
I2
tp3772
g2
(g6
S'\xc5\xffu\x04w,\x81?'
p3773
tp3774
Rp3775
s(I17
I1
I4
tp3776
g764
s(I6
I16
I2
tp3777
g1230
s(I14
I14
I9
tp3778
F1.0
s(I15
I0
I14
tp3779
g249
s(I11
I11
I1
tp3780
F1.0
s(I16
I2
I12
tp3781
g795
s(I4
I11
I4
tp3782
g1326
s(I1
I14
I12
tp3783
g786
s(I0
I18
I6
tp3784
g1345
s(I22
I7
I1
tp3785
g566
s(I24
I6
I1
tp3786
g2
(g6
S'4\xe4\xf6fV\xc9f?'
p3787
tp3788
Rp3789
s(I19
I22
I3
tp3790
g1653
s(I15
I6
I6
tp3791
g2708
s(I0
I13
I4
tp3792
g629
s(I20
I9
I3
tp3793
g2
(g6
S'4\xe4\xf6fV\xc9f?'
p3794
tp3795
Rp3796
s(I13
I20
I4
tp3797
g1312
s(I7
I19
I8
tp3798
g553
s(I18
I13
I1
tp3799
g2
(g6
S'\x14\xb2N}#\x90\xb8?'
p3800
tp3801
Rp3802
s(I3
I24
I2
tp3803
g2845
s(I15
I1
I12
tp3804
g799
s(I23
I17
I6
tp3805
g2
(g6
S'}.DXP\xd9l?'
p3806
tp3807
Rp3808
s(I1
I21
I4
tp3809
g690
s(I5
I15
I7
tp3810
g325
s(I14
I6
I4
tp3811
g666
s(I16
I5
I2
tp3812
g1757
s(I18
I11
I5
tp3813
g11
s(I24
I20
I2
tp3814
g515
s(I19
I0
I8
tp3815
g1056
s(I24
I9
I5
tp3816
g1732
s(I13
I6
I3
tp3817
g2
(g6
S'4\xe4\xf6fV\xc9f?'
p3818
tp3819
Rp3820
s(I2
I15
I11
tp3821
g1524
s(I0
I0
I14
tp3822
F1.0
s(I4
I22
I1
tp3823
g2
(g6
S'4\xe4\xf6fV\xc9f?'
p3824
tp3825
Rp3826
s(I3
I6
I1
tp3827
g1209
s(I21
I23
I1
tp3828
g2
(g6
S'4\xe4\xf6fV\xc9f?'
p3829
tp3830
Rp3831
s(I8
I15
I2
tp3832
g2
(g6
S'4\xe4\xf6fV\xc9f?'
p3833
tp3834
Rp3835
s(I6
I6
I17
tp3836
F1.0
s(I18
I18
I10
tp3837
F1.0
s(I12
I18
I2
tp3838
g2
(g6
S'w\xb6\x1b\xe5\xc22q?'
p3839
tp3840
Rp3841
s(I20
I20
I9
tp3842
F1.0
s(I17
I13
I1
tp3843
g2
(g6
S'\x1d\xe1@\xf5\xb5\x0c\xea?'
p3844
tp3845
Rp3846
s(I15
I3
I8
tp3847
g1681
s(I20
I1
I6
tp3848
g1225
s(I5
I12
I3
tp3849
g2
(g6
S'4\xe4\xf6fV\xc9f?'
p3850
tp3851
Rp3852
s(I2
I15
I7
tp3853
g1524
s(I23
I4
I4
tp3854
g1409
s(I11
I26
I1
tp3855
g2
(g6
S'G\xf1\x1cuv\x9dm?'
p3856
tp3857
Rp3858
s(I4
I15
I11
tp3859
g1413
s(I16
I19
I2
tp3860
g2
(g6
S'\xd0\x8b\x9f$\xc9\x9dk?'
p3861
tp3862
Rp3863
s(I4
I4
I2
tp3864
F1.0
s(I26
I17
I3
tp3865
g3376
s(I13
I24
I3
tp3866
g2
(g6
S'4\xe4\xf6fV\xc9f?'
p3867
tp3868
Rp3869
s(I12
I0
I7
tp3870
g176
s(I3
I20
I5
tp3871
g520
s(I2
I20
I1
tp3872
g2
(g6
S'4\xe4\xf6fV\xc9f?'
p3873
tp3874
Rp3875
s(I5
I20
I1
tp3876
g2
(g6
S'4\xe4\xf6fV\xc9f?'
p3877
tp3878
Rp3879
s(I17
I2
I5
tp3880
g339
s(I6
I19
I3
tp3881
g2
(g6
S'4\xe4\xf6fV\xc9f?'
p3882
tp3883
Rp3884
s(I8
I18
I3
tp3885
g2
(g6
S'4\xe4\xf6fV\xc9f?'
p3886
tp3887
Rp3888
s(I1
I17
I9
tp3889
g764
s(I25
I21
I2
tp3890
g2
(g6
S'4\xe4\xf6fV\xc9f?'
p3891
tp3892
Rp3893
s(I14
I2
I1
tp3894
g3604
s(I15
I23
I5
tp3895
g1987
s(I1
I4
I2
tp3896
g3684
s(I19
I9
I4
tp3897
g1983
s(I1
I15
I11
tp3898
g799
s(I0
I17
I7
tp3899
g1155
s(I22
I6
I6
tp3900
g980
s(I10
I16
I1
tp3901
g2
(g6
S'4\xe4\xf6fV\xc9f?'
p3902
tp3903
Rp3904
s(I9
I8
I1
tp3905
g574
s(I1
I1
I11
tp3906
F1.0
s(I0
I12
I3
tp3907
g2547
s(I18
I3
I11
tp3908
g280
s(I13
I21
I7
tp3909
g2855
s(I2
I14
I3
tp3910
g2
(g6
S'4\xe4\xf6fV\xc9f?'
p3911
tp3912
Rp3913
s(I18
I12
I2
tp3914
g3841
s(I21
I6
I1
tp3915
g2
(g6
S'4\xe4\xf6fV\xc9f?'
p3916
tp3917
Rp3918
s(I2
I2
I20
tp3919
F1.0
s(I20
I9
I9
tp3920
g2324
s(I11
I6
I3
tp3921
g2
(g6
S'4\xe4\xf6fV\xc9f?'
p3922
tp3923
Rp3924
s(I20
I6
I7
tp3925
g660
s(I1
I22
I5
tp3926
g1483
s(I17
I28
I1
tp3927
g2
(g6
S'4\xe4\xf6fV\xc9f?'
p3928
tp3929
Rp3930
s(I16
I4
I5
tp3931
g304
s(I1
I25
I4
tp3932
g2
(g6
S'4\xe4\xf6fV\xc9f?'
p3933
tp3934
Rp3935
s(I19
I10
I6
tp3936
g2692
s(I22
I16
I3
tp3937
g2
(g6
S'4\xe4\xf6fV\xc9f?'
p3938
tp3939
Rp3940
s(I10
I2
I2
tp3941
g2
(g6
S'4\xe4\xf6fV\xc9f?'
p3942
tp3943
Rp3944
s(I19
I24
I3
tp3945
g2
(g6
S'\x03\xf0i\x0c\x1c\x84\x80?'
p3946
tp3947
Rp3948
s(I13
I3
I5
tp3949
g296
s(I3
I7
I2
tp3950
g2
(g6
S'\x08\r>V\xf1\x03\xee?'
p3951
tp3952
Rp3953
s(I7
I13
I1
tp3954
g2
(g6
S'4\xe4\xf6fV\xc9f?'
p3955
tp3956
Rp3957
s(I8
I14
I1
tp3958
g331
s(I12
I4
I4
tp3959
g1882
s(I5
I19
I5
tp3960
g889
s(I12
I17
I3
tp3961
g1259
s(I20
I11
I8
tp3962
g262
s(I14
I19
I4
tp3963
g2
(g6
S'\xfbg\x10\xbb\xa9\xcer?'
p3964
tp3965
Rp3966
s(I2
I5
I1
tp3967
g3301
s(I20
I0
I1
tp3968
g2
(g6
S'4\xe4\xf6fV\xc9f?'
p3969
tp3970
Rp3971
s(I19
I24
I1
tp3972
g2
(g6
S'f\x1a\x7f\xc0\xf47\xb2?'
p3973
tp3974
Rp3975
s(I15
I22
I5
tp3976
g245
s(I15
I20
I5
tp3977
g1027
s(I10
I17
I7
tp3978
g1902
s(I11
I27
I2
tp3979
g2
(g6
S'\xa8K\x9c\x07\xcf\xe0\x8a?'
p3980
tp3981
Rp3982
s(I1
I1
I19
tp3983
F1.0
s(I4
I14
I8
tp3984
g2051
s(I16
I18
I1
tp3985
g2
(g6
S'\xdfs\nM\xa6\x9f\xea?'
p3986
tp3987
Rp3988
s(I22
I2
I3
tp3989
g2811
s(I9
I4
I4
tp3990
g1559
s(I4
I16
I10
tp3991
g304
s(I7
I14
I5
tp3992
g2348
s(I27
I12
I1
tp3993
g1952
s(I8
I19
I8
tp3994
g1821
s(I15
I15
I3
tp3995
F1.0
s(I3
I21
I2
tp3996
g3588
s(I4
I14
I10
tp3997
g2051
s(I17
I3
I10
tp3998
g1587
s(I19
I14
I3
tp3999
g2
(g6
S'\xb1\xfc\x980\xc9\xe5t?'
p4000
tp4001
Rp4002
s(I8
I17
I2
tp4003
g2915
s(I8
I21
I8
tp4004
g984
s(I1
I18
I8
tp4005
g936
s(I21
I10
I7
tp4006
g2903
s(I5
I5
I15
tp4007
F1.0
s(I16
I0
I2
tp4008
g2
(g6
S'4\xe4\xf6fV\xc9f?'
p4009
tp4010
Rp4011
s(I1
I5
I1
tp4012
g2
(g6
S'\x08\r>V\xf1\x03\xee?'
p4013
tp4014
Rp4015
s(I19
I6
I5
tp4016
g57
s(I0
I16
I8
tp4017
g343
s(I13
I0
I8
tp4018
g629
s(I22
I1
I7
tp4019
g1483
s(I9
I9
I2
tp4020
F1.0
s(I13
I11
I1
tp4021
g2
(g6
S'Z\x98D\xed\r0\x93?'
p4022
tp4023
Rp4024
s(I20
I12
I8
tp4025
g932
s(I0
I11
I2
tp4026
g705
s(I13
I22
I6
tp4027
g1629
s(I2
I15
I12
tp4028
g1524
s(I18
I15
I3
tp4029
g2
(g6
S'[\xdc6\xa7\xa1\xf5q?'
p4030
tp4031
Rp4032
s(I7
I28
I1
tp4033
g2
(g6
S'4\xe4\xf6fV\xc9f?'
p4034
tp4035
Rp4036
s(I26
I14
I1
tp4037
g2
(g6
S'4\xe4\xf6fV\xc9f?'
p4038
tp4039
Rp4040
s(I12
I12
I15
tp4041
F1.0
s(I9
I19
I6
tp4042
g1983
s(I8
I20
I8
tp4043
g209
s(I2
I9
I4
tp4044
g1635
s(I1
I23
I2
tp4045
g2
(g6
S'4\xe4\xf6fV\xc9f?'
p4046
tp4047
Rp4048
s(I14
I0
I6
tp4049
g429
s(I16
I3
I4
tp4050
g221
s(I19
I11
I5
tp4051
g1649
s(I22
I19
I2
tp4052
g2
(g6
S'3Ie\xdc24\xa5?'
p4053
tp4054
Rp4055
s(I10
I5
I3
tp4056
g2
(g6
S'4\xe4\xf6fV\xc9f?'
p4057
tp4058
Rp4059
s(I4
I16
I8
tp4060
g304
s(I7
I7
I11
tp4061
F1.0
s(I0
I14
I12
tp4062
g429
s(I21
I9
I3
tp4063
g2007
s(I9
I27
I2
tp4064
g1850
s(I21
I21
I8
tp4065
F1.0
s(I21
I4
I8
tp4066
g374
s(I15
I3
I4
tp4067
g1681
s(I14
I25
I2
tp4068
g2
(g6
S'4\xe4\xf6fV\xc9f?'
p4069
tp4070
Rp4071
s(I12
I16
I4
tp4072
g2
(g6
S'\xc7j\xe1(\xd0C\xa5?'
p4073
tp4074
Rp4075
s(I6
I21
I8
tp4076
g200
s(I18
I7
I8
tp4077
g911
s(I2
I4
I2
tp4078
g1001
s(I7
I16
I6
tp4079
g474
s(I5
I14
I1
tp4080
g3481
s(I11
I24
I3
tp4081
g2
(g6
S'4\xe4\xf6fV\xc9f?'
p4082
tp4083
Rp4084
s(I0
I23
I4
tp4085
g1977
s(I4
I13
I9
tp4086
g494
s(I19
I5
I4
tp4087
g889
s(I22
I13
I2
tp4088
g2741
s(I24
I0
I4
tp4089
g2
(g6
S'4\xe4\xf6fV\xc9f?'
p4090
tp4091
Rp4092
s(I17
I3
I5
tp4093
g1587
s(I25
I13
I2
tp4094
g2
(g6
S'4\xe4\xf6fV\xc9f?'
p4095
tp4096
Rp4097
s(I9
I24
I4
tp4098
g1732
s(I13
I26
I1
tp4099
g2782
s(I12
I6
I5
tp4100
g1147
s(I15
I12
I2
tp4101
g2747
s(I3
I18
I3
tp4102
g2
(g6
S'4\xe4\xf6fV\xc9f?'
p4103
tp4104
Rp4105
s(I24
I2
I1
tp4106
g3089
s(I1
I19
I7
tp4107
g1107
s(I17
I6
I7
tp4108
g204
s(I5
I16
I5
tp4109
g824
s(I4
I8
I1
tp4110
g2
(g6
S'\x08\r>V\xf1\x03\xee?'
p4111
tp4112
Rp4113
s(I24
I14
I5
tp4114
g1765
s(I13
I1
I11
tp4115
g615
s(I22
I0
I4
tp4116
g1770
s(I10
I18
I7
tp4117
g1197
s(I3
I13
I9
tp4118
g296
s(I19
I7
I7
tp4119
g553
s(I0
I10
I1
tp4120
g2
(g6
S'4\xe4\xf6fV\xc9f?'
p4121
tp4122
Rp4123
s(I15
I18
I1
tp4124
g2
(g6
S'\xa3\xbc\x19c\xa6\xa7\xd0?'
p4125
tp4126
Rp4127
s(I20
I27
I2
tp4128
g2
(g6
S'\xf0\x19\xba\x97\xaa{\xbf?'
p4129
tp4130
Rp4131
s(I23
I13
I6
tp4132
g1761
s(I19
I16
I3
tp4133
g1417
s(I12
I20
I1
tp4134
g2
(g6
S'\xd4[\x8aRKC\x95?'
p4135
tp4136
Rp4137
s(I11
I4
I1
tp4138
g2882
s(I20
I10
I2
tp4139
g2
(g6
S'\xe0\xc1k/\xd0\x01\x82?'
p4140
tp4141
Rp4142
s(I1
I16
I3
tp4143
g153
s(I14
I3
I7
tp4144
g3584
s(I16
I2
I7
tp4145
g795
s(I19
I8
I4
tp4146
g1821
s(I23
I14
I1
tp4147
g928
s(I24
I17
I1
tp4148
g3134
s(I13
I13
I10
tp4149
F1.0
s(I0
I24
I2
tp4150
g1791
s(I3
I14
I5
tp4151
g3584
s(I0
I13
I13
tp4152
g629
s(I5
I16
I9
tp4153
g824
s(I21
I10
I2
tp4154
g2973
s(I9
I20
I3
tp4155
g3796
s(I0
I19
I10
tp4156
g1056
s(I15
I0
I5
tp4157
g249
s(I14
I24
I1
tp4158
g2
(g6
S'4\xe4\xf6fV\xc9f?'
p4159
tp4160
Rp4161
s(I12
I23
I5
tp4162
g2121
s(I17
I8
I6
tp4163
g1864
s(I2
I7
I3
tp4164
g2
(g6
S'\x08\r>V\xf1\x03\xee?'
p4165
tp4166
Rp4167
s(I20
I6
I3
tp4168
g2
(g6
S'4\xe4\xf6fV\xc9f?'
p4169
tp4170
Rp4171
s(I18
I8
I10
tp4172
g1090
s(I0
I22
I7
tp4173
g1770
s(I4
I12
I6
tp4174
g1882
s(I4
I25
I1
tp4175
g2
(g6
S'4\xe4\xf6fV\xc9f?'
p4176
tp4177
Rp4178
s(I22
I12
I1
tp4179
g2
(g6
S'\x8dt\xb6\x81\xdd\xb4\xd4?'
p4180
tp4181
Rp4182
s(I21
I28
I1
tp4183
g2
(g6
S'4\xe4\xf6fV\xc9f?'
p4184
tp4185
Rp4186
s(I0
I0
I21
tp4187
F1.0
s(I7
I17
I9
tp4188
g590
s(I12
I5
I4
tp4189
g78
s(I6
I6
I8
tp4190
F1.0
s(I18
I18
I1
tp4191
F1.0
s(I14
I2
I9
tp4192
g545
s(I26
I23
I3
tp4193
g1711
s(I23
I18
I3
tp4194
g2332
s(I5
I17
I6
tp4195
g433
s(I3
I13
I5
tp4196
g296
s(I24
I13
I4
tp4197
g2
(g6
S'4\xe4\xf6fV\xc9f?'
p4198
tp4199
Rp4200
s(I24
I26
I2
tp4201
g2
(g6
S'7\x8d\xabXt(\xb4?'
p4202
tp4203
Rp4204
s(I13
I2
I10
tp4205
g1103
s(I22
I3
I5
tp4206
g1139
s(I24
I2
I5
tp4207
g1528
s(I21
I18
I1
tp4208
g2056
s(I27
I24
I2
tp4209
g2
(g6
S'4\xe4\xf6fV\xc9f?'
p4210
tp4211
Rp4212
s(I15
I19
I2
tp4213
g2
(g6
S'\xd0\x8b\x9f$\xc9\x9dk?'
p4214
tp4215
Rp4216
s(I3
I1
I1
tp4217
g2
(g6
S'\x08\r>V\xf1\x03\xee?'
p4218
tp4219
Rp4220
s(I20
I26
I1
tp4221
g578
s(I8
I8
I4
tp4222
F1.0
s(I24
I4
I5
tp4223
g760
s(I7
I16
I7
tp4224
g474
s(I26
I0
I3
tp4225
g3070
s(I11
I5
I6
tp4226
g1265
s(I14
I9
I1
tp4227
g2
(g6
S'4\xe4\xf6fV\xc9f?'
p4228
tp4229
Rp4230
s(I2
I11
I6
tp4231
g1965
s(I20
I16
I4
tp4232
g2
(g6
S'\xe6\x8f\x00\xf2\xb3\xd1\xa2?'
p4233
tp4234
Rp4235
s(I16
I1
I6
tp4236
g599
s(I10
I10
I14
tp4237
F1.0
s(I23
I15
I2
tp4238
g3465
s(I10
I7
I1
tp4239
g3526
s(I28
I6
I1
tp4240
g2
(g6
S'4\xe4\xf6fV\xc9f?'
p4241
tp4242
Rp4243
s(I27
I22
I1
tp4244
g2
(g6
S'Y\x9f\xec\xc1\xde\xf9\x88?'
p4245
tp4246
Rp4247
s(I0
I7
I3
tp4248
g2
(g6
S'\x08\r>V\xf1\x03\xee?'
p4249
tp4250
Rp4251
s(I26
I1
I3
tp4252
g2
(g6
S'4\xe4\xf6fV\xc9f?'
p4253
tp4254
Rp4255
s(I21
I16
I4
tp4256
g1117
s(I0
I12
I10
tp4257
g176
s(I7
I16
I2
tp4258
g2
(g6
S'4\xe4\xf6fV\xc9f?'
p4259
tp4260
Rp4261
s(I1
I16
I13
tp4262
g599
s(I24
I26
I1
tp4263
g3534
s(I15
I1
I2
tp4264
g2
(g6
S'4\xe4\xf6fV\xc9f?'
p4265
tp4266
Rp4267
s(I17
I6
I4
tp4268
g204
s(I12
I22
I6
tp4269
g24
s(I17
I9
I5
tp4270
g582
s(I1
I15
I14
tp4271
g799
s(I20
I5
I2
tp4272
g3124
s(I17
I11
I5
tp4273
g820
s(I15
I7
I5
tp4274
g2
(g6
S'4\xe4\xf6fV\xc9f?'
p4275
tp4276
Rp4277
s(I0
I21
I6
tp4278
g511
s(I11
I11
I9
tp4279
F1.0
s(I7
I6
I1
tp4280
g2237
s(I9
I7
I1
tp4281
g2
(g6
S'\x08\r>V\xf1\x03\xee?'
p4282
tp4283
Rp4284
s(I13
I17
I4
tp4285
g2
(g6
S'y\xf5/\x96e\xac\x8f?'
p4286
tp4287
Rp4288
s(I15
I2
I12
tp4289
g1524
s(I3
I16
I1
tp4290
g2
(g6
S'4\xe4\xf6fV\xc9f?'
p4291
tp4292
Rp4293
s(I25
I8
I3
tp4294
g3476
s(I20
I11
I1
tp4295
g284
s(I25
I20
I2
tp4296
g2
(g6
S'4\xe4\xf6fV\xc9f?'
p4297
tp4298
Rp4299
s(I20
I0
I8
tp4300
g225
s(I14
I5
I4
tp4301
g470
s(I3
I15
I10
tp4302
g1681
s(I17
I27
I1
tp4303
g2
(g6
S'4\xe4\xf6fV\xc9f?'
p4304
tp4305
Rp4306
s(I16
I13
I1
tp4307
g681
s(I5
I18
I7
tp4308
g561
s(I4
I14
I3
tp4309
g2
(g6
S'4\xe4\xf6fV\xc9f?'
p4310
tp4311
Rp4312
s(I22
I25
I3
tp4313
g2
(g6
S'\x15\xf7\xf4G\xff\x11\xd7?'
p4314
tp4315
Rp4316
s(I24
I12
I3
tp4317
g2423
s(I24
I1
I4
tp4318
g1368
s(I21
I15
I2
tp4319
g2
(g6
S'\xa3+\xb9\x07\xd5\xb7\x9a?'
p4320
tp4321
Rp4322
s(I6
I4
I1
tp4323
g2
(g6
S'\x08\r>V\xf1\x03\xee?'
p4324
tp4325
Rp4326
s(I15
I5
I7
tp4327
g325
s(I16
I3
I9
tp4328
g221
s(I26
I3
I2
tp4329
g2
(g6
S'4\xe4\xf6fV\xc9f?'
p4330
tp4331
Rp4332
s(I25
I25
I4
tp4333
F1.0
s(I14
I8
I2
tp4334
g2
(g6
S'4\xe4\xf6fV\xc9f?'
p4335
tp4336
Rp4337
s(I2
I10
I1
tp4338
g1501
s(I1
I18
I1
tp4339
g2
(g6
S'4\xe4\xf6fV\xc9f?'
p4340
tp4341
Rp4342
s(I19
I19
I1
tp4343
F1.0
s(I15
I6
I5
tp4344
g2708
s(I16
I0
I9
tp4345
g343
s(I19
I6
I10
tp4346
g57
s(I23
I12
I3
tp4347
g2
(g6
S'4\xe4\xf6fV\xc9f?'
p4348
tp4349
Rp4350
s(I12
I12
I11
tp4351
F1.0
s(I0
I17
I9
tp4352
g1155
s(I13
I0
I1
tp4353
g2895
s(I10
I19
I9
tp4354
g2692
s(I3
I12
I7
tp4355
g356
s(I9
I3
I6
tp4356
g2139
s(I3
I3
I6
tp4357
F1.0
s(I21
I12
I4
tp4358
g386
s(I9
I22
I1
tp4359
g2
(g6
S'4\xe4\xf6fV\xc9f?'
p4360
tp4361
Rp4362
s(I1
I10
I9
tp4363
g98
s(I26
I21
I1
tp4364
g2
(g6
S'4\xe4\xf6fV\xc9f?'
p4365
tp4366
Rp4367
s(I15
I6
I3
tp4368
g2
(g6
S'4\xe4\xf6fV\xc9f?'
p4369
tp4370
Rp4371
s(I17
I7
I3
tp4372
g828
s(I12
I21
I7
tp4373
g386
s(I17
I10
I4
tp4374
g1902
s(I0
I19
I7
tp4375
g1056
s(I6
I27
I2
tp4376
g2
(g6
S'4\xe4\xf6fV\xc9f?'
p4377
tp4378
Rp4379
s(I16
I4
I11
tp4380
g304
s(I25
I16
I3
tp4381
g2
(g6
S'4\xe4\xf6fV\xc9f?'
p4382
tp4383
Rp4384
s(I0
I20
I1
tp4385
g3971
s(I22
I5
I6
tp4386
g2182
s(I26
I15
I3
tp4387
g2
(g6
S'\xe3\x03\xdd\x10\xea\xbej?'
p4388
tp4389
Rp4390
s(I9
I0
I9
tp4391
g742
s(I22
I14
I7
tp4392
g1564
s(I7
I7
I2
tp4393
F1.0
s(I27
I5
I2
tp4394
g2
(g6
S'4\xe4\xf6fV\xc9f?'
p4395
tp4396
Rp4397
s(I19
I1
I8
tp4398
g1107
s(I6
I21
I1
tp4399
g3918
s(I8
I24
I1
tp4400
g2
(g6
S'4\xe4\xf6fV\xc9f?'
p4401
tp4402
Rp4403
s(I23
I16
I1
tp4404
g2
(g6
S'4\xe4\xf6fV\xc9f?'
p4405
tp4406
Rp4407
s(I11
I14
I2
tp4408
g2
(g6
S'\xb6\x0e\xf8\x8f=i\xb2?'
p4409
tp4410
Rp4411
s(I20
I7
I9
tp4412
g2551
s(I14
I4
I7
tp4413
g2051
s(I2
I14
I6
tp4414
g545
s(I0
I8
I8
tp4415
g1568
s(I13
I1
I3
tp4416
g2
(g6
S'4\xe4\xf6fV\xc9f?'
p4417
tp4418
Rp4419
s(I19
I2
I1
tp4420
g2605
s(I4
I13
I2
tp4421
g2
(g6
S'4\xe4\xf6fV\xc9f?'
p4422
tp4423
Rp4424
s(I3
I14
I9
tp4425
g3584
s(I24
I11
I2
tp4426
g2
(g6
S'4\xe4\xf6fV\xc9f?'
p4427
tp4428
Rp4429
s(I10
I23
I4
tp4430
g3713
s(I19
I7
I8
tp4431
g553
s(I20
I8
I4
tp4432
g209
s(I7
I21
I2
tp4433
g1829
s(I12
I12
I5
tp4434
F1.0
s(I12
I25
I2
tp4435
g2704
s(I11
I3
I4
tp4436
g2251
s(I14
I11
I3
tp4437
g2205
s(I5
I5
I1
tp4438
F1.0
s(I17
I5
I10
tp4439
g433
s(I19
I7
I9
tp4440
g553
s(I0
I16
I6
tp4441
g343
s(I13
I1
I2
tp4442
g2
(g6
S'4\xe4\xf6fV\xc9f?'
p4443
tp4444
Rp4445
s(I0
I5
I1
tp4446
g2
(g6
S'\x08\r>V\xf1\x03\xee?'
p4447
tp4448
Rp4449
s(I4
I19
I2
tp4450
g2
(g6
S'4\xe4\xf6fV\xc9f?'
p4451
tp4452
Rp4453
s(I22
I10
I4
tp4454
g145
s(I0
I10
I8
tp4455
g557
s(I3
I3
I17
tp4456
F1.0
s(I12
I2
I10
tp4457
g102
s(I7
I22
I4
tp4458
g902
s(I9
I23
I6
tp4459
g2289
s(I12
I15
I1
tp4460
g2
(g6
S'\x84\xe3\xd1F\xc0p\xba?'
p4461
tp4462
Rp4463
s(I18
I24
I4
tp4464
g2
(g6
S'~\x16\x02\xe5\x11M\x81?'
p4465
tp4466
Rp4467
s(I17
I0
I2
tp4468
g2
(g6
S'4\xe4\xf6fV\xc9f?'
p4469
tp4470
Rp4471
s(I12
I20
I8
tp4472
g932
s(I15
I0
I9
tp4473
g249
s(I16
I3
I10
tp4474
g221
s(I25
I4
I1
tp4475
g4178
s(I16
I8
I3
tp4476
g2
(g6
S'4\xe4\xf6fV\xc9f?'
p4477
tp4478
Rp4479
s(I1
I13
I6
tp4480
g615
s(I5
I23
I5
tp4481
g3609
s(I22
I4
I5
tp4482
g33
s(I22
I9
I6
tp4483
g1886
s(I7
I4
I3
tp4484
g2
(g6
S'\x08\r>V\xf1\x03\xee?'
p4485
tp4486
Rp4487
s(I9
I1
I3
tp4488
g2
(g6
S'4\xe4\xf6fV\xc9f?'
p4489
tp4490
Rp4491
s(I13
I19
I2
tp4492
g2
(g6
S'\xd0\x8b\x9f$\xc9\x9dk?'
p4493
tp4494
Rp4495
s(I15
I21
I1
tp4496
g2092
s(I2
I17
I2
tp4497
g2
(g6
S'4\xe4\xf6fV\xc9f?'
p4498
tp4499
Rp4500
s(I18
I23
I2
tp4501
g2
(g6
S'\x8b\xda\x95\x8e\x1c\xbc\x93?'
p4502
tp4503
Rp4504
s(I6
I20
I2
tp4505
g2
(g6
S'4\xe4\xf6fV\xc9f?'
p4506
tp4507
Rp4508
s(I26
I6
I2
tp4509
g2
(g6
S'4\xe4\xf6fV\xc9f?'
p4510
tp4511
Rp4512
s(I11
I15
I1
tp4513
g2
(g6
S'\xc0\xab@#\x8aF\xa9?'
p4514
tp4515
Rp4516
s(I14
I7
I6
tp4517
g2348
s(I16
I6
I4
tp4518
g769
s(I25
I22
I3
tp4519
g4316
s(I19
I3
I2
tp4520
g2
(g6
S'4\xe4\xf6fV\xc9f?'
p4521
tp4522
Rp4523
s(I22
I27
I1
tp4524
g4247
s(I24
I10
I1
tp4525
g2
(g6
S'4\xe4\xf6fV\xc9f?'
p4526
tp4527
Rp4528
s(I6
I21
I6
tp4529
g200
s(I0
I0
I28
tp4530
F1.0
s(I3
I9
I5
tp4531
g2139
s(I18
I9
I1
tp4532
g3628
s(I7
I26
I3
tp4533
g1043
s(I9
I19
I3
tp4534
g1448
s(I12
I19
I4
tp4535
g2357
s(I12
I24
I5
tp4536
g416
s(I11
I0
I5
tp4537
g74
s(I2
I12
I3
tp4538
g2
(g6
S'4\xe4\xf6fV\xc9f?'
p4539
tp4540
Rp4541
s(I24
I24
I2
tp4542
F1.0
s(I19
I4
I8
tp4543
g90
s(I24
I0
I5
tp4544
g4092
s(I13
I2
I3
tp4545
g2
(g6
S'4\xe4\xf6fV\xc9f?'
p4546
tp4547
Rp4548
s(I10
I20
I8
tp4549
g490
s(I4
I18
I1
tp4550
g1944
s(I3
I10
I1
tp4551
g2
(g6
S'4\xe4\xf6fV\xc9f?'
p4552
tp4553
Rp4554
s(I21
I19
I1
tp4555
g2
(g6
S'4\xe4\xf6fV\xc9f?'
p4556
tp4557
Rp4558
s(I0
I9
I9
tp4559
g742
s(I12
I1
I11
tp4560
g412
s(I21
I14
I6
tp4561
g149
s(I9
I16
I7
tp4562
g2419
s(I8
I8
I11
tp4563
F1.0
s(I12
I14
I2
tp4564
g2
(g6
S'(]\xd9K,\x7f\xdd?'
p4565
tp4566
Rp4567
s(I15
I4
I1
tp4568
g1931
s(I17
I1
I1
tp4569
g2
(g6
S'4\xe4\xf6fV\xc9f?'
p4570
tp4571
Rp4572
s(I5
I8
I3
tp4573
g2
(g6
S'4\xe4\xf6fV\xc9f?'
p4574
tp4575
Rp4576
s(I10
I22
I5
tp4577
g145
s(I16
I2
I9
tp4578
g795
s(I25
I5
I2
tp4579
g2
(g6
S'4\xe4\xf6fV\xc9f?'
p4580
tp4581
Rp4582
s(I10
I10
I5
tp4583
F1.0
s(I28
I25
I1
tp4584
g2
(g6
S'4\xe4\xf6fV\xc9f?'
p4585
tp4586
Rp4587
s(I16
I23
I2
tp4588
g2201
s(I1
I14
I7
tp4589
g786
s(I0
I18
I3
tp4590
g2
(g6
S'4\xe4\xf6fV\xc9f?'
p4591
tp4592
Rp4593
s(I4
I0
I2
tp4594
g3391
s(I22
I7
I4
tp4595
g902
s(I6
I10
I4
tp4596
g2
(g6
S'4\xe4\xf6fV\xc9f?'
p4597
tp4598
Rp4599
s(I22
I8
I5
tp4600
g811
s(I1
I1
I12
tp4601
F1.0
s(I9
I2
I2
tp4602
g2
(g6
S'4\xe4\xf6fV\xc9f?'
p4603
tp4604
Rp4605
s(I13
I20
I3
tp4606
g2
(g6
S'3\xfb@\xad\xa0\xf7\x83?'
p4607
tp4608
Rp4609
s(I10
I0
I9
tp4610
g557
s(I2
I16
I1
tp4611
g2
(g6
S'4\xe4\xf6fV\xc9f?'
p4612
tp4613
Rp4614
s(I6
I2
I4
tp4615
g1479
s(I15
I1
I9
tp4616
g799
s(I6
I23
I3
tp4617
g2
(g6
S'4\xe4\xf6fV\xc9f?'
p4618
tp4619
Rp4620
s(I8
I22
I3
tp4621
g2
(g6
S'4\xe4\xf6fV\xc9f?'
p4622
tp4623
Rp4624
s(I14
I6
I1
tp4625
g2
(g6
S'4\xe4\xf6fV\xc9f?'
p4626
tp4627
Rp4628
s(I16
I5
I5
tp4629
g824
s(I1
I24
I2
tp4630
g2
(g6
S'4\xe4\xf6fV\xc9f?'
p4631
tp4632
Rp4633
s(I16
I10
I4
tp4634
g2870
s(I5
I21
I2
tp4635
g2
(g6
S'4\xe4\xf6fV\xc9f?'
p4636
tp4637
Rp4638
s(I0
I0
I25
tp4639
F1.0
s(I10
I28
I1
tp4640
g3494
s(I9
I12
I1
tp4641
g2
(g6
S'4\xe4\xf6fV\xc9f?'
p4642
tp4643
Rp4644
s(I27
I17
I1
tp4645
g4306
s(I0
I0
I3
tp4646
F1.0
s(I3
I9
I2
tp4647
g2
(g6
S'4\xe4\xf6fV\xc9f?'
p4648
tp4649
Rp4650
s(I1
I1
I27
tp4651
F1.0
s(I18
I8
I2
tp4652
g1435
s(I21
I2
I1
tp4653
g2
(g6
S'4\xe4\xf6fV\xc9f?'
p4654
tp4655
Rp4656
s(I3
I16
I10
tp4657
g221
s(I5
I18
I11
tp4658
g561
s(I2
I2
I13
tp4659
F1.0
s(I11
I1
I10
tp4660
g275
s(I17
I16
I1
tp4661
g1715
s(I2
I15
I2
tp4662
g2
(g6
S'4\xe4\xf6fV\xc9f?'
p4663
tp4664
Rp4665
s(I1
I11
I8
tp4666
g275
s(I10
I14
I2
tp4667
g2
(g6
S'\xa8\xdf^e\xc35\xd0?'
p4668
tp4669
Rp4670
s(I5
I18
I8
tp4671
g561
s(I4
I4
I7
tp4672
F1.0
s(I13
I3
I4
tp4673
g296
s(I1
I15
I13
tp4674
g799
s(I3
I11
I2
tp4675
g2
(g6
S'4\xe4\xf6fV\xc9f?'
p4676
tp4677
Rp4678
s(I7
I9
I1
tp4679
g4284
s(I12
I0
I12
tp4680
g176
s(I7
I20
I6
tp4681
g2551
s(I9
I17
I4
tp4682
g582
s(I12
I12
I12
tp4683
F1.0
s(I18
I26
I2
tp4684
g2
(g6
S'DLt\x1b=?\xa9?'
p4685
tp4686
Rp4687
s(I2
I1
I1
tp4688
g670
s(I20
I12
I1
tp4689
g4137
s(I19
I28
I1
tp4690
g1443
s(I23
I26
I2
tp4691
g2
(g6
S'\xd80\xff\x8b\n\xc7\xc4?'
p4692
tp4693
Rp4694
s(I25
I19
I4
tp4695
g2
(g6
S'\xddc+\xc3\xe3L\xa1?'
p4696
tp4697
Rp4698
s(I14
I2
I6
tp4699
g545
s(I16
I1
I8
tp4700
g599
s(I25
I6
I3
tp4701
g2
(g6
S'4\xe4\xf6fV\xc9f?'
p4702
tp4703
Rp4704
s(I16
I22
I1
tp4705
g2
(g6
S'*7\x14G\xad!\xbf?'
p4706
tp4707
Rp4708
s(I0
I17
I2
tp4709
g4471
s(I4
I7
I3
tp4710
g4487
s(I22
I6
I3
tp4711
g2
(g6
S'4\xe4\xf6fV\xc9f?'
p4712
tp4713
Rp4714
s(I22
I11
I4
tp4715
g2502
s(I18
I8
I8
tp4716
g1090
s(I27
I0
I1
tp4717
g20
s(I25
I14
I3
tp4718
g1685
s(I15
I11
I3
tp4719
g2
(g6
S'\xdc\xfd\xa7\x028\xc4\xda?'
p4720
tp4721
Rp4722
s(I3
I25
I2
tp4723
g2
(g6
S'4\xe4\xf6fV\xc9f?'
p4724
tp4725
Rp4726
s(I6
I13
I5
tp4727
g970
s(I8
I0
I5
tp4728
g1568
s(I6
I22
I4
tp4729
g980
s(I8
I21
I2
tp4730
g2
(g6
S'4\xe4\xf6fV\xc9f?'
p4731
tp4732
Rp4733
s(I23
I23
I4
tp4734
F1.0
s(I10
I16
I3
tp4735
g832
s(I16
I4
I2
tp4736
g1083
s(I1
I25
I1
tp4737
g2
(g6
S'4\xe4\xf6fV\xc9f?'
p4738
tp4739
Rp4740
s(I8
I16
I8
tp4741
g611
s(I16
I9
I5
tp4742
g2419
s(I1
I12
I10
tp4743
g412
s(I5
I22
I3
tp4744
g3560
s(I5
I5
I22
tp4745
F1.0
s(I19
I1
I6
tp4746
g1107
s(I9
I13
I2
tp4747
g2891
s(I13
I7
I1
tp4748
g3957
s(I0
I15
I2
tp4749
g3322
s(I2
I12
I4
tp4750
g102
s(I11
I3
I6
tp4751
g2251
s(I7
I13
I6
tp4752
g1013
s(I18
I11
I3
tp4753
g2
(g6
S'v\xe1\x97\xf3\xce1}?'
p4754
tp4755
Rp4756
s(I7
I24
I1
tp4757
g2
(g6
S'4\xe4\xf6fV\xc9f?'
p4758
tp4759
Rp4760
s(I6
I0
I5
tp4761
g2
(g6
S'4\xe4\xf6fV\xc9f?'
p4762
tp4763
Rp4764
s(I8
I3
I1
tp4765
g2
(g6
S'\x08\r>V\xf1\x03\xee?'
p4766
tp4767
Rp4768
s(I26
I10
I1
tp4769
g2
(g6
S'4\xe4\xf6fV\xc9f?'
p4770
tp4771
Rp4772
s(I17
I17
I2
tp4773
F1.0
s(I10
I1
I3
tp4774
g2
(g6
S'4\xe4\xf6fV\xc9f?'
p4775
tp4776
Rp4777
s(I7
I20
I9
tp4778
g2551
s(I1
I11
I5
tp4779
g275
s(I13
I4
I5
tp4780
g494
s(I4
I16
I7
tp4781
g304
s(I3
I8
I3
tp4782
g2
(g6
S'4\xe4\xf6fV\xc9f?'
p4783
tp4784
Rp4785
s(I21
I21
I3
tp4786
F1.0
s(I15
I15
I6
tp4787
F1.0
s(I21
I0
I8
tp4788
g511
s(I9
I18
I5
tp4789
g2688
s(I2
I0
I2
tp4790
g2
(g6
S'\x08\r>V\xf1\x03\xee?'
p4791
tp4792
Rp4793
s(I6
I18
I1
tp4794
g2
(g6
S'4\xe4\xf6fV\xc9f?'
p4795
tp4796
Rp4797
s(I5
I10
I1
tp4798
g2
(g6
S'4\xe4\xf6fV\xc9f?'
p4799
tp4800
Rp4801
s(I23
I27
I1
tp4802
g352
s(I2
I23
I5
tp4803
g321
s(I5
I5
I8
tp4804
F1.0
s(I16
I0
I7
tp4805
g343
s(I25
I7
I4
tp4806
g2
(g6
S'4\xe4\xf6fV\xc9f?'
p4807
tp4808
Rp4809
s(I1
I8
I1
tp4810
g2
(g6
S'\x08\r>V\xf1\x03\xee?'
p4811
tp4812
Rp4813
s(I0
I16
I13
tp4814
g343
s(I22
I1
I2
tp4815
g3047
s(I9
I9
I15
tp4816
F1.0
s(I15
I6
I8
tp4817
g2708
s(I8
I8
I18
tp4818
F1.0
s(I18
I2
I9
tp4819
g365
s(I13
I22
I1
tp4820
g2
(g6
S':\x08\xc9\xf3\xf1\x82\xa1?'
p4821
tp4822
Rp4823
s(I15
I8
I2
tp4824
g3835
s(I3
I22
I3
tp4825
g2
(g6
S'4\xe4\xf6fV\xc9f?'
p4826
tp4827
Rp4828
s(I21
I7
I3
tp4829
g2
(g6
S'4\xe4\xf6fV\xc9f?'
p4830
tp4831
Rp4832
s(I6
I12
I6
tp4833
g1147
s(I7
I19
I9
tp4834
g553
s(I6
I17
I5
tp4835
g204
s(I8
I20
I5
tp4836
g209
s(I14
I0
I3
tp4837
g2
(g6
S'4\xe4\xf6fV\xc9f?'
p4838
tp4839
Rp4840
s(I16
I3
I3
tp4841
g2
(g6
S'4\xe4\xf6fV\xc9f?'
p4842
tp4843
Rp4844
s(I1
I13
I9
tp4845
g615
s(I13
I13
I15
tp4846
F1.0
s(I9
I14
I3
tp4847
g2
(g6
S'\x87M\x1a6\x13+\x9a?'
p4848
tp4849
Rp4850
s(I7
I7
I20
tp4851
F1.0
s(I0
I14
I1
tp4852
g2
(g6
S'4\xe4\xf6fV\xc9f?'
p4853
tp4854
Rp4855
s(I4
I20
I4
tp4856
g3056
s(I21
I9
I4
tp4857
g188
s(I18
I10
I4
tp4858
g1197
s(I21
I4
I7
tp4859
g374
s(I4
I20
I7
tp4860
g3056
s(I8
I2
I2
tp4861
g3296
s(I12
I16
I1
tp4862
g482
s(I10
I18
I5
tp4863
g1197
s(I1
I20
I3
tp4864
g2951
s(I19
I25
I3
tp4865
g2570
s(I12
I1
I6
tp4866
g412
s(I23
I10
I1
tp4867
g498
s(I25
I3
I1
tp4868
g2601
s(I24
I21
I1
tp4869
g2
(g6
S'4\xe4\xf6fV\xc9f?'
p4870
tp4871
Rp4872
s(I6
I20
I3
tp4873
g4171
s(I13
I5
I6
tp4874
g233
s(I18
I4
I8
tp4875
g746
s(I4
I23
I6
tp4876
g1409
s(I7
I15
I3
tp4877
g2293
s(I9
I24
I3
tp4878
g2
(g6
S'4\xe4\xf6fV\xc9f?'
p4879
tp4880
Rp4881
s(I14
I28
I1
tp4882
g2635
s(I2
I22
I4
tp4883
g1254
s(I20
I2
I3
tp4884
g2
(g6
S'4\xe4\xf6fV\xc9f?'
p4885
tp4886
Rp4887
s(I8
I16
I2
tp4888
g2302
s(I24
I15
I3
tp4889
g2
(g6
S'4\xe4\xf6fV\xc9f?'
p4890
tp4891
Rp4892
s(I5
I5
I19
tp4893
F1.0
s(I1
I9
I2
tp4894
g2316
s(I4
I5
I1
tp4895
g2
(g6
S'\x08\r>V\xf1\x03\xee?'
p4896
tp4897
Rp4898
s(I22
I0
I1
tp4899
g2
(g6
S'4\xe4\xf6fV\xc9f?'
p4900
tp4901
Rp4902
s(I21
I24
I1
tp4903
g4872
s(I14
I14
I11
tp4904
F1.0
s(I4
I18
I8
tp4905
g746
s(I18
I5
I8
tp4906
g561
s(I18
I14
I1
tp4907
g2
(g6
S'\x1d\xe1@\xf5\xb5\x0c\xea?'
p4908
tp4909
Rp4910
s(I2
I21
I6
tp4911
g863
s(I0
I6
I4
tp4912
g2653
s(I15
I4
I10
tp4913
g1413
s(I12
I20
I6
tp4914
g932
s(I11
I4
I4
tp4915
g1326
s(I6
I16
I6
tp4916
g769
s(I8
I19
I4
tp4917
g1821
s(I5
I16
I10
tp4918
g824
s(I25
I18
I4
tp4919
g2152
s(I14
I3
I2
tp4920
g1842
s(I22
I18
I2
tp4921
g2
(g6
S'u\xcd\xbd^&\xb8\xb2?'
p4922
tp4923
Rp4924
s(I1
I14
I8
tp4925
g786
s(I14
I21
I7
tp4926
g149
s(I9
I15
I4
tp4927
g253
s(I13
I9
I3
tp4928
g2
(g6
S'\x87M\x1a6\x13+\x9a?'
p4929
tp4930
Rp4931
s(I19
I0
I3
tp4932
g2
(g6
S'4\xe4\xf6fV\xc9f?'
p4933
tp4934
Rp4935
s(I18
I0
I6
tp4936
g1345
s(I3
I5
I1
tp4937
g2
(g6
S'\x08\r>V\xf1\x03\xee?'
p4938
tp4939
Rp4940
s(I7
I19
I4
tp4941
g553
s(I9
I20
I6
tp4942
g2324
s(I18
I13
I5
tp4943
g2
(g6
S"v\xb8\x07\xb3o'x?"
p4944
tp4945
Rp4946
s(I21
I5
I4
tp4947
g1217
s(I8
I1
I3
tp4948
g2
(g6
S'4\xe4\xf6fV\xc9f?'
p4949
tp4950
Rp4951
s(I26
I12
I3
tp4952
g2593
s(I14
I13
I1
tp4953
g2
(g6
S'\x01\x9a\xc7\xfa\xa1+\xd1?'
p4954
tp4955
Rp4956
s(I19
I22
I2
tp4957
g4055
s(I14
I14
I6
tp4958
F1.0
s(I23
I11
I2
tp4959
g2
(g6
S'4\xe4\xf6fV\xc9f?'
p4960
tp4961
Rp4962
s(I11
I25
I1
tp4963
g2
(g6
S'4\xe4\xf6fV\xc9f?'
p4964
tp4965
Rp4966
s(I10
I3
I1
tp4967
g4554
s(I28
I2
I1
tp4968
g2160
s(I16
I16
I4
tp4969
F1.0
s(I15
I6
I9
tp4970
g2708
s(I4
I25
I4
tp4971
g2
(g6
S'4\xe4\xf6fV\xc9f?'
p4972
tp4973
Rp4974
s(I13
I6
I7
tp4975
g970
s(I0
I0
I10
tp4976
F1.0
s(I4
I22
I5
tp4977
g33
s(I7
I12
I2
tp4978
g2683
s(I27
I10
I2
tp4979
g893
s(I6
I6
I21
tp4980
F1.0
s(I15
I13
I2
tp4981
g2
(g6
S'\xe6\x89B\xbfS\xaa\xd8?'
p4982
tp4983
Rp4984
s(I14
I3
I9
tp4985
g3584
s(I20
I20
I5
tp4986
F1.0
s(I2
I2
I4
tp4987
F1.0
s(I20
I1
I2
tp4988
g2
(g6
S'4\xe4\xf6fV\xc9f?'
p4989
tp4990
Rp4991
s(I5
I12
I7
tp4992
g78
s(I11
I23
I6
tp4993
g2
(g6
S'4\xe4\xf6fV\xc9f?'
p4994
tp4995
Rp4996
s(I1
I10
I3
tp4997
g4777
s(I7
I2
I1
tp4998
g2
(g6
S'\x08\r>V\xf1\x03\xee?'
p4999
tp5000
Rp5001
s(I9
I11
I1
tp5002
g2
(g6
S'4\xe4\xf6fV\xc9f?'
p5003
tp5004
Rp5005
s(I4
I17
I9
tp5006
g116
s(I7
I7
I14
tp5007
F1.0
s(I18
I4
I11
tp5008
g746
s(I3
I20
I1
tp5009
g2696
s(I2
I20
I5
tp5010
g129
s(I20
I23
I1
tp5011
g3672
s(I11
I5
I3
tp5012
g1493
s(I24
I17
I3
tp5013
g2
(g6
S'\x8fGGq\xf9\xc5n?'
p5014
tp5015
Rp5016
s(I8
I18
I7
tp5017
g1090
s(I21
I11
I6
tp5018
g478
s(I16
I1
I1
tp5019
g2
(g6
S'4\xe4\xf6fV\xc9f?'
p5020
tp5021
Rp5022
s(I10
I10
I11
tp5023
F1.0
s(I4
I10
I3
tp5024
g2
(g6
S'4\xe4\xf6fV\xc9f?'
p5025
tp5026
Rp5027
s(I24
I16
I3
tp5028
g898
s(I1
I23
I5
tp5029
g395
s(I0
I7
I6
tp5030
g94
s(I13
I10
I2
tp5031
g2
(g6
S'p\xc5\xf9\xe1\x1d\x9a\x91?'
p5032
tp5033
Rp5034
s(I0
I12
I7
tp5035
g176
s(I18
I3
I7
tp5036
g280
s(I21
I11
I2
tp5037
g2
(g6
S'\xafG\x0b\xfc/\xae\xa4?'
p5038
tp5039
Rp5040
s(I9
I21
I5
tp5041
g188
s(I20
I15
I5
tp5042
g1027
s(I21
I6
I5
tp5043
g200
s(I26
I15
I2
tp5044
g2225
s(I14
I12
I2
tp5045
g4567
s(I2
I6
I1
tp5046
g2
(g6
S'\x08\r>V\xf1\x03\xee?'
p5047
tp5048
Rp5049
s(I1
I22
I1
tp5050
g2
(g6
S'4\xe4\xf6fV\xc9f?'
p5051
tp5052
Rp5053
s(I5
I0
I2
tp5054
g2274
s(I14
I1
I9
tp5055
g786
s(I23
I8
I3
tp5056
g2
(g6
S'4\xe4\xf6fV\xc9f?'
p5057
tp5058
Rp5059
s(I9
I18
I8
tp5060
g2688
s(I10
I2
I6
tp5061
g229
s(I2
I13
I8
tp5062
g1103
s(I4
I24
I3
tp5063
g2731
s(I0
I15
I11
tp5064
g249
s(I7
I25
I3
tp5065
g2
(g6
S'4\xe4\xf6fV\xc9f?'
p5066
tp5067
Rp5068
s(I9
I26
I1
tp5069
g3632
s(I27
I11
I1
tp5070
g2
(g6
S'Nw=ke2\x95?'
p5071
tp5072
Rp5073
s(I26
I17
I1
tp5074
g2
(g6
S'4\xe4\xf6fV\xc9f?'
p5075
tp5076
Rp5077
s(I15
I2
I3
tp5078
g2523
s(I20
I11
I4
tp5079
g262
s(I19
I1
I9
tp5080
g1107
s(I20
I0
I5
tp5081
g225
s(I5
I13
I4
tp5082
g233
s(I11
I20
I7
tp5083
g262
s(I10
I1
I8
tp5084
g98
s(I14
I6
I8
tp5085
g666
s(I13
I3
I10
tp5086
g296
s(I7
I3
I2
tp5087
g3953
s(I27
I25
I2
tp5088
g1914
s(I0
I8
I4
tp5089
g1568
s(I18
I7
I10
tp5090
g911
s(I7
I20
I8
tp5091
g2551
s(I15
I15
I7
tp5092
F1.0
s(I2
I20
I4
tp5093
g129
s(I2
I23
I4
tp5094
g321
s(I6
I9
I1
tp5095
g2
(g6
S'\x08\r>V\xf1\x03\xee?'
p5096
tp5097
Rp5098
s(I8
I28
I1
tp5099
g2
(g6
S'4\xe4\xf6fV\xc9f?'
p5100
tp5101
Rp5102
s(I15
I1
I14
tp5103
g799
s(I25
I25
I1
tp5104
F1.0
s(I6
I18
I8
tp5105
g595
s(I8
I17
I6
tp5106
g1864
s(I17
I5
I7
tp5107
g433
s(I19
I6
I1
tp5108
g2
(g6
S'4\xe4\xf6fV\xc9f?'
p5109
tp5110
Rp5111
s(I4
I9
I2
tp5112
g2
(g6
S'4\xe4\xf6fV\xc9f?'
p5113
tp5114
Rp5115
s(I24
I15
I2
tp5116
g2
(g6
S'4\xe4\xf6fV\xc9f?'
p5117
tp5118
Rp5119
s(I13
I0
I4
tp5120
g629
s(I0
I14
I11
tp5121
g429
s(I0
I6
I5
tp5122
g4764
s(I9
I9
I6
tp5123
F1.0
s(I6
I20
I5
tp5124
g660
s(I0
I11
I6
tp5125
g74
s(I14
I6
I6
tp5126
g666
s(I3
I3
I3
tp5127
F1.0
s(I7
I17
I2
tp5128
g2156
s(I9
I22
I4
tp5129
g1886
s(I0
I21
I5
tp5130
g511
s(I12
I21
I2
tp5131
g2
(g6
S'#e\x04\xa8\xb5\n\xa2?'
p5132
tp5133
Rp5134
s(I20
I4
I2
tp5135
g2
(g6
S'4\xe4\xf6fV\xc9f?'
p5136
tp5137
Rp5138
s(I5
I1
I1
tp5139
g4015
s(I23
I2
I5
tp5140
g321
s(I5
I24
I1
tp5141
g1455
s(I23
I9
I4
tp5142
g2289
s(I24
I18
I4
tp5143
g4467
s(I0
I25
I1
tp5144
g3747
s(I4
I12
I8
tp5145
g1882
s(I7
I7
I15
tp5146
F1.0
s(I0
I14
I8
tp5147
g429
s(I0
I19
I9
tp5148
g1056
s(I12
I11
I1
tp5149
g2476
s(I17
I4
I2
tp5150
g2
(g6
S'4\xe4\xf6fV\xc9f?'
p5151
tp5152
Rp5153
s(I21
I8
I7
tp5154
g984
s(I6
I21
I4
tp5155
g200
s(I5
I21
I7
tp5156
g1217
s(I23
I16
I4
tp5157
g462
s(I20
I7
I4
tp5158
g2551
s(I5
I14
I5
tp5159
g470
s(I2
I14
I11
tp5160
g545
s(I25
I8
I1
tp5161
g2
(g6
S'4\xe4\xf6fV\xc9f?'
p5162
tp5163
Rp5164
s(I16
I12
I3
tp5165
g2173
s(I8
I18
I9
tp5166
g1090
s(I7
I0
I3
tp5167
g4251
s(I9
I5
I3
tp5168
g2565
s(I13
I15
I2
tp5169
g4984
s(I21
I3
I6
tp5170
g317
s(I15
I17
I1
tp5171
g2
(g6
S'\xb2\x80\t\x95\xf7\x05\xd5?'
p5172
tp5173
Rp5174
s(I21
I0
I6
tp5175
g511
s(I11
I11
I18
tp5176
F1.0
s(I3
I18
I7
tp5177
g280
s(I6
I8
I2
tp5178
g2
(g6
S'\x08\r>V\xf1\x03\xee?'
p5179
tp5180
Rp5181
s(I26
I2
I2
tp5182
g2
(g6
S'4\xe4\xf6fV\xc9f?'
p5183
tp5184
Rp5185
s(I11
I3
I1
tp5186
g907
s(I1
I19
I3
tp5187
g2
(g6
S'4\xe4\xf6fV\xc9f?'
p5188
tp5189
Rp5190
s(I17
I25
I3
tp5191
g2
(g6
S'p\x80\x14\xcb\xef\xc2\x80?'
p5192
tp5193
Rp5194
s(I19
I7
I2
tp5195
g1846
s(I23
I13
I1
tp5196
g1290
s(I10
I25
I2
tp5197
g2
(g6
S'4\xe4\xf6fV\xc9f?'
p5198
tp5199
Rp5200
s(I13
I1
I7
tp5201
g615
s(I0
I5
I4
tp5202
g2
(g6
S'\x08\r>V\xf1\x03\xee?'
p5203
tp5204
Rp5205
s(I0
I10
I5
tp5206
g557
s(I18
I5
I1
tp5207
g2
(g6
S'4\xe4\xf6fV\xc9f?'
p5208
tp5209
Rp5210
s(I3
I0
I2
tp5211
g2
(g6
S'\x08\r>V\xf1\x03\xee?'
p5212
tp5213
Rp5214
s(I7
I22
I3
tp5215
g2849
s(I9
I23
I3
tp5216
g2
(g6
S'4\xe4\xf6fV\xc9f?'
p5217
tp5218
Rp5219
s(I6
I15
I8
tp5220
g2708
s(I14
I21
I5
tp5221
g149
s(I6
I17
I11
tp5222
g204
s(I14
I14
I4
tp5223
F1.0
s(I2
I8
I3
tp5224
g2
(g6
S'4\xe4\xf6fV\xc9f?'
p5225
tp5226
Rp5227
s(I6
I26
I2
tp5228
g4512
s(I7
I1
I6
tp5229
g1923
s(I25
I4
I4
tp5230
g4974
s(I23
I14
I5
tp5231
g1825
s(I10
I4
I4
tp5232
g619
s(I21
I11
I5
tp5233
g478
s(I3
I14
I1
tp5234
g2
(g6
S'4\xe4\xf6fV\xc9f?'
p5235
tp5236
Rp5237
s(I0
I13
I9
tp5238
g629
s(I12
I2
I5
tp5239
g102
s(I12
I10
I2
tp5240
g1113
s(I15
I0
I1
tp5241
g2
(g6
S'4\xe4\xf6fV\xc9f?'
p5242
tp5243
Rp5244
s(I17
I5
I1
tp5245
g1927
s(I20
I9
I6
tp5246
g2324
s(I9
I9
I20
tp5247
F1.0
s(I23
I17
I3
tp5248
g709
s(I6
I25
I4
tp5249
g2
(g6
S'4\xe4\xf6fV\xc9f?'
p5250
tp5251
Rp5252
s(I18
I9
I6
tp5253
g2688
s(I16
I6
I9
tp5254
g769
s(I11
I18
I1
tp5255
g2
(g6
S'\xf0{q\xe4\x84\xd1\x94?'
p5256
tp5257
Rp5258
s(I28
I21
I1
tp5259
g4186
s(I16
I11
I2
tp5260
g2
(g6
S'\x87I\x8a\xd0\xe8+\xa7?'
p5261
tp5262
Rp5263
s(I0
I22
I3
tp5264
g2
(g6
S'4\xe4\xf6fV\xc9f?'
p5265
tp5266
Rp5267
s(I4
I12
I2
tp5268
g2
(g6
S'4\xe4\xf6fV\xc9f?'
p5269
tp5270
Rp5271
s(I16
I16
I11
tp5272
F1.0
s(I13
I5
I8
tp5273
g233
s(I7
I1
I4
tp5274
g1923
s(I9
I6
I2
tp5275
g2
(g6
S'4\xe4\xf6fV\xc9f?'
p5276
tp5277
Rp5278
s(I13
I16
I3
tp5279
g2
(g6
S'\x88\x17\x1c\x89\xdc0\xbd?'
p5280
tp5281
Rp5282
s(I6
I6
I14
tp5283
F1.0
s(I18
I9
I4
tp5284
g2688
s(I21
I1
I5
tp5285
g690
s(I25
I15
I4
tp5286
g3079
s(I18
I18
I5
tp5287
F1.0
s(I3
I19
I4
tp5288
g335
s(I6
I11
I3
tp5289
g3924
s(I8
I26
I3
tp5290
g2
(g6
S'4\xe4\xf6fV\xc9f?'
p5291
tp5292
Rp5293
s(I12
I24
I2
tp5294
g2084
s(I2
I2
I19
tp5295
F1.0
s(I14
I10
I1
tp5296
g2531
s(I17
I26
I2
tp5297
g1519
s(I5
I17
I2
tp5298
g2
(g6
S'4\xe4\xf6fV\xc9f?'
p5299
tp5300
Rp5301
s(I4
I15
I4
tp5302
g1413
s(I10
I24
I1
tp5303
g4528
s(I27
I21
I1
tp5304
g2
(g6
S'Y\x9f\xec\xc1\xde\xf9\x88?'
p5305
tp5306
Rp5307
s(I0
I4
I3
tp5308
g2
(g6
S'\x08\r>V\xf1\x03\xee?'
p5309
tp5310
Rp5311
s(I13
I13
I7
tp5312
F1.0
s(I0
I9
I4
tp5313
g742
s(I18
I4
I2
tp5314
g2
(g6
S'4\xe4\xf6fV\xc9f?'
p5315
tp5316
Rp5317
s(I21
I14
I1
tp5318
g2
(g6
S'\x8dt\xb6\x81\xdd\xb4\xd4?'
p5319
tp5320
Rp5321
s(I9
I16
I2
tp5322
g997
s(I2
I17
I11
tp5323
g339
s(I14
I20
I6
tp5324
g1160
s(I6
I16
I8
tp5325
g769
s(I17
I20
I1
tp5326
g2
(g6
S'\\i\xdbj\xd2\r\x85?'
p5327
tp5328
Rp5329
s(I2
I11
I2
tp5330
g2
(g6
S'4\xe4\xf6fV\xc9f?'
p5331
tp5332
Rp5333
s(I1
I17
I4
tp5334
g764
s(I10
I10
I2
tp5335
F1.0
s(I23
I15
I6
tp5336
g1987
s(I21
I0
I7
tp5337
g511
s(I15
I15
I14
tp5338
F1.0
s(I3
I15
I2
tp5339
g442
s(I7
I5
I1
tp5340
g2
(g6
S'\x08\r>V\xf1\x03\xee?'
p5341
tp5342
Rp5343
s(I14
I8
I5
tp5344
g2645
s(I12
I9
I3
tp5345
g2
(g6
S'\xc9b<\xacV\xc3\x84?'
p5346
tp5347
Rp5348
s(I18
I22
I2
tp5349
g4924
s(I20
I8
I1
tp5350
g3668
s(I8
I22
I4
tp5351
g811
s(I24
I1
I3
tp5352
g2481
s(I20
I5
I6
tp5353
g133
s(I16
I5
I8
tp5354
g824
s(I11
I19
I2
tp5355
g2
(g6
S'\r\x17\xe5\xfe\x9e\r\x85?'
p5356
tp5357
Rp5358
s(I8
I16
I5
tp5359
g611
s(I16
I10
I1
tp5360
g3904
s(I0
I21
I2
tp5361
g2
(g6
S'4\xe4\xf6fV\xc9f?'
p5362
tp5363
Rp5364
s(I22
I26
I3
tp5365
g2
(g6
S'\x91U\xd3\x0e.4\xb3?'
p5366
tp5367
Rp5368
s(I3
I11
I8
tp5369
g2251
s(I15
I23
I6
tp5370
g1987
s(I27
I4
I1
tp5371
g2
(g6
S'4\xe4\xf6fV\xc9f?'
p5372
tp5373
Rp5374
s(I15
I15
I12
tp5375
F1.0
s(I15
I23
I3
tp5376
g2
(g6
S'4\xe4\xf6fV\xc9f?'
p5377
tp5378
Rp5379
s(I21
I2
I4
tp5380
g863
s(I24
I19
I5
tp5381
g3062
s(I15
I2
I8
tp5382
g1524
s(I3
I16
I5
tp5383
g221
s(I8
I25
I2
tp5384
g1705
s(I24
I5
I3
tp5385
g1060
s(I23
I7
I4
tp5386
g2415
s(I5
I18
I3
tp5387
g2
(g6
S'4\xe4\xf6fV\xc9f?'
p5388
tp5389
Rp5390
s(I4
I14
I7
tp5391
g2051
s(I21
I2
I3
tp5392
g1302
s(I4
I4
I12
tp5393
F1.0
s(I13
I3
I1
tp5394
g2
(g6
S'4\xe4\xf6fV\xc9f?'
p5395
tp5396
Rp5397
s(I0
I3
I2
tp5398
g5214
s(I4
I4
I23
tp5399
F1.0
s(I18
I7
I3
tp5400
g2
(g6
S'4\xe4\xf6fV\xc9f?'
p5401
tp5402
Rp5403
s(I12
I0
I9
tp5404
g176
s(I7
I20
I1
tp5405
g1697
s(I9
I17
I1
tp5406
g3043
s(I8
I7
I1
tp5407
g2
(g6
S'\x08\r>V\xf1\x03\xee?'
p5408
tp5409
Rp5410
s(I26
I22
I1
tp5411
g844
s(I15
I5
I3
tp5412
g2
(g6
S'4\xe4\xf6fV\xc9f?'
p5413
tp5414
Rp5415
s(I17
I2
I11
tp5416
g339
s(I20
I12
I6
tp5417
g932
s(I17
I21
I2
tp5418
g2
(g6
S'\x8b\xda\x95\x8e\x1c\xbc\x93?'
p5419
tp5420
Rp5421
s(I2
I10
I5
tp5422
g229
s(I1
I18
I5
tp5423
g936
s(I19
I19
I5
tp5424
F1.0
s(I10
I13
I3
tp5425
g3017
s(I11
I1
I5
tp5426
g275
s(I16
I27
I1
tp5427
g2
(g6
S"6\x8c )'pz?"
p5428
tp5429
Rp5430
s(I6
I23
I5
tp5431
g2229
s(I3
I12
I3
tp5432
g962
s(I21
I17
I3
tp5433
g2
(g6
S'\xd6\xd2\r\x14\x80\x17\xa5?'
p5434
tp5435
Rp5436
s(I9
I3
I2
tp5437
g4650
s(I12
I3
I5
tp5438
g356
s(I15
I11
I4
tp5439
g656
s(I4
I8
I4
tp5440
g2
(g6
S'4\xe4\xf6fV\xc9f?'
p5441
tp5442
Rp5443
s(I17
I2
I4
tp5444
g339
s(I18
I25
I3
tp5445
g2
(g6
S'\x82\xad\r\x1e\x9e\x81\x90?'
p5446
tp5447
Rp5448
s(I17
I7
I7
tp5449
g590
s(I6
I22
I1
tp5450
g2
(g6
S'4\xe4\xf6fV\xc9f?'
p5451
tp5452
Rp5453
s(I8
I21
I5
tp5454
g984
s(I23
I23
I1
tp5455
F1.0
s(I11
I16
I3
tp5456
g3337
s(I19
I10
I8
tp5457
g2692
s(I1
I12
I1
tp5458
g1294
s(I19
I1
I1
tp5459
g532
s(I22
I5
I2
tp5460
g2
(g6
S'4\xe4\xf6fV\xc9f?'
p5461
tp5462
Rp5463
s(I24
I8
I4
tp5464
g458
s(I13
I7
I6
tp5465
g1013
s(I7
I7
I6
tp5466
F1.0
s(I9
I0
I4
tp5467
g742
s(I13
I18
I1
tp5468
g3802
s(I15
I20
I2
tp5469
g2
(g6
S'\x8c\xe1z\x873\xb4\x99?'
p5470
tp5471
Rp5472
s(I3
I26
I3
tp5473
g2
(g6
S'4\xe4\xf6fV\xc9f?'
p5474
tp5475
Rp5476
s(I21
I3
I3
tp5477
g2
(g6
S'4\xe4\xf6fV\xc9f?'
p5478
tp5479
Rp5480
s(I15
I3
I11
tp5481
g1681
s(I9
I9
I16
tp5482
F1.0
s(I26
I7
I1
tp5483
g2
(g6
S'4\xe4\xf6fV\xc9f?'
p5484
tp5485
Rp5486
s(I10
I2
I8
tp5487
g229
s(I14
I4
I3
tp5488
g4312
s(I2
I14
I2
tp5489
g2
(g6
S'4\xe4\xf6fV\xc9f?'
p5490
tp5491
Rp5492
s(I5
I24
I5
tp5493
g2583
s(I23
I5
I5
tp5494
g3609
s(I10
I1
I6
tp5495
g98
s(I5
I19
I4
tp5496
g889
s(I4
I13
I6
tp5497
g494
s(I1
I11
I10
tp5498
g275
s(I17
I1
I8
tp5499
g764
s(I0
I2
I1
tp5500
g1098
s(I15
I26
I1
tp5501
g2
(g6
S'4\xe4\xf6fV\xc9f?'
p5502
tp5503
Rp5504
s(I6
I17
I7
tp5505
g204
s(I15
I15
I9
tp5506
F1.0
s(I8
I6
I2
tp5507
g5181
s(I12
I12
I1
tp5508
F1.0
s(I17
I3
I4
tp5509
g1587
s(I6
I18
I6
tp5510
g595
s(I5
I10
I4
tp5511
g2064
s(I17
I22
I3
tp5512
g2
(g6
S'\x93\xde\xb7\xde\xac\x9b\x90?'
p5513
tp5514
Rp5515
s(I2
I13
I4
tp5516
g1103
s(I6
I15
I4
tp5517
g2708
s(I5
I5
I5
tp5518
F1.0
s(I23
I6
I1
tp5519
g2
(g6
S'4\xe4\xf6fV\xc9f?'
p5520
tp5521
Rp5522
s(I25
I7
I1
tp5523
g1205
s(I24
I25
I1
tp5524
g2
(g6
S'\x08\r>V\xf1\x03\xee?'
p5525
tp5526
Rp5527
s(I15
I4
I7
tp5528
g1413
s(I7
I7
I22
tp5529
F1.0
s(I0
I16
I2
tp5530
g4011
s(I16
I26
I2
tp5531
g2
(g6
S'4\xe4\xf6fV\xc9f?'
p5532
tp5533
Rp5534
s(I15
I7
I7
tp5535
g4277
s(I9
I9
I8
tp5536
F1.0
s(I3
I13
I4
tp5537
g296
s(I21
I18
I2
tp5538
g2
(g6
S'e\x02\xbe\xa6O\xe5w?'
p5539
tp5540
Rp5541
s(I3
I3
I21
tp5542
F1.0
s(I12
I2
I6
tp5543
g102
s(I15
I8
I5
tp5544
g1135
s(I3
I22
I6
tp5545
g1139
s(I21
I7
I8
tp5546
g807
s(I15
I7
I4
tp5547
g4277
s(I17
I0
I6
tp5548
g1155
s(I3
I3
I24
tp5549
F1.0
s(I20
I14
I3
tp5550
g2
(g6
S'\xbe\xf4\xcc\xd5\xf0\x04\x8c?'
p5551
tp5552
Rp5553
s(I8
I20
I2
tp5554
g2
(g6
S'4\xe4\xf6fV\xc9f?'
p5555
tp5556
Rp5557
s(I14
I14
I8
tp5558
F1.0
s(I6
I15
I9
tp5559
g2708
s(I8
I16
I6
tp5560
g611
s(I1
I13
I2
tp5561
g4445
s(I5
I23
I1
tp5562
g2
(g6
S'4\xe4\xf6fV\xc9f?'
p5563
tp5564
Rp5565
s(I4
I1
I1
tp5566
g2
(g6
S'\x08\r>V\xf1\x03\xee?'
p5567
tp5568
Rp5569
s(I22
I4
I1
tp5570
g3826
s(I24
I7
I5
tp5571
g37
s(I7
I7
I17
tp5572
F1.0
s(I9
I1
I7
tp5573
g2837
s(I13
I19
I6
tp5574
g1192
s(I7
I18
I10
tp5575
g911
s(I18
I10
I1
tp5576
g2
(g6
S'4\xe4\xf6fV\xc9f?'
p5577
tp5578
Rp5579
s(I21
I4
I2
tp5580
g2
(g6
S'4\xe4\xf6fV\xc9f?'
p5581
tp5582
Rp5583
s(I15
I0
I10
tp5584
g249
s(I2
I18
I7
tp5585
g365
s(I3
I3
I7
tp5586
F1.0
s(I1
I20
I6
tp5587
g1225
s(I0
I18
I10
tp5588
g1345
s(I14
I7
I2
tp5589
g1465
s(I19
I12
I7
tp5590
g2357
s(I23
I10
I4
tp5591
g3713
s(I22
I22
I2
tp5592
F1.0
s(I10
I0
I5
tp5593
g557
s(I5
I20
I5
tp5594
g133
s(I24
I10
I5
tp5595
g1542
s(I27
I16
I2
tp5596
g2130
s(I1
I16
I4
tp5597
g599
s(I15
I27
I2
tp5598
g3416
s(I3
I9
I1
tp5599
g3530
s(I18
I3
I9
tp5600
g280
s(I17
I4
I11
tp5601
g116
s(I8
I5
I3
tp5602
g4576
s(I26
I8
I3
tp5603
g5293
s(I14
I17
I1
tp5604
g1533
s(I20
I2
I4
tp5605
g129
s(I19
I26
I2
tp5606
g2
(g6
S'>\x1a\x19\xfc\x1d\xba\xb7?'
p5607
tp5608
Rp5609
s(I17
I23
I4
tp5610
g3808
s(I2
I12
I7
tp5611
g102
s(I1
I20
I9
tp5612
g1225
s(I23
I7
I2
tp5613
g751
s(I10
I15
I1
tp5614
g2458
s(I8
I8
I17
tp5615
F1.0
s(I16
I25
I3
tp5616
g4384
s(I11
I11
I5
tp5617
F1.0
s(I2
I17
I9
tp5618
g339
s(I3
I10
I5
tp5619
g1608
s(I1
I15
I8
tp5620
g799
s(I27
I14
I2
tp5621
g2
(g6
S'n\x8e=r?\x95\x93?'
p5622
tp5623
Rp5624
s(I10
I17
I3
tp5625
g2
(g6
S'\x95@\xac\x88a\xbeh?'
p5626
tp5627
Rp5628
s(I15
I9
I2
tp5629
g2
(g6
S'4\xe4\xf6fV\xc9f?'
p5630
tp5631
Rp5632
s(I3
I23
I5
tp5633
g1816
s(I2
I19
I3
tp5634
g1070
s(I18
I27
I1
tp5635
g3498
s(I17
I1
I5
tp5636
g764
s(I20
I13
I2
tp5637
g2
(g6
S'5\x0f\xa2"\xca\xd0\x90?'
p5638
tp5639
Rp5640
s(I8
I19
I3
tp5641
g2
(g6
S'4\xe4\xf6fV\xc9f?'
p5642
tp5643
Rp5644
s(I3
I17
I8
tp5645
g1587
s(I19
I8
I10
tp5646
g1821
s(I4
I11
I7
tp5647
g1326
s(I1
I14
I3
tp5648
g2
(g6
S'4\xe4\xf6fV\xc9f?'
p5649
tp5650
Rp5651
s(I3
I15
I5
tp5652
g1681
s(I10
I17
I5
tp5653
g1902
s(I9
I15
I1
tp5654
g3768
s(I13
I9
I4
tp5655
g2
(g6
S'J\x04\x1d\xca\xdcQ\xbb?'
p5656
tp5657
Rp5658
s(I9
I2
I6
tp5659
g1635
s(I13
I20
I7
tp5660
g1312
s(I21
I10
I8
tp5661
g2903
s(I2
I16
I8
tp5662
g795
s(I3
I24
I1
tp5663
g2
(g6
S'4\xe4\xf6fV\xc9f?'
p5664
tp5665
Rp5666
s(I21
I5
I1
tp5667
g836
s(I20
I19
I1
tp5668
g3182
s(I15
I1
I13
tp5669
g799
s(I1
I21
I5
tp5670
g690
s(I17
I19
I1
tp5671
g2
(g6
S'4\xe4\xf6fV\xc9f?'
p5672
tp5673
Rp5674
s(I16
I5
I1
tp5675
g2
(g6
S'4\xe4\xf6fV\xc9f?'
p5676
tp5677
Rp5678
s(I22
I17
I3
tp5679
g5515
s(I24
I20
I3
tp5680
g3243
s(I5
I21
I6
tp5681
g1217
s(I24
I9
I4
tp5682
g1732
s(I28
I15
I1
tp5683
g2
(g6
S'4\xe4\xf6fV\xc9f?'
p5684
tp5685
Rp5686
s(I13
I6
I2
tp5687
g2609
s(I0
I0
I15
tp5688
F1.0
s(I15
I24
I3
tp5689
g4892
s(I21
I23
I2
tp5690
g2431
s(I8
I15
I5
tp5691
g1135
s(I6
I6
I18
tp5692
F1.0
s(I18
I18
I11
tp5693
F1.0
s(I8
I4
I4
tp5694
g5443
s(I26
I11
I2
tp5695
g2
(g6
S'M\xea\x8a\x12&Ft?'
p5696
tp5697
Rp5698
s(I19
I19
I8
tp5699
F1.0
s(I14
I16
I2
tp5700
g2
(g6
S'\xf9X\x80\xb7\xae)\xd4?'
p5701
tp5702
Rp5703
s(I2
I2
I1
tp5704
F1.0
s(I20
I1
I5
tp5705
g1225
s(I19
I27
I1
tp5706
g2
(g6
S'O\xe1\xbc\xfc6\x7f\x9b?'
p5707
tp5708
Rp5709
s(I14
I5
I9
tp5710
g470
s(I2
I15
I6
tp5711
g1524
s(I23
I4
I3
tp5712
g1250
s(I25
I1
I3
tp5713
g2
(g6
S'4\xe4\xf6fV\xc9f?'
p5714
tp5715
Rp5716
s(I4
I15
I10
tp5717
g1413
s(I6
I24
I5
tp5718
g2449
s(I4
I4
I3
tp5719
F1.0
s(I7
I2
I4
tp5720
g1868
s(I4
I17
I12
tp5721
g116
s(I18
I1
I5
tp5722
g936
s(I27
I15
I1
tp5723
g2364
s(I9
I17
I8
tp5724
g582
s(I3
I20
I4
tp5725
g520
s(I11
I1
I3
tp5726
g2
(g6
S'4\xe4\xf6fV\xc9f?'
p5727
tp5728
Rp5729
s(I7
I18
I7
tp5730
g911
s(I6
I19
I2
tp5731
g1603
s(I14
I2
I2
tp5732
g5492
s(I16
I1
I12
tp5733
g599
s(I10
I10
I16
tp5734
F1.0
s(I19
I9
I5
tp5735
g1983
s(I4
I10
I4
tp5736
g619
s(I1
I15
I4
tp5737
g799
s(I0
I17
I6
tp5738
g1155
s(I22
I6
I7
tp5739
g980
s(I10
I16
I6
tp5740
g2870
s(I3
I15
I12
tp5741
g1681
s(I20
I9
I7
tp5742
g2324
s(I18
I3
I10
tp5743
g280
s(I13
I21
I4
tp5744
g2855
s(I7
I16
I8
tp5745
g474
s(I18
I12
I3
tp5746
g2353
s(I6
I13
I1
tp5747
g2
(g6
S'4\xe4\xf6fV\xc9f?'
p5748
tp5749
Rp5750
s(I8
I0
I1
tp5751
g2
(g6
S'\x08\r>V\xf1\x03\xee?'
p5752
tp5753
Rp5754
s(I11
I6
I2
tp5755
g2
(g6
S'4\xe4\xf6fV\xc9f?'
p5756
tp5757
Rp5758
s(I1
I22
I4
tp5759
g1483
s(I3
I17
I12
tp5760
g1587
s(I14
I1
I4
tp5761
g786
s(I16
I4
I6
tp5762
g304
s(I19
I10
I1
tp5763
g1615
s(I23
I8
I6
tp5764
g648
s(I24
I19
I2
tp5765
g1537
s(I20
I6
I6
tp5766
g660
s(I11
I18
I7
tp5767
g11
s(I0
I15
I14
tp5768
g249
s(I11
I25
I4
tp5769
g3190
s(I3
I7
I3
tp5770
g2
(g6
S'\x08\r>V\xf1\x03\xee?'
p5771
tp5772
Rp5773
s(I7
I13
I2
tp5774
g2
(g6
S'4\xe4\xf6fV\xc9f?'
p5775
tp5776
Rp5777
s(I8
I14
I6
tp5778
g2645
s(I12
I4
I5
tp5779
g1882
s(I10
I3
I6
tp5780
g1608
s(I15
I2
I6
tp5781
g1524
s(I8
I3
I5
tp5782
g2671
s(I12
I17
I2
tp5783
g3737
s(I7
I13
I3
tp5784
g2
(g6
S'4\xe4\xf6fV\xc9f?'
p5785
tp5786
Rp5787
s(I14
I19
I3
tp5788
g4002
s(I20
I0
I2
tp5789
g2
(g6
S'4\xe4\xf6fV\xc9f?'
p5790
tp5791
Rp5792
s(I5
I13
I1
tp5793
g2
(g6
S'4\xe4\xf6fV\xc9f?'
p5794
tp5795
Rp5796
s(I17
I17
I6
tp5797
F1.0
s(I24
I11
I3
tp5798
g4084
s(I25
I2
I2
tp5799
g2944
s(I1
I1
I16
tp5800
F1.0
s(I4
I14
I9
tp5801
g2051
s(I1
I11
I1
tp5802
g2
(g6
S'4\xe4\xf6fV\xc9f?'
p5803
tp5804
Rp5805
s(I4
I27
I2
tp5806
g3461
s(I22
I2
I4
tp5807
g1254
s(I21
I12
I3
tp5808
g3170
s(I4
I16
I11
tp5809
g304
s(I7
I14
I4
tp5810
g2348
s(I13
I25
I1
tp5811
g3354
s(I12
I7
I1
tp5812
g2
(g6
S'4\xe4\xf6fV\xc9f?'
p5813
tp5814
Rp5815
s(I9
I18
I9
tp5816
g2688
s(I3
I21
I3
tp5817
g5480
s(I17
I3
I11
tp5818
g1587
s(I11
I2
I9
tp5819
g1965
s(I8
I17
I1
tp5820
g2
(g6
S'4\xe4\xf6fV\xc9f?'
p5821
tp5822
Rp5823
s(I25
I12
I1
tp5824
g2
(g6
S'4\xe4\xf6fV\xc9f?'
p5825
tp5826
Rp5827
s(I18
I8
I5
tp5828
g1090
s(I16
I0
I3
tp5829
g2
(g6
S'4\xe4\xf6fV\xc9f?'
p5830
tp5831
Rp5832
s(I19
I6
I4
tp5833
g57
s(I4
I9
I5
tp5834
g1559
s(I1
I8
I5
tp5835
g2724
s(I0
I16
I9
tp5836
g343
s(I13
I0
I11
tp5837
g629
s(I22
I1
I6
tp5838
g1483
s(I14
I4
I4
tp5839
g2051
s(I9
I9
I3
tp5840
F1.0
s(I13
I11
I2
tp5841
g989
s(I19
I0
I9
tp5842
g1056
s(I13
I22
I5
tp5843
g1629
s(I18
I15
I2
tp5844
g2
(g6
S'4\xe4\xf6fV\xc9f?'
p5845
tp5846
Rp5847
s(I6
I12
I2
tp5848
g2
(g6
S'4\xe4\xf6fV\xc9f?'
p5849
tp5850
Rp5851
s(I0
I0
I22
tp5852
F1.0
s(I26
I14
I2
tp5853
g382
s(I11
I7
I1
tp5854
g2
(g6
S'4\xe4\xf6fV\xc9f?'
p5855
tp5856
Rp5857
s(I8
I20
I9
tp5858
g209
s(I2
I9
I7
tp5859
g1635
s(I1
I23
I3
tp5860
g2116
s(I14
I0
I7
tp5861
g429
s(I6
I17
I6
tp5862
g204
s(I19
I11
I2
tp5863
g5358
s(I23
I9
I1
tp5864
g570
s(I22
I19
I1
tp5865
g2
(g6
S'4\xe4\xf6fV\xc9f?'
p5866
tp5867
Rp5868
s(I10
I5
I2
tp5869
g2700
s(I0
I0
I16
tp5870
F1.0
s(I7
I7
I8
tp5871
F1.0
s(I0
I14
I13
tp5872
g429
s(I18
I1
I1
tp5873
g4342
s(I7
I18
I3
tp5874
g5403
s(I18
I10
I8
tp5875
g1197
s(I15
I3
I5
tp5876
g1681
s(I8
I2
I6
tp5877
g1807
s(I2
I16
I13
tp5878
g795
s(I20
I10
I8
tp5879
g490
s(I20
I7
I3
tp5880
g915
s(I18
I9
I5
tp5881
g2688
s(I11
I24
I2
tp5882
g4429
s(I4
I13
I8
tp5883
g494
s(I4
I26
I1
tp5884
g2
(g6
S'4\xe4\xf6fV\xc9f?'
p5885
tp5886
Rp5887
s(I22
I13
I5
tp5888
g1629
s(I21
I27
I1
tp5889
g5307
s(I9
I5
I4
tp5890
g3514
s(I7
I15
I7
tp5891
g4277
s(I9
I19
I7
tp5892
g1983
s(I7
I14
I7
tp5893
g2348
s(I12
I6
I2
tp5894
g5851
s(I15
I12
I1
tp5895
g4463
s(I3
I18
I2
tp5896
g2
(g6
S'4\xe4\xf6fV\xc9f?'
p5897
tp5898
Rp5899
s(I11
I11
I16
tp5900
F1.0
s(I11
I22
I1
tp5901
g958
s(I5
I5
I23
tp5902
F1.0
s(I28
I17
I1
tp5903
g3930
s(I5
I16
I4
tp5904
g824
s(I4
I8
I2
tp5905
g2
(g6
S'\x08\r>V\xf1\x03\xee?'
p5906
tp5907
Rp5908
s(I1
I9
I6
tp5909
g2837
s(I6
I11
I4
tp5910
g697
s(I22
I0
I5
tp5911
g1770
s(I24
I3
I1
tp5912
g5666
s(I3
I13
I10
tp5913
g296
s(I11
I23
I5
tp5914
g4996
s(I19
I5
I6
tp5915
g889
s(I6
I15
I3
tp5916
g4371
s(I12
I20
I2
tp5917
g2
(g6
S'\x1f\xfdScMn\x82?'
p5918
tp5919
Rp5920
s(I2
I2
I18
tp5921
F1.0
s(I14
I14
I1
tp5922
F1.0
s(I2
I8
I4
tp5923
g1807
s(I1
I16
I2
tp5924
g3002
s(I14
I3
I6
tp5925
g3584
s(I16
I2
I4
tp5926
g795
s(I19
I8
I3
tp5927
g5644
s(I10
I4
I1
tp5928
g2
(g6
S'4\xe4\xf6fV\xc9f?'
p5929
tp5930
Rp5931
s(I4
I16
I4
tp5932
g304
s(I7
I21
I3
tp5933
g4832
s(I0
I24
I3
tp5934
g1727
s(I3
I14
I4
tp5935
g3584
s(I0
I13
I12
tp5936
g629
s(I18
I0
I2
tp5937
g2443
s(I21
I10
I1
tp5938
g2
(g6
S'4\xe4\xf6fV\xc9f?'
p5939
tp5940
Rp5941
s(I9
I20
I2
tp5942
g2
(g6
S'4\xe4\xf6fV\xc9f?'
p5943
tp5944
Rp5945
s(I17
I4
I5
tp5946
g116
s(I2
I17
I12
tp5947
g339
s(I21
I5
I8
tp5948
g1217
s(I15
I0
I4
tp5949
g249
s(I8
I1
I7
tp5950
g2724
s(I12
I23
I4
tp5951
g2121
s(I6
I20
I8
tp5952
g660
s(I17
I8
I1
tp5953
g5823
s(I2
I7
I2
tp5954
g2
(g6
S'\x08\r>V\xf1\x03\xee?'
p5955
tp5956
Rp5957
s(I6
I25
I3
tp5958
g4704
s(I5
I11
I6
tp5959
g1265
s(I0
I22
I4
tp5960
g1770
s(I4
I12
I7
tp5961
g1882
s(I22
I12
I6
tp5962
g24
s(I7
I1
I1
tp5963
g2
(g6
S'\x08\r>V\xf1\x03\xee?'
p5964
tp5965
Rp5966
s(I0
I20
I8
tp5967
g225
s(I11
I22
I5
tp5968
g2502
s(I9
I25
I4
tp5969
g2
(g6
S'4\xe4\xf6fV\xc9f?'
p5970
tp5971
Rp5972
s(I12
I5
I3
tp5973
g3852
s(I6
I6
I9
tp5974
F1.0
s(I18
I18
I2
tp5975
F1.0
s(I3
I19
I1
tp5976
g674
s(I2
I25
I1
tp5977
g2
(g6
S'4\xe4\xf6fV\xc9f?'
p5978
tp5979
Rp5980
s(I20
I20
I1
tp5981
F1.0
s(I7
I2
I2
tp5982
g5957
s(I23
I18
I2
tp5983
g4504
s(I11
I0
I11
tp5984
g74
s(I2
I2
I24
tp5985
F1.0
s(I11
I23
I2
tp5986
g4962
s(I16
I14
I1
tp5987
g2517
s(I19
I4
I6
tp5988
g90
s(I4
I15
I3
tp5989
g2
(g6
S'4\xe4\xf6fV\xc9f?'
p5990
tp5991
Rp5992
s(I1
I10
I7
tp5993
g98
s(I13
I2
I9
tp5994
g1103
s(I22
I3
I4
tp5995
g1139
s(I10
I21
I1
tp5996
g5941
s(I27
I24
I1
tp5997
g782
s(I17
I3
I12
tp5998
g1587
s(I15
I19
I3
tp5999
g2
(g6
S'\xf27\xba\xe1o\x85j?'
p6000
tp6001
Rp6002
s(I3
I1
I2
tp6003
g2
(g6
S'\x08\r>V\xf1\x03\xee?'
p6004
tp6005
Rp6006
s(I2
I16
I12
tp6007
g795
s(I8
I8
I5
tp6008
F1.0
s(I3
I3
I13
tp6009
F1.0
s(I6
I14
I4
tp6010
g666
s(I13
I21
I8
tp6011
g2855
s(I2
I11
I5
tp6012
g1965
s(I1
I17
I1
tp6013
g4572
s(I16
I1
I5
tp6014
g599
s(I10
I10
I15
tp6015
F1.0
s(I12
I0
I6
tp6016
g176
s(I23
I15
I3
tp6017
g5379
s(I0
I18
I9
tp6018
g1345
s(I13
I13
I6
tp6019
F1.0
s(I0
I7
I2
tp6020
g1401
s(I17
I2
I9
tp6021
g339
s(I3
I15
I7
tp6022
g1681
s(I0
I12
I11
tp6023
g176
s(I18
I3
I3
tp6024
g4105
s(I7
I16
I1
tp6025
g1052
s(I9
I21
I1
tp6026
g2
(g6
S'4\xe4\xf6fV\xc9f?'
p6027
tp6028
Rp6029
s(I8
I11
I1
tp6030
g1439
s(I26
I18
I1
tp6031
g2556
s(I15
I1
I3
tp6032
g954
s(I17
I6
I11
tp6033
g204
s(I12
I22
I7
tp6034
g24
s(I5
I5
I13
tp6035
F1.0
s(I17
I9
I2
tp6036
g2
(g6
S'4\xe4\xf6fV\xc9f?'
p6037
tp6038
Rp6039
s(I20
I5
I1
tp6040
g3879
s(I14
I1
I13
tp6041
g786
s(I6
I14
I3
tp6042
g2
(g6
S'4\xe4\xf6fV\xc9f?'
p6043
tp6044
Rp6045
s(I3
I19
I9
tp6046
g335
s(I7
I23
I3
tp6047
g2
(g6
S'4\xe4\xf6fV\xc9f?'
p6048
tp6049
Rp6050
s(I22
I15
I7
tp6051
g245
s(I9
I7
I2
tp6052
g2
(g6
S'4\xe4\xf6fV\xc9f?'
p6053
tp6054
Rp6055
s(I4
I21
I8
tp6056
g374
s(I24
I18
I2
tp6057
g1151
s(I18
I21
I3
tp6058
g2284
s(I2
I24
I2
tp6059
g2
(g6
S'4\xe4\xf6fV\xc9f?'
p6060
tp6061
Rp6062
s(I6
I10
I1
tp6063
g348
s(I23
I19
I1
tp6064
g2
(g6
S'\x89^E=\x8c\xcc\xb2?'
p6065
tp6066
Rp6067
s(I11
I1
I4
tp6068
g275
s(I20
I0
I9
tp6069
g225
s(I14
I5
I7
tp6070
g470
s(I21
I21
I2
tp6071
F1.0
s(I11
I20
I3
tp6072
g2
(g6
S'\x0e\xe2w\xab\x1dO\x90?'
p6073
tp6074
Rp6075
s(I17
I27
I2
tp6076
g2
(g6
S'<\xc1~&\xf1:\x92?'
p6077
tp6078
Rp6079
s(I1
I0
I1
tp6080
g3727
s(I19
I5
I1
tp6081
g2
(g6
S'4\xe4\xf6fV\xc9f?'
p6082
tp6083
Rp6084
s(I22
I10
I5
tp6085
g145
s(I22
I25
I2
tp6086
g2
(g6
S'J\xb2\x8bRt\xc1\x9b?'
p6087
tp6088
Rp6089
s(I10
I20
I2
tp6090
g4142
s(I13
I14
I1
tp6091
g4956
s(I21
I15
I3
tp6092
g2
(g6
S'4\xe4\xf6fV\xc9f?'
p6093
tp6094
Rp6095
s(I10
I19
I6
tp6096
g2692
s(I4
I4
I17
tp6097
F1.0
s(I15
I5
I8
tp6098
g325
s(I26
I3
I1
tp6099
g1031
s(I11
I2
I6
tp6100
g1965
s(I14
I8
I3
tp6101
g2
(g6
S'4\xe4\xf6fV\xc9f?'
p6102
tp6103
Rp6104
s(I2
I10
I2
tp6105
g3944
s(I6
I15
I7
tp6106
g2708
s(I17
I24
I4
tp6107
g2659
s(I16
I0
I10
tp6108
g343
s(I21
I13
I4
tp6109
g2855
s(I23
I12
I2
tp6110
g2
(g6
S'4\xe4\xf6fV\xc9f?'
p6111
tp6112
Rp6113
s(I0
I17
I8
tp6114
g1155
s(I2
I11
I3
tp6115
g3128
s(I0
I6
I1
tp6116
g3592
s(I3
I12
I6
tp6117
g356
s(I21
I17
I4
tp6118
g2
(g6
S'\xaaU\xa1\xec\x7f\xae\x97?'
p6119
tp6120
Rp6121
s(I0
I11
I10
tp6122
g74
s(I18
I2
I4
tp6123
g365
s(I21
I25
I2
tp6124
g3893
s(I7
I17
I6
tp6125
g590
s(I8
I10
I2
tp6126
g2169
s(I12
I8
I1
tp6127
g2
(g6
S'4\xe4\xf6fV\xc9f?'
p6128
tp6129
Rp6130
s(I2
I18
I9
tp6131
g365
s(I15
I6
I2
tp6132
g2
(g6
S'4\xe4\xf6fV\xc9f?'
p6133
tp6134
Rp6135
s(I20
I13
I7
tp6136
g1312
s(I12
I21
I6
tp6137
g386
s(I17
I10
I3
tp6138
g5628
s(I6
I27
I1
tp6139
g502
s(I23
I2
I1
tp6140
g1579
s(I25
I11
I1
tp6141
g4966
s(I18
I24
I5
tp6142
g4467
s(I0
I18
I8
tp6143
g1345
s(I1
I12
I4
tp6144
g412
s(I0
I20
I2
tp6145
g5792
s(I5
I5
I18
tp6146
F1.0
s(I21
I17
I1
tp6147
g2108
s(I7
I7
I3
tp6148
F1.0
s(I9
I0
I3
tp6149
g2
(g6
S'4\xe4\xf6fV\xc9f?'
p6150
tp6151
Rp6152
s(I13
I18
I4
tp6153
g4946
s(I0
I11
I9
tp6154
g74
s(I13
I3
I3
tp6155
g549
s(I15
I3
I12
tp6156
g1681
s(I20
I10
I3
tp6157
g2
(g6
S'\x0e\xd0u\xc1\x1f\xf6\x8b?'
p6158
tp6159
Rp6160
s(I8
I24
I2
tp6161
g1005
s(I12
I3
I7
tp6162
g356
s(I20
I7
I8
tp6163
g2551
s(I6
I12
I3
tp6164
g2
(g6
S'4\xe4\xf6fV\xc9f?'
p6165
tp6166
Rp6167
s(I16
I7
I6
tp6168
g474
s(I11
I21
I4
tp6169
g478
s(I1
I1
I2
tp6170
F1.0
s(I5
I19
I1
tp6171
g6084
s(I4
I13
I1
tp6172
g3618
s(I22
I24
I1
tp6173
g2
(g6
S'4\xe4\xf6fV\xc9f?'
p6174
tp6175
Rp6176
s(I10
I23
I3
tp6177
g2
(g6
S'4\xe4\xf6fV\xc9f?'
p6178
tp6179
Rp6180
s(I18
I6
I1
tp6181
g4797
s(I21
I0
I2
tp6182
g5364
s(I17
I3
I8
tp6183
g1587
s(I12
I12
I6
tp6184
F1.0
s(I13
I21
I6
tp6185
g2855
s(I12
I25
I1
tp6186
g5827
s(I11
I3
I5
tp6187
g2251
s(I14
I11
I2
tp6188
g4411
s(I2
I13
I3
tp6189
g4548
s(I0
I16
I7
tp6190
g343
s(I27
I20
I2
tp6191
g4131
s(I6
I6
I13
tp6192
F1.0
s(I4
I19
I5
tp6193
g90
s(I3
I13
I1
tp6194
g5397
s(I7
I11
I4
tp6195
g2757
s(I0
I10
I9
tp6196
g557
s(I18
I5
I5
tp6197
g561
s(I6
I22
I3
tp6198
g4714
s(I26
I20
I3
tp6199
g2
(g6
S'\x89\x04\xc1\x035\xba\x94?'
p6200
tp6201
Rp6202
s(I15
I7
I1
tp6203
g2
(g6
S'4\xe4\xf6fV\xc9f?'
p6204
tp6205
Rp6206
s(I14
I21
I1
tp6207
g5321
s(I26
I9
I3
tp6208
g258
s(I11
I11
I12
tp6209
F1.0
s(I5
I23
I6
tp6210
g3609
s(I3
I14
I8
tp6211
g3584
s(I23
I3
I2
tp6212
g2
(g6
S'4\xe4\xf6fV\xc9f?'
p6213
tp6214
Rp6215
s(I11
I17
I1
tp6216
g2
(g6
S'\x10\xf8\xb6\x9c\x1f\x8c\x89?'
p6217
tp6218
Rp6219
s(I10
I11
I1
tp6220
g2
(g6
S'4\xe4\xf6fV\xc9f?'
p6221
tp6222
Rp6223
s(I28
I26
I1
tp6224
g2490
s(I16
I8
I4
tp6225
g611
s(I1
I13
I7
tp6226
g615
s(I0
I19
I3
tp6227
g4935
s(I25
I9
I4
tp6228
g5972
s(I22
I9
I1
tp6229
g4362
s(I7
I4
I2
tp6230
g2
(g6
S'\x08\r>V\xf1\x03\xee?'
p6231
tp6232
Rp6233
s(I27
I2
I2
tp6234
g2
(g6
S'4\xe4\xf6fV\xc9f?'
p6235
tp6236
Rp6237
s(I15
I21
I2
tp6238
g4322
s(I2
I17
I5
tp6239
g339
s(I18
I23
I1
tp6240
g2
(g6
S'4\xe4\xf6fV\xc9f?'
p6241
tp6242
Rp6243
s(I1
I13
I10
tp6244
g615
s(I20
I9
I2
tp6245
g5945
s(I8
I23
I3
tp6246
g5059
s(I26
I6
I3
tp6247
g2
(g6
S'4\xe4\xf6fV\xc9f?'
p6248
tp6249
Rp6250
s(I21
I10
I5
tp6251
g2903
s(I14
I7
I5
tp6252
g2348
s(I16
I6
I5
tp6253
g769
s(I11
I18
I5
tp6254
g11
s(I19
I3
I3
tp6255
g1906
s(I17
I4
I7
tp6256
g116
s(I5
I11
I5
tp6257
g1265
s(I0
I0
I29
tp6258
F1.0
s(I3
I9
I6
tp6259
g2139
s(I5
I25
I3
tp6260
g2
(g6
S'4\xe4\xf6fV\xc9f?'
p6261
tp6262
Rp6263
s(I15
I22
I4
tp6264
g245
s(I3
I28
I1
tp6265
g2
(g6
S'4\xe4\xf6fV\xc9f?'
p6266
tp6267
Rp6268
s(I21
I1
I1
tp6269
g2
(g6
S'4\xe4\xf6fV\xc9f?'
p6270
tp6271
Rp6272
s(I9
I19
I4
tp6273
g1983
s(I12
I19
I7
tp6274
g2357
s(I0
I20
I7
tp6275
g225
s(I11
I0
I4
tp6276
g74
s(I4
I4
I25
tp6277
F1.0
s(I17
I23
I1
tp6278
g652
s(I0
I18
I11
tp6279
g1345
s(I24
I24
I3
tp6280
F1.0
s(I19
I10
I7
tp6281
g2692
s(I28
I11
I1
tp6282
g2
(g6
S'4\xe4\xf6fV\xc9f?'
p6283
tp6284
Rp6285
s(I13
I2
I2
tp6286
g2
(g6
S'4\xe4\xf6fV\xc9f?'
p6287
tp6288
Rp6289
s(I4
I18
I6
tp6290
g746
s(I13
I13
I11
tp6291
F1.0
s(I21
I19
I2
tp6292
g1812
s(I0
I9
I8
tp6293
g742
s(I18
I4
I6
tp6294
g746
s(I12
I1
I10
tp6295
g412
s(I7
I23
I4
tp6296
g2415
s(I9
I16
I6
tp6297
g2419
s(I8
I8
I12
tp6298
F1.0
s(I26
I23
I2
tp6299
g4694
s(I14
I20
I2
tp6300
g2
(g6
S'\x1f\xfdScMn\x82?'
p6301
tp6302
Rp6303
s(I1
I18
I11
tp6304
g936
s(I7
I18
I2
tp6305
g2
(g6
S'4\xe4\xf6fV\xc9f?'
p6306
tp6307
Rp6308
s(I5
I8
I2
tp6309
g2
(g6
S'\x08\r>V\xf1\x03\xee?'
p6310
tp6311
Rp6312
s(I15
I0
I13
tp6313
g249
s(I5
I22
I7
tp6314
g2182
s(I23
I0
I3
tp6315
g2
(g6
S'4\xe4\xf6fV\xc9f?'
p6316
tp6317
Rp6318
s(I25
I5
I3
tp6319
g6263
s(I10
I10
I6
tp6320
F1.0
s(I16
I23
I5
tp6321
g462
s(I1
I14
I6
tp6322
g786
s(I4
I0
I3
tp6323
g5311
s(I5
I15
I3
tp6324
g5415
s(I22
I8
I2
tp6325
g2468
s(I9
I2
I1
tp6326
g3174
s(I27
I3
I1
tp6327
g2
(g6
S'4\xe4\xf6fV\xc9f?'
p6328
tp6329
Rp6330
s(I26
I25
I1
tp6331
g3255
s(I15
I10
I3
tp6332
g1273
s(I2
I16
I6
tp6333
g795
s(I15
I1
I10
tp6334
g799
s(I6
I23
I2
tp6335
g2263
s(I9
I9
I17
tp6336
F1.0
s(I14
I6
I2
tp6337
g2
(g6
S'4\xe4\xf6fV\xc9f?'
p6338
tp6339
Rp6340
s(I16
I5
I4
tp6341
g824
s(I11
I19
I6
tp6342
g1649
s(I18
I0
I8
tp6343
g1345
s(I16
I10
I5
tp6344
g2870
s(I19
I0
I2
tp6345
g2
(g6
S'4\xe4\xf6fV\xc9f?'
p6346
tp6347
Rp6348
s(I27
I17
I2
tp6349
g6079
s(I0
I0
I4
tp6350
F1.0
s(I22
I17
I4
tp6351
g528
s(I18
I8
I3
tp6352
g3888
s(I7
I27
I1
tp6353
g2312
s(I6
I1
I1
tp6354
g1753
s(I8
I4
I1
tp6355
g4113
s(I12
I18
I4
tp6356
g1469
s(I2
I2
I14
tp6357
F1.0
s(I2
I15
I1
tp6358
g266
s(I19
I14
I1
tp6359
g2
(g6
S'4\xe4\xf6fV\xc9f?'
p6360
tp6361
Rp6362
s(I10
I14
I3
tp6363
g2
(g6
S'B\x07\xef\xde\xd9\xf1\xdc?'
p6364
tp6365
Rp6366
s(I19
I5
I8
tp6367
g889
s(I4
I4
I8
tp6368
F1.0
s(I16
I24
I1
tp6369
g162
s(I12
I4
I3
tp6370
g2
(g6
S'4\xe4\xf6fV\xc9f?'
p6371
tp6372
Rp6373
s(I4
I17
I7
tp6374
g116
s(I3
I11
I3
tp6375
g524
s(I7
I9
I2
tp6376
g6055
s(I18
I7
I7
tp6377
g911
s(I7
I20
I5
tp6378
g2551
s(I9
I17
I5
tp6379
g582
s(I1
I13
I8
tp6380
g615
s(I20
I9
I5
tp6381
g2324
s(I18
I26
I3
tp6382
g196
s(I14
I23
I3
tp6383
g2
(g6
S'4\xe4\xf6fV\xc9f?'
p6384
tp6385
Rp6386
s(I20
I12
I2
tp6387
g5920
s(I5
I9
I1
tp6388
g2
(g6
S'\x08\r>V\xf1\x03\xee?'
p6389
tp6390
Rp6391
s(I14
I2
I7
tp6392
g545
s(I23
I1
I4
tp6393
g395
s(I25
I6
I2
tp6394
g2
(g6
S'4\xe4\xf6fV\xc9f?'
p6395
tp6396
Rp6397
s(I1
I21
I6
tp6398
g690
s(I16
I22
I6
tp6399
g950
s(I1
I15
I1
tp6400
g2013
s(I0
I17
I1
tp6401
g2
(g6
S'4\xe4\xf6fV\xc9f?'
p6402
tp6403
Rp6404
s(I4
I7
I2
tp6405
g6233
s(I22
I11
I3
tp6406
g2
(g6
S'4\xe4\xf6fV\xc9f?'
p6407
tp6408
Rp6409
s(I10
I18
I3
tp6410
g2
(g6
S'\xe26l\xbb!\xeat?'
p6411
tp6412
Rp6413
s(I13
I21
I1
tp6414
g2
(g6
S':\x08\xc9\xf3\xf1\x82\xa1?'
p6415
tp6416
Rp6417
s(I12
I3
I1
tp6418
g2
(g6
S'4\xe4\xf6fV\xc9f?'
p6419
tp6420
Rp6421
s(I3
I25
I3
tp6422
g2
(g6
S'4\xe4\xf6fV\xc9f?'
p6423
tp6424
Rp6425
s(I14
I19
I5
tp6426
g3966
s(I6
I13
I4
tp6427
g970
s(I8
I0
I6
tp6428
g1568
s(I15
I2
I9
tp6429
g1524
s(I20
I15
I4
tp6430
g1027
s(I8
I21
I1
tp6431
g1511
s(I23
I23
I5
tp6432
F1.0
s(I25
I16
I1
tp6433
g2
(g6
S'4\xe4\xf6fV\xc9f?'
p6434
tp6435
Rp6436
s(I14
I1
I3
tp6437
g5651
s(I16
I4
I3
tp6438
g3622
s(I18
I8
I6
tp6439
g1090
s(I16
I9
I4
tp6440
g2419
s(I3
I3
I14
tp6441
F1.0
s(I5
I22
I2
tp6442
g5463
s(I5
I13
I3
tp6443
g1358
s(I9
I13
I3
tp6444
g4931
s(I13
I7
I2
tp6445
g5777
s(I8
I17
I8
tp6446
g1864
s(I0
I15
I5
tp6447
g249
s(I15
I25
I1
tp6448
g2
(g6
S'4\xe4\xf6fV\xc9f?'
p6449
tp6450
Rp6451
s(I3
I7
I4
tp6452
g2
(g6
S'4\xe4\xf6fV\xc9f?'
p6453
tp6454
Rp6455
s(I21
I8
I6
tp6456
g984
s(I18
I11
I2
tp6457
g1877
s(I11
I20
I4
tp6458
g262
s(I21
I3
I7
tp6459
g317
s(I6
I0
I2
tp6460
g2
(g6
S'\x08\r>V\xf1\x03\xee?'
p6461
tp6462
Rp6463
s(I26
I10
I2
tp6464
g2220
s(I7
I0
I5
tp6465
g94
s(I17
I17
I3
tp6466
F1.0
s(I19
I15
I2
tp6467
g4216
s(I23
I5
I1
tp6468
g5565
s(I22
I23
I1
tp6469
g2
(g6
S'4\xe4\xf6fV\xc9f?'
p6470
tp6471
Rp6472
s(I10
I1
I2
tp6473
g2
(g6
S'4\xe4\xf6fV\xc9f?'
p6474
tp6475
Rp6476
s(I5
I19
I8
tp6477
g889
s(I1
I11
I6
tp6478
g275
s(I13
I4
I4
tp6479
g494
s(I7
I26
I2
tp6480
g3597
s(I3
I8
I2
tp6481
g1039
s(I7
I14
I3
tp6482
g3707
s(I18
I6
I8
tp6483
g595
s(I27
I19
I1
tp6484
g5709
s(I9
I18
I4
tp6485
g2688
s(I20
I8
I6
tp6486
g209
s(I14
I22
I4
tp6487
g1564
s(I6
I18
I2
tp6488
g2
(g6
S'4\xe4\xf6fV\xc9f?'
p6489
tp6490
Rp6491
s(I3
I19
I8
tp6492
g335
s(I25
I12
I4
tp6493
g1515
s(I5
I5
I9
tp6494
F1.0
s(I23
I6
I5
tp6495
g2229
s(I4
I20
I9
tp6496
g3056
s(I4
I6
I1
tp6497
g4326
s(I20
I14
I6
tp6498
g1160
s(I9
I9
I12
tp6499
F1.0
s(I26
I16
I2
tp6500
g5534
s(I14
I14
I14
tp6501
F1.0
s(I18
I2
I10
tp6502
g365
s(I3
I3
I25
tp6503
F1.0
s(I12
I2
I2
tp6504
g2385
s(I15
I8
I1
tp6505
g2
(g6
S'4\xe4\xf6fV\xc9f?'
p6506
tp6507
Rp6508
s(I3
I22
I2
tp6509
g107
s(I21
I7
I4
tp6510
g807
s(I15
I7
I8
tp6511
g4277
s(I12
I21
I8
tp6512
g386
s(I6
I17
I4
tp6513
g204
s(I8
I20
I6
tp6514
g209
s(I11
I10
I1
tp6515
g6223
s(I12
I0
I10
tp6516
g176
s(I16
I3
I2
tp6517
g2060
s(I13
I0
I13
tp6518
g629
s(I14
I22
I6
tp6519
g1564
s(I24
I7
I1
tp6520
g4760
s(I9
I14
I2
tp6521
g141
s(I13
I8
I3
tp6522
g2
(g6
S'4\xe4\xf6fV\xc9f?'
p6523
tp6524
Rp6525
s(I7
I7
I21
tp6526
F1.0
s(I0
I14
I6
tp6527
g429
s(I18
I1
I4
tp6528
g936
s(I21
I9
I5
tp6529
g188
s(I16
I24
I4
tp6530
g2
(g6
S'\x18\x134|\xb9\xado?'
p6531
tp6532
Rp6533
s(I18
I10
I5
tp6534
g1197
s(I21
I4
I6
tp6535
g374
s(I6
I3
I3
tp6536
g2
(g6
S'\x08\r>V\xf1\x03\xee?'
p6537
tp6538
Rp6539
s(I8
I2
I3
tp6540
g5227
s(I12
I16
I2
tp6541
g3225
s(I14
I18
I1
tp6542
g4910
s(I12
I12
I3
tp6543
F1.0
s(I1
I20
I2
tp6544
g4991
s(I19
I25
I4
tp6545
g4698
s(I13
I25
I3
tp6546
g2
(g6
S'4\xe4\xf6fV\xc9f?'
p6547
tp6548
Rp6549
s(I5
I25
I2
tp6550
g4582
s(I11
I20
I5
tp6551
g262
s(I25
I3
I2
tp6552
g4726
s(I10
I0
I1
tp6553
g4123
s(I5
I20
I9
tp6554
g133
s(I17
I1
I10
tp6555
g764
s(I13
I5
I7
tp6556
g233
s(I4
I23
I1
tp6557
g2
(g6
S'4\xe4\xf6fV\xc9f?'
p6558
tp6559
Rp6560
s(I21
I22
I1
tp6561
g2398
s(I9
I24
I2
tp6562
g2
(g6
S'4\xe4\xf6fV\xc9f?'
p6563
tp6564
Rp6565
s(I18
I9
I9
tp6566
g2688
s(I21
I1
I8
tp6567
g690
s(I17
I11
I6
tp6568
g820
s(I2
I22
I5
tp6569
g1254
s(I18
I28
I1
tp6570
g2
(g6
S'4\xe4\xf6fV\xc9f?'
p6571
tp6572
Rp6573
s(I17
I12
I1
tp6574
g2
(g6
S'\x14\xb2N}#\x90\xb8?'
p6575
tp6576
Rp6577
s(I8
I16
I3
tp6578
g4479
s(I11
I22
I4
tp6579
g2502
s(I5
I5
I16
tp6580
F1.0
s(I11
I19
I3
tp6581
g2
(g6
S'\x87`z\x8a\xd5S\x80?'
p6582
tp6583
Rp6584
s(I23
I7
I6
tp6585
g2415
s(I25
I0
I4
tp6586
g2
(g6
S'4\xe4\xf6fV\xc9f?'
p6587
tp6588
Rp6589
s(I6
I9
I2
tp6590
g5278
s(I1
I9
I3
tp6591
g4491
s(I20
I8
I9
tp6592
g209
s(I4
I18
I9
tp6593
g746
s(I5
I16
I7
tp6594
g824
s(I18
I5
I11
tp6595
g561
s(I12
I1
I3
tp6596
g2
(g6
S'4\xe4\xf6fV\xc9f?'
p6597
tp6598
Rp6599
s(I18
I14
I2
tp6600
g2
(g6
S'w\xb6\x1b\xe5\xc22q?'
p6601
tp6602
Rp6603
s(I3
I23
I1
tp6604
g3305
s(I2
I21
I1
tp6605
g4656
s(I20
I16
I1
tp6606
g2
(g6
S'w\xd2\x1a\x8d\xc4\x9b\x93?'
p6607
tp6608
Rp6609
s(I5
I5
I3
tp6610
F1.0
s(I12
I20
I7
tp6611
g932
s(I16
I20
I4
tp6612
g4235
s(I20
I13
I6
tp6613
g1312
s(I8
I19
I7
tp6614
g1821
s(I11
I11
I2
tp6615
F1.0
s(I14
I3
I1
tp6616
g5237
s(I16
I2
I1
tp6617
g4614
s(I4
I11
I3
tp6618
g2
(g6
S'4\xe4\xf6fV\xc9f?'
p6619
tp6620
Rp6621
s(I22
I18
I3
tp6622
g2
(g6
S'\xb7\x8e\x9f\xc0k\x8e\x9f?'
p6623
tp6624
Rp6625
s(I11
I11
I10
tp6626
F1.0
s(I10
I17
I1
tp6627
g391
s(I28
I12
I1
tp6628
g2472
s(I27
I28
I1
tp6629
g2
(g6
S'4\xe4\xf6fV\xc9f?'
p6630
tp6631
Rp6632
s(I0
I13
I7
tp6633
g629
s(I18
I0
I7
tp6634
g1345
s(I3
I5
I2
tp6635
g1973
s(I21
I10
I4
tp6636
g2903
s(I20
I8
I5
tp6637
g209
s(I18
I13
I4
tp6638
g4946
s(I3
I24
I5
tp6639
g1689
s(I21
I5
I5
tp6640
g1217
s(I8
I1
I2
tp6641
g1121
s(I12
I23
I3
tp6642
g4350
s(I1
I21
I1
tp6643
g6272
s(I5
I15
I4
tp6644
g325
s(I5
I26
I3
tp6645
g2
(g6
S'4\xe4\xf6fV\xc9f?'
p6646
tp6647
Rp6648
s(I23
I11
I3
tp6649
g2
(g6
S'4\xe4\xf6fV\xc9f?'
p6650
tp6651
Rp6652
s(I11
I25
I2
tp6653
g2
(g6
S'4\xe4\xf6fV\xc9f?'
p6654
tp6655
Rp6656
s(I21
I14
I5
tp6657
g149
s(I16
I16
I5
tp6658
F1.0
s(I0
I27
I2
tp6659
g2589
s(I13
I6
I6
tp6660
g970
s(I0
I0
I11
tp6661
F1.0
s(I4
I22
I2
tp6662
g2
(g6
S'4\xe4\xf6fV\xc9f?'
p6663
tp6664
Rp6665
s(I3
I17
I11
tp6666
g1587
s(I7
I12
I1
tp6667
g5815
s(I9
I25
I1
tp6668
g2
(g6
S'4\xe4\xf6fV\xc9f?'
p6669
tp6670
Rp6671
s(I8
I15
I1
tp6672
g6508
s(I6
I6
I22
tp6673
F1.0
s(I14
I2
I10
tp6674
g545
s(I2
I25
I4
tp6675
g1546
s(I20
I20
I6
tp6676
F1.0
s(I17
I13
I2
tp6677
g855
s(I2
I2
I5
tp6678
F1.0
s(I20
I1
I1
tp6679
g2
(g6
S'4\xe4\xf6fV\xc9f?'
p6680
tp6681
Rp6682
s(I5
I12
I6
tp6683
g78
s(I14
I3
I8
tp6684
g3584
s(I14
I2
I12
tp6685
g545
s(I16
I19
I1
tp6686
g2259
s(I1
I10
I2
tp6687
g6476
s(I9
I22
I5
tp6688
g1886
s(I21
I25
I3
tp6689
g2
(g6
S's\xf4\x1dyg\xf6\x8e?'
p6690
tp6691
Rp6692
s(I9
I11
I2
tp6693
g2
(g6
S'4\xe4\xf6fV\xc9f?'
p6694
tp6695
Rp6696
s(I4
I17
I8
tp6697
g116
s(I15
I19
I4
tp6698
g2
(g6
S'\xfbg\x10\xbb\xa9\xcer?'
p6699
tp6700
Rp6701
s(I12
I0
I4
tp6702
g176
s(I18
I1
I10
tp6703
g936
s(I2
I20
I2
tp6704
g2815
s(I6
I14
I1
tp6705
g4628
s(I6
I19
I6
tp6706
g57
s(I8
I18
I4
tp6707
g1090
s(I10
I4
I3
tp6708
g5027
s(I11
I8
I3
tp6709
g192
s(I11
I11
I15
tp6710
F1.0
s(I1
I4
I1
tp6711
g5569
s(I19
I9
I1
tp6712
g2
(g6
S'4\xe4\xf6fV\xc9f?'
p6713
tp6714
Rp6715
s(I24
I16
I4
tp6716
g6533
s(I10
I16
I2
tp6717
g2
(g6
S':c\xe2\xb6\xa0b\xb2?'
p6718
tp6719
Rp6720
s(I13
I10
I1
tp6721
g942
s(I4
I4
I22
tp6722
F1.0
s(I18
I3
I6
tp6723
g280
s(I21
I11
I3
tp6724
g2
(g6
S'\x91,\xd4]\x04\xea\x82?'
p6725
tp6726
Rp6727
s(I21
I6
I4
tp6728
g200
s(I5
I18
I6
tp6729
g561
s(I26
I15
I1
tp6730
g5504
s(I1
I16
I9
tp6731
g599
s(I2
I6
I2
tp6732
g2
(g6
S'\x08\r>V\xf1\x03\xee?'
p6733
tp6734
Rp6735
s(I5
I0
I5
tp6736
g3271
s(I13
I3
I7
tp6737
g296
s(I11
I19
I8
tp6738
g1649
s(I19
I10
I5
tp6739
g2692
s(I23
I8
I2
tp6740
g2
(g6
S'4\xe4\xf6fV\xc9f?'
p6741
tp6742
Rp6743
s(I22
I16
I4
tp6744
g950
s(I10
I2
I7
tp6745
g229
s(I1
I10
I8
tp6746
g98
s(I0
I26
I1
tp6747
g2
(g6
S'4\xe4\xf6fV\xc9f?'
p6748
tp6749
Rp6750
s(I21
I17
I2
tp6751
g5421
s(I0
I15
I10
tp6752
g249
s(I4
I21
I3
tp6753
g2
(g6
S'4\xe4\xf6fV\xc9f?'
p6754
tp6755
Rp6756
s(I8
I14
I2
tp6757
g4337
s(I12
I4
I1
tp6758
g3345
s(I20
I14
I1
tp6759
g3411
s(I15
I2
I2
tp6760
g4665
s(I0
I19
I4
tp6761
g1056
s(I20
I11
I7
tp6762
g262
s(I17
I14
I3
tp6763
g2
(g6
S'T\xb4a\xea\xedco?'
p6764
tp6765
Rp6766
s(I12
I3
I2
tp6767
g2
(g6
S'4\xe4\xf6fV\xc9f?'
p6768
tp6769
Rp6770
s(I19
I24
I4
tp6771
g3062
s(I25
I15
I1
tp6772
g6451
s(I3
I15
I11
tp6773
g1681
s(I11
I11
I13
tp6774
F1.0
s(I1
I1
I20
tp6775
F1.0
s(I16
I18
I2
tp6776
g3119
s(I21
I26
I2
tp6777
g378
s(I9
I4
I3
tp6778
g3139
s(I6
I6
I12
tp6779
F1.0
s(I0
I8
I5
tp6780
g1568
s(I18
I7
I9
tp6781
g911
s(I12
I7
I5
tp6782
g41
s(I15
I15
I4
tp6783
F1.0
s(I3
I21
I7
tp6784
g317
s(I2
I23
I3
tp6785
g403
s(I20
I3
I8
tp6786
g520
s(I8
I17
I5
tp6787
g1864
s(I7
I16
I5
tp6788
g474
s(I17
I24
I3
tp6789
g5016
s(I1
I5
I2
tp6790
g2
(g6
S'\x08\r>V\xf1\x03\xee?'
p6791
tp6792
Rp6793
s(I4
I9
I1
tp6794
g3101
s(I22
I28
I1
tp6795
g2
(g6
S'4\xe4\xf6fV\xc9f?'
p6796
tp6797
Rp6798
s(I10
I6
I4
tp6799
g4599
s(I20
I4
I5
tp6800
g3056
s(I10
I19
I3
tp6801
g2
(g6
S'\xe26l\xbb!\xeat?'
p6802
tp6803
Rp6804
s(I9
I9
I7
tp6805
F1.0
s(I3
I12
I9
tp6806
g356
s(I0
I11
I1
tp6807
g3372
s(I18
I2
I1
tp6808
g2
(g6
S'4\xe4\xf6fV\xc9f?'
p6809
tp6810
Rp6811
s(I21
I12
I2
tp6812
g5134
s(I0
I24
I4
tp6813
g4092
s(I13
I20
I2
tp6814
g5640
s(I17
I7
I9
tp6815
g590
s(I12
I21
I1
tp6816
g370
s(I17
I2
I10
tp6817
g339
s(I10
I22
I6
tp6818
g145
s(I2
I9
I3
tp6819
g2454
s(I20
I4
I3
tp6820
g2978
s(I23
I2
I4
tp6821
g321
s(I10
I2
I5
tp6822
g229
s(I19
I11
I6
tp6823
g1649
s(I23
I9
I5
tp6824
g2289
s(I24
I18
I5
tp6825
g4467
s(I9
I21
I8
tp6826
g188
s(I12
I22
I3
tp6827
g2
(g6
S'4\xe4\xf6fV\xc9f?'
p6828
tp6829
Rp6830
s(I7
I7
I12
tp6831
F1.0
s(I0
I14
I9
tp6832
g429
s(I8
I13
I3
tp6833
g6525
s(I26
I16
I3
tp6834
g2
(g6
S'Qu\xd2,\xe5\x9cu?'
p6835
tp6836
Rp6837
s(I15
I3
I1
tp6838
g1999
s(I14
I25
I1
tp6839
g82
s(I1
I20
I8
tp6840
g1225
s(I20
I10
I4
tp6841
g490
s(I20
I7
I7
tp6842
g2551
s(I5
I14
I4
tp6843
g470
s(I2
I14
I12
tp6844
g545
s(I11
I21
I1
tp6845
g3026
s(I28
I22
I1
tp6846
g6798
s(I1
I1
I15
tp6847
F1.0
s(I0
I23
I3
tp6848
g6318
s(I12
I20
I3
tp6849
g2
(g6
S'\xbe\xf4\xcc\xd5\xf0\x04\x8c?'
p6850
tp6851
Rp6852
s(I22
I13
I1
tp6853
g4823
s(I24
I0
I1
tp6854
g1838
s(I19
I23
I1
tp6855
g6067
s(I27
I6
I2
tp6856
g4379
s(I15
I17
I2
tp6857
g2
(g6
S'\xe6\x89B\xbfS\xaa\xd8?'
p6858
tp6859
Rp6860
s(I12
I6
I6
tp6861
g1147
s(I2
I16
I10
tp6862
g795
s(I18
I19
I1
tp6863
g2
(g6
S'4\xe4\xf6fV\xc9f?'
p6864
tp6865
Rp6866
s(I11
I19
I5
tp6867
g1649
s(I11
I21
I5
tp6868
g478
s(I26
I2
I3
tp6869
g1860
s(I15
I21
I6
tp6870
g313
s(I1
I19
I4
tp6871
g1107
s(I20
I5
I5
tp6872
g133
s(I17
I5
I11
tp6873
g433
s(I1
I6
I3
tp6874
g867
s(I19
I7
I3
tp6875
g1047
s(I23
I13
I2
tp6876
g3763
s(I10
I19
I8
tp6877
g2692
s(I13
I1
I4
tp6878
g615
s(I10
I18
I4
tp6879
g1197
s(I6
I20
I9
tp6880
g660
s(I0
I10
I2
tp6881
g2
(g6
S'4\xe4\xf6fV\xc9f?'
p6882
tp6883
Rp6884
s(I3
I0
I1
tp6885
g2
(g6
S'\x08\r>V\xf1\x03\xee?'
p6886
tp6887
Rp6888
s(I7
I22
I2
tp6889
g1335
s(I20
I27
I1
tp6890
g2
(g6
S'\x14\xb8P\xe9\xc3\xab\xa0?'
p6891
tp6892
Rp6893
s(I13
I19
I3
tp6894
g2485
s(I14
I21
I4
tp6895
g149
s(I21
I13
I1
tp6896
g6417
s(I6
I17
I10
tp6897
g204
s(I21
I9
I2
tp6898
g2
(g6
S'4\xe4\xf6fV\xc9f?'
p6899
tp6900
Rp6901
s(I17
I11
I1
tp6902
g6219
s(I15
I0
I8
tp6903
g249
s(I6
I26
I3
tp6904
g6250
s(I14
I3
I10
tp6905
g3584
s(I11
I17
I6
tp6906
g820
s(I19
I8
I7
tp6907
g1821
s(I23
I14
I4
tp6908
g1825
s(I6
I25
I2
tp6909
g6397
s(I24
I17
I4
tp6910
g2659
s(I28
I7
I1
tp6911
g4036
s(I3
I3
I12
tp6912
F1.0
s(I14
I14
I7
tp6913
F1.0
s(I0
I13
I8
tp6914
g629
s(I8
I12
I4
tp6915
g2
(g6
S'\x8c\xed;=,\x92\x7f?'
p6916
tp6917
Rp6918
s(I26
I19
I2
tp6919
g5609
s(I14
I24
I2
tp6920
g2
(g6
S'4\xe4\xf6fV\xc9f?'
p6921
tp6922
Rp6923
s(I2
I26
I1
tp6924
g3251
s(I5
I21
I3
tp6925
g1354
s(I8
I23
I6
tp6926
g648
s(I17
I8
I5
tp6927
g1864
s(I20
I6
I4
tp6928
g660
s(I3
I17
I6
tp6929
g1587
s(I25
I9
I3
tp6930
g2934
s(I11
I15
I3
tp6931
g4722
s(I18
I11
I7
tp6932
g11
s(I2
I16
I11
tp6933
g795
s(I4
I12
I3
tp6934
g6373
s(I16
I16
I12
tp6935
F1.0
s(I22
I12
I2
tp6936
g3037
s(I10
I22
I1
tp6937
g2
(g6
S'4\xe4\xf6fV\xc9f?'
p6938
tp6939
Rp6940
s(I9
I6
I1
tp6941
g5098
s(I13
I16
I2
tp6942
g2075
s(I7
I24
I5
tp6943
g37
s(I15
I22
I3
tp6944
g2
(g6
S'4\xe4\xf6fV\xc9f?'
p6945
tp6946
Rp6947
s(I12
I5
I7
tp6948
g78
s(I9
I19
I9
tp6949
g1983
s(I18
I18
I6
tp6950
F1.0
s(I3
I19
I5
tp6951
g335
s(I6
I11
I2
tp6952
g5758
s(I26
I5
I2
tp6953
g2
(g6
S'4\xe4\xf6fV\xc9f?'
p6954
tp6955
Rp6956
s(I14
I10
I2
tp6957
g4670
s(I19
I12
I5
tp6958
g2357
s(I17
I26
I1
tp6959
g5077
s(I1
I7
I4
tp6960
g1923
s(I19
I4
I2
tp6961
g4453
s(I4
I15
I7
tp6962
g1413
s(I18
I1
I8
tp6963
g936
s(I27
I21
I2
tp6964
g2
(g6
S'\xb0\x18\xff\xf4a\xc0\xc3?'
p6965
tp6966
Rp6967
s(I10
I21
I5
tp6968
g2903
s(I13
I13
I4
tp6969
F1.0
s(I3
I18
I8
tp6970
g280
s(I0
I9
I3
tp6971
g6152
s(I18
I4
I3
tp6972
g2
(g6
S'4\xe4\xf6fV\xc9f?'
p6973
tp6974
Rp6975
s(I7
I23
I1
tp6976
g2394
s(I6
I5
I1
tp6977
g2390
s(I8
I8
I1
tp6978
F1.0
s(I11
I21
I3
tp6979
g6727
s(I5
I20
I7
tp6980
g133
s(I17
I1
I11
tp6981
g764
s(I6
I16
I9
tp6982
g769
s(I14
I9
I4
tp6983
g2
(g6
S'J\x04\x1d\xca\xdcQ\xbb?'
p6984
tp6985
Rp6986
s(I2
I11
I1
tp6987
g2
(g6
S'4\xe4\xf6fV\xc9f?'
p6988
tp6989
Rp6990
s(I1
I17
I5
tp6991
g764
s(I19
I18
I1
tp6992
g6866
s(I23
I0
I6
tp6993
g1977
s(I25
I5
I4
tp6994
g2
(g6
S'4\xe4\xf6fV\xc9f?'
p6995
tp6996
Rp6997
s(I24
I27
I2
tp6998
g4212
s(I19
I9
I8
tp6999
g1983
s(I16
I28
I1
tp7000
g2958
s(I3
I15
I3
tp7001
g3212
s(I7
I5
I2
tp7002
g885
s(I11
I19
I4
tp7003
g1649
s(I0
I23
I5
tp7004
g1977
s(I12
I9
I2
tp7005
g848
s(I18
I22
I3
tp7006
g6625
s(I7
I12
I5
tp7007
g41
s(I20
I8
I2
tp7008
g5557
s(I8
I22
I5
tp7009
g811
s(I13
I17
I3
tp7010
g2
(g6
S'\x99\x84\x89$\x8cU\x8f?'
p7011
tp7012
Rp7013
s(I5
I24
I2
tp7014
g2
(g6
S'4\xe4\xf6fV\xc9f?'
p7015
tp7016
Rp7017
s(I3
I16
I9
tp7018
g221
s(I25
I10
I2
tp7019
g5200
s(I1
I3
I1
tp7020
g4220
s(I0
I21
I1
tp7021
g2
(g6
S'4\xe4\xf6fV\xc9f?'
p7022
tp7023
Rp7024
s(I19
I24
I5
tp7025
g3062
s(I22
I15
I3
tp7026
g6947
s(I13
I17
I1
tp7027
g3846
s(I1
I1
I24
tp7028
F1.0
s(I18
I8
I4
tp7029
g1090
s(I12
I4
I8
tp7030
g1882
s(I15
I2
I11
tp7031
g1524
s(I3
I16
I4
tp7032
g221
s(I8
I25
I1
tp7033
g5164
s(I26
I4
I1
tp7034
g5887
s(I25
I20
I1
tp7035
g2096
s(I15
I15
I11
tp7036
F1.0
s(I14
I5
I3
tp7037
g2
(g6
S'4\xe4\xf6fV\xc9f?'
p7038
tp7039
Rp7040
s(I19
I14
I4
tp7041
g3966
s(I5
I18
I2
tp7042
g1782
s(I4
I14
I4
tp7043
g2051
s(I4
I4
I13
tp7044
F1.0
s(I13
I3
I2
tp7045
g2
(g6
S'4\xe4\xf6fV\xc9f?'
p7046
tp7047
Rp7048
s(I21
I1
I2
tp7049
g2
(g6
S'4\xe4\xf6fV\xc9f?'
p7050
tp7051
Rp7052
s(I18
I7
I2
tp7053
g6308
s(I6
I6
I5
tp7054
F1.0
s(I6
I4
I2
tp7055
g2
(g6
S'\x08\r>V\xf1\x03\xee?'
p7056
tp7057
Rp7058
s(I26
I22
I2
tp7059
g3455
s(I15
I5
I4
tp7060
g325
s(I14
I23
I6
tp7061
g1825
s(I2
I2
I25
tp7062
F1.0
s(I20
I12
I7
tp7063
g932
s(I17
I21
I3
tp7064
g5436
s(I12
I19
I2
tp7065
g2
(g6
S'\xd0\x8b\x9f$\xc9\x9dk?'
p7066
tp7067
Rp7068
s(I1
I18
I4
tp7069
g936
s(I5
I4
I1
tp7070
g4898
s(I23
I1
I1
tp7071
g1639
s(I0
I19
I8
tp7072
g1056
s(I10
I13
I2
tp7073
g5034
s(I19
I6
I9
tp7074
g57
s(I23
I12
I6
tp7075
g2121
s(I0
I17
I12
tp7076
g1155
s(I3
I12
I2
tp7077
g6770
s(I7
I10
I3
tp7078
g2
(g6
S'4\xe4\xf6fV\xc9f?'
p7079
tp7080
Rp7081
s(I5
I19
I3
tp7082
g292
s(I12
I3
I4
tp7083
g356
s(I11
I23
I3
tp7084
g6652
s(I2
I19
I10
tp7085
g966
s(I18
I25
I2
tp7086
g2
(g6
S'\xc0\xf8\xe37`*\x8d?'
p7087
tp7088
Rp7089
s(I1
I1
I13
tp7090
F1.0
s(I6
I22
I2
tp7091
g2579
s(I8
I21
I4
tp7092
g984
s(I21
I26
I3
tp7093
g2
(g6
S'\x01\xb40=U\x93\xbe?'
p7094
tp7095
Rp7096
s(I19
I19
I9
tp7097
F1.0
s(I16
I4
I8
tp7098
g304
s(I11
I16
I2
tp7099
g5263
s(I18
I1
I9
tp7100
g936
s(I19
I1
I2
tp7101
g3260
s(I4
I2
I1
tp7102
g2
(g6
S'\x08\r>V\xf1\x03\xee?'
p7103
tp7104
Rp7105
s(I22
I5
I5
tp7106
g2182
s(I24
I8
I5
tp7107
g458
s(I9
I13
I4
tp7108
g5658
s(I22
I14
I4
tp7109
g1564
s(I7
I7
I7
tp7110
F1.0
s(I9
I0
I7
tp7111
g742
s(I19
I4
I5
tp7112
g90
s(I15
I20
I1
tp7113
g3542
s(I3
I26
I2
tp7114
g4332
s(I21
I12
I7
tp7115
g386
s(I20
I10
I7
tp7116
g490
s(I11
I14
I1
tp7117
g2
(g6
S'Tv\xb7\xbd\xc5%\x9f?'
p7118
tp7119
Rp7120
s(I7
I22
I7
tp7121
g902
s(I17
I17
I12
tp7122
F1.0
s(I16
I7
I2
tp7123
g4261
s(I5
I24
I4
tp7124
g2583
s(I23
I5
I6
tp7125
g3609
s(I1
I1
I6
tp7126
F1.0
s(I19
I2
I4
tp7127
g966
s(I4
I13
I5
tp7128
g494
s(I24
I11
I1
tp7129
g2
(g6
S'4\xe4\xf6fV\xc9f?'
p7130
tp7131
Rp7132
s(I13
I4
I3
tp7133
g2215
s(I14
I22
I7
tp7134
g1564
s(I5
I17
I11
tp7135
g433
s(I20
I24
I4
tp7136
g61
s(I12
I12
I2
tp7137
F1.0
s(I3
I21
I6
tp7138
g317
s(I14
I22
I1
tp7139
g2
(g6
S'\x8dt\xb6\x81\xdd\xb4\xd4?'
p7140
tp7141
Rp7142
s(I6
I18
I5
tp7143
g595
s(I20
I3
I6
tp7144
g520
s(I17
I22
I2
tp7145
g2
(g6
S'4\xe4\xf6fV\xc9f?'
p7146
tp7147
Rp7148
s(I2
I13
I7
tp7149
g1103
s(I5
I5
I2
tp7150
F1.0
s(I25
I7
I2
tp7151
g3695
s(I10
I12
I1
tp7152
g1854
s(I20
I22
I2
tp7153
g2527
s(I10
I4
I5
tp7154
g619
s(I0
I16
I3
tp7155
g5832
s(I16
I26
I3
tp7156
g6837
s(I9
I9
I9
tp7157
F1.0
s(I4
I19
I1
tp7158
g2
(g6
S'4\xe4\xf6fV\xc9f?'
p7159
tp7160
Rp7161
s(I22
I10
I1
tp7162
g6940
s(I19
I7
I1
tp7163
g2
(g6
S'4\xe4\xf6fV\xc9f?'
p7164
tp7165
Rp7166
s(I3
I3
I18
tp7167
F1.0
s(I12
I2
I7
tp7168
g102
s(I15
I8
I4
tp7169
g1135
s(I11
I2
I2
tp7170
g5333
s(I18
I24
I1
tp7171
g3700
s(I17
I0
I1
tp7172
g6404
s(I6
I17
I3
tp7173
g2
(g6
S'4\xe4\xf6fV\xc9f?'
p7174
tp7175
Rp7176
s(I8
I20
I3
tp7177
g2
(g6
S'4\xe4\xf6fV\xc9f?'
p7178
tp7179
Rp7180
s(I20
I3
I9
tp7181
g520
s(I1
I9
I8
tp7182
g2837
s(I19
I11
I8
tp7183
g1649
s(I1
I13
I3
tp7184
g4419
s(I5
I23
I2
tp7185
g2
(g6
S'4\xe4\xf6fV\xc9f?'
p7186
tp7187
Rp7188
s(I22
I4
I6
tp7189
g33
s(I24
I7
I4
tp7190
g37
s(I9
I14
I5
tp7191
g6986
s(I22
I9
I5
tp7192
g1886
s(I9
I1
I4
tp7193
g2837
s(I18
I10
I2
tp7194
g2
(g6
S'c\xfc\x9a\xd4\xeaZi?'
p7195
tp7196
Rp7197
s(I3
I27
I1
tp7198
g6330
s(I2
I17
I1
tp7199
g2560
s(I20
I28
I1
tp7200
g2035
s(I18
I23
I5
tp7201
g70
s(I10
I18
I6
tp7202
g1197
s(I11
I15
I2
tp7203
g2597
s(I14
I7
I1
tp7204
g2675
s(I16
I6
I1
tp7205
g2
(g6
S'4\xe4\xf6fV\xc9f?'
p7206
tp7207
Rp7208
s(I12
I1
I5
tp7209
g412
s(I19
I12
I6
tp7210
g2357
s(I22
I22
I3
tp7211
F1.0
s(I27
I27
I2
tp7212
F1.0
s(I5
I20
I4
tp7213
g133
s(I24
I10
I2
tp7214
g2
(g6
S'4\xe4\xf6fV\xc9f?'
p7215
tp7216
Rp7217
s(I28
I8
I1
tp7218
g5102
s(I27
I16
I1
tp7219
g5430
s(I8
I8
I21
tp7220
F1.0
s(I12
I27
I2
tp7221
g1572
s(I14
I2
I8
tp7222
g545
s(I3
I17
I4
tp7223
g1587
s(I6
I6
I4
tp7224
F1.0
s(I8
I5
I2
tp7225
g6312
s(I12
I19
I3
tp7226
g2
(g6
S'\xb1\xfc\x980\xc9\xe5t?'
p7227
tp7228
Rp7229
s(I17
I12
I4
tp7230
g1269
s(I20
I2
I5
tp7231
g129
s(I11
I2
I7
tp7232
g1965
s(I17
I23
I5
tp7233
g3808
s(I10
I6
I3
tp7234
g1339
s(I8
I18
I8
tp7235
g1090
s(I23
I7
I3
tp7236
g6050
s(I25
I0
I3
tp7237
g420
s(I5
I17
I10
tp7238
g433
s(I11
I11
I17
tp7239
F1.0
s(I16
I25
I2
tp7240
g3548
s(I4
I18
I2
tp7241
g5317
s(I3
I10
I4
tp7242
g1608
s(I7
I8
I1
tp7243
g5410
s(I13
I23
I4
tp7244
g1761
s(I26
I26
I1
tp7245
F1.0
s(I1
I1
I8
tp7246
F1.0
s(I15
I9
I3
tp7247
g2
(g6
S'\xc9b<\xacV\xc3\x84?'
p7248
tp7249
Rp7250
s(I8
I8
I8
tp7251
F1.0
s(I15
I4
I4
tp7252
g1413
s(I17
I1
I2
tp7253
g2
(g6
S'4\xe4\xf6fV\xc9f?'
p7254
tp7255
Rp7256
s(I20
I13
I1
tp7257
g2
(g6
S'N\x98\x04U\x08\xd9\x86?'
p7258
tp7259
Rp7260
s(I8
I19
I2
tp7261
g2
(g6
S'4\xe4\xf6fV\xc9f?'
p7262
tp7263
Rp7264
s(I16
I2
I10
tp7265
g795
s(I19
I8
I9
tp7266
g1821
s(I4
I11
I6
tp7267
g1326
s(I16
I23
I1
tp7268
g4407
s(I1
I14
I2
tp7269
g2
(g6
S'4\xe4\xf6fV\xc9f?'
p7270
tp7271
Rp7272
s(I0
I18
I4
tp7273
g1345
s(I22
I7
I7
tp7274
g902
s(I10
I17
I4
tp7275
g1902
s(I9
I15
I2
tp7276
g5632
s(I22
I8
I6
tp7277
g811
s(I9
I2
I5
tp7278
g1635
s(I13
I20
I6
tp7279
g1312
s(I18
I13
I3
tp7280
g1022
s(I2
I16
I2
tp7281
g2
(g6
S'4\xe4\xf6fV\xc9f?'
p7282
tp7283
Rp7284
s(I6
I2
I1
tp7285
g5049
s(I21
I7
I7
tp7286
g807
s(I17
I19
I2
tp7287
g718
s(I1
I24
I1
tp7288
g300
s(I19
I13
I1
tp7289
g2320
s(I23
I11
I4
tp7290
g4996
s(I22
I17
I2
tp7291
g7148
s(I8
I8
I16
tp7292
F1.0
s(I19
I0
I6
tp7293
g1056
s(I24
I9
I3
tp7294
g4881
s(I13
I6
I1
tp7295
g5750
s(I15
I24
I2
tp7296
g5119
s(I3
I6
I3
tp7297
g6539
s(I8
I15
I4
tp7298
g1135
s(I6
I6
I19
tp7299
F1.0
s(I20
I14
I2
tp7300
g6303
s(I26
I11
I1
tp7301
g3858
s(I2
I2
I2
tp7302
F1.0
s(I20
I1
I4
tp7303
g1225
s(I26
I24
I2
tp7304
g4204
s(I14
I5
I8
tp7305
g470
s(I2
I15
I5
tp7306
g1524
s(I23
I4
I2
tp7307
g3731
s(I11
I26
I3
tp7308
g2
(g6
S'"\xca\xdc\xd4F\xa2~?'
p7309
tp7310
Rp7311
s(I17
I7
I8
tp7312
g590
s(I13
I13
I14
tp7313
F1.0
s(I4
I4
I4
tp7314
F1.0
s(I21
I25
I4
tp7315
g466
s(I4
I17
I3
tp7316
g171
s(I3
I11
I7
tp7317
g2251
s(I13
I24
I5
tp7318
g4200
s(I12
I0
I1
tp7319
g2
(g6
S'4\xe4\xf6fV\xc9f?'
p7320
tp7321
Rp7322
s(I2
I19
I7
tp7323
g966
s(I17
I2
I3
tp7324
g2328
s(I6
I19
I1
tp7325
g5111
s(I8
I18
I1
tp7326
g859
s(I23
I26
I1
tp7327
g2
(g6
S'\xd8\r\xa1\xb2\xfe6\xe1?'
p7328
tp7329
Rp7330
s(I25
I19
I1
tp7331
g2
(g6
S'f\x1a\x7f\xc0\xf47\xb2?'
p7332
tp7333
Rp7334
s(I14
I2
I3
tp7335
g3913
s(I16
I1
I11
tp7336
g599
s(I10
I10
I17
tp7337
F1.0
s(I19
I9
I6
tp7338
g1983
s(I4
I10
I5
tp7339
g619
s(I16
I22
I2
tp7340
g1497
s(I1
I15
I5
tp7341
g799
s(I0
I17
I5
tp7342
g1155
s(I8
I8
I20
tp7343
F1.0
s(I1
I23
I6
tp7344
g395
s(I19
I4
I7
tp7345
g90
s(I15
I15
I8
tp7346
F1.0
s(I18
I0
I9
tp7347
g1345
s(I13
I21
I5
tp7348
g2855
s(I21
I11
I8
tp7349
g478
s(I6
I22
I5
tp7350
g980
s(I27
I3
I2
tp7351
g1201
s(I8
I0
I8
tp7352
g1568
s(I8
I0
I2
tp7353
g308
s(I11
I6
I5
tp7354
g697
s(I18
I6
I6
tp7355
g595
s(I0
I19
I5
tp7356
g1056
s(I14
I1
I7
tp7357
g786
s(I16
I4
I7
tp7358
g304
s(I1
I25
I2
tp7359
g2
(g6
S'4\xe4\xf6fV\xc9f?'
p7360
tp7361
Rp7362
s(I5
I27
I1
tp7363
g2189
s(I23
I8
I5
tp7364
g648
s(I22
I16
I1
tp7365
g4708
s(I1
I12
I9
tp7366
g412
s(I5
I22
I6
tp7367
g2182
s(I2
I2
I22
tp7368
F1.0
s(I0
I15
I1
tp7369
g5244
s(I21
I8
I5
tp7370
g984
s(I21
I8
I2
tp7371
g4733
s(I3
I13
I8
tp7372
g296
s(I12
I4
I6
tp7373
g1882
s(I6
I0
I6
tp7374
g4764
s(I8
I3
I4
tp7375
g2671
s(I12
I17
I1
tp7376
g6577
s(I19
I1
I10
tp7377
g1107
s(I14
I19
I2
tp7378
g3485
s(I2
I5
I3
tp7379
g2
(g6
S'\x08\r>V\xf1\x03\xee?'
p7380
tp7381
Rp7382
s(I20
I0
I3
tp7383
g2
(g6
S'4\xe4\xf6fV\xc9f?'
p7384
tp7385
Rp7386
s(I21
I10
I3
tp7387
g111
s(I17
I17
I7
tp7388
F1.0
s(I11
I20
I9
tp7389
g262
s(I25
I2
I1
tp7390
g5980
s(I1
I1
I17
tp7391
F1.0
s(I1
I11
I2
tp7392
g2069
s(I22
I2
I5
tp7393
g1254
s(I7
I3
I4
tp7394
g6455
s(I19
I23
I2
tp7395
g2
(g6
S'd\x1f\n=\x0fx\x9b?'
p7396
tp7397
Rp7398
s(I21
I21
I4
tp7399
F1.0
s(I15
I15
I1
tp7400
F1.0
s(I4
I4
I21
tp7401
F1.0
s(I7
I18
I11
tp7402
g911
s(I11
I2
I8
tp7403
g1965
s(I23
I27
I2
tp7404
g2735
s(I11
I9
I1
tp7405
g5005
s(I28
I18
I1
tp7406
g6573
s(I16
I0
I4
tp7407
g343
s(I19
I6
I7
tp7408
g57
s(I4
I9
I4
tp7409
g1559
s(I16
I21
I3
tp7410
g2841
s(I1
I8
I4
tp7411
g2724
s(I0
I16
I10
tp7412
g343
s(I13
I0
I10
tp7413
g629
s(I22
I1
I1
tp7414
g5053
s(I24
I4
I1
tp7415
g241
s(I6
I6
I7
tp7416
F1.0
s(I15
I7
I6
tp7417
g4277
s(I13
I22
I4
tp7418
g1629
s(I21
I4
I3
tp7419
g6756
s(I18
I15
I1
tp7420
g4127
s(I2
I18
I4
tp7421
g365
s(I20
I17
I2
tp7422
g1961
s(I26
I14
I3
tp7423
g3166
s(I2
I9
I6
tp7424
g1635
s(I20
I4
I8
tp7425
g3056
s(I14
I0
I4
tp7426
g429
s(I16
I3
I6
tp7427
g221
s(I1
I26
I3
tp7428
g4255
s(I19
I11
I3
tp7429
g6584
s(I23
I9
I2
tp7430
g3284
s(I20
I6
I2
tp7431
g4508
s(I9
I0
I8
tp7432
g742
s(I7
I7
I9
tp7433
F1.0
s(I0
I14
I2
tp7434
g2766
s(I4
I20
I1
tp7435
g3178
s(I3
I4
I1
tp7436
g840
s(I21
I9
I1
tp7437
g6029
s(I17
I4
I8
tp7438
g116
s(I25
I9
I1
tp7439
g6671
s(I20
I10
I9
tp7440
g490
s(I19
I0
I5
tp7441
g1056
s(I17
I15
I1
tp7442
g5174
s(I20
I7
I2
tp7443
g3506
s(I3
I17
I3
tp7444
g3636
s(I8
I8
I19
tp7445
F1.0
s(I11
I24
I1
tp7446
g7132
s(I0
I23
I6
tp7447
g1977
s(I28
I3
I1
tp7448
g6268
s(I5
I14
I8
tp7449
g470
s(I22
I13
I4
tp7450
g1629
s(I21
I27
I2
tp7451
g6967
s(I4
I23
I5
tp7452
g1409
s(I7
I15
I4
tp7453
g4277
s(I12
I6
I3
tp7454
g6167
s(I2
I22
I1
tp7455
g2
(g6
S'4\xe4\xf6fV\xc9f?'
p7456
tp7457
Rp7458
s(I18
I6
I5
tp7459
g595
s(I0
I0
I26
tp7460
F1.0
s(I13
I18
I5
tp7461
g4946
s(I25
I13
I3
tp7462
g6549
s(I5
I5
I20
tp7463
F1.0
s(I12
I17
I5
tp7464
g1269
s(I19
I7
I4
tp7465
g553
s(I4
I8
I3
tp7466
g871
s(I27
I11
I2
tp7467
g3982
s(I1
I9
I7
tp7468
g2837
s(I13
I1
I9
tp7469
g615
s(I22
I0
I2
tp7470
g3341
s(I10
I18
I1
tp7471
g5579
s(I9
I10
I1
tp7472
g2031
s(I27
I27
I1
tp7473
F1.0
s(I4
I4
I16
tp7474
F1.0
s(I15
I18
I3
tp7475
g4032
s(I2
I21
I5
tp7476
g863
s(I6
I15
I2
tp7477
g6135
s(I26
I1
I2
tp7478
g2
(g6
S'4\xe4\xf6fV\xc9f?'
p7479
tp7480
Rp7481
s(I11
I4
I7
tp7482
g1326
s(I14
I14
I2
tp7483
F1.0
s(I2
I8
I5
tp7484
g1807
s(I11
I11
I6
tp7485
F1.0
s(I14
I3
I5
tp7486
g3584
s(I16
I2
I5
tp7487
g795
s(I19
I8
I2
tp7488
g7264
s(I23
I14
I3
tp7489
g6386
s(I25
I11
I2
tp7490
g6656
s(I1
I14
I11
tp7491
g786
s(I15
I2
I13
tp7492
g1524
s(I20
I11
I3
tp7493
g6075
s(I3
I14
I7
tp7494
g3584
s(I0
I13
I3
tp7495
g2
(g6
S'4\xe4\xf6fV\xc9f?'
p7496
tp7497
Rp7498
s(I18
I0
I3
tp7499
g4593
s(I7
I19
I1
tp7500
g7166
s(I9
I20
I5
tp7501
g2324
s(I8
I12
I1
tp7502
g6130
s(I8
I1
I6
tp7503
g2724
s(I14
I0
I10
tp7504
g429
s(I20
I9
I8
tp7505
g2324
s(I2
I7
I1
tp7506
g5001
s(I20
I6
I1
tp7507
g644
s(I19
I22
I1
tp7508
g5868
s(I3
I16
I12
tp7509
g221
s(I23
I17
I5
tp7510
g3808
s(I0
I22
I5
tp7511
g1770
s(I16
I16
I1
tp7512
F1.0
s(I12
I5
I5
tp7513
g78
s(I22
I12
I7
tp7514
g24
s(I7
I1
I2
tp7515
g86
s(I0
I0
I23
tp7516
F1.0
s(I4
I22
I6
tp7517
g33
s(I24
I22
I1
tp7518
g6176
s(I27
I10
I1
tp7519
g3490
s(I12
I5
I2
tp7520
g2403
s(I6
I6
I10
tp7521
F1.0
s(I18
I18
I3
tp7522
F1.0
s(I19
I2
I9
tp7523
g966
s(I20
I20
I2
tp7524
F1.0
s(I23
I18
I5
tp7525
g70
s(I11
I0
I10
tp7526
g74
s(I25
I14
I2
tp7527
g4071
s(I11
I22
I6
tp7528
g2502
s(I1
I7
I1
tp7529
g5966
s(I5
I17
I4
tp7530
g433
s(I4
I15
I2
tp7531
g2427
s(I19
I13
I6
tp7532
g1192
s(I1
I10
I6
tp7533
g98
s(I13
I2
I8
tp7534
g1103
s(I22
I3
I3
tp7535
g4828
s(I24
I2
I3
tp7536
g2
(g6
S'4\xe4\xf6fV\xc9f?'
p7537
tp7538
Rp7539
s(I13
I13
I1
tp7540
F1.0
s(I5
I18
I5
tp7541
g561
s(I8
I8
I6
tp7542
F1.0
s(I2
I20
I6
tp7543
g129
s(I6
I14
I5
tp7544
g666
s(I26
I0
I1
tp7545
g6750
s(I25
I24
I1
tp7546
g5527
s(I14
I9
I3
tp7547
g4850
s(I2
I11
I4
tp7548
g1965
s(I26
I8
I2
tp7549
g3364
s(I2
I2
I27
tp7550
F1.0
s(I16
I1
I4
tp7551
g599
s(I10
I10
I8
tp7552
F1.0
s(I1
I15
I12
tp7553
g799
s(I25
I1
I1
tp7554
g4740
s(I0
I7
I5
tp7555
g94
s(I3
I15
I4
tp7556
g1681
s(I0
I12
I4
tp7557
g176
s(I18
I3
I2
tp7558
g5899
s(I21
I11
I7
tp7559
g478
s(I9
I21
I6
tp7560
g188
s(I26
I18
I2
tp7561
g4687
s(I21
I6
I8
tp7562
g200
s(I17
I6
I10
tp7563
g204
s(I12
I22
I4
tp7564
g24
s(I21
I7
I5
tp7565
g807
s(I17
I9
I3
tp7566
g919
s(I10
I20
I3
tp7567
g6160
s(I6
I24
I1
tp7568
g3789
s(I5
I0
I1
tp7569
g4449
s(I14
I1
I12
tp7570
g786
s(I7
I15
I6
tp7571
g4277
s(I19
I26
I3
tp7572
g2
(g6
S'+\xe0\xb5m\xdf\xdd\xc0?'
p7573
tp7574
Rp7575
s(I10
I0
I8
tp7576
g557
s(I0
I21
I4
tp7577
g511
s(I0
I0
I18
tp7578
F1.0
s(I22
I15
I6
tp7579
g245
s(I4
I21
I7
tp7580
g374
s(I15
I15
I13
tp7581
F1.0
s(I13
I28
I1
tp7582
g2
(g6
S'4\xe4\xf6fV\xc9f?'
p7583
tp7584
Rp7585
s(I18
I21
I2
tp7586
g5541
s(I2
I24
I3
tp7587
g7539
s(I6
I10
I2
tp7588
g3143
s(I25
I20
I4
tp7589
g3115
s(I14
I5
I6
tp7590
g470
s(I11
I20
I2
tp7591
g271
s(I15
I2
I10
tp7592
g1524
s(I24
I13
I5
tp7593
g4200
s(I19
I5
I2
tp7594
g2
(g6
S'4\xe4\xf6fV\xc9f?'
p7595
tp7596
Rp7597
s(I4
I14
I1
tp7598
g2
(g6
S'4\xe4\xf6fV\xc9f?'
p7599
tp7600
Rp7601
s(I24
I1
I2
tp7602
g4633
s(I4
I4
I24
tp7603
F1.0
s(I0
I8
I1
tp7604
g5754
s(I15
I16
I1
tp7605
g2
(g6
S'\x84\xe3\xd1F\xc0p\xba?'
p7606
tp7607
Rp7608
s(I21
I15
I4
tp7609
g313
s(I12
I12
I16
tp7610
F1.0
s(I15
I5
I9
tp7611
g325
s(I12
I26
I1
tp7612
g2963
s(I11
I2
I1
tp7613
g6990
s(I17
I21
I4
tp7614
g6121
s(I2
I10
I3
tp7615
g2991
s(I16
I0
I11
tp7616
g343
s(I23
I12
I1
tp7617
g2911
s(I24
I15
I1
tp7618
g2
(g6
S'4\xe4\xf6fV\xc9f?'
p7619
tp7620
Rp7621
s(I13
I0
I3
tp7622
g7498
s(I0
I6
I6
tp7623
g4764
s(I3
I12
I5
tp7624
g356
s(I5
I16
I1
tp7625
g5678
s(I18
I2
I5
tp7626
g365
s(I3
I3
I4
tp7627
F1.0
s(I21
I12
I6
tp7628
g386
s(I9
I22
I7
tp7629
g1886
s(I12
I8
I2
tp7630
g2
(g6
S'4\xe4\xf6fV\xc9f?'
p7631
tp7632
Rp7633
s(I25
I25
I2
tp7634
F1.0
s(I14
I26
I1
tp7635
g4040
s(I12
I21
I5
tp7636
g386
s(I17
I10
I2
tp7637
g2
(g6
S'p\xc5\xf9\xe1\x1d\x9a\x91?'
p7638
tp7639
Rp7640
s(I5
I1
I2
tp7641
g6793
s(I24
I14
I1
tp7642
g4161
s(I10
I8
I1
tp7643
g3161
s(I8
I17
I9
tp7644
g1864
s(I1
I12
I7
tp7645
g412
s(I0
I20
I3
tp7646
g7386
s(I0
I25
I4
tp7647
g6589
s(I22
I14
I1
tp7648
g7142
s(I9
I0
I2
tp7649
g2
(g6
S'4\xe4\xf6fV\xc9f?'
p7650
tp7651
Rp7652
s(I18
I20
I1
tp7653
g1957
s(I17
I4
I1
tp7654
g2538
s(I2
I27
I2
tp7655
g6237
s(I6
I21
I3
tp7656
g2
(g6
S'4\xe4\xf6fV\xc9f?'
p7657
tp7658
Rp7659
s(I8
I24
I3
tp7660
g3564
s(I14
I4
I5
tp7661
g2051
s(I2
I14
I8
tp7662
g545
s(I25
I8
I4
tp7663
g876
s(I1
I1
I3
tp7664
F1.0
s(I5
I19
I2
tp7665
g7597
s(I17
I1
I9
tp7666
g764
s(I10
I23
I2
tp7667
g1238
s(I26
I0
I2
tp7668
g237
s(I18
I6
I2
tp7669
g6491
s(I7
I21
I4
tp7670
g807
s(I20
I24
I1
tp7671
g1381
s(I12
I12
I8
tp7672
F1.0
s(I12
I12
I7
tp7673
F1.0
s(I19
I19
I10
tp7674
F1.0
s(I11
I3
I2
tp7675
g4678
s(I14
I11
I1
tp7676
g7120
s(I2
I13
I2
tp7677
g6289
s(I17
I25
I4
tp7678
g2762
s(I15
I4
I6
tp7679
g1413
s(I10
I25
I1
tp7680
g2
(g6
S'4\xe4\xf6fV\xc9f?'
p7681
tp7682
Rp7683
s(I28
I4
I1
tp7684
g2
(g6
S'4\xe4\xf6fV\xc9f?'
p7685
tp7686
Rp7687
s(I27
I20
I1
tp7688
g6893
s(I10
I18
I8
tp7689
g1197
s(I4
I19
I4
tp7690
g90
s(I3
I13
I2
tp7691
g7048
s(I3
I17
I9
tp7692
g1587
s(I0
I10
I6
tp7693
g557
s(I18
I5
I4
tp7694
g561
s(I12
I2
I8
tp7695
g102
s(I21
I13
I5
tp7696
g2855
s(I12
I15
I3
tp7697
g1741
s(I20
I13
I3
tp7698
g4609
s(I12
I12
I10
tp7699
F1.0
s(I5
I2
I3
tp7700
g7382
s(I23
I3
I3
tp7701
g2860
s(I11
I17
I2
tp7702
g2
(g6
S'R\xb3N\x0f\xa1\xeb\xae?'
p7703
tp7704
Rp7705
s(I16
I8
I5
tp7706
g611
s(I1
I13
I4
tp7707
g615
s(I0
I19
I2
tp7708
g6348
s(I17
I0
I9
tp7709
g1155
s(I1
I16
I10
tp7710
g599
s(I7
I4
I1
tp7711
g2
(g6
S'\x08\r>V\xf1\x03\xee?'
p7712
tp7713
Rp7714
s(I9
I1
I1
tp7715
g1281
s(I0
I11
I5
tp7716
g74
s(I15
I21
I3
tp7717
g6095
s(I24
I5
I5
tp7718
g2583
s(I2
I17
I4
tp7719
g339
s(I15
I0
I12
tp7720
g249
s(I17
I5
I2
tp7721
g5301
s(I21
I4
I5
tp7722
g374
s(I20
I9
I1
tp7723
g2
(g6
S'4\xe4\xf6fV\xc9f?'
p7724
tp7725
Rp7726
s(I8
I23
I2
tp7727
g6743
s(I17
I8
I9
tp7728
g1864
s(I20
I6
I8
tp7729
g660
s(I14
I7
I4
tp7730
g2348
s(I16
I6
I10
tp7731
g769
s(I11
I18
I4
tp7732
g11
s(I7
I17
I7
tp7733
g590
s(I16
I11
I1
tp7734
g2
(g6
S'\x01\xb8\xe1[\xfaV\x8c?'
p7735
tp7736
Rp7737
s(I5
I20
I3
tp7738
g2
(g6
S'4\xe4\xf6fV\xc9f?'
p7739
tp7740
Rp7741
s(I16
I16
I8
tp7742
F1.0
s(I2
I2
I16
tp7743
F1.0
s(I1
I16
I7
tp7744
g599
s(I18
I9
I3
tp7745
g2
(g6
S'4\xe4\xf6fV\xc9f?'
p7746
tp7747
Rp7748
s(I26
I21
I3
tp7749
g7096
s(I6
I6
I1
tp7750
F1.0
s(I12
I19
I6
tp7751
g2357
s(I23
I3
I6
tp7752
g1816
s(I11
I17
I5
tp7753
g820
s(I11
I0
I3
tp7754
g1621
s(I17
I23
I2
tp7755
g3329
s(I2
I12
I1
tp7756
g3656
s(I1
I28
I1
tp7757
g3066
s(I19
I17
I1
tp7758
g5674
s(I24
I24
I4
tp7759
F1.0
s(I1
I21
I8
tp7760
g690
s(I10
I24
I2
tp7761
g7217
s(I0
I0
I27
tp7762
F1.0
s(I13
I2
I1
tp7763
g2255
s(I4
I18
I7
tp7764
g746
s(I3
I10
I3
tp7765
g15
s(I0
I9
I7
tp7766
g742
s(I18
I4
I7
tp7767
g746
s(I10
I17
I2
tp7768
g7640
s(I21
I14
I4
tp7769
g149
s(I9
I16
I1
tp7770
g3555
s(I8
I8
I13
tp7771
F1.0
s(I26
I23
I1
tp7772
g7330
s(I14
I20
I3
tp7773
g5553
s(I24
I17
I5
tp7774
g2659
s(I21
I11
I4
tp7775
g478
s(I23
I0
I2
tp7776
g2
(g6
S'4\xe4\xf6fV\xc9f?'
p7777
tp7778
Rp7779
s(I10
I10
I7
tp7780
F1.0
s(I16
I23
I4
tp7781
g462
s(I1
I14
I5
tp7782
g786
s(I0
I18
I1
tp7783
g2899
s(I22
I8
I3
tp7784
g4624
s(I14
I14
I12
tp7785
F1.0
s(I9
I2
I7
tp7786
g1635
s(I15
I10
I2
tp7787
g3751
s(I2
I16
I7
tp7788
g795
s(I15
I1
I11
tp7789
g799
s(I17
I6
I3
tp7790
g7176
s(I6
I23
I1
tp7791
g5522
s(I8
I22
I1
tp7792
g3426
s(I23
I22
I1
tp7793
g6472
s(I25
I23
I1
tp7794
g2
(g6
S'\xf1\xae\x96`\xea\x05\xdf?'
p7795
tp7796
Rp7797
s(I20
I5
I9
tp7798
g133
s(I14
I6
I3
tp7799
g6045
s(I16
I5
I11
tp7800
g824
s(I11
I19
I7
tp7801
g1649
s(I16
I10
I2
tp7802
g6720
s(I19
I0
I1
tp7803
g2307
s(I6
I16
I5
tp7804
g769
s(I9
I12
I3
tp7805
g5348
s(I0
I0
I5
tp7806
F1.0
s(I15
I24
I5
tp7807
g713
s(I15
I23
I4
tp7808
g1987
s(I21
I2
I7
tp7809
g863
s(I8
I4
I2
tp7810
g5908
s(I12
I18
I5
tp7811
g1469
s(I19
I1
I7
tp7812
g1107
s(I18
I1
I6
tp7813
g936
s(I5
I7
I1
tp7814
g5343
s(I6
I18
I7
tp7815
g595
s(I22
I20
I1
tp7816
g1583
s(I19
I10
I3
tp7817
g6804
s(I19
I5
I9
tp7818
g889
s(I19
I7
I10
tp7819
g553
s(I20
I5
I3
tp7820
g7741
s(I4
I4
I9
tp7821
F1.0
s(I16
I24
I2
tp7822
g3011
s(I0
I3
I1
tp7823
g6888
s(I4
I17
I6
tp7824
g116
s(I4
I20
I5
tp7825
g3056
s(I26
I19
I3
tp7826
g7575
s(I18
I7
I6
tp7827
g911
s(I7
I20
I4
tp7828
g2551
s(I9
I17
I2
tp7829
g6039
s(I12
I13
I1
tp7830
g1778
s(I14
I23
I2
tp7831
g2
(g6
S'4\xe4\xf6fV\xc9f?'
p7832
tp7833
Rp7834
s(I7
I18
I6
tp7835
g911
s(I20
I12
I3
tp7836
g6852
s(I19
I19
I6
tp7837
F1.0
s(I23
I1
I5
tp7838
g395
s(I25
I6
I1
tp7839
g1872
s(I1
I15
I2
tp7840
g4267
s(I16
I2
I13
tp7841
g795
s(I22
I11
I2
tp7842
g2827
s(I6
I20
I7
tp7843
g660
s(I3
I3
I15
tp7844
F1.0
s(I15
I11
I1
tp7845
g4516
s(I3
I25
I4
tp7846
g1242
s(I2
I19
I6
tp7847
g966
s(I6
I13
I7
tp7848
g970
s(I8
I0
I7
tp7849
g1568
s(I17
I7
I4
tp7850
g590
s(I6
I22
I6
tp7851
g980
s(I23
I23
I2
tp7852
F1.0
s(I11
I13
I1
tp7853
g4024
s(I17
I4
I12
tp7854
g116
s(I14
I1
I2
tp7855
g7272
s(I16
I4
I12
tp7856
g304
s(I16
I9
I3
tp7857
g3405
s(I5
I22
I1
tp7858
g2
(g6
S'4\xe4\xf6fV\xc9f?'
p7859
tp7860
Rp7861
s(I22
I5
I1
tp7862
g7861
s(I24
I8
I1
tp7863
g4403
s(I13
I7
I3
tp7864
g5787
s(I5
I15
I10
tp7865
g325
s(I0
I15
I4
tp7866
g249
s(I15
I25
I2
tp7867
g2
(g6
S'4\xe4\xf6fV\xc9f?'
p7868
tp7869
Rp7870
s(I18
I11
I1
tp7871
g5258
s(I10
I3
I5
tp7872
g1608
s(I6
I0
I3
tp7873
g2134
s(I8
I3
I3
tp7874
g4785
s(I26
I10
I3
tp7875
g3231
s(I25
I9
I2
tp7876
g45
s(I19
I15
I3
tp7877
g6002
s(I23
I5
I2
tp7878
g7188
s(I10
I1
I5
tp7879
g98
s(I19
I2
I8
tp7880
g966
s(I1
I11
I7
tp7881
g275
s(I24
I11
I5
tp7882
g1074
s(I13
I4
I7
tp7883
g494
s(I0
I2
I2
tp7884
g4793
s(I4
I16
I1
tp7885
g2623
s(I3
I8
I1
tp7886
g4768
s(I21
I21
I1
tp7887
F1.0
s(I21
I3
I4
tp7888
g317
s(I18
I6
I9
tp7889
g595
s(I1
I1
I14
tp7890
F1.0
s(I9
I18
I3
tp7891
g7748
s(I17
I3
I1
tp7892
g446
s(I20
I3
I2
tp7893
g2987
s(I2
I13
I11
tp7894
g1103
s(I19
I12
I3
tp7895
g7229
s(I23
I6
I4
tp7896
g2229
s(I11
I28
I1
tp7897
g6285
s(I3
I17
I7
tp7898
g1587
s(I1
I8
I3
tp7899
g4951
s(I23
I25
I2
tp7900
g815
s(I17
I17
I9
tp7901
F1.0
s(I9
I9
I13
tp7902
F1.0
s(I22
I22
I6
tp7903
F1.0
s(I18
I12
I6
tp7904
g1469
s(I16
I7
I9
tp7905
g474
s(I12
I2
I3
tp7906
g4541
s(I3
I22
I5
tp7907
g1139
s(I2
I18
I1
tp7908
g6811
s(I6
I12
I4
tp7909
g1147
s(I17
I0
I5
tp7910
g1155
s(I20
I14
I4
tp7911
g1160
s(I8
I20
I7
tp7912
g209
s(I23
I20
I3
tp7913
g3450
s(I25
I17
I3
tp7914
g5194
s(I14
I0
I1
tp7915
g4855
s(I16
I3
I13
tp7916
g221
s(I18
I8
I9
tp7917
g1090
s(I14
I0
I14
tp7918
g429
s(I0
I0
I17
tp7919
F1.0
s(I22
I4
I2
tp7920
g6665
s(I9
I14
I1
tp7921
g4230
s(I13
I8
I2
tp7922
g2
(g6
S'4\xe4\xf6fV\xc9f?'
p7923
tp7924
Rp7925
s(I14
I4
I8
tp7926
g2051
s(I0
I14
I7
tp7927
g429
s(I4
I20
I6
tp7928
g3056
s(I7
I18
I9
tp7929
g911
s(I18
I10
I6
tp7930
g1197
s(I21
I4
I1
tp7931
g1507
s(I6
I3
I2
tp7932
g2
(g6
S'\x08\r>V\xf1\x03\xee?'
p7933
tp7934
Rp7935
s(I26
I13
I2
tp7936
g1736
s(I14
I18
I2
tp7937
g6603
s(I25
I20
I3
tp7938
g3396
s(I17
I18
I1
tp7939
g2983
s(I26
I11
I3
tp7940
g7311
s(I19
I12
I2
tp7941
g7068
s(I23
I10
I3
tp7942
g6180
s(I25
I3
I3
tp7943
g6425
s(I10
I0
I6
tp7944
g557
s(I5
I20
I8
tp7945
g133
s(I3
I18
I11
tp7946
g280
s(I13
I5
I4
tp7947
g233
s(I7
I15
I1
tp7948
g6206
s(I24
I22
I2
tp7949
g2
(g6
S'z*\xc8\x80B\x01\x92?'
p7950
tp7951
Rp7952
s(I18
I9
I8
tp7953
g2688
s(I2
I22
I6
tp7954
g1254
s(I2
I3
I1
tp7955
g3022
s(I20
I2
I1
tp7956
g3875
s(I19
I26
I1
tp7957
g2
(g6
S'>4\xbb\xde\x16W\xb3?'
p7958
tp7959
Rp7960
s(I25
I13
I4
tp7961
g2679
s(I5
I5
I17
tp7962
F1.0
s(I10
I21
I6
tp7963
g2903
s(I10
I15
I4
tp7964
g791
s(I16
I20
I1
tp7965
g6609
s(I21
I24
I3
tp7966
g2267
s(I18
I5
I10
tp7967
g561
s(I27
I14
I1
tp7968
g2017
s(I12
I1
I2
tp7969
g2177
s(I18
I14
I3
tp7970
g1221
s(I26
I5
I3
tp7971
g6648
s(I20
I16
I2
tp7972
g1277
s(I15
I4
I8
tp7973
g1413
s(I17
I1
I6
tp7974
g764
s(I6
I16
I4
tp7975
g769
s(I8
I19
I6
tp7976
g1821
s(I25
I18
I2
tp7977
g7089
s(I1
I27
I1
tp7978
g1127
s(I4
I11
I2
tp7979
g1799
s(I22
I18
I4
tp7980
g2
(g6
S'r\xe3\\\x15\x1e_\x8a?'
p7981
tp7982
Rp7983
s(I3
I3
I8
tp7984
F1.0
s(I25
I1
I2
tp7985
g7362
s(I24
I6
I3
tp7986
g2407
s(I9
I15
I6
tp7987
g253
s(I13
I9
I1
tp7988
g1009
s(I0
I13
I6
tp7989
g629
s(I18
I0
I4
tp7990
g1345
s(I7
I19
I10
tp7991
g553
s(I7
I14
I6
tp7992
g2348
s(I3
I24
I4
tp7993
g1689
s(I21
I5
I2
tp7994
g4638
s(I8
I1
I1
tp7995
g4813
s(I12
I23
I2
tp7996
g6113
s(I25
I28
I1
tp7997
g4587
s(I3
I18
I10
tp7998
g280
s(I24
I1
I5
tp7999
g1368
s(I5
I15
I5
tp8000
g325
s(I1
I24
I5
tp8001
g1368
s(I5
I26
I2
tp8002
g6956
s(I11
I25
I3
tp8003
g407
s(I10
I3
I7
tp8004
g1608
s(I19
I0
I10
tp8005
g1056
s(I16
I16
I6
tp8006
F1.0
s(I13
I6
I5
tp8007
g970
s(I0
I0
I12
tp8008
F1.0
s(I27
I19
I2
tp8009
g2
(g6
S'\xdf\xec?(=bq?'
p8010
tp8011
Rp8012
s(I19
I4
I3
tp8013
g2278
s(I21
I2
I8
tp8014
g863
s(I18
I18
I8
tp8015
F1.0
s(I20
I20
I7
tp8016
F1.0
s(I7
I2
I5
tp8017
g1868
s(I17
I13
I3
tp8018
g7013
s(I2
I2
I6
tp8019
F1.0
s(I6
I28
I1
tp8020
g4243
s(I19
I27
I2
tp8021
g8012
s(I23
I25
I1
tp8022
g7797
s(I11
I23
I4
tp8023
g4996
s(I23
I4
I6
tp8024
g1409
s(I25
I1
I4
tp8025
g3935
s(I17
I22
I5
tp8026
g528
s(I17
I4
I10
tp8027
g116
s(I1
I10
I1
tp8028
g2
(g6
S'4\xe4\xf6fV\xc9f?'
p8029
tp8030
Rp8031
s(I7
I2
I3
tp8032
g4167
s(I10
I15
I5
tp8033
g791
s(I13
I2
I6
tp8034
g1103
s(I18
I4
I9
tp8035
g746
s(I13
I24
I1
tp8036
g3386
s(I12
I0
I5
tp8037
g176
s(I3
I20
I7
tp8038
g520
s(I2
I20
I3
tp8039
g4887
s(I6
I14
I2
tp8040
g6340
s(I17
I2
I7
tp8041
g339
s(I6
I19
I5
tp8042
g57
s(I8
I18
I5
tp8043
g1090
s(I11
I8
I2
tp8044
g3031
s(I19
I9
I2
tp8045
g2374
s(I4
I10
I1
tp8046
g5931
s(I24
I16
I5
tp8047
g6533
s(I2
I18
I11
tp8048
g365
s(I22
I6
I4
tp8049
g980
s(I24
I5
I2
tp8050
g7017
s(I17
I2
I8
tp8051
g339
s(I3
I15
I9
tp8052
g1681
s(I25
I12
I3
tp8053
g2247
s(I0
I12
I1
tp8054
g7322
s(I15
I28
I1
tp8055
g5686
s(I26
I3
I3
tp8056
g5476
s(I18
I12
I4
tp8057
g1469
s(I21
I6
I3
tp8058
g7659
s(I12
I22
I1
tp8059
g4182
s(I11
I6
I1
tp8060
g2
(g6
S'4\xe4\xf6fV\xc9f?'
p8061
tp8062
Rp8063
s(I5
I17
I9
tp8064
g433
s(I2
I6
I3
tp8065
g2462
s(I1
I22
I7
tp8066
g1483
s(I5
I0
I4
tp8067
g5205
s(I14
I1
I11
tp8068
g786
s(I24
I14
I2
tp8069
g6923
s(I19
I10
I4
tp8070
g2692
s(I23
I8
I1
tp8071
g2336
s(I22
I16
I5
tp8072
g950
s(I24
I19
I1
tp8073
g3975
s(I0
I15
I13
tp8074
g249
s(I4
I21
I2
tp8075
g5583
s(I15
I15
I5
tp8076
F1.0
s(I8
I14
I3
tp8077
g6104
s(I12
I4
I2
tp8078
g5271
s(I15
I2
I5
tp8079
g1524
s(I2
I24
I4
tp8080
g1528
s(I20
I11
I6
tp8081
g262
s(I9
I9
I18
tp8082
F1.0
s(I17
I14
I2
tp8083
g2379
s(I20
I0
I7
tp8084
g225
s(I5
I13
I2
tp8085
g3722
s(I25
I15
I2
tp8086
g7870
s(I16
I0
I8
tp8087
g343
s(I1
I1
I21
tp8088
F1.0
s(I22
I10
I6
tp8089
g145
s(I4
I27
I1
tp8090
g5374
s(I22
I2
I1
tp8091
g7458
s(I21
I26
I1
tp8092
g4367
s(I9
I4
I2
tp8093
g5115
s(I15
I9
I6
tp8094
g253
s(I0
I8
I6
tp8095
g1568
s(I4
I20
I8
tp8096
g3056
s(I13
I25
I2
tp8097
g4097
s(I12
I7
I4
tp8098
g41
s(I18
I16
I1
tp8099
g3988
s(I10
I19
I5
tp8100
g2692
s(I2
I23
I2
tp8101
g3186
s(I6
I9
I3
tp8102
g3350
s(I3
I17
I5
tp8103
g1587
s(I6
I18
I10
tp8104
g595
s(I8
I17
I4
tp8105
g1864
s(I16
I1
I13
tp8106
g599
s(I1
I18
I10
tp8107
g936
s(I6
I15
I6
tp8108
g2708
s(I17
I24
I2
tp8109
g1833
s(I14
I9
I5
tp8110
g6986
s(I1
I5
I3
tp8111
g399
s(I19
I6
I3
tp8112
g3884
s(I23
I11
I6
tp8113
g4996
s(I15
I4
I9
tp8114
g1413
s(I24
I15
I4
tp8115
g713
s(I13
I0
I6
tp8116
g629
s(I22
I1
I5
tp8117
g1483
s(I10
I19
I2
tp8118
g2627
s(I9
I9
I4
tp8119
F1.0
s(I3
I12
I8
tp8120
g356
s(I18
I2
I2
tp8121
g1143
s(I3
I3
I1
tp8122
F1.0
s(I2
I18
I10
tp8123
g365
s(I6
I16
I7
tp8124
g769
s(I11
I7
I2
tp8125
g3651
s(I14
I15
I1
tp8126
g1427
s(I2
I9
I2
tp8127
g4605
s(I20
I4
I4
tp8128
g3056
s(I14
I0
I8
tp8129
g429
s(I19
I11
I7
tp8130
g1649
s(I23
I9
I6
tp8131
g2289
s(I10
I5
I1
tp8132
g4801
s(I28
I0
I1
tp8133
g2796
s(I17
I0
I12
tp8134
g1155
s(I2
I21
I8
tp8135
g863
s(I25
I18
I3
tp8136
g5448
s(I17
I4
I9
tp8137
g116
s(I7
I7
I13
tp8138
F1.0
s(I0
I14
I14
tp8139
g429
s(I0
I11
I8
tp8140
g74
s(I2
I13
I9
tp8141
g1103
s(I8
I13
I2
tp8142
g7925
s(I15
I3
I6
tp8143
g1681
s(I17
I4
I4
tp8144
g116
s(I2
I18
I5
tp8145
g365
s(I20
I10
I5
tp8146
g490
s(I4
I19
I10
tp8147
g90
s(I3
I3
I9
tp8148
F1.0
s(I20
I7
I6
tp8149
g2551
s(I5
I14
I3
tp8150
g7040
s(I11
I21
I2
tp8151
g5040
s(I21
I12
I5
tp8152
g386
s(I11
I24
I5
tp8153
g1074
s(I0
I23
I2
tp8154
g7779
s(I4
I26
I2
tp8155
g880
s(I7
I0
I1
tp8156
g2
(g6
S'\x08\r>V\xf1\x03\xee?'
p8157
tp8158
Rp8159
s(I9
I5
I1
tp8160
g6391
s(I7
I15
I8
tp8161
g4277
s(I18
I6
I7
tp8162
g595
s(I13
I26
I3
tp8163
g2506
s(I3
I18
I1
tp8164
g180
s(I4
I4
I20
tp8165
F1.0
s(I20
I21
I1
tp8166
g2543
s(I8
I27
I2
tp8167
g438
s(I20
I2
I8
tp8168
g129
s(I25
I4
I3
tp8169
g2
(g6
S'4\xe4\xf6fV\xc9f?'
p8170
tp8171
Rp8172
s(I1
I19
I5
tp8173
g1107
s(I5
I5
I24
tp8174
F1.0
s(I17
I25
I1
tp8175
g3676
s(I16
I15
I1
tp8176
g7608
s(I1
I6
I2
tp8177
g3470
s(I5
I16
I3
tp8178
g1364
s(I23
I13
I3
tp8179
g1693
s(I10
I25
I4
tp8180
g3446
s(I13
I1
I5
tp8181
g615
s(I22
I0
I6
tp8182
g1770
s(I24
I3
I4
tp8183
g1689
s(I0
I10
I3
tp8184
g3157
s(I18
I5
I3
tp8185
g5390
s(I24
I6
I2
tp8186
g2023
s(I9
I15
I5
tp8187
g253
s(I11
I4
I3
tp8188
g6621
s(I17
I11
I2
tp8189
g7705
s(I2
I8
I1
tp8190
g1213
s(I1
I16
I1
tp8191
g5022
s(I19
I21
I1
tp8192
g4558
s(I23
I3
I4
tp8193
g1816
s(I19
I8
I6
tp8194
g1821
s(I10
I4
I2
tp8195
g3007
s(I24
I2
I2
tp8196
g6062
s(I3
I14
I3
tp8197
g2874
s(I9
I20
I1
tp8198
g7726
s(I27
I9
I1
tp8199
g1669
s(I26
I19
I1
tp8200
g7960
s(I15
I0
I7
tp8201
g249
s(I14
I24
I3
tp8202
g536
s(I2
I26
I2
tp8203
g5185
s(I20
I9
I4
tp8204
g2324
s(I17
I8
I4
tp8205
g1864
s(I2
I7
I5
tp8206
g1868
s(I20
I6
I5
tp8207
g660
s(I15
I1
I6
tp8208
g799
s(I11
I18
I3
tp8209
g4756
s(I12
I1
I9
tp8210
g412
s(I0
I22
I1
tp8211
g4902
s(I4
I12
I4
tp8212
g1882
s(I16
I16
I13
tp8213
F1.0
s(I4
I25
I3
tp8214
g8172
s(I22
I12
I3
tp8215
g6830
s(I10
I22
I2
tp8216
g2
(g6
S'4\xe4\xf6fV\xc9f?'
p8217
tp8218
Rp8219
s(I0
I0
I19
tp8220
F1.0
s(I6
I23
I6
tp8221
g2229
s(I15
I22
I2
tp8222
g2
(g6
S'4\xe4\xf6fV\xc9f?'
p8223
tp8224
Rp8225
s(I14
I1
I5
tp8226
g786
s(I12
I5
I6
tp8227
g78
s(I9
I19
I10
tp8228
g1983
s(I18
I18
I7
tp8229
F1.0
s(I3
I19
I2
tp8230
g4523
s(I6
I11
I1
tp8231
g8063
s(I8
I26
I1
tp8232
g2
(g6
S'4\xe4\xf6fV\xc9f?'
p8233
tp8234
Rp8235
s(I23
I18
I1
tp8236
g6243
s(I25
I27
I1
tp8237
g3105
s(I20
I1
I9
tp8238
g1225
s(I14
I10
I3
tp8239
g6366
s(I16
I14
I2
tp8240
g5703
s(I1
I7
I5
tp8241
g1923
s(I19
I4
I1
tp8242
g7161
s(I4
I15
I6
tp8243
g1413
s(I19
I3
I10
tp8244
g335
s(I7
I3
I3
tp8245
g5773
s(I13
I2
I4
tp8246
g1103
s(I22
I3
I7
tp8247
g1139
s(I10
I21
I4
tp8248
g2903
s(I13
I13
I5
tp8249
F1.0
s(I18
I1
I3
tp8250
g2
(g6
S'4\xe4\xf6fV\xc9f?'
p8251
tp8252
Rp8253
s(I0
I9
I2
tp8254
g7652
s(I7
I22
I6
tp8255
g902
s(I20
I26
I3
tp8256
g6202
s(I8
I8
I2
tp8257
F1.0
s(I3
I20
I8
tp8258
g520
s(I24
I19
I3
tp8259
g3948
s(I14
I20
I4
tp8260
g1160
s(I25
I10
I3
tp8261
g3266
s(I17
I20
I3
tp8262
g2047
s(I1
I17
I2
tp8263
g7256
s(I5
I3
I1
tp8264
g4940
s(I23
I0
I5
tp8265
g1977
s(I10
I10
I12
tp8266
F1.0
s(I19
I9
I9
tp8267
g1983
s(I23
I15
I4
tp8268
g1987
s(I10
I7
I3
tp8269
g7081
s(I0
I7
I1
tp8270
g8159
s(I21
I16
I2
tp8271
g2
(g6
S'\x8b\xda\x95\x8e\x1c\xbc\x93?'
p8272
tp8273
Rp8274
s(I0
I12
I8
tp8275
g176
s(I9
I21
I2
tp8276
g6901
s(I12
I9
I1
tp8277
g4644
s(I18
I22
I4
tp8278
g7983
s(I14
I27
I2
tp8279
g5624
s(I20
I8
I3
tp8280
g7180
s(I17
I9
I7
tp8281
g582
s(I20
I5
I4
tp8282
g133
s(I3
I17
I10
tp8283
g1587
s(I25
I10
I1
tp8284
g7683
s(I19
I13
I4
tp8285
g1192
s(I1
I3
I2
tp8286
g6006
s(I4
I24
I4
tp8287
g760
s(I22
I15
I2
tp8288
g8225
s(I18
I1
I11
tp8289
g936
s(I15
I23
I1
tp8290
g158
s(I22
I22
I7
tp8291
F1.0
s(I3
I16
I3
tp8292
g4844
s(I23
I19
I2
tp8293
g7398
s(I11
I1
I1
tp8294
g5805
s(I14
I5
I2
tp8295
g1701
s(I16
I13
I3
tp8296
g5282
s(I5
I18
I1
tp8297
g5210
s(I4
I14
I5
tp8298
g2051
s(I22
I25
I1
tp8299
g2344
s(I24
I12
I1
tp8300
g3368
s(I4
I4
I14
tp8301
F1.0
s(I27
I18
I2
tp8302
g3775
s(I10
I20
I7
tp8303
g490
s(I18
I7
I1
tp8304
g1665
s(I12
I0
I11
tp8305
g176
s(I20
I25
I2
tp8306
g4299
s(I26
I22
I3
tp8307
g5368
s(I15
I2
I7
tp8308
g1524
s(I15
I5
I5
tp8309
g325
s(I14
I23
I5
tp8310
g1825
s(I11
I2
I5
tp8311
g1965
s(I14
I8
I4
tp8312
g2645
s(I2
I10
I7
tp8313
g229
s(I1
I18
I3
tp8314
g8253
s(I19
I19
I3
tp8315
F1.0
s(I23
I1
I2
tp8316
g4048
s(I25
I6
I4
tp8317
g5252
s(I19
I6
I8
tp8318
g57
s(I23
I12
I5
tp8319
g2121
s(I0
I17
I11
tp8320
g1155
s(I0
I6
I2
tp8321
g6463
s(I4
I28
I1
tp8322
g7687
s(I3
I12
I1
tp8323
g6421
s(I7
I10
I2
tp8324
g1991
s(I9
I3
I4
tp8325
g2139
s(I2
I14
I5
tp8326
g545
s(I2
I2
I23
tp8327
F1.0
s(I9
I22
I3
tp8328
g625
s(I2
I19
I9
tp8329
g966
s(I4
I21
I6
tp8330
g374
s(I15
I6
I1
tp8331
g2
(g6
S'4\xe4\xf6fV\xc9f?'
p8332
tp8333
Rp8334
s(I17
I7
I1
tp8335
g3153
s(I20
I15
I2
tp8336
g5472
s(I17
I10
I6
tp8337
g1902
s(I16
I4
I9
tp8338
g304
s(I11
I16
I1
tp8339
g7737
s(I28
I27
I1
tp8340
g6632
s(I17
I3
I6
tp8341
g1587
s(I1
I12
I3
tp8342
g6599
s(I19
I1
I3
tp8343
g5190
s(I22
I5
I4
tp8344
g2182
s(I17
I17
I8
tp8345
F1.0
s(I22
I14
I5
tp8346
g1564
s(I7
I7
I4
tp8347
F1.0
s(I9
I0
I6
tp8348
g742
s(I18
I11
I4
tp8349
g11
s(I5
I19
I7
tp8350
g889
s(I15
I3
I9
tp8351
g1681
s(I2
I2
I10
tp8352
F1.0
s(I2
I18
I8
tp8353
g365
s(I23
I16
I3
tp8354
g2439
s(I25
I21
I3
tp8355
g6692
s(I14
I4
I1
tp8356
g7601
s(I2
I14
I4
tp8357
g545
s(I19
I15
I4
tp8358
g6701
s(I16
I12
I4
tp8359
g4075
s(I20
I3
I3
tp8360
g125
s(I5
I19
I6
tp8361
g889
s(I4
I13
I4
tp8362
g494
s(I22
I24
I2
tp8363
g7952
s(I10
I26
I1
tp8364
g4772
s(I13
I4
I2
tp8365
g4424
s(I25
I2
I3
tp8366
g65
s(I10
I23
I6
tp8367
g3713
s(I15
I26
I3
tp8368
g4390
s(I9
I19
I5
tp8369
g1983
s(I5
I5
I10
tp8370
F1.0
s(I21
I0
I1
tp8371
g7024
s(I26
I9
I2
tp8372
g3085
s(I14
I22
I2
tp8373
g424
s(I19
I14
I5
tp8374
g3966
s(I17
I22
I1
tp8375
g1377
s(I2
I13
I6
tp8376
g1103
s(I10
I23
I5
tp8377
g3713
s(I19
I16
I2
tp8378
g3863
s(I23
I6
I3
tp8379
g4620
s(I25
I7
I3
tp8380
g5068
s(I5
I16
I8
tp8381
g824
s(I0
I16
I4
tp8382
g343
s(I0
I5
I3
tp8383
g3051
s(I22
I10
I2
tp8384
g8219
s(I7
I11
I1
tp8385
g5857
s(I0
I10
I10
tp8386
g557
s(I3
I3
I19
tp8387
F1.0
s(I12
I2
I4
tp8388
g102
s(I9
I23
I4
tp8389
g2289
s(I15
I7
I2
tp8390
g2802
s(I6
I17
I2
tp8391
g803
s(I14
I0
I9
tp8392
g429
s(I3
I13
I6
tp8393
g296
s(I16
I3
I8
tp8394
g221
s(I16
I8
I1
tp8395
g2819
s(I5
I23
I3
tp8396
g1064
s(I22
I4
I7
tp8397
g33
s(I9
I14
I4
tp8398
g6986
s(I22
I9
I4
tp8399
g1886
s(I9
I1
I5
tp8400
g2837
s(I27
I2
I1
tp8401
g450
s(I16
I24
I5
tp8402
g6533
s(I18
I10
I3
tp8403
g6413
s(I21
I21
I6
tp8404
F1.0
s(I18
I23
I4
tp8405
g70
s(I11
I3
I8
tp8406
g2251
s(I14
I14
I10
tp8407
F1.0
s(I23
I17
I4
tp8408
g3808
s(I25
I22
I2
tp8409
g6089
s(I10
I20
I9
tp8410
g490
s(I16
I6
I6
tp8411
g769
s(I5
I25
I4
tp8412
g6997
s(I23
I10
I6
tp8413
g3713
s(I16
I11
I5
tp8414
g993
s(I19
I3
I4
tp8415
g335
s(I24
I10
I3
tp8416
g3380
s(I13
I5
I1
tp8417
g5796
s(I19
I3
I7
tp8418
g335
s(I17
I3
I7
tp8419
g1587
s(I3
I9
I3
tp8420
g3576
s(I7
I26
I1
tp8421
g5486
s(I9
I19
I1
tp8422
g6715
s(I8
I5
I1
tp8423
g2
(g6
S'\x08\r>V\xf1\x03\xee?'
p8424
tp8425
Rp8426
s(I26
I8
I1
tp8427
g8235
s(I14
I17
I3
tp8428
g6766
s(I11
I0
I7
tp8429
g74
s(I17
I23
I6
tp8430
g3808
s(I2
I12
I5
tp8431
g102
s(I25
I0
I2
tp8432
g3197
s(I24
I13
I3
tp8433
g3869
s(I19
I4
I10
tp8434
g90
s(I17
I17
I11
tp8435
F1.0
s(I16
I25
I1
tp8436
g6436
s(I0
I4
I4
tp8437
g1331
s(I4
I18
I3
tp8438
g6975
s(I5
I16
I6
tp8439
g824
s(I4
I4
I18
tp8440
F1.0
s(I13
I23
I5
tp8441
g1761
s(I26
I26
I2
tp8442
F1.0
s(I9
I16
I5
tp8443
g2419
s(I8
I8
I9
tp8444
F1.0
s(I15
I4
I3
tp8445
g5992
s(I17
I1
I3
tp8446
g1969
s(I6
I16
I1
tp8447
g7208
s(I5
I8
I1
tp8448
g8426
s(I23
I21
I1
tp8449
g3831
s(I2
I11
I9
tp8450
g1965
s(I16
I2
I11
tp8451
g795
s(I19
I8
I8
tp8452
g1821
s(I1
I14
I1
tp8453
g2619
s(I0
I18
I5
tp8454
g1345
s(I13
I13
I8
tp8455
F1.0
s(I22
I7
I6
tp8456
g902
s(I24
I6
I4
tp8457
g2449
s(I9
I15
I3
tp8458
g7250
s(I22
I8
I7
tp8459
g811
s(I9
I2
I4
tp8460
g1635
s(I13
I20
I1
tp8461
g7260
s(I18
I13
I2
tp8462
g3572
s(I2
I16
I3
tp8463
g2878
s(I6
I2
I2
tp8464
g6735
s(I24
I3
I3
tp8465
g1350
s(I14
I6
I7
tp8466
g666
s(I16
I5
I7
tp8467
g824
s(I19
I13
I2
tp8468
g4495
s(I23
I11
I5
tp8469
g4996
s(I14
I8
I6
tp8470
g2645
s(I5
I21
I4
tp8471
g1217
s(I24
I9
I2
tp8472
g6565
s(I22
I22
I5
tp8473
F1.0
s(I0
I0
I1
tp8474
F1.0
s(I15
I24
I1
tp8475
g7621
s(I3
I6
I2
tp8476
g7935
s(I8
I15
I7
tp8477
g1135
s(I7
I27
I2
tp8478
g3202
s(I6
I1
I4
tp8479
g2832
s(I14
I2
I11
tp8480
g545
s(I12
I18
I1
tp8481
g2
(g6
S'\x8c)z\x0e\x83\xd9\xe2?'
p8482
tp8483
Rp8484
s(I19
I4
I9
tp8485
g90
s(I17
I13
I4
tp8486
g4288
s(I2
I2
I3
tp8487
F1.0
s(I11
I1
I8
tp8488
g275
s(I2
I15
I4
tp8489
g1524
s(I23
I4
I1
tp8490
g6560
s(I11
I26
I2
tp8491
g5698
s(I24
I23
I1
tp8492
g2823
s(I5
I18
I10
tp8493
g561
s(I3
I13
I7
tp8494
g296
s(I4
I4
I5
tp8495
F1.0
s(I1
I17
I10
tp8496
g764
s(I4
I17
I2
tp8497
g5153
s(I3
I11
I4
tp8498
g2251
s(I13
I24
I4
tp8499
g4200
s(I12
I0
I2
tp8500
g1459
s(I9
I17
I6
tp8501
g582
s(I3
I3
I16
tp8502
F1.0
s(I17
I2
I2
tp8503
g4500
s(I7
I21
I7
tp8504
g807
s(I5
I9
I2
tp8505
g3236
s(I25
I19
I2
tp8506
g2787
s(I16
I1
I10
tp8507
g599
s(I14
I2
I4
tp8508
g545
s(I22
I11
I7
tp8509
g2502
s(I10
I10
I18
tp8510
F1.0
s(I19
I9
I7
tp8511
g1983
s(I21
I13
I6
tp8512
g2855
s(I16
I22
I3
tp8513
g3940
s(I1
I15
I6
tp8514
g799
s(I0
I17
I4
tp8515
g1155
s(I4
I7
I1
tp8516
g7714
s(I22
I6
I1
tp8517
g5453
s(I10
I16
I4
tp8518
g2870
s(I22
I11
I6
tp8519
g2502
s(I18
I3
I8
tp8520
g280
s(I13
I21
I2
tp8521
g2715
s(I18
I12
I1
tp8522
g8484
s(I2
I19
I2
tp8523
g486
s(I6
I13
I3
tp8524
g3820
s(I8
I0
I3
tp8525
g3109
s(I11
I6
I4
tp8526
g697
s(I23
I23
I6
tp8527
F1.0
s(I25
I16
I4
tp8528
g3758
s(I8
I19
I10
tp8529
g1821
s(I14
I1
I6
tp8530
g786
s(I9
I1
I8
tp8531
g2837
s(I1
I25
I3
tp8532
g5716
s(I5
I27
I2
tp8533
g4397
s(I23
I8
I4
tp8534
g648
s(I16
I9
I7
tp8535
g2419
s(I1
I12
I8
tp8536
g412
s(I5
I22
I5
tp8537
g2182
s(I1
I16
I12
tp8538
g599
s(I14
I3
I11
tp8539
g3584
s(I3
I7
I1
tp8540
g1555
s(I7
I13
I4
tp8541
g1013
s(I8
I14
I4
tp8542
g2645
s(I12
I4
I7
tp8543
g1882
s(I7
I24
I3
tp8544
g1178
s(I14
I19
I1
tp8545
g6362
s(I2
I5
I2
tp8546
g603
s(I3
I3
I10
tp8547
F1.0
s(I17
I17
I4
tp8548
F1.0
s(I11
I20
I8
tp8549
g262
s(I3
I15
I8
tp8550
g1681
s(I11
I27
I1
tp8551
g5073
s(I10
I1
I1
tp8552
g8031
s(I28
I28
I1
tp8553
F1.0
s(I1
I11
I3
tp8554
g5729
s(I22
I2
I6
tp8555
g1254
s(I4
I16
I5
tp8556
g304
s(I3
I8
I5
tp8557
g2671
s(I21
I21
I5
tp8558
F1.0
s(I12
I7
I3
tp8559
g2930
s(I12
I8
I4
tp8560
g6918
s(I16
I3
I11
tp8561
g221
s(I5
I10
I3
tp8562
g4059
s(I11
I9
I2
tp8563
g6696
s(I15
I6
I7
tp8564
g2708
s(I16
I0
I5
tp8565
g343
s(I1
I5
I4
tp8566
g1643
s(I19
I6
I6
tp8567
g57
s(I16
I21
I2
tp8568
g8274
s(I1
I8
I7
tp8569
g2724
s(I0
I16
I11
tp8570
g343
s(I4
I6
I2
tp8571
g7058
s(I24
I4
I2
tp8572
g3074
s(I9
I9
I1
tp8573
F1.0
s(I4
I19
I9
tp8574
g90
s(I1
I1
I7
tp8575
F1.0
s(I13
I22
I3
tp8576
g1723
s(I21
I12
I8
tp8577
g386
s(I3
I22
I1
tp8578
g2969
s(I21
I7
I1
tp8579
g2233
s(I20
I17
I1
tp8580
g5329
s(I6
I19
I8
tp8581
g57
s(I5
I23
I4
tp8582
g3609
s(I20
I4
I9
tp8583
g3056
s(I14
I0
I5
tp8584
g429
s(I16
I3
I1
tp8585
g4293
s(I1
I26
I2
tp8586
g7481
s(I23
I9
I3
tp8587
g5219
s(I1
I13
I11
tp8588
g615
s(I28
I13
I1
tp8589
g7585
s(I8
I16
I7
tp8590
g611
s(I0
I14
I3
tp8591
g4840
s(I4
I20
I2
tp8592
g5138
s(I7
I18
I5
tp8593
g911
s(I8
I13
I5
tp8594
g1182
s(I7
I25
I4
tp8595
g4809
s(I8
I2
I4
tp8596
g1807
s(I2
I2
I21
tp8597
F1.0
s(I17
I15
I2
tp8598
g6860
s(I2
I4
I1
tp8599
g7105
s(I1
I20
I1
tp8600
g6682
s(I19
I25
I1
tp8601
g7334
s(I22
I9
I7
tp8602
g1886
s(I1
I1
I9
tp8603
F1.0
s(I10
I0
I2
tp8604
g6884
s(I1
I17
I11
tp8605
g764
s(I22
I13
I7
tp8606
g1629
s(I7
I0
I4
tp8607
g94
s(I4
I23
I4
tp8608
g1409
s(I7
I15
I5
tp8609
g4277
s(I9
I24
I1
tp8610
g2496
s(I27
I13
I1
tp8611
g49
s(I14
I1
I8
tp8612
g786
s(I2
I22
I2
tp8613
g1551
s(I0
I20
I5
tp8614
g225
s(I5
I11
I4
tp8615
g1265
s(I11
I22
I3
tp8616
g6409
s(I5
I5
I21
tp8617
F1.0
s(I17
I5
I8
tp8618
g433
s(I1
I6
I5
tp8619
g1995
s(I19
I7
I5
tp8620
g553
s(I1
I9
I4
tp8621
g2837
s(I22
I0
I3
tp8622
g5267
s(I10
I18
I2
tp8623
g7197
s(I4
I18
I10
tp8624
g746
s(I15
I18
I2
tp8625
g5847
s(I3
I23
I2
tp8626
g6215
s(I2
I21
I4
tp8627
g863
s(I6
I15
I1
tp8628
g8334
s(I12
I20
I4
tp8629
g932
s(I11
I4
I6
tp8630
g1326
s(I14
I14
I3
tp8631
F1.0
s(I11
I11
I7
tp8632
F1.0
s(I14
I3
I4
tp8633
g3584
s(I16
I2
I2
tp8634
g7284
s(I19
I8
I1
tp8635
g1316
s(I23
I14
I2
tp8636
g7834
s(I19
I5
I5
tp8637
g889
s(I1
I14
I10
tp8638
g786
s(I0
I24
I5
tp8639
g4092
s(I3
I14
I6
tp8640
g3584
s(I0
I13
I2
tp8641
g1774
s(I7
I19
I6
tp8642
g553
s(I9
I20
I4
tp8643
g2324
s(I8
I12
I2
tp8644
g7633
s(I21
I5
I6
tp8645
g1217
s(I8
I1
I5
tp8646
g2724
s(I12
I23
I6
tp8647
g2121
s(I17
I8
I3
tp8648
g1593
s(I1
I21
I2
tp8649
g7052
s(I5
I15
I1
tp8650
g924
s(I17
I4
I6
tp8651
g116
s(dp8652
(I7
I3
tp8653
(lp8654
I7
aI0
aI3
as(I16
I9
tp8655
(lp8656
I16
as(I19
I4
tp8657
(lp8658
I19
as(I20
I7
tp8659
(lp8660
I20
as(I21
I6
tp8661
(lp8662
I21
as(I8
I5
tp8663
(lp8664
I8
as(I10
I7
tp8665
(lp8666
I10
as(I0
I17
tp8667
(lp8668
I0
as(I14
I1
tp8669
(lp8670
I14
aI12
aI18
aI16
as(I12
I17
tp8671
(lp8672
I12
as(I1
I28
tp8673
(lp8674
I1
as(I15
I4
tp8675
(lp8676
I15
aI11
as(I2
I27
tp8677
(lp8678
I2
as(I3
I2
tp8679
(lp8680
I3
aI0
aI5
aI7
as(I27
I1
tp8681
(lp8682
I27
as(I4
I5
tp8683
(lp8684
I4
as(I5
I24
tp8685
(lp8686
I5
as(I6
I23
tp8687
(lp8688
I6
as(I7
I22
tp8689
(lp8690
I7
as(I18
I10
tp8691
(lp8692
I18
as(I8
I12
tp8693
(lp8694
I8
as(I9
I9
tp8695
(lp8696
I9
as(I10
I14
tp8697
(lp8698
I10
as(I8
I18
tp8699
(lp8700
I8
as(I11
I15
tp8701
(lp8702
I11
as(I9
I19
tp8703
(lp8704
I9
as(I14
I8
tp8705
(lp8706
I14
as(I12
I8
tp8707
(lp8708
I12
as(I1
I21
tp8709
(lp8710
I1
as(I15
I13
tp8711
(lp8712
I15
as(I13
I13
tp8713
(lp8714
I13
as(I2
I18
tp8715
(lp8716
I2
as(I0
I14
tp8717
(lp8718
I0
as(I3
I11
tp8719
(lp8720
I3
as(I1
I15
tp8721
(lp8722
I1
as(I4
I12
tp8723
(lp8724
I4
as(I28
I1
tp8725
(lp8726
I28
as(I2
I12
tp8727
(lp8728
I2
as(I5
I1
tp8729
(lp8730
I5
aI0
aI1
aI2
aI3
aI4
aI6
aI7
aI8
aI9
as(I3
I17
tp8731
(lp8732
I3
as(I16
I7
tp8733
(lp8734
I16
as(I6
I14
tp8735
(lp8736
I6
as(I17
I6
tp8737
(lp8738
I17
as(I7
I15
tp8739
(lp8740
I7
as(I18
I5
tp8741
(lp8742
I18
as(I21
I8
tp8743
(lp8744
I21
as(I22
I7
tp8745
(lp8746
I22
as(I23
I6
tp8747
(lp8748
I23
as(I10
I9
tp8749
(lp8750
I10
as(I11
I4
tp8751
(lp8752
I11
aI15
as(I9
I20
tp8753
(lp8754
I9
as(I12
I7
tp8755
(lp8756
I12
as(I10
I19
tp8757
(lp8758
I10
as(I15
I10
tp8759
(lp8760
I15
as(I13
I6
tp8761
(lp8762
I13
as(I0
I5
tp8763
(lp8764
I0
aI5
as(I24
I2
tp8765
(lp8766
I24
as(I25
I3
tp8767
(lp8768
I25
as(I4
I11
tp8769
(lp8770
I4
as(I2
I7
tp8771
(lp8772
I2
as(I5
I10
tp8773
(lp8774
I5
as(I3
I22
tp8775
(lp8776
I3
as(I6
I1
tp8777
(lp8778
I6
aI0
aI1
aI2
aI3
aI4
aI5
aI7
aI8
aI9
as(I4
I17
tp8779
(lp8780
I4
as(I7
I4
tp8781
(lp8782
I7
as(I5
I20
tp8783
(lp8784
I5
as(I19
I1
tp8785
(lp8786
I19
as(I0
I28
tp8787
(lp8788
I0
as(I1
I25
tp8789
(lp8790
I1
as(I25
I4
tp8791
(lp8792
I25
as(I26
I3
tp8793
(lp8794
I26
as(I4
I24
tp8795
(lp8796
I4
as(I16
I11
tp8797
(lp8798
I16
as(I6
I18
tp8799
(lp8800
I6
as(I19
I6
tp8801
(lp8802
I19
as(I17
I10
tp8803
(lp8804
I17
as(I20
I1
tp8805
(lp8806
I20
as(I21
I4
tp8807
(lp8808
I21
as(I8
I7
tp8809
(lp8810
I8
as(I9
I6
tp8811
(lp8812
I9
as(I10
I5
tp8813
(lp8814
I10
as(I11
I8
tp8815
(lp8816
I11
as(I0
I19
tp8817
(lp8818
I0
as(I14
I7
tp8819
(lp8820
I14
as(I1
I18
tp8821
(lp8822
I1
as(I15
I6
tp8823
(lp8824
I15
as(I2
I25
tp8825
(lp8826
I2
as(I0
I9
tp8827
(lp8828
I0
as(I3
I4
tp8829
(lp8830
I3
as(I4
I7
tp8831
(lp8832
I4
as(I5
I6
tp8833
(lp8834
I5
as(I16
I2
tp8835
(lp8836
I16
aI12
as(I6
I21
tp8837
(lp8838
I6
as(I17
I3
tp8839
(lp8840
I17
as(I7
I16
tp8841
(lp8842
I7
as(I20
I8
tp8843
(lp8844
I20
as(I18
I8
tp8845
(lp8846
I18
as(I8
I14
tp8847
(lp8848
I8
as(I22
I2
tp8849
(lp8850
I22
as(I9
I15
tp8851
(lp8852
I9
as(I10
I12
tp8853
(lp8854
I10
as(I8
I20
tp8855
(lp8856
I8
as(I11
I1
tp8857
(lp8858
I11
as(I9
I17
tp8859
(lp8860
I9
as(I14
I14
tp8861
(lp8862
I14
as(I12
I10
tp8863
(lp8864
I12
as(I13
I11
tp8865
(lp8866
I13
as(I2
I16
tp8867
(lp8868
I2
as(I3
I13
tp8869
(lp8870
I3
as(I1
I13
tp8871
(lp8872
I1
as(I4
I14
tp8873
(lp8874
I4
as(I2
I10
tp8875
(lp8876
I2
as(I5
I15
tp8877
(lp8878
I5
as(I3
I19
tp8879
(lp8880
I3
as(I6
I12
tp8881
(lp8882
I6
as(I4
I20
tp8883
(lp8884
I4
as(I17
I4
tp8885
(lp8886
I17
as(I7
I9
tp8887
(lp8888
I7
as(I18
I3
tp8889
(lp8890
I18
as(I22
I5
tp8891
(lp8892
I22
as(I11
I6
tp8893
(lp8894
I11
as(I12
I1
tp8895
(lp8896
I12
aI14
aI16
aI18
as(I10
I17
tp8897
(lp8898
I10
as(I13
I4
tp8899
(lp8900
I13
as(I0
I7
tp8901
(lp8902
I0
as(I24
I4
tp8903
(lp8904
I24
as(I1
I6
tp8905
(lp8906
I1
as(I25
I1
tp8907
(lp8908
I25
aI24
aI26
as(I2
I5
tp8909
(lp8910
I2
as(I5
I8
tp8911
(lp8912
I5
as(I3
I24
tp8913
(lp8914
I3
as(I6
I7
tp8915
(lp8916
I6
as(I4
I19
tp8917
(lp8918
I4
as(I7
I6
tp8919
(lp8920
I7
as(I5
I18
tp8921
(lp8922
I5
as(I19
I3
tp8923
(lp8924
I19
as(I20
I4
tp8925
(lp8926
I20
as(I8
I2
tp8927
(lp8928
I8
aI0
aI2
aI4
aI6
as(I9
I3
tp8929
(lp8930
I9
as(I14
I2
tp8931
(lp8932
I14
as(I26
I1
tp8933
(lp8934
I26
aI23
aI24
aI25
as(I3
I1
tp8935
(lp8936
I3
aI0
aI1
aI2
aI4
aI5
aI6
aI7
aI8
aI9
as(I16
I13
tp8937
(lp8938
I16
as(I6
I16
tp8939
(lp8940
I6
as(I19
I8
tp8941
(lp8942
I19
as(I17
I8
tp8943
(lp8944
I17
as(I7
I21
tp8945
(lp8946
I7
as(I20
I3
tp8947
(lp8948
I20
as(I21
I2
tp8949
(lp8950
I21
as(I8
I9
tp8951
(lp8952
I8
as(I9
I4
tp8953
(lp8954
I9
as(I10
I3
tp8955
(lp8956
I10
as(I11
I10
tp8957
(lp8958
I11
as(I0
I21
tp8959
(lp8960
I0
as(I14
I5
tp8961
(lp8962
I14
as(I12
I13
tp8963
(lp8964
I12
as(I1
I16
tp8965
(lp8966
I1
as(I13
I16
tp8967
(lp8968
I13
as(I2
I23
tp8969
(lp8970
I2
as(I0
I11
tp8971
(lp8972
I0
as(I3
I6
tp8973
(lp8974
I3
as(I1
I10
tp8975
(lp8976
I1
as(I4
I1
tp8977
(lp8978
I4
aI0
aI1
aI2
aI3
aI5
aI6
aI7
aI8
aI9
as(I5
I4
tp8979
(lp8980
I5
aI0
as(I16
I4
tp8981
(lp8982
I16
as(I6
I11
tp8983
(lp8984
I6
as(I17
I1
tp8985
(lp8986
I17
aI13
as(I7
I18
tp8987
(lp8988
I7
as(I18
I6
tp8989
(lp8990
I18
as(I9
I13
tp8991
(lp8992
I9
as(I23
I5
tp8993
(lp8994
I23
as(I10
I10
tp8995
(lp8996
I10
as(I11
I3
tp8997
(lp8998
I11
as(I14
I12
tp8999
(lp9000
I14
as(I12
I4
tp9001
(lp9002
I12
as(I15
I9
tp9003
(lp9004
I15
as(I13
I9
tp9005
(lp9006
I13
as(I0
I2
tp9007
(lp9008
I0
aI2
aI4
aI6
aI8
as(I3
I15
tp9009
(lp9010
I3
as(I1
I3
tp9011
(lp9012
I1
aI4
aI7
as(I4
I8
tp9013
(lp9014
I4
as(I2
I8
tp9015
(lp9016
I2
as(I5
I13
tp9017
(lp9018
I5
as(I3
I21
tp9019
(lp9020
I3
as(I6
I2
tp9021
(lp9022
I6
aI0
aI2
aI4
aI8
as(I4
I22
tp9023
(lp9024
I4
as(I7
I11
tp9025
(lp9026
I7
as(I5
I23
tp9027
(lp9028
I5
as(I18
I1
tp9029
(lp9030
I18
aI16
aI14
aI12
as(I23
I2
tp9031
(lp9032
I23
aI25
as(I12
I3
tp9033
(lp9034
I12
aI16
as(I13
I2
tp9035
(lp9036
I13
aI17
as(I0
I25
tp9037
(lp9038
I0
as(I1
I4
tp9039
(lp9040
I1
aI5
as(I2
I3
tp9041
(lp9042
I2
aI5
as(I3
I26
tp9043
(lp9044
I3
as(I6
I5
tp9045
(lp9046
I6
as(I5
I16
tp9047
(lp9048
I5
as(I16
I8
tp9049
(lp9050
I16
as(I19
I5
tp9051
(lp9052
I19
as(I20
I6
tp9053
(lp9054
I20
as(I21
I7
tp9055
(lp9056
I21
as(I8
I4
tp9057
(lp9058
I8
as(I9
I1
tp9059
(lp9060
I9
aI0
aI1
aI2
aI3
aI4
aI5
aI6
aI7
aI8
as(I10
I6
tp9061
(lp9062
I10
as(I0
I16
tp9063
(lp9064
I0
as(I12
I16
tp9065
(lp9066
I12
as(I15
I5
tp9067
(lp9068
I15
as(I2
I26
tp9069
(lp9070
I2
as(I3
I3
tp9071
(lp9072
I3
aI0
aI6
as(I4
I4
tp9073
(lp9074
I4
aI0
as(I6
I22
tp9075
(lp9076
I6
as(I19
I10
tp9077
(lp9078
I19
as(I8
I11
tp9079
(lp9080
I8
as(I9
I10
tp9081
(lp9082
I9
as(I10
I1
tp9083
(lp9084
I10
as(I8
I17
tp9085
(lp9086
I8
as(I11
I12
tp9087
(lp9088
I11
as(I0
I23
tp9089
(lp9090
I0
as(I14
I11
tp9091
(lp9092
I14
as(I12
I15
tp9093
(lp9094
I12
as(I1
I22
tp9095
(lp9096
I1
as(I15
I2
tp9097
(lp9098
I15
as(I13
I14
tp9099
(lp9100
I13
as(I2
I21
tp9101
(lp9102
I2
as(I0
I13
tp9103
(lp9104
I0
as(I3
I8
tp9105
(lp9106
I3
as(I1
I8
tp9107
(lp9108
I1
as(I4
I3
tp9109
(lp9110
I4
aI0
aI7
as(I2
I15
tp9111
(lp9112
I2
as(I5
I2
tp9113
(lp9114
I5
aI0
aI2
aI7
as(I16
I6
tp9115
(lp9116
I16
as(I6
I9
tp9117
(lp9118
I6
as(I17
I7
tp9119
(lp9120
I17
as(I7
I12
tp9121
(lp9122
I7
as(I18
I4
tp9123
(lp9124
I18
as(I22
I6
tp9125
(lp9126
I22
as(I10
I8
tp9127
(lp9128
I10
as(I11
I5
tp9129
(lp9130
I11
as(I12
I6
tp9131
(lp9132
I12
as(I10
I18
tp9133
(lp9134
I10
as(I15
I11
tp9135
(lp9136
I15
as(I13
I7
tp9137
(lp9138
I13
as(I0
I4
tp9139
(lp9140
I0
aI4
as(I24
I1
tp9141
(lp9142
I24
aI25
aI26
as(I1
I1
tp9143
(lp9144
I1
aI0
aI2
aI3
aI4
aI5
aI6
aI7
aI8
aI9
as(I4
I10
tp9145
(lp9146
I4
as(I2
I6
tp9147
(lp9148
I2
as(I5
I11
tp9149
(lp9150
I5
as(I3
I23
tp9151
(lp9152
I3
as(I4
I16
tp9153
(lp9154
I4
as(I7
I5
tp9155
(lp9156
I7
as(I5
I21
tp9157
(lp9158
I5
as(I11
I16
tp9159
(lp9160
I11
as(I0
I27
tp9161
(lp9162
I0
as(I1
I26
tp9163
(lp9164
I1
as(I2
I1
tp9165
(lp9166
I2
aI0
aI1
aI3
aI4
aI5
aI6
aI7
aI8
aI9
as(I26
I2
tp9167
(lp9168
I26
as(I7
I2
tp9169
(lp9170
I7
aI0
aI2
aI4
as(I16
I10
tp9171
(lp9172
I16
as(I19
I7
tp9173
(lp9174
I19
as(I17
I11
tp9175
(lp9176
I17
as(I21
I5
tp9177
(lp9178
I21
as(I8
I6
tp9179
(lp9180
I8
as(I9
I7
tp9181
(lp9182
I9
as(I10
I4
tp9183
(lp9184
I10
aI14
as(I11
I9
tp9185
(lp9186
I11
as(I0
I18
tp9187
(lp9188
I0
as(I14
I6
tp9189
(lp9190
I14
as(I1
I19
tp9191
(lp9192
I1
as(I15
I7
tp9193
(lp9194
I15
as(I2
I24
tp9195
(lp9196
I2
as(I0
I8
tp9197
(lp9198
I0
as(I3
I5
tp9199
(lp9200
I3
as(I4
I6
tp9201
(lp9202
I4
as(I5
I7
tp9203
(lp9204
I5
as(I16
I1
tp9205
(lp9206
I16
aI18
aI12
aI14
as(I6
I20
tp9207
(lp9208
I6
as(I17
I12
tp9209
(lp9210
I17
as(I7
I17
tp9211
(lp9212
I7
as(I18
I11
tp9213
(lp9214
I18
as(I8
I13
tp9215
(lp9216
I8
as(I9
I8
tp9217
(lp9218
I9
as(I10
I15
tp9219
(lp9220
I10
as(I8
I19
tp9221
(lp9222
I8
as(I11
I14
tp9223
(lp9224
I11
as(I9
I18
tp9225
(lp9226
I9
as(I14
I9
tp9227
(lp9228
I14
as(I12
I9
tp9229
(lp9230
I12
as(I1
I20
tp9231
(lp9232
I1
as(I15
I12
tp9233
(lp9234
I15
as(I13
I12
tp9235
(lp9236
I13
as(I2
I19
tp9237
(lp9238
I2
as(I0
I15
tp9239
(lp9240
I0
as(I3
I10
tp9241
(lp9242
I3
as(I1
I14
tp9243
(lp9244
I1
as(I4
I13
tp9245
(lp9246
I4
as(I2
I13
tp9247
(lp9248
I2
as(I3
I16
tp9249
(lp9250
I3
as(I6
I15
tp9251
(lp9252
I6
as(I17
I5
tp9253
(lp9254
I17
as(I7
I14
tp9255
(lp9256
I7
as(I18
I2
tp9257
(lp9258
I18
as(I22
I4
tp9259
(lp9260
I22
as(I23
I1
tp9261
(lp9262
I23
aI26
as(I11
I7
tp9263
(lp9264
I11
as(I10
I16
tp9265
(lp9266
I10
as(I13
I5
tp9267
(lp9268
I13
as(I0
I6
tp9269
(lp9270
I0
as(I24
I3
tp9271
(lp9272
I24
as(I1
I7
tp9273
(lp9274
I1
as(I25
I2
tp9275
(lp9276
I25
aI23
as(I2
I4
tp9277
(lp9278
I2
aI6
as(I5
I9
tp9279
(lp9280
I5
as(I3
I25
tp9281
(lp9282
I3
as(I6
I6
tp9283
(lp9284
I6
as(I4
I18
tp9285
(lp9286
I4
as(I7
I7
tp9287
(lp9288
I7
as(I5
I19
tp9289
(lp9290
I5
as(I8
I1
tp9291
(lp9292
I8
aI0
aI1
aI2
aI3
aI4
aI5
aI6
aI7
aI9
as(I11
I18
tp9293
(lp9294
I11
as(I0
I29
tp9295
(lp9296
I0
as(I1
I24
tp9297
(lp9298
I1
as(I4
I25
tp9299
(lp9300
I4
as(I16
I12
tp9301
(lp9302
I16
as(I6
I19
tp9303
(lp9304
I6
as(I19
I9
tp9305
(lp9306
I19
as(I17
I9
tp9307
(lp9308
I17
as(I20
I2
tp9309
(lp9310
I20
as(I21
I3
tp9311
(lp9312
I21
as(I8
I8
tp9313
(lp9314
I8
as(I9
I5
tp9315
(lp9316
I9
as(I10
I2
tp9317
(lp9318
I10
as(I11
I11
tp9319
(lp9320
I11
as(I0
I20
tp9321
(lp9322
I0
as(I14
I4
tp9323
(lp9324
I14
aI10
as(I12
I12
tp9325
(lp9326
I12
as(I1
I17
tp9327
(lp9328
I1
as(I15
I1
tp9329
(lp9330
I15
as(I2
I22
tp9331
(lp9332
I2
as(I0
I10
tp9333
(lp9334
I0
as(I3
I7
tp9335
(lp9336
I3
as(I27
I2
tp9337
(lp9338
I27
as(I1
I11
tp9339
(lp9340
I1
as(I5
I5
tp9341
(lp9342
I5
aI0
as(I16
I3
tp9343
(lp9344
I16
aI12
as(I6
I10
tp9345
(lp9346
I6
as(I17
I2
tp9347
(lp9348
I17
aI13
as(I7
I19
tp9349
(lp9350
I7
as(I20
I9
tp9351
(lp9352
I20
as(I18
I9
tp9353
(lp9354
I18
as(I8
I15
tp9355
(lp9356
I8
as(I22
I3
tp9357
(lp9358
I22
as(I9
I14
tp9359
(lp9360
I9
as(I10
I13
tp9361
(lp9362
I10
as(I8
I21
tp9363
(lp9364
I8
as(I9
I16
tp9365
(lp9366
I9
as(I14
I15
tp9367
(lp9368
I14
as(I12
I11
tp9369
(lp9370
I12
as(I15
I14
tp9371
(lp9372
I15
as(I13
I10
tp9373
(lp9374
I13
as(I2
I17
tp9375
(lp9376
I2
as(I0
I1
tp9377
(lp9378
I0
aI1
aI2
aI3
aI4
aI5
aI6
aI7
aI8
aI9
as(I3
I12
tp9379
(lp9380
I3
as(I1
I12
tp9381
(lp9382
I1
as(I4
I15
tp9383
(lp9384
I4
as(I2
I11
tp9385
(lp9386
I2
as(I5
I14
tp9387
(lp9388
I5
as(I3
I18
tp9389
(lp9390
I3
as(I6
I13
tp9391
(lp9392
I6
as(I4
I21
tp9393
(lp9394
I4
as(I7
I8
tp9395
(lp9396
I7
as(I23
I3
tp9397
(lp9398
I23
as(I12
I2
tp9399
(lp9400
I12
aI16
as(I13
I3
tp9401
(lp9402
I13
as(I0
I24
tp9403
(lp9404
I0
as(I24
I5
tp9405
(lp9406
I24
as(I1
I5
tp9407
(lp9408
I1
as(I2
I2
tp9409
(lp9410
I2
aI0
aI4
aI6
aI8
as(I6
I4
tp9411
(lp9412
I6
aI0
as(I7
I1
tp9413
(lp9414
I7
aI0
aI1
aI2
aI3
aI4
aI5
aI6
aI8
aI9
as(I5
I17
tp9415
(lp9416
I5
as(I19
I2
tp9417
(lp9418
I19
as(I20
I5
tp9419
(lp9420
I20
as(I8
I3
tp9421
(lp9422
I8
as(I9
I2
tp9423
(lp9424
I9
as(I14
I3
tp9425
(lp9426
I14
as(I6
I17
tp9427
(lp9428
I6
as(I7
I20
tp9429
(lp9430
I7
as(I21
I1
tp9431
(lp9432
I21
aI22
as(I8
I10
tp9433
(lp9434
I8
as(I9
I11
tp9435
(lp9436
I9
as(I8
I16
tp9437
(lp9438
I8
as(I11
I13
tp9439
(lp9440
I11
as(I0
I22
tp9441
(lp9442
I0
as(I14
I10
tp9443
(lp9444
I14
as(I12
I14
tp9445
(lp9446
I12
as(I1
I23
tp9447
(lp9448
I1
as(I15
I3
tp9449
(lp9450
I15
as(I13
I15
tp9451
(lp9452
I13
as(I2
I20
tp9453
(lp9454
I2
as(I0
I12
tp9455
(lp9456
I0
as(I3
I9
tp9457
(lp9458
I3
as(I1
I9
tp9459
(lp9460
I1
as(I4
I2
tp9461
(lp9462
I4
aI0
aI2
aI6
aI8
as(I2
I14
tp9463
(lp9464
I2
as(I5
I3
tp9465
(lp9466
I5
aI0
as(I16
I5
tp9467
(lp9468
I16
as(I6
I8
tp9469
(lp9470
I6
as(I7
I13
tp9471
(lp9472
I7
as(I18
I7
tp9473
(lp9474
I18
as(I22
I1
tp9475
(lp9476
I22
aI21
as(I9
I12
tp9477
(lp9478
I9
as(I23
I4
tp9479
(lp9480
I23
as(I10
I11
tp9481
(lp9482
I10
as(I11
I2
tp9483
(lp9484
I11
as(I14
I13
tp9485
(lp9486
I14
as(I12
I5
tp9487
(lp9488
I12
as(I15
I8
tp9489
(lp9490
I15
as(I13
I8
tp9491
(lp9492
I13
as(I0
I3
tp9493
(lp9494
I0
aI3
aI6
as(I3
I14
tp9495
(lp9496
I3
as(I1
I2
tp9497
(lp9498
I1
aI3
aI5
aI7
as(I4
I9
tp9499
(lp9500
I4
as(I2
I9
tp9501
(lp9502
I2
as(I5
I12
tp9503
(lp9504
I5
as(I3
I20
tp9505
(lp9506
I3
as(I6
I3
tp9507
(lp9508
I6
aI0
aI3
as(I4
I23
tp9509
(lp9510
I4
as(I7
I10
tp9511
(lp9512
I7
as(I5
I22
tp9513
(lp9514
I5
as(I13
I1
tp9515
(lp9516
I13
aI17
as(I11
I17
tp9517
(lp9518
I11
as(I0
I26
tp9519
(lp9520
I0
as(I1
I27
tp9521
(lp9522
I1
astp9523
.